; This is a part of the Microsoft Foundation Classes C++ library.
; Copyright (C) 1992-2001 Microsoft Corporation
; All rights reserved.
;
; This source code is only intended as a supplement to the
; Microsoft Foundation Classes Reference and related
; electronic documentation provided with the library.
; See these sources for detailed information regarding the
; Microsoft Foundation Classes product.
LIBRARY MFCM90Ud 
; For Win32 DLLs, only EXPORTs really required.

EXPORTS
 ??0CControlCreationInfoEx@MFC@VisualC@Microsoft@@QEAA@XZ @ 256 NONAME
 ??0CWinFormsControlSite@MFC@VisualC@Microsoft@@QEAA@PEAVCOleControlContainer@@@Z @ 257 NONAME
 ??1CControlCreationInfoEx@MFC@VisualC@Microsoft@@QEAA@XZ @ 259 NONAME
 ??1CWinFormsControlSite@MFC@VisualC@Microsoft@@UEAA@XZ @ 260 NONAME
 ?Create@CWinFormsView@MFC@VisualC@Microsoft@@MEAAHPEB_W0KAEBUtagRECT@@PEAVCWnd@@IPEAUCCreateContext@@@Z @ 262 NONAME
 ?CreateControlCommon@CWinFormsControlSite@MFC@VisualC@Microsoft@@UEAAJPEAVCWnd@@AEBU_GUID@@AEBVCControlCreationInfo@@PEB_WKPEBUtagPOINT@@PEBUtagSIZE@@IPEAVCFile@@HPEA_W@Z @ 263 NONAME
 ?CreateOrLoad@CWinFormsControlSite@MFC@VisualC@Microsoft@@UEAAJAEBVCControlCreationInfo@@@Z @ 264 NONAME
 ?DoVerb@CWinFormsControlSite@MFC@VisualC@Microsoft@@UEAAJJPEAUtagMSG@@@Z @ 265 NONAME
 ?GetMessageMap@CWinFormsView@MFC@VisualC@Microsoft@@MEBAPEBUAFX_MSGMAP@@XZ @ 268 NONAME
 ?GetProperty@CWinFormsControlSite@MFC@VisualC@Microsoft@@UEBAXJGPEAX@Z @ 269 NONAME
 ?GetRuntimeClass@CWinFormsView@MFC@VisualC@Microsoft@@UEBAPEAUCRuntimeClass@@XZ @ 270 NONAME
 ?GetStyle@CWinFormsControlSite@MFC@VisualC@Microsoft@@UEBAKXZ @ 271 NONAME
 ?GetThisClass@CWinFormsView@MFC@VisualC@Microsoft@@SAPEAUCRuntimeClass@@XZ @ 272 NONAME
 ?GetThisMessageMap@CWinFormsView@MFC@VisualC@Microsoft@@KAPEBUAFX_MSGMAP@@XZ @ 273 NONAME
 ?OnActivateView@CWinFormsView@MFC@VisualC@Microsoft@@MEAAXHPEAVCView@@0@Z @ 275 NONAME
 ?OnCmdMsg@CWinFormsView@MFC@VisualC@Microsoft@@MEAAHIHPEAXPEAUAFX_CMDHANDLERINFO@@@Z @ 276 NONAME
 ?OnHandleCreated@CWinFormsControlSite@MFC@VisualC@Microsoft@@UEAAXU?$gcroot@PE$AAVObject@System@@@@U?$gcroot@PE$AAVEventArgs@System@@@@@Z @ 277 NONAME
 ?OnHandleDestroyed@CWinFormsControlSite@MFC@VisualC@Microsoft@@UEAAXU?$gcroot@PE$AAVObject@System@@@@U?$gcroot@PE$AAVEventArgs@System@@@@@Z @ 278 NONAME
 ?OnInitialUpdate@CWinFormsView@MFC@VisualC@Microsoft@@MEAAXXZ @ 279 NONAME
 ?OnSize@CWinFormsView@MFC@VisualC@Microsoft@@IEAAXIHH@Z @ 280 NONAME
 ?OnUpdate@CWinFormsView@MFC@VisualC@Microsoft@@MEAAXPEAVCView@@_JPEAVCObject@@@Z @ 281 NONAME
 ?PreCreateWindow@CWinFormsView@MFC@VisualC@Microsoft@@MEAAHAEAUtagCREATESTRUCTW@@@Z @ 282 NONAME
 ?PreTranslateMessage@CWinFormsView@MFC@VisualC@Microsoft@@MEAAHPEAUtagMSG@@@Z @ 283 NONAME
 ?SetControlEnabled@CWinFormsControlSite@MFC@VisualC@Microsoft@@QEAAX_N@Z @ 284 NONAME
 ?SetPropertyV@CWinFormsControlSite@MFC@VisualC@Microsoft@@UEAAXJGPEAD@Z @ 285 NONAME
 ?OnHandleCreatedHandler@CWinFormsControlSite@MFC@VisualC@Microsoft@@QEAAXXZ @ 286 NONAME
 InitMfcmDll @ 290 NONAME
 AfxmEnsureManagedInitialization @ 291 NONAME
 AfxmReleaseManagedReferences @ 292
