; This is a part of the Microsoft Foundation Classes C++ library.
; Copyright (C) 1992-2001 Microsoft Corporation 
; All rights reserved.
;
; This source code is only intended as a supplement to the
; Microsoft Foundation Classes Reference and related
; electronic documentation provided with the library.
; See these sources for detailed information regarding the
; Microsoft Foundation Classes product.
 
LIBRARY mfc90ud.dll 
; For Win32 DLLs, only EXPORTs really required.

EXPORTS
 ??$CopyElements@VCOleVariant@@@@YAXPEAVCOleVariant@@PEBV0@_J@Z @ 256 NONAME
 ??$DumpElements@VCOleVariant@@@@YAXAEAVCDumpContext@@PEBVCOleVariant@@_J@Z @ 257 NONAME
 ??$HashKey@AEBUtagVARIANT@@@@YAIAEBUtagVARIANT@@@Z @ 258 NONAME
 ??$HashKey@PEB_W@@YAIPEB_W@Z @ 259 NONAME
 ??$HashKey@PEBD@@YAIPEBD@Z @ 260 NONAME
 ??$HashKey@VCComBSTR@ATL@@@@YAIVCComBSTR@ATL@@@Z @ 261 NONAME
 ??$SerializeElements@V?$CStringT@_WV?$StrTraitMFC_DLL@_WV?$ChTraitsCRT@_W@ATL@@@@@ATL@@@@YAXAEAVCArchive@@PEAV?$CStringT@_WV?$StrTraitMFC_DLL@_WV?$ChTraitsCRT@_W@ATL@@@@@ATL@@_J@Z @ 262 NONAME
 ??$SerializeElements@V?$CStringT@DV?$StrTraitMFC_DLL@DV?$ChTraitsCRT@D@ATL@@@@@ATL@@@@YAXAEAVCArchive@@PEAV?$CStringT@DV?$StrTraitMFC_DLL@DV?$ChTraitsCRT@D@ATL@@@@@ATL@@_J@Z @ 263 NONAME
 ??$SerializeElements@VCComBSTR@ATL@@@@YAXAEAVCArchive@@PEAVCComBSTR@ATL@@_J@Z @ 264 NONAME
 ??$SerializeElements@VCOleVariant@@@@YAXAEAVCArchive@@PEAVCOleVariant@@_J@Z @ 265 NONAME
 ??_0COleCurrency@@QEAAAEBV0@J@Z @ 266 NONAME
 ??_U@YAPEAX_K@Z @ 267 NONAME
 ??_U@YAPEAX_KHPEBDH@Z @ 268 NONAME
 ??_U@YAPEAX_KPEBDH@Z @ 269 NONAME
 ??_V@YAXPEAX@Z @ 270 NONAME
 ??_V@YAXPEAXHPEBDH@Z @ 271 NONAME
 ??_V@YAXPEAXPEBDH@Z @ 272 NONAME
 ??0?$CSimpleStringT@_W$00@ATL@@QEAA@AEBV?$CSimpleStringT@_W$0A@@1@@Z @ 273 NONAME
 ??0?$CSimpleStringT@_W$00@ATL@@QEAA@AEBV01@@Z @ 274 NONAME
 ??0?$CSimpleStringT@_W$00@ATL@@QEAA@PEAUIAtlStringMgr@1@@Z @ 275 NONAME
 ??0?$CSimpleStringT@_W$00@ATL@@QEAA@PEB_WHPEAUIAtlStringMgr@1@@Z @ 276 NONAME
 ??0?$CSimpleStringT@_W$00@ATL@@QEAA@PEB_WPEAUIAtlStringMgr@1@@Z @ 277 NONAME
 ??0?$CSimpleStringT@D$00@ATL@@QEAA@AEBV?$CSimpleStringT@D$0A@@1@@Z @ 278 NONAME
 ??0?$CSimpleStringT@D$00@ATL@@QEAA@AEBV01@@Z @ 279 NONAME
 ??0?$CSimpleStringT@D$00@ATL@@QEAA@PEAUIAtlStringMgr@1@@Z @ 280 NONAME
 ??0?$CSimpleStringT@D$00@ATL@@QEAA@PEBDHPEAUIAtlStringMgr@1@@Z @ 281 NONAME
 ??0?$CSimpleStringT@D$00@ATL@@QEAA@PEBDPEAUIAtlStringMgr@1@@Z @ 282 NONAME
 ??0?$CStringT@_WV?$StrTraitMFC_DLL@_WV?$ChTraitsCRT@_W@ATL@@@@@ATL@@QEAA@_WH@Z @ 283 NONAME
 ??0?$CStringT@_WV?$StrTraitMFC_DLL@_WV?$ChTraitsCRT@_W@ATL@@@@@ATL@@QEAA@AEBUtagVARIANT@@@Z @ 284 NONAME
 ??0?$CStringT@_WV?$StrTraitMFC_DLL@_WV?$ChTraitsCRT@_W@ATL@@@@@ATL@@QEAA@AEBUtagVARIANT@@PEAUIAtlStringMgr@1@@Z @ 285 NONAME
 ??0?$CStringT@_WV?$StrTraitMFC_DLL@_WV?$ChTraitsCRT@_W@ATL@@@@@ATL@@QEAA@AEBV01@@Z @ 286 NONAME
 ??0?$CStringT@_WV?$StrTraitMFC_DLL@_WV?$ChTraitsCRT@_W@ATL@@@@@ATL@@QEAA@DH@Z @ 287 NONAME
 ??0?$CStringT@_WV?$StrTraitMFC_DLL@_WV?$ChTraitsCRT@_W@ATL@@@@@ATL@@QEAA@PEA_W@Z @ 288 NONAME
 ??0?$CStringT@_WV?$StrTraitMFC_DLL@_WV?$ChTraitsCRT@_W@ATL@@@@@ATL@@QEAA@PEAD@Z @ 289 NONAME
 ??0?$CStringT@_WV?$StrTraitMFC_DLL@_WV?$ChTraitsCRT@_W@ATL@@@@@ATL@@QEAA@PEAE@Z @ 290 NONAME
 ??0?$CStringT@_WV?$StrTraitMFC_DLL@_WV?$ChTraitsCRT@_W@ATL@@@@@ATL@@QEAA@PEAUIAtlStringMgr@1@@Z @ 291 NONAME
 ??0?$CStringT@_WV?$StrTraitMFC_DLL@_WV?$ChTraitsCRT@_W@ATL@@@@@ATL@@QEAA@PEB_W@Z @ 292 NONAME
 ??0?$CStringT@_WV?$StrTraitMFC_DLL@_WV?$ChTraitsCRT@_W@ATL@@@@@ATL@@QEAA@PEB_WH@Z @ 293 NONAME
 ??0?$CStringT@_WV?$StrTraitMFC_DLL@_WV?$ChTraitsCRT@_W@ATL@@@@@ATL@@QEAA@PEB_WHPEAUIAtlStringMgr@1@@Z @ 294 NONAME
 ??0?$CStringT@_WV?$StrTraitMFC_DLL@_WV?$ChTraitsCRT@_W@ATL@@@@@ATL@@QEAA@PEB_WPEAUIAtlStringMgr@1@@Z @ 295 NONAME
 ??0?$CStringT@_WV?$StrTraitMFC_DLL@_WV?$ChTraitsCRT@_W@ATL@@@@@ATL@@QEAA@PEBD@Z @ 296 NONAME
 ??0?$CStringT@_WV?$StrTraitMFC_DLL@_WV?$ChTraitsCRT@_W@ATL@@@@@ATL@@QEAA@PEBDH@Z @ 297 NONAME
 ??0?$CStringT@_WV?$StrTraitMFC_DLL@_WV?$ChTraitsCRT@_W@ATL@@@@@ATL@@QEAA@PEBDHPEAUIAtlStringMgr@1@@Z @ 298 NONAME
 ??0?$CStringT@_WV?$StrTraitMFC_DLL@_WV?$ChTraitsCRT@_W@ATL@@@@@ATL@@QEAA@PEBDPEAUIAtlStringMgr@1@@Z @ 299 NONAME
 ??0?$CStringT@_WV?$StrTraitMFC_DLL@_WV?$ChTraitsCRT@_W@ATL@@@@@ATL@@QEAA@PEBE@Z @ 300 NONAME
 ??0?$CStringT@_WV?$StrTraitMFC_DLL@_WV?$ChTraitsCRT@_W@ATL@@@@@ATL@@QEAA@PEBEPEAUIAtlStringMgr@1@@Z @ 301 NONAME
 ??0?$CStringT@_WV?$StrTraitMFC_DLL@_WV?$ChTraitsCRT@_W@ATL@@@@@ATL@@QEAA@XZ @ 302 NONAME
 ??0?$CStringT@DV?$StrTraitMFC_DLL@DV?$ChTraitsCRT@D@ATL@@@@@ATL@@QEAA@_WH@Z @ 303 NONAME
 ??0?$CStringT@DV?$StrTraitMFC_DLL@DV?$ChTraitsCRT@D@ATL@@@@@ATL@@QEAA@AEBUtagVARIANT@@@Z @ 304 NONAME
 ??0?$CStringT@DV?$StrTraitMFC_DLL@DV?$ChTraitsCRT@D@ATL@@@@@ATL@@QEAA@AEBUtagVARIANT@@PEAUIAtlStringMgr@1@@Z @ 305 NONAME
 ??0?$CStringT@DV?$StrTraitMFC_DLL@DV?$ChTraitsCRT@D@ATL@@@@@ATL@@QEAA@AEBV01@@Z @ 306 NONAME
 ??0?$CStringT@DV?$StrTraitMFC_DLL@DV?$ChTraitsCRT@D@ATL@@@@@ATL@@QEAA@DH@Z @ 307 NONAME
 ??0?$CStringT@DV?$StrTraitMFC_DLL@DV?$ChTraitsCRT@D@ATL@@@@@ATL@@QEAA@PEA_W@Z @ 308 NONAME
 ??0?$CStringT@DV?$StrTraitMFC_DLL@DV?$ChTraitsCRT@D@ATL@@@@@ATL@@QEAA@PEAD@Z @ 309 NONAME
 ??0?$CStringT@DV?$StrTraitMFC_DLL@DV?$ChTraitsCRT@D@ATL@@@@@ATL@@QEAA@PEAE@Z @ 310 NONAME
 ??0?$CStringT@DV?$StrTraitMFC_DLL@DV?$ChTraitsCRT@D@ATL@@@@@ATL@@QEAA@PEAUIAtlStringMgr@1@@Z @ 311 NONAME
 ??0?$CStringT@DV?$StrTraitMFC_DLL@DV?$ChTraitsCRT@D@ATL@@@@@ATL@@QEAA@PEB_W@Z @ 312 NONAME
 ??0?$CStringT@DV?$StrTraitMFC_DLL@DV?$ChTraitsCRT@D@ATL@@@@@ATL@@QEAA@PEB_WH@Z @ 313 NONAME
 ??0?$CStringT@DV?$StrTraitMFC_DLL@DV?$ChTraitsCRT@D@ATL@@@@@ATL@@QEAA@PEB_WHPEAUIAtlStringMgr@1@@Z @ 314 NONAME
 ??0?$CStringT@DV?$StrTraitMFC_DLL@DV?$ChTraitsCRT@D@ATL@@@@@ATL@@QEAA@PEB_WPEAUIAtlStringMgr@1@@Z @ 315 NONAME
 ??0?$CStringT@DV?$StrTraitMFC_DLL@DV?$ChTraitsCRT@D@ATL@@@@@ATL@@QEAA@PEBD@Z @ 316 NONAME
 ??0?$CStringT@DV?$StrTraitMFC_DLL@DV?$ChTraitsCRT@D@ATL@@@@@ATL@@QEAA@PEBDH@Z @ 317 NONAME
 ??0?$CStringT@DV?$StrTraitMFC_DLL@DV?$ChTraitsCRT@D@ATL@@@@@ATL@@QEAA@PEBDHPEAUIAtlStringMgr@1@@Z @ 318 NONAME
 ??0?$CStringT@DV?$StrTraitMFC_DLL@DV?$ChTraitsCRT@D@ATL@@@@@ATL@@QEAA@PEBDPEAUIAtlStringMgr@1@@Z @ 319 NONAME
 ??0?$CStringT@DV?$StrTraitMFC_DLL@DV?$ChTraitsCRT@D@ATL@@@@@ATL@@QEAA@PEBE@Z @ 320 NONAME
 ??0?$CStringT@DV?$StrTraitMFC_DLL@DV?$ChTraitsCRT@D@ATL@@@@@ATL@@QEAA@PEBEPEAUIAtlStringMgr@1@@Z @ 321 NONAME
 ??0?$CStringT@DV?$StrTraitMFC_DLL@DV?$ChTraitsCRT@D@ATL@@@@@ATL@@QEAA@XZ @ 322 NONAME
 ??0_AFX_CHECKLIST_STATE@@QEAA@XZ @ 323 NONAME
 ??0_AFX_COLOR_STATE@@QEAA@XZ @ 324 NONAME
 ??0_AFX_DEBUG_STATE@@QEAA@XZ @ 325 NONAME
 ??0_AFX_EDIT_STATE@@QEAA@XZ @ 326 NONAME
 ??0_AFX_OLE_STATE@@QEAA@XZ @ 327 NONAME
 ??0_AFX_THREAD_STATE@@QEAA@XZ @ 328 NONAME
 ??0_AFXCTL_AMBIENT_CACHE@@QEAA@XZ @ 329 NONAME
 ??0_AFXCTL_UIACTIVE_INFO@@QEAA@PEAUHMENU__@@PEAUIOleInPlaceFrame@@@Z @ 330 NONAME
 ??0AFX_DDPDATA@@QEAA@PEAXHH0IPEB_W@Z @ 331 NONAME
 ??0AFX_EXCEPTION_LINK@@QEAA@XZ @ 332 NONAME
 ??0AFX_MAINTAIN_STATE@@QEAA@PEAVAFX_MODULE_STATE@@@Z @ 333 NONAME
 ??0AFX_MAINTAIN_STATE2@@QEAA@PEAVAFX_MODULE_STATE@@@Z @ 334 NONAME
 ??0AFX_MODULE_STATE@@QEAA@HP6A_JPEAUHWND__@@I_K_J@ZKH@Z @ 335 NONAME
 ??0AFX_MODULE_THREAD_STATE@@QEAA@XZ @ 336 NONAME
 ??0CAnimateCtrl@@QEAA@XZ @ 337 NONAME
 ??0CArchive@@IEAA@AEBV0@@Z @ 338 NONAME
 ??0CArchive@@QEAA@PEAVCFile@@IHPEAX@Z @ 339 NONAME
 ??0CArchiveException@@QEAA@HPEB_W@Z @ 340 NONAME
 ??0CArchivePropExchange@@QEAA@AEAVCArchive@@@Z @ 341 NONAME
 ??0CArchiveStream@@QEAA@PEAVCArchive@@@Z @ 342 NONAME
 ??0CAsyncMonikerFile@@QEAA@XZ @ 343 NONAME
 ??0CAsyncPropExchange@@QEAA@K@Z @ 344 NONAME
 ??0CAsyncSocket@@QEAA@XZ @ 345 NONAME
 ??0CBitmap@@QEAA@XZ @ 346 NONAME
 ??0CBitmapButton@@QEAA@XZ @ 347 NONAME
 ??0CBlobProperty@@QEAA@PEAX@Z @ 348 NONAME
 ??0CBrowserControlSite@@QEAA@PEAVCOleControlContainer@@PEAVCDHtmlDialog@@@Z @ 349 NONAME
 ??0CBrush@@QEAA@HK@Z @ 350 NONAME
 ??0CBrush@@QEAA@K@Z @ 351 NONAME
 ??0CBrush@@QEAA@PEAVCBitmap@@@Z @ 352 NONAME
 ??0CBrush@@QEAA@XZ @ 353 NONAME
 ??0CButton@@QEAA@XZ @ 354 NONAME
 ??0CByteArray@@QEAA@XZ @ 355 NONAME
 ??0CCachedDataPathProperty@@QEAA@PEAVCOleControl@@@Z @ 356 NONAME
 ??0CCachedDataPathProperty@@QEAA@PEB_WPEAVCOleControl@@@Z @ 357 NONAME
 ??0CCheckListBox@@QEAA@XZ @ 358 NONAME
 ??0CChevronOwnerDrawMenu@@QEAA@XZ @ 359 NONAME
 ??0CClientDC@@QEAA@PEAVCWnd@@@Z @ 360 NONAME
 ??0CCmdTarget@@QEAA@XZ @ 361 NONAME
 ??0CCmdUI@@QEAA@XZ @ 362 NONAME
 ??0CColorDialog@@QEAA@KKPEAVCWnd@@@Z @ 363 NONAME
 ??0CComboBox@@QEAA@XZ @ 364 NONAME
 ??0CComboBoxEx@@QEAA@XZ @ 365 NONAME
 ??0CCommandLineInfo@@QEAA@XZ @ 366 NONAME
 ??0CCommonDialog@@QEAA@PEAVCWnd@@@Z @ 367 NONAME
 ??0CConnectionPoint@@QEAA@XZ @ 368 NONAME
 ??0CControlBar@@IEAA@XZ @ 369 NONAME
 ??0CControlBarInfo@@QEAA@XZ @ 370 NONAME
 ??0CControlCreationInfo@@QEAA@XZ @ 371 NONAME
 ??0CControlDataSource@COleControl@@QEAA@PEAV1@@Z @ 372 NONAME
 ??0CControlFrameWnd@@QEAA@PEAVCOleControl@@@Z @ 373 NONAME
 ??0CControlSiteFactoryMgr@@QEAA@XZ @ 374 NONAME
 ??0CCreateContext@@QEAA@XZ @ 375 NONAME
 ??0CCriticalSection@@QEAA@XZ @ 376 NONAME
 ??0CCtrlView@@QEAA@PEB_WK@Z @ 377 NONAME
 ??0CDatabase@@QEAA@XZ @ 378 NONAME
 ??0CDataBoundProperty@@QEAA@PEAV0@JG@Z @ 379 NONAME
 ??0CDataExchange@@QEAA@PEAVCWnd@@H@Z @ 380 NONAME
 ??0CDataPathProperty@@QEAA@PEAVCOleControl@@@Z @ 381 NONAME
 ??0CDataPathProperty@@QEAA@PEB_WPEAVCOleControl@@@Z @ 382 NONAME
 ??0CDataSourceControl@@QEAA@PEAVCOleControlSite@@@Z @ 383 NONAME
 ??0CDateTimeCtrl@@QEAA@XZ @ 384 NONAME
 ??0CDBException@@QEAA@F@Z @ 385 NONAME
 ??0CDBVariant@@QEAA@XZ @ 386 NONAME
 ??0CDC@@QEAA@XZ @ 387 NONAME
 ??0CDHtmlControlSink@@QEAA@PEAUIUnknown@@PEAVCDHtmlSinkHandler@@PEB_W_K@Z @ 388 NONAME
 ??0CDHtmlControlSink@@QEAA@XZ @ 389 NONAME
 ??0CDHtmlDialog@@QEAA@IIPEAVCWnd@@@Z @ 390 NONAME
 ??0CDHtmlDialog@@QEAA@PEB_W0PEAVCWnd@@@Z @ 391 NONAME
 ??0CDHtmlDialog@@QEAA@XZ @ 392 NONAME
 ??0CDHtmlElementEventSink@@QEAA@PEAVCDHtmlEventSink@@PEAUIDispatch@@@Z @ 393 NONAME
 ??0CDialog@@QEAA@IPEAVCWnd@@@Z @ 394 NONAME
 ??0CDialog@@QEAA@PEB_WPEAVCWnd@@@Z @ 395 NONAME
 ??0CDialog@@QEAA@XZ @ 396 NONAME
 ??0CDialogBar@@QEAA@XZ @ 397 NONAME
 ??0CDialogTemplate@@QEAA@PEAX@Z @ 398 NONAME
 ??0CDialogTemplate@@QEAA@PEBUDLGTEMPLATE@@@Z @ 399 NONAME
 ??0CDocItem@@IEAA@XZ @ 400 NONAME
 ??0CDockBar@@QEAA@H@Z @ 401 NONAME
 ??0CDockContext@@QEAA@PEAVCControlBar@@@Z @ 402 NONAME
 ??0CDockState@@QEAA@XZ @ 403 NONAME
 ??0CDocManager@@QEAA@XZ @ 404 NONAME
 ??0CDocObjectServer@@QEAA@PEAVCOleServerDoc@@PEAUIOleDocumentSite@@@Z @ 405 NONAME
 ??0CDocObjectServerItem@@IEAA@PEAVCOleServerDoc@@H@Z @ 406 NONAME
 ??0CDocTemplate@@IEAA@IPEAUCRuntimeClass@@00@Z @ 407 NONAME
 ??0CDocument@@QEAA@XZ @ 408 NONAME
 ??0CDragListBox@@QEAA@XZ @ 409 NONAME
 ??0CDumpContext@@IEAA@AEBV0@@Z @ 410 NONAME
 ??0CDumpContext@@QEAA@PEAVCFile@@@Z @ 411 NONAME
 ??0CDWordArray@@QEAA@XZ @ 412 NONAME
 ??0CDynLinkLibrary@@QEAA@AEAUAFX_EXTENSION_MODULE@@H@Z @ 413 NONAME
 ??0CDynLinkLibrary@@QEAA@PEAUHINSTANCE__@@0@Z @ 414 NONAME
 ??0CEdit@@QEAA@XZ @ 415 NONAME
 ??0CEditView@@QEAA@XZ @ 416 NONAME
 ??0CEnumArray@@QEAA@_KPEBXIH@Z @ 417 NONAME
 ??0CEnumConnections@@QEAA@PEBXI@Z @ 418 NONAME
 ??0CEnumConnPoints@@QEAA@PEBXI@Z @ 419 NONAME
 ??0CEnumFormatEtc@@QEAA@XZ @ 420 NONAME
 ??0CEvent@@QEAA@HHPEB_WPEAU_SECURITY_ATTRIBUTES@@@Z @ 421 NONAME
 ??0CException@@QEAA@H@Z @ 422 NONAME
 ??0CException@@QEAA@XZ @ 423 NONAME
 ??0CFieldExchange@@QEAA@IPEAVCRecordset@@PEAX@Z @ 424 NONAME
 ??0CFile@@QEAA@PEAX@Z @ 425 NONAME
 ??0CFile@@QEAA@PEB_WI@Z @ 426 NONAME
 ??0CFile@@QEAA@XZ @ 427 NONAME
 ??0CFileDialog@@QEAA@HPEB_W0K0PEAVCWnd@@KH@Z @ 428 NONAME
 ??0CFileException@@QEAA@HJPEB_W@Z @ 429 NONAME
 ??0CFileFind@@QEAA@XZ @ 430 NONAME
 ??0CFindReplaceDialog@@QEAA@XZ @ 431 NONAME
 ??0CFixedAlloc@@QEAA@II@Z @ 432 NONAME
 ??0CFixedAllocNoSync@@QEAA@II@Z @ 433 NONAME
 ??0CFont@@QEAA@XZ @ 434 NONAME
 ??0CFontDialog@@QEAA@AEBU_charformatw@@KPEAVCDC@@PEAVCWnd@@@Z @ 435 NONAME
 ??0CFontDialog@@QEAA@PEAUtagLOGFONTW@@KPEAVCDC@@PEAVCWnd@@@Z @ 436 NONAME
 ??0CFontHolder@@QEAA@PEAUIPropertyNotifySink@@@Z @ 437 NONAME
 ??0CFormView@@IEAA@I@Z @ 438 NONAME
 ??0CFormView@@IEAA@PEB_W@Z @ 439 NONAME
 ??0CFrameWnd@@QEAA@XZ @ 440 NONAME
 ??0CFtpConnection@@QEAA@PEAVCInternetSession@@PEAXPEB_W_K@Z @ 441 NONAME
 ??0CFtpConnection@@QEAA@PEAVCInternetSession@@PEB_W11_KGH@Z @ 442 NONAME
 ??0CFtpFileFind@@QEAA@PEAVCFtpConnection@@_K@Z @ 443 NONAME
 ??0CGdiObject@@QEAA@XZ @ 444 NONAME
 ??0CGopherConnection@@QEAA@PEAVCInternetSession@@PEAXPEB_W_K@Z @ 445 NONAME
 ??0CGopherConnection@@QEAA@PEAVCInternetSession@@PEB_W11_KG@Z @ 446 NONAME
 ??0CGopherFile@@IEAA@PEAX0PEB_WK_K@Z @ 447 NONAME
 ??0CGopherFile@@IEAA@PEAXAEAVCGopherLocator@@PEAVCGopherConnection@@@Z @ 448 NONAME
 ??0CGopherFileFind@@QEAA@PEAVCGopherConnection@@_K@Z @ 449 NONAME
 ??0CGopherLocator@@AEAA@PEB_WK@Z @ 450 NONAME
 ??0CGopherLocator@@QEAA@AEBV0@@Z @ 451 NONAME
 ??0CHandleMap@@QEAA@PEAUCRuntimeClass@@P6AXPEAVCObject@@@Z2_KH@Z @ 452 NONAME
 ??0CHeaderCtrl@@QEAA@XZ @ 453 NONAME
 ??0CHotKeyCtrl@@QEAA@XZ @ 454 NONAME
 ??0CHtmlControlSite@@QEAA@PEAVCOleControlContainer@@@Z @ 455 NONAME
 ??0CHtmlEditCtrl@@QEAA@XZ @ 456 NONAME
 ??0CHtmlEditDoc@@QEAA@XZ @ 457 NONAME
 ??0CHtmlEditView@@QEAA@XZ @ 458 NONAME
 ??0CHtmlView@@IEAA@XZ @ 459 NONAME
 ??0CHttpConnection@@QEAA@PEAVCInternetSession@@PEAXPEB_W_K@Z @ 460 NONAME
 ??0CHttpConnection@@QEAA@PEAVCInternetSession@@PEB_WG11_K@Z @ 461 NONAME
 ??0CHttpConnection@@QEAA@PEAVCInternetSession@@PEB_WKG11_K@Z @ 462 NONAME
 ??0CHttpFile@@IEAA@PEAX0PEB_W11_K@Z @ 463 NONAME
 ??0CHttpFile@@IEAA@PEAXPEB_W1PEAVCHttpConnection@@@Z @ 464 NONAME
 ??0CImageList@@QEAA@XZ @ 465 NONAME
 ??0CInternetConnection@@QEAA@PEAVCInternetSession@@PEB_WG_K@Z @ 466 NONAME
 ??0CInternetException@@QEAA@K@Z @ 467 NONAME
 ??0CInternetFile@@IEAA@PEAX0PEB_W1_KH@Z @ 468 NONAME
 ??0CInternetFile@@IEAA@PEAXPEB_WPEAVCInternetConnection@@H@Z @ 469 NONAME
 ??0CInternetSession@@QEAA@PEB_W_KK00K@Z @ 470 NONAME
 ??0CInvalidArgException@@QEAA@HI@Z @ 471 NONAME
 ??0CInvalidArgException@@QEAA@XZ @ 472 NONAME
 ??0CIPAddressCtrl@@QEAA@XZ @ 473 NONAME
 ??0CListBox@@QEAA@XZ @ 474 NONAME
 ??0CListCtrl@@QEAA@XZ @ 475 NONAME
 ??0CListView@@QEAA@XZ @ 476 NONAME
 ??0CLongBinary@@QEAA@XZ @ 477 NONAME
 ??0CMapPtrToPtr@@QEAA@_J@Z @ 478 NONAME
 ??0CMapPtrToWord@@QEAA@_J@Z @ 479 NONAME
 ??0CMapStringToOb@@QEAA@_J@Z @ 480 NONAME
 ??0CMapStringToPtr@@QEAA@_J@Z @ 481 NONAME
 ??0CMapStringToString@@QEAA@_J@Z @ 482 NONAME
 ??0CMapWordToOb@@QEAA@_J@Z @ 483 NONAME
 ??0CMapWordToPtr@@QEAA@_J@Z @ 484 NONAME
 ??0CMDIChildWnd@@QEAA@XZ @ 485 NONAME
 ??0CMDIFrameWnd@@QEAA@XZ @ 486 NONAME
 ??0CMemFile@@QEAA@I@Z @ 487 NONAME
 ??0CMemFile@@QEAA@PEAEII@Z @ 488 NONAME
 ??0CMemoryException@@QEAA@HI@Z @ 489 NONAME
 ??0CMemoryException@@QEAA@XZ @ 490 NONAME
 ??0CMemoryState@@QEAA@XZ @ 491 NONAME
 ??0CMenu@@QEAA@XZ @ 492 NONAME
 ??0CMetaFileDC@@QEAA@XZ @ 493 NONAME
 ??0CMiniDockFrameWnd@@QEAA@XZ @ 494 NONAME
 ??0CMiniFrameWnd@@QEAA@XZ @ 495 NONAME
 ??0CMonikerFile@@QEAA@XZ @ 496 NONAME
 ??0CMonthCalCtrl@@QEAA@XZ @ 497 NONAME
 ??0CMultiDocTemplate@@QEAA@IPEAUCRuntimeClass@@00@Z @ 498 NONAME
 ??0CMultiLock@@QEAA@QEAPEAVCSyncObject@@KH@Z @ 499 NONAME
 ??0CMultiPageDHtmlDialog@@QEAA@IIPEAVCWnd@@@Z @ 500 NONAME
 ??0CMultiPageDHtmlDialog@@QEAA@PEB_W0PEAVCWnd@@@Z @ 501 NONAME
 ??0CMultiPageDHtmlDialog@@QEAA@XZ @ 502 NONAME
 ??0CMutex@@QEAA@HPEB_WPEAU_SECURITY_ATTRIBUTES@@@Z @ 503 NONAME
 ??0CNotSupportedException@@QEAA@HI@Z @ 504 NONAME
 ??0CNotSupportedException@@QEAA@XZ @ 505 NONAME
 ??0CObArray@@QEAA@XZ @ 506 NONAME
 ??0CObject@@IEAA@XZ @ 507 NONAME
 ??0CObList@@QEAA@_J@Z @ 508 NONAME
 ??0COleBusyDialog@@QEAA@PEAUHTASK__@@HKPEAVCWnd@@@Z @ 509 NONAME
 ??0COleChangeIconDialog@@QEAA@PEAVCOleClientItem@@KPEAVCWnd@@@Z @ 510 NONAME
 ??0COleChangeSourceDialog@@QEAA@PEAVCOleClientItem@@PEAVCWnd@@@Z @ 511 NONAME
 ??0COleClientItem@@QEAA@PEAVCOleDocument@@@Z @ 512 NONAME
 ??0COleCmdUI@@QEAA@PEAU_tagOLECMD@@KPEBU_GUID@@@Z @ 513 NONAME
 ??0COleCntrFrameWnd@@QEAA@PEAVCOleIPFrameWnd@@@Z @ 514 NONAME
 ??0COleControl@@QEAA@XZ @ 515 NONAME
 ??0COleControlContainer@@QEAA@PEAVCWnd@@@Z @ 516 NONAME
 ??0COleControlLock@@QEAA@AEBU_GUID@@@Z @ 517 NONAME
 ??0COleControlSite@@QEAA@PEAVCOleControlContainer@@@Z @ 518 NONAME
 ??0COleControlSiteOrWnd@@QEAA@PEAUHWND__@@H@Z @ 519 NONAME
 ??0COleControlSiteOrWnd@@QEAA@PEAVCOleControlSite@@@Z @ 520 NONAME
 ??0COleControlSiteOrWnd@@QEAA@XZ @ 521 NONAME
 ??0COleConvertDialog@@QEAA@PEAVCOleClientItem@@KPEAU_GUID@@PEAVCWnd@@@Z @ 522 NONAME
 ??0COleCurrency@@QEAA@AEBUtagVARIANT@@@Z @ 523 NONAME
 ??0COleCurrency@@QEAA@AEBV0@@Z @ 524 NONAME
 ??0COleCurrency@@QEAA@JJ@Z @ 525 NONAME
 ??0COleCurrency@@QEAA@TtagCY@@@Z @ 526 NONAME
 ??0COleCurrency@@QEAA@XZ @ 527 NONAME
 ??0COleDataObject@@QEAA@XZ @ 528 NONAME
 ??0COleDataSource@@QEAA@XZ @ 529 NONAME
 ??0COleDialog@@QEAA@PEAVCWnd@@@Z @ 530 NONAME
 ??0COleDispatchDriver@@QEAA@AEBV0@@Z @ 531 NONAME
 ??0COleDispatchDriver@@QEAA@PEAUIDispatch@@H@Z @ 532 NONAME
 ??0COleDispatchDriver@@QEAA@XZ @ 533 NONAME
 ??0COleDispatchException@@QEAA@PEB_WIG@Z @ 534 NONAME
 ??0COleDocIPFrameWnd@@QEAA@XZ @ 535 NONAME
 ??0COleDocObjectItem@@QEAA@PEAVCOleDocument@@@Z @ 536 NONAME
 ??0COleDocument@@QEAA@XZ @ 537 NONAME
 ??0COleDropSource@@QEAA@XZ @ 538 NONAME
 ??0COleDropTarget@@QEAA@XZ @ 539 NONAME
 ??0COleException@@QEAA@XZ @ 540 NONAME
 ??0COleFrameHook@@QEAA@PEAVCFrameWnd@@PEAVCOleClientItem@@@Z @ 541 NONAME
 ??0COleInsertDialog@@QEAA@KPEAVCWnd@@@Z @ 542 NONAME
 ??0COleIPFrameWnd@@QEAA@XZ @ 543 NONAME
 ??0COleLinkingDoc@@QEAA@XZ @ 544 NONAME
 ??0COleLinksDialog@@QEAA@PEAVCOleDocument@@PEAVCView@@KPEAVCWnd@@@Z @ 545 NONAME
 ??0COleMessageFilter@@QEAA@XZ @ 546 NONAME
 ??0COleObjectFactory@@QEAA@AEBU_GUID@@PEAUCRuntimeClass@@HHPEB_W@Z @ 547 NONAME
 ??0COleObjectFactory@@QEAA@AEBU_GUID@@PEAUCRuntimeClass@@HPEB_W@Z @ 548 NONAME
 ??0COlePasteSpecialDialog@@QEAA@KPEAVCOleDataObject@@PEAVCWnd@@@Z @ 549 NONAME
 ??0COlePropertiesDialog@@QEAA@PEAVCOleClientItem@@IIPEAVCWnd@@@Z @ 550 NONAME
 ??0COlePropertyPage@@QEAA@II@Z @ 551 NONAME
 ??0COleResizeBar@@QEAA@XZ @ 552 NONAME
 ??0COleSafeArray@@QEAA@AEBUtagSAFEARRAY@@G@Z @ 553 NONAME
 ??0COleSafeArray@@QEAA@AEBUtagVARIANT@@@Z @ 554 NONAME
 ??0COleSafeArray@@QEAA@AEBV0@@Z @ 555 NONAME
 ??0COleSafeArray@@QEAA@AEBVCOleVariant@@@Z @ 556 NONAME
 ??0COleSafeArray@@QEAA@PEBUtagSAFEARRAY@@G@Z @ 557 NONAME
 ??0COleSafeArray@@QEAA@PEBUtagVARIANT@@@Z @ 558 NONAME
 ??0COleSafeArray@@QEAA@XZ @ 559 NONAME
 ??0COleServerDoc@@QEAA@XZ @ 560 NONAME
 ??0COleServerItem@@IEAA@PEAVCOleServerDoc@@H@Z @ 561 NONAME
 ??0COleStreamFile@@QEAA@PEAUIStream@@@Z @ 562 NONAME
 ??0COleTemplateServer@@QEAA@XZ @ 563 NONAME
 ??0COleUILinkInfo@@QEAA@PEAVCOleDocument@@@Z @ 564 NONAME
 ??0COleUpdateDialog@@QEAA@PEAVCOleDocument@@HHPEAVCWnd@@@Z @ 565 NONAME
 ??0COleVariant@@QEAA@_J@Z @ 566 NONAME
 ??0COleVariant@@QEAA@_K@Z @ 567 NONAME
 ??0COleVariant@@QEAA@AEAV?$CStringT@_WV?$StrTraitMFC_DLL@_WV?$ChTraitsCRT@_W@ATL@@@@@ATL@@@Z @ 568 NONAME
 ??0COleVariant@@QEAA@AEBUtagVARIANT@@@Z @ 569 NONAME
 ??0COleVariant@@QEAA@AEBV0@@Z @ 570 NONAME
 ??0COleVariant@@QEAA@AEBVCByteArray@@@Z @ 571 NONAME
 ??0COleVariant@@QEAA@AEBVCLongBinary@@@Z @ 572 NONAME
 ??0COleVariant@@QEAA@AEBVCOleCurrency@@@Z @ 573 NONAME
 ??0COleVariant@@QEAA@AEBVCOleDateTime@ATL@@@Z @ 574 NONAME
 ??0COleVariant@@QEAA@E@Z @ 575 NONAME
 ??0COleVariant@@QEAA@FG@Z @ 576 NONAME
 ??0COleVariant@@QEAA@JG@Z @ 577 NONAME
 ??0COleVariant@@QEAA@M@Z @ 578 NONAME
 ??0COleVariant@@QEAA@N@Z @ 579 NONAME
 ??0COleVariant@@QEAA@PEB_W@Z @ 580 NONAME
 ??0COleVariant@@QEAA@PEB_WG@Z @ 581 NONAME
 ??0COleVariant@@QEAA@PEBUtagVARIANT@@@Z @ 582 NONAME
 ??0COleVariant@@QEAA@PEFBU_ITEMIDLIST@@@Z @ 583 NONAME
 ??0COleVariant@@QEAA@XZ @ 584 NONAME
 ??0CPageSetupDialog@@QEAA@KPEAVCWnd@@@Z @ 585 NONAME
 ??0CPaintDC@@QEAA@PEAVCWnd@@@Z @ 586 NONAME
 ??0CPalette@@QEAA@XZ @ 587 NONAME
 ??0CPen@@QEAA@HHK@Z @ 588 NONAME
 ??0CPen@@QEAA@HHPEBUtagLOGBRUSH@@HPEBK@Z @ 589 NONAME
 ??0CPen@@QEAA@XZ @ 590 NONAME
 ??0CPictureHolder@@QEAA@XZ @ 591 NONAME
 ??0CPreviewDC@@QEAA@XZ @ 592 NONAME
 ??0CPreviewView@@QEAA@XZ @ 593 NONAME
 ??0CPrintDialog@@IEAA@AEAUtagPDW@@@Z @ 594 NONAME
 ??0CPrintDialog@@QEAA@HKPEAVCWnd@@@Z @ 595 NONAME
 ??0CPrintDialogEx@@QEAA@KPEAVCWnd@@@Z @ 596 NONAME
 ??0CPrintInfo@@QEAA@XZ @ 597 NONAME
 ??0CPrintPreviewState@@QEAA@XZ @ 598 NONAME
 ??0CProgressCtrl@@QEAA@XZ @ 599 NONAME
 ??0CPropbagPropExchange@@QEAA@PEAUIPropertyBag@@PEAUIErrorLog@@HH@Z @ 600 NONAME
 ??0CProperty@@QEAA@KQEAXK@Z @ 601 NONAME
 ??0CProperty@@QEAA@XZ @ 602 NONAME
 ??0CPropertyPage@@QEAA@IIIIK@Z @ 603 NONAME
 ??0CPropertyPage@@QEAA@IIK@Z @ 604 NONAME
 ??0CPropertyPage@@QEAA@PEB_WIIIK@Z @ 605 NONAME
 ??0CPropertyPage@@QEAA@PEB_WIK@Z @ 606 NONAME
 ??0CPropertyPage@@QEAA@XZ @ 607 NONAME
 ??0CPropertySection@@QEAA@U_GUID@@@Z @ 608 NONAME
 ??0CPropertySection@@QEAA@XZ @ 609 NONAME
 ??0CPropertySet@@QEAA@U_GUID@@@Z @ 610 NONAME
 ??0CPropertySet@@QEAA@XZ @ 611 NONAME
 ??0CPropertySheet@@QEAA@IPEAVCWnd@@I@Z @ 612 NONAME
 ??0CPropertySheet@@QEAA@IPEAVCWnd@@IPEAUHBITMAP__@@PEAUHPALETTE__@@1@Z @ 613 NONAME
 ??0CPropertySheet@@QEAA@PEB_WPEAVCWnd@@I@Z @ 614 NONAME
 ??0CPropertySheet@@QEAA@PEB_WPEAVCWnd@@IPEAUHBITMAP__@@PEAUHPALETTE__@@2@Z @ 615 NONAME
 ??0CPropertySheet@@QEAA@XZ @ 616 NONAME
 ??0CPropExchange@@IEAA@XZ @ 617 NONAME
 ??0CPropsetPropExchange@@QEAA@AEAVCPropertySection@@PEAUIStorage@@H@Z @ 618 NONAME
 ??0CPtrArray@@QEAA@XZ @ 619 NONAME
 ??0CPtrList@@QEAA@_J@Z @ 620 NONAME
 ??0CReBar@@QEAA@XZ @ 621 NONAME
 ??0CReBarCtrl@@QEAA@XZ @ 622 NONAME
 ??0CRecentFileList@@QEAA@IPEB_W0HH@Z @ 623 NONAME
 ??0CRecordset@@QEAA@PEAVCDatabase@@@Z @ 624 NONAME
 ??0CRecordView@@IEAA@I@Z @ 625 NONAME
 ??0CRecordView@@IEAA@PEB_W@Z @ 626 NONAME
 ??0CRectTracker@@QEAA@PEBUtagRECT@@I@Z @ 627 NONAME
 ??0CRectTracker@@QEAA@XZ @ 628 NONAME
 ??0CReObject@@QEAA@PEAVCRichEditCntrItem@@@Z @ 629 NONAME
 ??0CReObject@@QEAA@XZ @ 630 NONAME
 ??0CResetPropExchange@@QEAA@XZ @ 631 NONAME
 ??0CResourceException@@QEAA@HI@Z @ 632 NONAME
 ??0CResourceException@@QEAA@XZ @ 633 NONAME
 ??0CRgn@@QEAA@XZ @ 634 NONAME
 ??0CRichEditCntrItem@@QEAA@PEAU_reobject@@PEAVCRichEditDoc@@@Z @ 635 NONAME
 ??0CRichEditCtrl@@QEAA@XZ @ 636 NONAME
 ??0CRichEditDoc@@IEAA@XZ @ 637 NONAME
 ??0CRichEditView@@QEAA@XZ @ 638 NONAME
 ??0CScrollBar@@QEAA@XZ @ 639 NONAME
 ??0CScrollView@@IEAA@XZ @ 640 NONAME
 ??0CSemaphore@@QEAA@JJPEB_WPEAU_SECURITY_ATTRIBUTES@@@Z @ 641 NONAME
 ??0CSharedFile@@QEAA@II@Z @ 642 NONAME
 ??0CSimpleException@@QEAA@H@Z @ 643 NONAME
 ??0CSimpleException@@QEAA@XZ @ 644 NONAME
 ??0CSingleDocTemplate@@QEAA@IPEAUCRuntimeClass@@00@Z @ 645 NONAME
 ??0CSingleLock@@QEAA@PEAVCSyncObject@@H@Z @ 646 NONAME
 ??0CSliderCtrl@@QEAA@XZ @ 647 NONAME
 ??0CSocket@@QEAA@XZ @ 648 NONAME
 ??0CSocketFile@@QEAA@PEAVCSocket@@H@Z @ 649 NONAME
 ??0CSocketWnd@@QEAA@XZ @ 650 NONAME
 ??0CSpinButtonCtrl@@QEAA@XZ @ 651 NONAME
 ??0CSplitButton@@QEAA@II@Z @ 652 NONAME
 ??0CSplitButton@@QEAA@PEAVCMenu@@@Z @ 653 NONAME
 ??0CSplitButton@@QEAA@XZ @ 654 NONAME
 ??0CSplitterWnd@@QEAA@XZ @ 655 NONAME
 ??0CStatic@@QEAA@XZ @ 656 NONAME
 ??0CStatusBar@@QEAA@XZ @ 657 NONAME
 ??0CStatusBarCtrl@@QEAA@XZ @ 658 NONAME
 ??0CStdioFile@@QEAA@PEAU_iobuf@@@Z @ 659 NONAME
 ??0CStdioFile@@QEAA@PEB_WI@Z @ 660 NONAME
 ??0CStdioFile@@QEAA@XZ @ 661 NONAME
 ??0CStringArray@@QEAA@XZ @ 662 NONAME
 ??0CStringList@@QEAA@_J@Z @ 663 NONAME
 ??0CSyncObject@@QEAA@PEB_W@Z @ 664 NONAME
 ??0CTabCtrl@@QEAA@XZ @ 665 NONAME
 ??0CTestCmdUI@@QEAA@XZ @ 666 NONAME
 ??0CThreadSlotData@@QEAA@XZ @ 667 NONAME
 ??0CToolBar@@QEAA@XZ @ 668 NONAME
 ??0CToolBarCtrl@@QEAA@XZ @ 669 NONAME
 ??0CToolTipCtrl@@QEAA@XZ @ 670 NONAME
 ??0CTreeCtrl@@QEAA@XZ @ 671 NONAME
 ??0CTreeView@@QEAA@XZ @ 672 NONAME
 ??0CUIntArray@@QEAA@XZ @ 673 NONAME
 ??0CUserException@@QEAA@HI@Z @ 674 NONAME
 ??0CUserException@@QEAA@XZ @ 675 NONAME
 ??0CView@@IEAA@XZ @ 676 NONAME
 ??0CWaitCursor@@QEAA@XZ @ 677 NONAME
 ??0CWinApp@@QEAA@PEB_W@Z @ 678 NONAME
 ??0CWindowDC@@QEAA@PEAVCWnd@@@Z @ 679 NONAME
 ??0CWindowlessDC@@QEAA@PEAUHDC__@@AEAVCPoint@@@Z @ 680 NONAME
 ??0CWinThread@@QEAA@P6AIPEAX@Z0@Z @ 681 NONAME
 ??0CWinThread@@QEAA@XZ @ 682 NONAME
 ??0CWnd@@AEAA@PEAUHWND__@@@Z @ 683 NONAME
 ??0CWnd@@QEAA@XZ @ 684 NONAME
 ??0CWordArray@@QEAA@XZ @ 685 NONAME
 ??0PAGE_INFO@CPreviewView@@QEAA@XZ @ 686 NONAME
 ??1?$CSimpleStringT@_W$00@ATL@@QEAA@XZ @ 687 NONAME
 ??1?$CSimpleStringT@D$00@ATL@@QEAA@XZ @ 688 NONAME
 ??1?$CStringT@_WV?$StrTraitMFC_DLL@_WV?$ChTraitsCRT@_W@ATL@@@@@ATL@@QEAA@XZ @ 689 NONAME
 ??1?$CStringT@DV?$StrTraitMFC_DLL@DV?$ChTraitsCRT@D@ATL@@@@@ATL@@QEAA@XZ @ 690 NONAME
 ??1_AFX_CHECKLIST_STATE@@UEAA@XZ @ 691 NONAME
 ??1_AFX_DEBUG_STATE@@UEAA@XZ @ 692 NONAME
 ??1_AFX_EDIT_STATE@@UEAA@XZ @ 693 NONAME
 ??1_AFX_MAIL_STATE@@UEAA@XZ @ 694 NONAME
 ??1_AFX_OLE_STATE@@UEAA@XZ @ 695 NONAME
 ??1_AFX_RICHEDIT_STATE@@UEAA@XZ @ 696 NONAME
 ??1_AFX_SOCK_STATE@@UEAA@XZ @ 697 NONAME
 ??1_AFX_THREAD_STATE@@UEAA@XZ @ 698 NONAME
 ??1_AFXCTL_UIACTIVE_INFO@@QEAA@XZ @ 699 NONAME
 ??1AFX_MAINTAIN_STATE@@QEAA@XZ @ 700 NONAME
 ??1AFX_MAINTAIN_STATE2@@QEAA@XZ @ 701 NONAME
 ??1AFX_MODULE_STATE@@UEAA@XZ @ 702 NONAME
 ??1AFX_MODULE_THREAD_STATE@@UEAA@XZ @ 703 NONAME
 ??1CAnimateCtrl@@UEAA@XZ @ 704 NONAME
 ??1CArchive@@QEAA@XZ @ 705 NONAME
 ??1CArchiveException@@UEAA@XZ @ 706 NONAME
 ??1CAsyncMonikerFile@@UEAA@XZ @ 707 NONAME
 ??1CAsyncSocket@@UEAA@XZ @ 708 NONAME
 ??1CBitmap@@UEAA@XZ @ 709 NONAME
 ??1CBrush@@UEAA@XZ @ 710 NONAME
 ??1CButton@@UEAA@XZ @ 711 NONAME
 ??1CByteArray@@UEAA@XZ @ 712 NONAME
 ??1CClientDC@@UEAA@XZ @ 713 NONAME
 ??1CCmdTarget@@UEAA@XZ @ 714 NONAME
 ??1CComboBox@@UEAA@XZ @ 715 NONAME
 ??1CComboBoxEx@@UEAA@XZ @ 716 NONAME
 ??1CCommandLineInfo@@UEAA@XZ @ 717 NONAME
 ??1CConnectionPoint@@UEAA@XZ @ 718 NONAME
 ??1CControlBar@@UEAA@XZ @ 719 NONAME
 ??1CControlSiteFactoryMgr@@UEAA@XZ @ 720 NONAME
 ??1CCriticalSection@@UEAA@XZ @ 721 NONAME
 ??1CCtrlView@@UEAA@XZ @ 722 NONAME
 ??1CDatabase@@UEAA@XZ @ 723 NONAME
 ??1CDataSourceControl@@QEAA@XZ @ 724 NONAME
 ??1CDateTimeCtrl@@UEAA@XZ @ 725 NONAME
 ??1CDBException@@UEAA@XZ @ 726 NONAME
 ??1CDBVariant@@UEAA@XZ @ 727 NONAME
 ??1CDC@@UEAA@XZ @ 728 NONAME
 ??1CDHtmlControlSink@@UEAA@XZ @ 729 NONAME
 ??1CDHtmlDialog@@UEAA@XZ @ 730 NONAME
 ??1CDialog@@UEAA@XZ @ 731 NONAME
 ??1CDialogBar@@UEAA@XZ @ 732 NONAME
 ??1CDialogTemplate@@QEAA@XZ @ 733 NONAME
 ??1CDocItem@@UEAA@XZ @ 734 NONAME
 ??1CDockBar@@UEAA@XZ @ 735 NONAME
 ??1CDockContext@@UEAA@XZ @ 736 NONAME
 ??1CDockState@@UEAA@XZ @ 737 NONAME
 ??1CDocManager@@UEAA@XZ @ 738 NONAME
 ??1CDocObjectServer@@UEAA@XZ @ 739 NONAME
 ??1CDocObjectServerItem@@UEAA@XZ @ 740 NONAME
 ??1CDocTemplate@@UEAA@XZ @ 741 NONAME
 ??1CDocument@@UEAA@XZ @ 742 NONAME
 ??1CDragListBox@@UEAA@XZ @ 743 NONAME
 ??1CDWordArray@@UEAA@XZ @ 744 NONAME
 ??1CDynLinkLibrary@@UEAA@XZ @ 745 NONAME
 ??1CEdit@@UEAA@XZ @ 746 NONAME
 ??1CEditView@@UEAA@XZ @ 747 NONAME
 ??1CEnumArray@@UEAA@XZ @ 748 NONAME
 ??1CEnumConnections@@UEAA@XZ @ 749 NONAME
 ??1CEnumConnPoints@@UEAA@XZ @ 750 NONAME
 ??1CEnumFormatEtc@@UEAA@XZ @ 751 NONAME
 ??1CEnumOleVerb@@UEAA@XZ @ 752 NONAME
 ??1CEnumUnknown@@UEAA@XZ @ 753 NONAME
 ??1CEvent@@UEAA@XZ @ 754 NONAME
 ??1CException@@UEAA@XZ @ 755 NONAME
 ??1CFile@@UEAA@XZ @ 756 NONAME
 ??1CFileDialog@@UEAA@XZ @ 757 NONAME
 ??1CFileException@@UEAA@XZ @ 758 NONAME
 ??1CFileFind@@UEAA@XZ @ 759 NONAME
 ??1CFixedAlloc@@QEAA@XZ @ 760 NONAME
 ??1CFixedAllocNoSync@@QEAA@XZ @ 761 NONAME
 ??1CFont@@UEAA@XZ @ 762 NONAME
 ??1CFontHolder@@QEAA@XZ @ 763 NONAME
 ??1CFormView@@UEAA@XZ @ 764 NONAME
 ??1CFrameWnd@@UEAA@XZ @ 765 NONAME
 ??1CFtpConnection@@UEAA@XZ @ 766 NONAME
 ??1CFtpFileFind@@UEAA@XZ @ 767 NONAME
 ??1CGdiObject@@UEAA@XZ @ 768 NONAME
 ??1CGopherConnection@@UEAA@XZ @ 769 NONAME
 ??1CGopherFile@@UEAA@XZ @ 770 NONAME
 ??1CGopherFileFind@@UEAA@XZ @ 771 NONAME
 ??1CGopherLocator@@UEAA@XZ @ 772 NONAME
 ??1CHeaderCtrl@@UEAA@XZ @ 773 NONAME
 ??1CHotKeyCtrl@@UEAA@XZ @ 774 NONAME
 ??1CHtmlControlSite@@UEAA@XZ @ 775 NONAME
 ??1CHtmlEditCtrl@@UEAA@XZ @ 776 NONAME
 ??1CHtmlEditDoc@@UEAA@XZ @ 777 NONAME
 ??1CHtmlEditView@@UEAA@XZ @ 778 NONAME
 ??1CHtmlView@@UEAA@XZ @ 779 NONAME
 ??1CHttpConnection@@UEAA@XZ @ 780 NONAME
 ??1CHttpFile@@UEAA@XZ @ 781 NONAME
 ??1CImageList@@UEAA@XZ @ 782 NONAME
 ??1CInternetConnection@@UEAA@XZ @ 783 NONAME
 ??1CInternetException@@UEAA@XZ @ 784 NONAME
 ??1CInternetFile@@UEAA@XZ @ 785 NONAME
 ??1CInternetSession@@UEAA@XZ @ 786 NONAME
 ??1CInvalidArgException@@UEAA@XZ @ 787 NONAME
 ??1CIPAddressCtrl@@UEAA@XZ @ 788 NONAME
 ??1CListBox@@UEAA@XZ @ 789 NONAME
 ??1CListCtrl@@UEAA@XZ @ 790 NONAME
 ??1CLongBinary@@UEAA@XZ @ 791 NONAME
 ??1CMapPtrToPtr@@UEAA@XZ @ 792 NONAME
 ??1CMapPtrToWord@@UEAA@XZ @ 793 NONAME
 ??1CMapStringToOb@@UEAA@XZ @ 794 NONAME
 ??1CMapStringToPtr@@UEAA@XZ @ 795 NONAME
 ??1CMapStringToString@@UEAA@XZ @ 796 NONAME
 ??1CMapWordToOb@@UEAA@XZ @ 797 NONAME
 ??1CMapWordToPtr@@UEAA@XZ @ 798 NONAME
 ??1CMemFile@@UEAA@XZ @ 799 NONAME
 ??1CMemoryException@@UEAA@XZ @ 800 NONAME
 ??1CMenu@@UEAA@XZ @ 801 NONAME
 ??1CMetaFileDC@@UEAA@XZ @ 802 NONAME
 ??1CMiniFrameWnd@@UEAA@XZ @ 803 NONAME
 ??1CMonikerFile@@UEAA@XZ @ 804 NONAME
 ??1CMonthCalCtrl@@UEAA@XZ @ 805 NONAME
 ??1CMultiDocTemplate@@UEAA@XZ @ 806 NONAME
 ??1CMultiLock@@QEAA@XZ @ 807 NONAME
 ??1CMultiPageDHtmlDialog@@UEAA@XZ @ 808 NONAME
 ??1CMutex@@UEAA@XZ @ 809 NONAME
 ??1CNotSupportedException@@UEAA@XZ @ 810 NONAME
 ??1CObArray@@UEAA@XZ @ 811 NONAME
 ??1CObject@@UEAA@XZ @ 812 NONAME
 ??1CObList@@UEAA@XZ @ 813 NONAME
 ??1COleBusyDialog@@UEAA@XZ @ 814 NONAME
 ??1COleChangeIconDialog@@UEAA@XZ @ 815 NONAME
 ??1COleChangeSourceDialog@@UEAA@XZ @ 816 NONAME
 ??1COleClientItem@@UEAA@XZ @ 817 NONAME
 ??1COleCntrFrameWnd@@UEAA@XZ @ 818 NONAME
 ??1COleControl@@UEAA@XZ @ 819 NONAME
 ??1COleControlContainer@@UEAA@XZ @ 820 NONAME
 ??1COleControlLock@@UEAA@XZ @ 821 NONAME
 ??1COleControlSite@@UEAA@XZ @ 822 NONAME
 ??1COleControlSiteOrWnd@@QEAA@XZ @ 823 NONAME
 ??1COleConvertDialog@@UEAA@XZ @ 824 NONAME
 ??1COleDataObject@@QEAA@XZ @ 825 NONAME
 ??1COleDataSource@@UEAA@XZ @ 826 NONAME
 ??1COleDispatchDriver@@QEAA@XZ @ 827 NONAME
 ??1COleDispatchException@@UEAA@XZ @ 828 NONAME
 ??1COleDocIPFrameWnd@@UEAA@XZ @ 829 NONAME
 ??1COleDocObjectItem@@UEAA@XZ @ 830 NONAME
 ??1COleDocument@@UEAA@XZ @ 831 NONAME
 ??1COleDropTarget@@UEAA@XZ @ 832 NONAME
 ??1COleException@@UEAA@XZ @ 833 NONAME
 ??1COleFrameHook@@UEAA@XZ @ 834 NONAME
 ??1COleInsertDialog@@UEAA@XZ @ 835 NONAME
 ??1COleIPFrameWnd@@UEAA@XZ @ 836 NONAME
 ??1COleLinkingDoc@@UEAA@XZ @ 837 NONAME
 ??1COleLinksDialog@@UEAA@XZ @ 838 NONAME
 ??1COleMessageFilter@@UEAA@XZ @ 839 NONAME
 ??1COleObjectFactory@@UEAA@XZ @ 840 NONAME
 ??1COlePasteSpecialDialog@@UEAA@XZ @ 841 NONAME
 ??1COlePropertyPage@@UEAA@XZ @ 842 NONAME
 ??1COleResizeBar@@UEAA@XZ @ 843 NONAME
 ??1COleSafeArray@@QEAA@XZ @ 844 NONAME
 ??1COleServerDoc@@UEAA@XZ @ 845 NONAME
 ??1COleServerItem@@UEAA@XZ @ 846 NONAME
 ??1COleStreamFile@@UEAA@XZ @ 847 NONAME
 ??1COleUpdateDialog@@UEAA@XZ @ 848 NONAME
 ??1COleVariant@@QEAA@XZ @ 849 NONAME
 ??1CPaintDC@@UEAA@XZ @ 850 NONAME
 ??1CPalette@@UEAA@XZ @ 851 NONAME
 ??1CPen@@UEAA@XZ @ 852 NONAME
 ??1CPictureHolder@@QEAA@XZ @ 853 NONAME
 ??1CPreviewDC@@UEAA@XZ @ 854 NONAME
 ??1CPreviewView@@UEAA@XZ @ 855 NONAME
 ??1CPrintInfo@@QEAA@XZ @ 856 NONAME
 ??1CProcessLocalObject@@QEAA@XZ @ 857 NONAME
 ??1CProgressCtrl@@UEAA@XZ @ 858 NONAME
 ??1CPropbagPropExchange@@UEAA@XZ @ 859 NONAME
 ??1CProperty@@QEAA@XZ @ 860 NONAME
 ??1CPropertyPage@@UEAA@XZ @ 861 NONAME
 ??1CPropertySection@@QEAA@XZ @ 862 NONAME
 ??1CPropertySet@@QEAA@XZ @ 863 NONAME
 ??1CPropertySheet@@UEAA@XZ @ 864 NONAME
 ??1CPtrArray@@UEAA@XZ @ 865 NONAME
 ??1CPtrList@@UEAA@XZ @ 866 NONAME
 ??1CReBarCtrl@@UEAA@XZ @ 867 NONAME
 ??1CRecentFileList@@UEAA@XZ @ 868 NONAME
 ??1CRecordset@@UEAA@XZ @ 869 NONAME
 ??1CRecordView@@UEAA@XZ @ 870 NONAME
 ??1CRectTracker@@UEAA@XZ @ 871 NONAME
 ??1CReObject@@QEAA@XZ @ 872 NONAME
 ??1CResourceException@@UEAA@XZ @ 873 NONAME
 ??1CRgn@@UEAA@XZ @ 874 NONAME
 ??1CRichEditCntrItem@@UEAA@XZ @ 875 NONAME
 ??1CRichEditCtrl@@UEAA@XZ @ 876 NONAME
 ??1CScrollBar@@UEAA@XZ @ 877 NONAME
 ??1CScrollView@@UEAA@XZ @ 878 NONAME
 ??1CSemaphore@@UEAA@XZ @ 879 NONAME
 ??1CSharedFile@@UEAA@XZ @ 880 NONAME
 ??1CSimpleException@@UEAA@XZ @ 881 NONAME
 ??1CSingleDocTemplate@@UEAA@XZ @ 882 NONAME
 ??1CSingleLock@@QEAA@XZ @ 883 NONAME
 ??1CSliderCtrl@@UEAA@XZ @ 884 NONAME
 ??1CSocket@@UEAA@XZ @ 885 NONAME
 ??1CSocketFile@@UEAA@XZ @ 886 NONAME
 ??1CSpinButtonCtrl@@UEAA@XZ @ 887 NONAME
 ??1CSplitButton@@UEAA@XZ @ 888 NONAME
 ??1CSplitterWnd@@UEAA@XZ @ 889 NONAME
 ??1CStatic@@UEAA@XZ @ 890 NONAME
 ??1CStatusBar@@UEAA@XZ @ 891 NONAME
 ??1CStatusBarCtrl@@UEAA@XZ @ 892 NONAME
 ??1CStdioFile@@UEAA@XZ @ 893 NONAME
 ??1CStringArray@@UEAA@XZ @ 894 NONAME
 ??1CStringList@@UEAA@XZ @ 895 NONAME
 ??1CSyncObject@@UEAA@XZ @ 896 NONAME
 ??1CTabCtrl@@UEAA@XZ @ 897 NONAME
 ??1CThreadLocalObject@@QEAA@XZ @ 898 NONAME
 ??1CThreadSlotData@@QEAA@XZ @ 899 NONAME
 ??1CToolBar@@UEAA@XZ @ 900 NONAME
 ??1CToolBarCtrl@@UEAA@XZ @ 901 NONAME
 ??1CToolTipCtrl@@UEAA@XZ @ 902 NONAME
 ??1CTreeCtrl@@UEAA@XZ @ 903 NONAME
 ??1CUIntArray@@UEAA@XZ @ 904 NONAME
 ??1CUserException@@UEAA@XZ @ 905 NONAME
 ??1CView@@UEAA@XZ @ 906 NONAME
 ??1CWaitCursor@@QEAA@XZ @ 907 NONAME
 ??1CWinApp@@UEAA@XZ @ 908 NONAME
 ??1CWindowDC@@UEAA@XZ @ 909 NONAME
 ??1CWinThread@@UEAA@XZ @ 910 NONAME
 ??1CWnd@@UEAA@XZ @ 911 NONAME
 ??1CWordArray@@UEAA@XZ @ 912 NONAME
 ??2@YAPEAX_K@Z @ 913 NONAME
 ??2@YAPEAX_KHPEBDH@Z @ 914 NONAME
 ??2@YAPEAX_KPEBDH@Z @ 915 NONAME
 ??2CNoTrackObject@@SAPEAX_K@Z @ 916 NONAME
 ??2CNoTrackObject@@SAPEAX_KPEBDH@Z @ 917 NONAME
 ??2CObject@@SAPEAX_K@Z @ 918 NONAME
 ??2CObject@@SAPEAX_KPEAX@Z @ 919 NONAME
 ??2CObject@@SAPEAX_KPEBDH@Z @ 920 NONAME
 ??3@YAXPEAX@Z @ 921 NONAME
 ??3@YAXPEAXHPEBDH@Z @ 922 NONAME
 ??3@YAXPEAXPEBDH@Z @ 923 NONAME
 ??3CException@@SAXPEAX@Z @ 924 NONAME
 ??3CException@@SAXPEAXPEBDH@Z @ 925 NONAME
 ??3CNoTrackObject@@SAXPEAX@Z @ 926 NONAME
 ??3CNoTrackObject@@SAXPEAXPEBDH@Z @ 927 NONAME
 ??3CObject@@SAXPEAX@Z @ 928 NONAME
 ??3CObject@@SAXPEAX0@Z @ 929 NONAME
 ??3CObject@@SAXPEAXPEBDH@Z @ 930 NONAME
 ??4?$CSimpleStringT@_W$00@ATL@@QEAAAEAV01@AEBV?$CSimpleStringT@_W$0A@@1@@Z @ 931 NONAME
 ??4?$CSimpleStringT@_W$00@ATL@@QEAAAEAV01@AEBV01@@Z @ 932 NONAME
 ??4?$CSimpleStringT@_W$00@ATL@@QEAAAEAV01@PEB_W@Z @ 933 NONAME
 ??4?$CSimpleStringT@D$00@ATL@@QEAAAEAV01@AEBV?$CSimpleStringT@D$0A@@1@@Z @ 934 NONAME
 ??4?$CSimpleStringT@D$00@ATL@@QEAAAEAV01@AEBV01@@Z @ 935 NONAME
 ??4?$CSimpleStringT@D$00@ATL@@QEAAAEAV01@PEBD@Z @ 936 NONAME
 ??4?$CStringT@_WV?$StrTraitMFC_DLL@_WV?$ChTraitsCRT@_W@ATL@@@@@ATL@@QEAAAEAV01@_W@Z @ 937 NONAME
 ??4?$CStringT@_WV?$StrTraitMFC_DLL@_WV?$ChTraitsCRT@_W@ATL@@@@@ATL@@QEAAAEAV01@AEBUtagVARIANT@@@Z @ 938 NONAME
 ??4?$CStringT@_WV?$StrTraitMFC_DLL@_WV?$ChTraitsCRT@_W@ATL@@@@@ATL@@QEAAAEAV01@AEBV01@@Z @ 939 NONAME
 ??4?$CStringT@_WV?$StrTraitMFC_DLL@_WV?$ChTraitsCRT@_W@ATL@@@@@ATL@@QEAAAEAV01@D@Z @ 940 NONAME
 ??4?$CStringT@_WV?$StrTraitMFC_DLL@_WV?$ChTraitsCRT@_W@ATL@@@@@ATL@@QEAAAEAV01@PEB_W@Z @ 941 NONAME
 ??4?$CStringT@_WV?$StrTraitMFC_DLL@_WV?$ChTraitsCRT@_W@ATL@@@@@ATL@@QEAAAEAV01@PEBD@Z @ 942 NONAME
 ??4?$CStringT@_WV?$StrTraitMFC_DLL@_WV?$ChTraitsCRT@_W@ATL@@@@@ATL@@QEAAAEAV01@PEBE@Z @ 943 NONAME
 ??4?$CStringT@DV?$StrTraitMFC_DLL@DV?$ChTraitsCRT@D@ATL@@@@@ATL@@QEAAAEAV01@_W@Z @ 944 NONAME
 ??4?$CStringT@DV?$StrTraitMFC_DLL@DV?$ChTraitsCRT@D@ATL@@@@@ATL@@QEAAAEAV01@AEBUtagVARIANT@@@Z @ 945 NONAME
 ??4?$CStringT@DV?$StrTraitMFC_DLL@DV?$ChTraitsCRT@D@ATL@@@@@ATL@@QEAAAEAV01@AEBV01@@Z @ 946 NONAME
 ??4?$CStringT@DV?$StrTraitMFC_DLL@DV?$ChTraitsCRT@D@ATL@@@@@ATL@@QEAAAEAV01@D@Z @ 947 NONAME
 ??4?$CStringT@DV?$StrTraitMFC_DLL@DV?$ChTraitsCRT@D@ATL@@@@@ATL@@QEAAAEAV01@PEB_W@Z @ 948 NONAME
 ??4?$CStringT@DV?$StrTraitMFC_DLL@DV?$ChTraitsCRT@D@ATL@@@@@ATL@@QEAAAEAV01@PEBD@Z @ 949 NONAME
 ??4?$CStringT@DV?$StrTraitMFC_DLL@DV?$ChTraitsCRT@D@ATL@@@@@ATL@@QEAAAEAV01@PEBE@Z @ 950 NONAME
 ??4CArchive@@IEAAXAEBV0@@Z @ 951 NONAME
 ??4CDumpContext@@IEAAXAEBV0@@Z @ 952 NONAME
 ??4COleCurrency@@QEAAAEBV0@AEBUtagVARIANT@@@Z @ 953 NONAME
 ??4COleCurrency@@QEAAAEBV0@AEBV0@@Z @ 954 NONAME
 ??4COleCurrency@@QEAAAEBV0@TtagCY@@@Z @ 955 NONAME
 ??4COleDispatchDriver@@QEAAAEBV0@AEBV0@@Z @ 956 NONAME
 ??4COleSafeArray@@QEAAAEAV0@AEBUtagVARIANT@@@Z @ 957 NONAME
 ??4COleSafeArray@@QEAAAEAV0@AEBV0@@Z @ 958 NONAME
 ??4COleSafeArray@@QEAAAEAV0@AEBVCOleVariant@@@Z @ 959 NONAME
 ??4COleSafeArray@@QEAAAEAV0@PEBUtagVARIANT@@@Z @ 960 NONAME
 ??4COleVariant@@QEAAAEBV0@_J@Z @ 961 NONAME
 ??4COleVariant@@QEAAAEBV0@_K@Z @ 962 NONAME
 ??4COleVariant@@QEAAAEBV0@AEBUtagVARIANT@@@Z @ 963 NONAME
 ??4COleVariant@@QEAAAEBV0@AEBV?$CStringT@_WV?$StrTraitMFC_DLL@_WV?$ChTraitsCRT@_W@ATL@@@@@ATL@@@Z @ 964 NONAME
 ??4COleVariant@@QEAAAEBV0@AEBV0@@Z @ 965 NONAME
 ??4COleVariant@@QEAAAEBV0@AEBVCByteArray@@@Z @ 966 NONAME
 ??4COleVariant@@QEAAAEBV0@AEBVCLongBinary@@@Z @ 967 NONAME
 ??4COleVariant@@QEAAAEBV0@AEBVCOleCurrency@@@Z @ 968 NONAME
 ??4COleVariant@@QEAAAEBV0@AEBVCOleDateTime@ATL@@@Z @ 969 NONAME
 ??4COleVariant@@QEAAAEBV0@E@Z @ 970 NONAME
 ??4COleVariant@@QEAAAEBV0@F@Z @ 971 NONAME
 ??4COleVariant@@QEAAAEBV0@J@Z @ 972 NONAME
 ??4COleVariant@@QEAAAEBV0@M@Z @ 973 NONAME
 ??4COleVariant@@QEAAAEBV0@N@Z @ 974 NONAME
 ??4COleVariant@@QEAAAEBV0@PEBUtagVARIANT@@@Z @ 975 NONAME
 ??4COleVariant@@QEAAAEBV0@QEB_W@Z @ 976 NONAME
 ??5@YAAEAVCArchive@@AEAV0@AEAPEAVCByteArray@@@Z @ 977 NONAME
 ??5@YAAEAVCArchive@@AEAV0@AEAPEAVCDocItem@@@Z @ 978 NONAME
 ??5@YAAEAVCArchive@@AEAV0@AEAPEAVCDockState@@@Z @ 979 NONAME
 ??5@YAAEAVCArchive@@AEAV0@AEAPEAVCDWordArray@@@Z @ 980 NONAME
 ??5@YAAEAVCArchive@@AEAV0@AEAPEAVCMapStringToOb@@@Z @ 981 NONAME
 ??5@YAAEAVCArchive@@AEAV0@AEAPEAVCMapStringToString@@@Z @ 982 NONAME
 ??5@YAAEAVCArchive@@AEAV0@AEAPEAVCMapWordToOb@@@Z @ 983 NONAME
 ??5@YAAEAVCArchive@@AEAV0@AEAPEAVCObArray@@@Z @ 984 NONAME
 ??5@YAAEAVCArchive@@AEAV0@AEAPEAVCObject@@@Z @ 985 NONAME
 ??5@YAAEAVCArchive@@AEAV0@AEAPEAVCObList@@@Z @ 986 NONAME
 ??5@YAAEAVCArchive@@AEAV0@AEAPEAVCRichEditCntrItem@@@Z @ 987 NONAME
 ??5@YAAEAVCArchive@@AEAV0@AEAPEAVCStringArray@@@Z @ 988 NONAME
 ??5@YAAEAVCArchive@@AEAV0@AEAPEAVCStringList@@@Z @ 989 NONAME
 ??5@YAAEAVCArchive@@AEAV0@AEAPEAVCWordArray@@@Z @ 990 NONAME
 ??5@YAAEAVCArchive@@AEAV0@AEAPEBVCObject@@@Z @ 991 NONAME
 ??5@YAAEAVCArchive@@AEAV0@AEAUtagPOINT@@@Z @ 992 NONAME
 ??5@YAAEAVCArchive@@AEAV0@AEAUtagRECT@@@Z @ 993 NONAME
 ??5@YAAEAVCArchive@@AEAV0@AEAUtagSIZE@@@Z @ 994 NONAME
 ??5@YAAEAVCArchive@@AEAV0@AEAVCComBSTR@ATL@@@Z @ 995 NONAME
 ??5@YAAEAVCArchive@@AEAV0@AEAVCOleCurrency@@@Z @ 996 NONAME
 ??5@YAAEAVCArchive@@AEAV0@AEAVCOleDateTime@ATL@@@Z @ 997 NONAME
 ??5@YAAEAVCArchive@@AEAV0@AEAVCOleDateTimeSpan@ATL@@@Z @ 998 NONAME
 ??5@YAAEAVCArchive@@AEAV0@AEAVCOleVariant@@@Z @ 999 NONAME
 ??5@YAAEAVCArchive@@AEAV0@AEAVCTime@ATL@@@Z @ 1000 NONAME
 ??5@YAAEAVCArchive@@AEAV0@AEAVCTimeSpan@ATL@@@Z @ 1001 NONAME
 ??5CArchive@@QEAAAEAV0@AEA_J@Z @ 1002 NONAME
 ??5CArchive@@QEAAAEAV0@AEA_K@Z @ 1003 NONAME
 ??5CArchive@@QEAAAEAV0@AEA_N@Z @ 1004 NONAME
 ??5CArchive@@QEAAAEAV0@AEA_W@Z @ 1005 NONAME
 ??5CArchive@@QEAAAEAV0@AEAD@Z @ 1006 NONAME
 ??5CArchive@@QEAAAEAV0@AEAE@Z @ 1007 NONAME
 ??5CArchive@@QEAAAEAV0@AEAF@Z @ 1008 NONAME
 ??5CArchive@@QEAAAEAV0@AEAG@Z @ 1009 NONAME
 ??5CArchive@@QEAAAEAV0@AEAH@Z @ 1010 NONAME
 ??5CArchive@@QEAAAEAV0@AEAI@Z @ 1011 NONAME
 ??5CArchive@@QEAAAEAV0@AEAJ@Z @ 1012 NONAME
 ??5CArchive@@QEAAAEAV0@AEAK@Z @ 1013 NONAME
 ??5CArchive@@QEAAAEAV0@AEAM@Z @ 1014 NONAME
 ??5CArchive@@QEAAAEAV0@AEAN@Z @ 1015 NONAME
 ??6@YAAEAVCArchive@@AEAV0@AEBUtagRECT@@@Z @ 1016 NONAME
 ??6@YAAEAVCArchive@@AEAV0@PEBVCObject@@@Z @ 1017 NONAME
 ??6@YAAEAVCArchive@@AEAV0@UtagPOINT@@@Z @ 1018 NONAME
 ??6@YAAEAVCArchive@@AEAV0@UtagSIZE@@@Z @ 1019 NONAME
 ??6@YAAEAVCArchive@@AEAV0@VCComBSTR@ATL@@@Z @ 1020 NONAME
 ??6@YAAEAVCArchive@@AEAV0@VCOleCurrency@@@Z @ 1021 NONAME
 ??6@YAAEAVCArchive@@AEAV0@VCOleDateTime@ATL@@@Z @ 1022 NONAME
 ??6@YAAEAVCArchive@@AEAV0@VCOleDateTimeSpan@ATL@@@Z @ 1023 NONAME
 ??6@YAAEAVCArchive@@AEAV0@VCOleVariant@@@Z @ 1024 NONAME
 ??6@YAAEAVCArchive@@AEAV0@VCTime@ATL@@@Z @ 1025 NONAME
 ??6@YAAEAVCArchive@@AEAV0@VCTimeSpan@ATL@@@Z @ 1026 NONAME
 ??6@YAAEAVCDumpContext@@AEAV0@AEAVCOleSafeArray@@@Z @ 1027 NONAME
 ??6@YAAEAVCDumpContext@@AEAV0@AEBUtagRECT@@@Z @ 1028 NONAME
 ??6@YAAEAVCDumpContext@@AEAV0@UtagPOINT@@@Z @ 1029 NONAME
 ??6@YAAEAVCDumpContext@@AEAV0@UtagSIZE@@@Z @ 1030 NONAME
 ??6@YAAEAVCDumpContext@@AEAV0@VCOleCurrency@@@Z @ 1031 NONAME
 ??6@YAAEAVCDumpContext@@AEAV0@VCOleDateTime@ATL@@@Z @ 1032 NONAME
 ??6@YAAEAVCDumpContext@@AEAV0@VCOleDateTimeSpan@ATL@@@Z @ 1033 NONAME
 ??6@YAAEAVCDumpContext@@AEAV0@VCOleVariant@@@Z @ 1034 NONAME
 ??6@YAAEAVCDumpContext@@AEAV0@VCTime@ATL@@@Z @ 1035 NONAME
 ??6@YAAEAVCDumpContext@@AEAV0@VCTimeSpan@ATL@@@Z @ 1036 NONAME
 ??6CArchive@@QEAAAEAV0@_J@Z @ 1037 NONAME
 ??6CArchive@@QEAAAEAV0@_K@Z @ 1038 NONAME
 ??6CArchive@@QEAAAEAV0@_N@Z @ 1039 NONAME
 ??6CArchive@@QEAAAEAV0@_W@Z @ 1040 NONAME
 ??6CArchive@@QEAAAEAV0@D@Z @ 1041 NONAME
 ??6CArchive@@QEAAAEAV0@E@Z @ 1042 NONAME
 ??6CArchive@@QEAAAEAV0@F@Z @ 1043 NONAME
 ??6CArchive@@QEAAAEAV0@G@Z @ 1044 NONAME
 ??6CArchive@@QEAAAEAV0@H@Z @ 1045 NONAME
 ??6CArchive@@QEAAAEAV0@I@Z @ 1046 NONAME
 ??6CArchive@@QEAAAEAV0@J@Z @ 1047 NONAME
 ??6CArchive@@QEAAAEAV0@K@Z @ 1048 NONAME
 ??6CArchive@@QEAAAEAV0@M@Z @ 1049 NONAME
 ??6CArchive@@QEAAAEAV0@N@Z @ 1050 NONAME
 ??6CDumpContext@@QEAAAEAV0@_J@Z @ 1051 NONAME
 ??6CDumpContext@@QEAAAEAV0@_K@Z @ 1052 NONAME
 ??6CDumpContext@@QEAAAEAV0@AEBVCObject@@@Z @ 1053 NONAME
 ??6CDumpContext@@QEAAAEAV0@E@Z @ 1054 NONAME
 ??6CDumpContext@@QEAAAEAV0@G@Z @ 1055 NONAME
 ??6CDumpContext@@QEAAAEAV0@H@Z @ 1056 NONAME
 ??6CDumpContext@@QEAAAEAV0@I@Z @ 1057 NONAME
 ??6CDumpContext@@QEAAAEAV0@J@Z @ 1058 NONAME
 ??6CDumpContext@@QEAAAEAV0@K@Z @ 1059 NONAME
 ??6CDumpContext@@QEAAAEAV0@M@Z @ 1060 NONAME
 ??6CDumpContext@@QEAAAEAV0@N@Z @ 1061 NONAME
 ??6CDumpContext@@QEAAAEAV0@PEAUHACCEL__@@@Z @ 1062 NONAME
 ??6CDumpContext@@QEAAAEAV0@PEAUHDC__@@@Z @ 1063 NONAME
 ??6CDumpContext@@QEAAAEAV0@PEAUHFONT__@@@Z @ 1064 NONAME
 ??6CDumpContext@@QEAAAEAV0@PEAUHMENU__@@@Z @ 1065 NONAME
 ??6CDumpContext@@QEAAAEAV0@PEAUHWND__@@@Z @ 1066 NONAME
 ??6CDumpContext@@QEAAAEAV0@PEB_W@Z @ 1067 NONAME
 ??6CDumpContext@@QEAAAEAV0@PEBD@Z @ 1068 NONAME
 ??6CDumpContext@@QEAAAEAV0@PEBVCObject@@@Z @ 1069 NONAME
 ??6CDumpContext@@QEAAAEAV0@PEBX@Z @ 1070 NONAME
 ??8CGdiObject@@QEBAHAEBV0@@Z @ 1071 NONAME
 ??8CMenu@@QEBAHAEBV0@@Z @ 1072 NONAME
 ??8COleCurrency@@QEBAHAEBV0@@Z @ 1073 NONAME
 ??8COleSafeArray@@QEBAHAEBUtagSAFEARRAY@@@Z @ 1074 NONAME
 ??8COleSafeArray@@QEBAHAEBUtagVARIANT@@@Z @ 1075 NONAME
 ??8COleSafeArray@@QEBAHAEBV0@@Z @ 1076 NONAME
 ??8COleSafeArray@@QEBAHAEBVCOleVariant@@@Z @ 1077 NONAME
 ??8COleSafeArray@@QEBAHPEBUtagSAFEARRAY@@@Z @ 1078 NONAME
 ??8COleSafeArray@@QEBAHPEBUtagVARIANT@@@Z @ 1079 NONAME
 ??8COleVariant@@QEBAHAEBUtagVARIANT@@@Z @ 1080 NONAME
 ??8COleVariant@@QEBAHPEBUtagVARIANT@@@Z @ 1081 NONAME
 ??8CWnd@@QEBAHAEBV0@@Z @ 1082 NONAME
 ??9CGdiObject@@QEBAHAEBV0@@Z @ 1083 NONAME
 ??9CMenu@@QEBAHAEBV0@@Z @ 1084 NONAME
 ??9COleCurrency@@QEBAHAEBV0@@Z @ 1085 NONAME
 ??9CWnd@@QEBAHAEBV0@@Z @ 1086 NONAME
 ??A?$CSimpleStringT@_W$00@ATL@@QEBA_WH@Z @ 1087 NONAME
 ??A?$CSimpleStringT@D$00@ATL@@QEBADH@Z @ 1088 NONAME
 ??ACByteArray@@QEAAAEAE_J@Z @ 1089 NONAME
 ??ACByteArray@@QEBAE_J@Z @ 1090 NONAME
 ??ACDWordArray@@QEAAAEAK_J@Z @ 1091 NONAME
 ??ACDWordArray@@QEBAK_J@Z @ 1092 NONAME
 ??ACMapPtrToPtr@@QEAAAEAPEAXPEAX@Z @ 1093 NONAME
 ??ACMapPtrToWord@@QEAAAEAGPEAX@Z @ 1094 NONAME
 ??ACMapStringToOb@@QEAAAEAPEAVCObject@@PEB_W@Z @ 1095 NONAME
 ??ACMapStringToPtr@@QEAAAEAPEAXPEB_W@Z @ 1096 NONAME
 ??ACMapStringToString@@QEAAAEAV?$CStringT@_WV?$StrTraitMFC_DLL@_WV?$ChTraitsCRT@_W@ATL@@@@@ATL@@PEB_W@Z @ 1097 NONAME
 ??ACMapWordToOb@@QEAAAEAPEAVCObject@@G@Z @ 1098 NONAME
 ??ACMapWordToPtr@@QEAAAEAPEAXG@Z @ 1099 NONAME
 ??ACObArray@@QEAAAEAPEAVCObject@@_J@Z @ 1100 NONAME
 ??ACObArray@@QEBAPEAVCObject@@_J@Z @ 1101 NONAME
 ??ACPtrArray@@QEAAAEAPEAX_J@Z @ 1102 NONAME
 ??ACPtrArray@@QEBAPEAX_J@Z @ 1103 NONAME
 ??ACStringArray@@QEAAAEAV?$CStringT@_WV?$StrTraitMFC_DLL@_WV?$ChTraitsCRT@_W@ATL@@@@@ATL@@_J@Z @ 1104 NONAME
 ??ACStringArray@@QEBAAEBV?$CStringT@_WV?$StrTraitMFC_DLL@_WV?$ChTraitsCRT@_W@ATL@@@@@ATL@@_J@Z @ 1105 NONAME
 ??ACUIntArray@@QEAAAEAI_J@Z @ 1106 NONAME
 ??ACUIntArray@@QEBAI_J@Z @ 1107 NONAME
 ??ACWordArray@@QEAAAEAG_J@Z @ 1108 NONAME
 ??ACWordArray@@QEBAG_J@Z @ 1109 NONAME
 ??B?$CSimpleStringT@_W$00@ATL@@QEAAAEAV?$CSimpleStringT@_W$0A@@1@XZ @ 1110 NONAME
 ??B?$CSimpleStringT@_W$00@ATL@@QEBAPEB_WXZ @ 1111 NONAME
 ??B?$CSimpleStringT@D$00@ATL@@QEAAAEAV?$CSimpleStringT@D$0A@@1@XZ @ 1112 NONAME
 ??B?$CSimpleStringT@D$00@ATL@@QEBAPEBDXZ @ 1113 NONAME
 ??B?$CStringT@_WV?$StrTraitMFC_DLL@_WV?$ChTraitsCRT@_W@ATL@@@@@ATL@@QEAAAEAV?$CSimpleStringT@_W$0A@@1@XZ @ 1114 NONAME
 ??B?$CStringT@DV?$StrTraitMFC_DLL@DV?$ChTraitsCRT@D@ATL@@@@@ATL@@QEAAAEAV?$CSimpleStringT@D$0A@@1@XZ @ 1115 NONAME
 ??BCAsyncSocket@@QEBA_KXZ @ 1116 NONAME
 ??BCBitmap@@QEBAPEAUHBITMAP__@@XZ @ 1117 NONAME
 ??BCBrush@@QEBAPEAUHBRUSH__@@XZ @ 1118 NONAME
 ??BCCriticalSection@@QEAAPEAU_RTL_CRITICAL_SECTION@@XZ @ 1119 NONAME
 ??BCDC@@QEBAPEAUHDC__@@XZ @ 1120 NONAME
 ??BCFile@@QEBAPEAXXZ @ 1121 NONAME
 ??BCFont@@QEBAPEAUHFONT__@@XZ @ 1122 NONAME
 ??BCGdiObject@@QEBAPEAXXZ @ 1123 NONAME
 ??BCGopherLocator@@QEBAPEB_WXZ @ 1124 NONAME
 ??BCImageList@@QEBAPEAU_IMAGELIST@@XZ @ 1125 NONAME
 ??BCInternetConnection@@QEBAPEAXXZ @ 1126 NONAME
 ??BCInternetFile@@QEBAPEAXXZ @ 1127 NONAME
 ??BCInternetSession@@QEBAPEAXXZ @ 1128 NONAME
 ??BCMenu@@QEBAPEAUHMENU__@@XZ @ 1129 NONAME
 ??BCOleCurrency@@QEBA?ATtagCY@@XZ @ 1130 NONAME
 ??BCOleDispatchDriver@@QEAAPEAUIDispatch@@XZ @ 1131 NONAME
 ??BCOleSafeArray@@QEAAPEAUtagVARIANT@@XZ @ 1132 NONAME
 ??BCOleSafeArray@@QEBAPEBUtagVARIANT@@XZ @ 1133 NONAME
 ??BCOleVariant@@QEAAPEAUtagVARIANT@@XZ @ 1134 NONAME
 ??BCOleVariant@@QEBAPEBUtagVARIANT@@XZ @ 1135 NONAME
 ??BCPalette@@QEBAPEAUHPALETTE__@@XZ @ 1136 NONAME
 ??BCPen@@QEBAPEAUHPEN__@@XZ @ 1137 NONAME
 ??BCRgn@@QEBAPEAUHRGN__@@XZ @ 1138 NONAME
 ??BCSyncObject@@QEBAPEAXXZ @ 1139 NONAME
 ??BCWinThread@@QEBAPEAXXZ @ 1140 NONAME
 ??BCWnd@@QEBAPEAUHWND__@@XZ @ 1141 NONAME
 ??DCOleCurrency@@QEBA?AV0@J@Z @ 1142 NONAME
 ??GCOleCurrency@@QEBA?AV0@AEBV0@@Z @ 1143 NONAME
 ??GCOleCurrency@@QEBA?AV0@XZ @ 1144 NONAME
 ??HCOleCurrency@@QEBA?AV0@AEBV0@@Z @ 1145 NONAME
 ??KCOleCurrency@@QEBA?AV0@J@Z @ 1146 NONAME
 ??MCOleCurrency@@QEBAHAEBV0@@Z @ 1147 NONAME
 ??NCOleCurrency@@QEBAHAEBV0@@Z @ 1148 NONAME
 ??OCOleCurrency@@QEBAHAEBV0@@Z @ 1149 NONAME
 ??PCOleCurrency@@QEBAHAEBV0@@Z @ 1150 NONAME
 ??XCOleCurrency@@QEAAAEBV0@J@Z @ 1151 NONAME
 ??Y?$CSimpleStringT@_W$00@ATL@@QEAAAEAV01@_W@Z @ 1152 NONAME
 ??Y?$CSimpleStringT@_W$00@ATL@@QEAAAEAV01@AEBV01@@Z @ 1153 NONAME
 ??Y?$CSimpleStringT@_W$00@ATL@@QEAAAEAV01@D@Z @ 1154 NONAME
 ??Y?$CSimpleStringT@_W$00@ATL@@QEAAAEAV01@E@Z @ 1155 NONAME
 ??Y?$CSimpleStringT@_W$00@ATL@@QEAAAEAV01@PEB_W@Z @ 1156 NONAME
 ??Y?$CSimpleStringT@D$00@ATL@@QEAAAEAV01@_W@Z @ 1157 NONAME
 ??Y?$CSimpleStringT@D$00@ATL@@QEAAAEAV01@AEBV01@@Z @ 1158 NONAME
 ??Y?$CSimpleStringT@D$00@ATL@@QEAAAEAV01@D@Z @ 1159 NONAME
 ??Y?$CSimpleStringT@D$00@ATL@@QEAAAEAV01@E@Z @ 1160 NONAME
 ??Y?$CSimpleStringT@D$00@ATL@@QEAAAEAV01@PEBD@Z @ 1161 NONAME
 ??Y?$CStringT@_WV?$StrTraitMFC_DLL@_WV?$ChTraitsCRT@_W@ATL@@@@@ATL@@QEAAAEAV01@_W@Z @ 1162 NONAME
 ??Y?$CStringT@_WV?$StrTraitMFC_DLL@_WV?$ChTraitsCRT@_W@ATL@@@@@ATL@@QEAAAEAV01@AEBUtagVARIANT@@@Z @ 1163 NONAME
 ??Y?$CStringT@_WV?$StrTraitMFC_DLL@_WV?$ChTraitsCRT@_W@ATL@@@@@ATL@@QEAAAEAV01@AEBV?$CSimpleStringT@_W$00@1@@Z @ 1164 NONAME
 ??Y?$CStringT@_WV?$StrTraitMFC_DLL@_WV?$ChTraitsCRT@_W@ATL@@@@@ATL@@QEAAAEAV01@D@Z @ 1165 NONAME
 ??Y?$CStringT@_WV?$StrTraitMFC_DLL@_WV?$ChTraitsCRT@_W@ATL@@@@@ATL@@QEAAAEAV01@E@Z @ 1166 NONAME
 ??Y?$CStringT@_WV?$StrTraitMFC_DLL@_WV?$ChTraitsCRT@_W@ATL@@@@@ATL@@QEAAAEAV01@PEB_W@Z @ 1167 NONAME
 ??Y?$CStringT@_WV?$StrTraitMFC_DLL@_WV?$ChTraitsCRT@_W@ATL@@@@@ATL@@QEAAAEAV01@PEBD@Z @ 1168 NONAME
 ??Y?$CStringT@DV?$StrTraitMFC_DLL@DV?$ChTraitsCRT@D@ATL@@@@@ATL@@QEAAAEAV01@_W@Z @ 1169 NONAME
 ??Y?$CStringT@DV?$StrTraitMFC_DLL@DV?$ChTraitsCRT@D@ATL@@@@@ATL@@QEAAAEAV01@AEBUtagVARIANT@@@Z @ 1170 NONAME
 ??Y?$CStringT@DV?$StrTraitMFC_DLL@DV?$ChTraitsCRT@D@ATL@@@@@ATL@@QEAAAEAV01@AEBV?$CSimpleStringT@D$00@1@@Z @ 1171 NONAME
 ??Y?$CStringT@DV?$StrTraitMFC_DLL@DV?$ChTraitsCRT@D@ATL@@@@@ATL@@QEAAAEAV01@D@Z @ 1172 NONAME
 ??Y?$CStringT@DV?$StrTraitMFC_DLL@DV?$ChTraitsCRT@D@ATL@@@@@ATL@@QEAAAEAV01@E@Z @ 1173 NONAME
 ??Y?$CStringT@DV?$StrTraitMFC_DLL@DV?$ChTraitsCRT@D@ATL@@@@@ATL@@QEAAAEAV01@PEB_W@Z @ 1174 NONAME
 ??Y?$CStringT@DV?$StrTraitMFC_DLL@DV?$ChTraitsCRT@D@ATL@@@@@ATL@@QEAAAEAV01@PEBD@Z @ 1175 NONAME
 ??YCOleCurrency@@QEAAAEBV0@AEBV0@@Z @ 1176 NONAME
 ??ZCOleCurrency@@QEAAAEBV0@AEBV0@@Z @ 1177 NONAME
 ?_AfxAbortProc@@YAHPEAUHDC__@@H@Z @ 1178 NONAME
 ?_afxAmbientCache@@3V?$CThreadLocal@V_AFXCTL_AMBIENT_CACHE@@@@A @ 1179 NONAME DATA
 ?_AfxDeleteRegKey@@YAHPEB_W@Z @ 1180 NONAME
 ?_AfxFindSiteOrWnd@@YAPEAUCOleControlSiteOrWnd@@PEAVCWnd@@0@Z @ 1181 NONAME
 ?_afxRichEditState@@3V?$CProcessLocal@V_AFX_RICHEDIT_STATE@@@@A @ 1182 NONAME DATA
 ?_AfxSocketInit@@YAHPEAUWSAData@@@Z @ 1183 NONAME
 ?Abort@CArchive@@QEAAXXZ @ 1184 NONAME
 ?Abort@CFile@@UEAAXXZ @ 1185 NONAME
 ?Abort@CInternetFile@@UEAAXXZ @ 1186 NONAME
 ?Abort@CMemFile@@UEAAXXZ @ 1187 NONAME
 ?Abort@CMirrorFile@@UEAAXXZ @ 1188 NONAME
 ?Abort@COleStreamFile@@UEAAXXZ @ 1189 NONAME
 ?Abort@CSocketFile@@UEAAXXZ @ 1190 NONAME
 ?Abort@CStdioFile@@UEAAXXZ @ 1191 NONAME
 ?AbortDoc@CDC@@QEAAHXZ @ 1192 NONAME
 ?AbortPath@CDC@@QEAAHXZ @ 1193 NONAME
 ?AboutToDo@XNotifyDBEvents@COleControlSite@@UEAAJKKQEAUtagDBNOTIFYREASON@@@Z @ 1194 NONAME
 ?accDoDefaultAction@CCheckListBox@@MEAAJUtagVARIANT@@@Z @ 1195 NONAME
 ?accDoDefaultAction@CWnd@@UEAAJUtagVARIANT@@@Z @ 1196 NONAME
 ?accDoDefaultAction@XAccessible@CWnd@@UEAAJUtagVARIANT@@@Z @ 1197 NONAME
 ?Accept@CAsyncSocket@@UEAAHAEAV1@PEAUsockaddr@@PEAH@Z @ 1198 NONAME
 ?Accept@CSocket@@UEAAHAEAVCAsyncSocket@@PEAUsockaddr@@PEAH@Z @ 1199 NONAME
 ?AccessData@COleSafeArray@@QEAAXPEAPEAX@Z @ 1200 NONAME
 ?accHitTest@CWnd@@UEAAJJJPEAUtagVARIANT@@@Z @ 1201 NONAME
 ?accHitTest@XAccessible@CWnd@@UEAAJJJPEAUtagVARIANT@@@Z @ 1202 NONAME
 ?accLocation@CWnd@@UEAAJPEAJ000UtagVARIANT@@@Z @ 1203 NONAME
 ?accLocation@XAccessible@CWnd@@UEAAJPEAJ000UtagVARIANT@@@Z @ 1204 NONAME
 ?accNavigate@CWnd@@UEAAJJUtagVARIANT@@PEAU2@@Z @ 1205 NONAME
 ?accNavigate@XAccessible@CWnd@@UEAAJJUtagVARIANT@@PEAU3@@Z @ 1206 NONAME
 ?accSelect@CWnd@@UEAAJJUtagVARIANT@@@Z @ 1207 NONAME
 ?accSelect@XAccessible@CWnd@@UEAAJJUtagVARIANT@@@Z @ 1208 NONAME
 ?Activate@COleClientItem@@QEAAXJPEAVCView@@PEAUtagMSG@@@Z @ 1209 NONAME
 ?Activate@CToolTipCtrl@@QEAAXH@Z @ 1210 NONAME
 ?Activate@XPropertyPage@COlePropertyPage@@UEAAJPEAUHWND__@@PEBUtagRECT@@H@Z @ 1211 NONAME
 ?ActivateAndShow@COleDocObjectItem@@IEAAXXZ @ 1212 NONAME
 ?ActivateAs@COleClientItem@@UEAAHPEB_WAEBU_GUID@@1@Z @ 1213 NONAME
 ?ActivateAs@CRichEditCntrItem@@UEAAHPEB_WAEBU_GUID@@1@Z @ 1214 NONAME
 ?ActivateDocObject@CDocObjectServer@@QEAAXXZ @ 1215 NONAME
 ?ActivateDocObject@COleServerDoc@@QEAAXXZ @ 1216 NONAME
 ?ActivateFrame@CFrameWnd@@UEAAXH@Z @ 1217 NONAME
 ?ActivateFrame@CMDIChildWnd@@UEAAXH@Z @ 1218 NONAME
 ?ActivateInPlace@COleServerDoc@@QEAAHXZ @ 1219 NONAME
 ?ActivateMe@XOleDocumentSite@COleDocObjectItem@@UEAAJPEAUIOleDocumentView@@@Z @ 1220 NONAME
 ?ActivateNext@CSplitterWnd@@UEAAXH@Z @ 1221 NONAME
 ?ActivateTopParent@CWnd@@QEAAXXZ @ 1222 NONAME
 ?Add@CByteArray@@QEAA_JE@Z @ 1223 NONAME
 ?Add@CDWordArray@@QEAA_JK@Z @ 1224 NONAME
 ?Add@CImageList@@QEAAHPEAUHICON__@@@Z @ 1225 NONAME
 ?Add@CImageList@@QEAAHPEAVCBitmap@@0@Z @ 1226 NONAME
 ?Add@CImageList@@QEAAHPEAVCBitmap@@K@Z @ 1227 NONAME
 ?Add@CObArray@@QEAA_JPEAVCObject@@@Z @ 1228 NONAME
 ?Add@CPtrArray@@QEAA_JPEAX@Z @ 1229 NONAME
 ?Add@CRecentFileList@@UEAAXPEB_W@Z @ 1230 NONAME
 ?Add@CStringArray@@QEAA_JAEBV?$CStringT@_WV?$StrTraitMFC_DLL@_WV?$ChTraitsCRT@_W@ATL@@@@@ATL@@@Z @ 1231 NONAME
 ?Add@CStringArray@@QEAA_JPEB_W@Z @ 1232 NONAME
 ?Add@CUIntArray@@QEAA_JI@Z @ 1233 NONAME
 ?Add@CWordArray@@QEAA_JG@Z @ 1234 NONAME
 ?AddBar@CReBar@@QEAAHPEAVCWnd@@KKPEB_WK@Z @ 1235 NONAME
 ?AddBar@CReBar@@QEAAHPEAVCWnd@@PEB_WPEAVCBitmap@@K@Z @ 1236 NONAME
 ?AddBitmap@CToolBarCtrl@@QEAAHHI@Z @ 1237 NONAME
 ?AddBitmap@CToolBarCtrl@@QEAAHHPEAVCBitmap@@@Z @ 1238 NONAME
 ?AddButtons@CToolBarCtrl@@QEAAHHPEAU_TBBUTTON@@@Z @ 1239 NONAME
 ?AddCachedData@COleClientItem@@IEAAXPEAVCOleDataSource@@@Z @ 1240 NONAME
 ?AddClassIDToList@COleInsertDialog@@IEAAXAEAPEAU_GUID@@AEAH1PEAU2@@Z @ 1241 NONAME
 ?AddConnection@CEnumConnections@@QEAAXPEAUtagCONNECTDATA@@@Z @ 1242 NONAME
 ?AddConnPoint@CEnumConnPoints@@QEAAXPEAUIConnectionPoint@@@Z @ 1243 NONAME
 ?AddControlBar@CFrameWnd@@QEAAXPEAVCControlBar@@@Z @ 1244 NONAME
 ?AddDocTemplate@CDocManager@@UEAAXPEAVCDocTemplate@@@Z @ 1245 NONAME
 ?AddDocTemplate@CWinApp@@QEAAXPEAVCDocTemplate@@@Z @ 1246 NONAME
 ?AddDocument@CDocTemplate@@UEAAXPEAVCDocument@@@Z @ 1247 NONAME
 ?AddDocument@CMultiDocTemplate@@UEAAXPEAVCDocument@@@Z @ 1248 NONAME
 ?AddDocument@CSingleDocTemplate@@UEAAXPEAVCDocument@@@Z @ 1249 NONAME
 ?AddFormat@CEnumFormatEtc@@QEAAXPEBUtagFORMATETC@@@Z @ 1250 NONAME
 ?AddFormat@COlePasteSpecialDialog@@QEAAXAEBUtagFORMATETC@@PEA_W1K@Z @ 1251 NONAME
 ?AddFormat@COlePasteSpecialDialog@@QEAAXIKIHH@Z @ 1252 NONAME
 ?AddFrameLevelUI@COleControl@@MEAAXXZ @ 1253 NONAME
 ?AddFrameWnd@CFrameWnd@@IEAAXXZ @ 1254 NONAME
 ?AddHead@CObList@@QEAAPEAU__POSITION@@PEAVCObject@@@Z @ 1255 NONAME
 ?AddHead@CObList@@QEAAXPEAV1@@Z @ 1256 NONAME
 ?AddHead@CPtrList@@QEAAPEAU__POSITION@@PEAX@Z @ 1257 NONAME
 ?AddHead@CPtrList@@QEAAXPEAV1@@Z @ 1258 NONAME
 ?AddHead@CSimpleList@@QEAAXPEAX@Z @ 1259 NONAME
 ?AddHead@CStringList@@QEAAPEAU__POSITION@@AEBV?$CStringT@_WV?$StrTraitMFC_DLL@_WV?$ChTraitsCRT@_W@ATL@@@@@ATL@@@Z @ 1260 NONAME
 ?AddHead@CStringList@@QEAAPEAU__POSITION@@PEB_W@Z @ 1261 NONAME
 ?AddHead@CStringList@@QEAAXPEAV1@@Z @ 1262 NONAME
 ?AddItem@COleDocument@@UEAAXPEAVCDocItem@@@Z @ 1263 NONAME
 ?AddLinkEntry@COlePasteSpecialDialog@@QEAA?AW4tagOLEUIPASTEFLAG@@I@Z @ 1264 NONAME
 ?AddMetaFileComment@CDC@@QEAAHIPEBE@Z @ 1265 NONAME
 ?AddNew@CRecordset@@UEAAXXZ @ 1266 NONAME
 ?AddOtherClipboardData@COleServerItem@@QEAAXPEAVCOleDataSource@@@Z @ 1267 NONAME
 ?AddPage@CPropertySheet@@QEAAXPEAVCPropertyPage@@@Z @ 1268 NONAME
 ?AddProperty@CPropertySection@@QEAAXPEAVCProperty@@@Z @ 1269 NONAME
 ?AddProperty@CPropertySet@@QEAAXU_GUID@@PEAVCProperty@@@Z @ 1270 NONAME
 ?AddRef@CArchiveStream@@UEAAKXZ @ 1271 NONAME
 ?AddRef@CBlobProperty@@UEAAKXZ @ 1272 NONAME
 ?AddRef@CBrowserControlSite@@MEAAKXZ @ 1273 NONAME
 ?AddRef@CDHtmlControlSink@@UEAAKXZ @ 1274 NONAME
 ?AddRef@CDHtmlElementEventSink@@UEAAKXZ @ 1275 NONAME
 ?AddRef@CDHtmlEventSink@@UEAAKXZ @ 1276 NONAME
 ?AddRef@CInnerUnknown@@UEAAKXZ @ 1277 NONAME
 ?AddRef@COleConnPtContainer@@UEAAKXZ @ 1278 NONAME
 ?AddRef@COleDispatchImpl@@UEAAKXZ @ 1279 NONAME
 ?AddRef@COleUILinkInfo@@UEAAKXZ @ 1280 NONAME
 ?AddRef@CPrintDialogEx@@UEAAKXZ @ 1281 NONAME
 ?AddRef@XAccessible@CWnd@@UEAAKXZ @ 1282 NONAME
 ?AddRef@XAccessibleServer@CWnd@@UEAAKXZ @ 1283 NONAME
 ?AddRef@XAdviseSink@COleClientItem@@UEAAKXZ @ 1284 NONAME
 ?AddRef@XAmbientProps@COleControlSite@@UEAAKXZ @ 1285 NONAME
 ?AddRef@XBoundObjectSite@COleControlSite@@UEAAKXZ @ 1286 NONAME
 ?AddRef@XClassFactory@COleObjectFactory@@UEAAKXZ @ 1287 NONAME
 ?AddRef@XConnPt@CConnectionPoint@@UEAAKXZ @ 1288 NONAME
 ?AddRef@XDataObject@COleControl@@UEAAKXZ @ 1289 NONAME
 ?AddRef@XDataObject@COleDataSource@@UEAAKXZ @ 1290 NONAME
 ?AddRef@XDataObject@COleServerDoc@@UEAAKXZ @ 1291 NONAME
 ?AddRef@XDataObject@COleServerItem@@UEAAKXZ @ 1292 NONAME
 ?AddRef@XDocHostUIHandler@CHtmlControlSite@@UEAAKXZ @ 1293 NONAME
 ?AddRef@XDropSource@COleDropSource@@UEAAKXZ @ 1294 NONAME
 ?AddRef@XDropTarget@COleDropTarget@@UEAAKXZ @ 1295 NONAME
 ?AddRef@XEnumVOID@CEnumArray@@UEAAKXZ @ 1296 NONAME
 ?AddRef@XEventSink@COleControlSite@@UEAAKXZ @ 1297 NONAME
 ?AddRef@XFileDialogControlEvents@CFileDialog@@UEAAKXZ @ 1298 NONAME
 ?AddRef@XFileDialogEvents@CFileDialog@@UEAAKXZ @ 1299 NONAME
 ?AddRef@XFontNotification@COleControl@@UEAAKXZ @ 1300 NONAME
 ?AddRef@XMessageFilter@COleMessageFilter@@UEAAKXZ @ 1301 NONAME
 ?AddRef@XNotifyDBEvents@COleControlSite@@UEAAKXZ @ 1302 NONAME
 ?AddRef@XOleCache@COleControl@@UEAAKXZ @ 1303 NONAME
 ?AddRef@XOleClientSite@COleClientItem@@UEAAKXZ @ 1304 NONAME
 ?AddRef@XOleClientSite@COleControlSite@@UEAAKXZ @ 1305 NONAME
 ?AddRef@XOleCommandTarget@CDocObjectServer@@UEAAKXZ @ 1306 NONAME
 ?AddRef@XOleCommandTarget@COleFrameHook@@UEAAKXZ @ 1307 NONAME
 ?AddRef@XOleContainer@COleControlContainer@@UEAAKXZ @ 1308 NONAME
 ?AddRef@XOleControl@COleControl@@UEAAKXZ @ 1309 NONAME
 ?AddRef@XOleControlSite@COleControlSite@@UEAAKXZ @ 1310 NONAME
 ?AddRef@XOleDocument@CDocObjectServer@@UEAAKXZ @ 1311 NONAME
 ?AddRef@XOleDocumentSite@COleDocObjectItem@@UEAAKXZ @ 1312 NONAME
 ?AddRef@XOleDocumentView@CDocObjectServer@@UEAAKXZ @ 1313 NONAME
 ?AddRef@XOleInPlaceActiveObject@COleControl@@UEAAKXZ @ 1314 NONAME
 ?AddRef@XOleInPlaceActiveObject@COleServerDoc@@UEAAKXZ @ 1315 NONAME
 ?AddRef@XOleInPlaceFrame@COleFrameHook@@UEAAKXZ @ 1316 NONAME
 ?AddRef@XOleInPlaceObject@COleControl@@UEAAKXZ @ 1317 NONAME
 ?AddRef@XOleInPlaceObject@COleServerDoc@@UEAAKXZ @ 1318 NONAME
 ?AddRef@XOleIPFrame@COleControlContainer@@UEAAKXZ @ 1319 NONAME
 ?AddRef@XOleIPSite@COleClientItem@@UEAAKXZ @ 1320 NONAME
 ?AddRef@XOleIPSite@COleControlSite@@UEAAKXZ @ 1321 NONAME
 ?AddRef@XOleItemContainer@COleLinkingDoc@@UEAAKXZ @ 1322 NONAME
 ?AddRef@XOleObject@CDocObjectServer@@UEAAKXZ @ 1323 NONAME
 ?AddRef@XOleObject@COleControl@@UEAAKXZ @ 1324 NONAME
 ?AddRef@XOleObject@COleServerDoc@@UEAAKXZ @ 1325 NONAME
 ?AddRef@XOleObject@COleServerItem@@UEAAKXZ @ 1326 NONAME
 ?AddRef@XOleUIObjInfo@COlePropertiesDialog@@UEAAKXZ @ 1327 NONAME
 ?AddRef@XPerPropertyBrowsing@COleControl@@UEAAKXZ @ 1328 NONAME
 ?AddRef@XPersistFile@COleLinkingDoc@@UEAAKXZ @ 1329 NONAME
 ?AddRef@XPersistMemory@COleControl@@UEAAKXZ @ 1330 NONAME
 ?AddRef@XPersistPropertyBag@COleControl@@UEAAKXZ @ 1331 NONAME
 ?AddRef@XPersistStorage@COleControl@@UEAAKXZ @ 1332 NONAME
 ?AddRef@XPersistStorage@COleServerDoc@@UEAAKXZ @ 1333 NONAME
 ?AddRef@XPersistStreamInit@COleControl@@UEAAKXZ @ 1334 NONAME
 ?AddRef@XPointerInactive@COleControl@@UEAAKXZ @ 1335 NONAME
 ?AddRef@XPrint@CDocObjectServer@@UEAAKXZ @ 1336 NONAME
 ?AddRef@XPropertyNotifySink@COleControlSite@@UEAAKXZ @ 1337 NONAME
 ?AddRef@XPropertyPage@COlePropertyPage@@UEAAKXZ @ 1338 NONAME
 ?AddRef@XPropNotifySink@COlePropertyPage@@UEAAKXZ @ 1339 NONAME
 ?AddRef@XProvideClassInfo@COleControl@@UEAAKXZ @ 1340 NONAME
 ?AddRef@XQuickActivate@COleControl@@UEAAKXZ @ 1341 NONAME
 ?AddRef@XRichEditOleCallback@CRichEditView@@UEAAKXZ @ 1342 NONAME
 ?AddRef@XRowsetNotify@COleControlSite@@UEAAKXZ @ 1343 NONAME
 ?AddRef@XSpecifyPropertyPages@COleControl@@UEAAKXZ @ 1344 NONAME
 ?AddRef@XViewObject@COleControl@@UEAAKXZ @ 1345 NONAME
 ?AddReplaceBitmap@CToolBar@@QEAAHPEAUHBITMAP__@@@Z @ 1346 NONAME
 ?AddRequestHeaders@CHttpFile@@QEAAHAEAV?$CStringT@_WV?$StrTraitMFC_DLL@_WV?$ChTraitsCRT@_W@ATL@@@@@ATL@@K@Z @ 1347 NONAME
 ?AddRequestHeaders@CHttpFile@@QEAAHPEB_WKH@Z @ 1348 NONAME
 ?AddSection@CPropertySet@@QEAAPEAVCPropertySection@@U_GUID@@@Z @ 1349 NONAME
 ?AddSection@CPropertySet@@QEAAXPEAVCPropertySection@@@Z @ 1350 NONAME
 ?AddStandardFormats@COlePasteSpecialDialog@@QEAAXH@Z @ 1351 NONAME
 ?AddString@CComboBox@@QEAAHPEB_W@Z @ 1352 NONAME
 ?AddString@CComboBoxEx@@QEAAHPEB_W@Z @ 1353 NONAME
 ?AddString@CListBox@@QEAAHPEB_W@Z @ 1354 NONAME
 ?AddString@CToolBarCtrl@@QEAAHI@Z @ 1355 NONAME
 ?AddStrings@CToolBarCtrl@@QEAAHPEB_W@Z @ 1356 NONAME
 ?AddTail@CObList@@QEAAPEAU__POSITION@@PEAVCObject@@@Z @ 1357 NONAME
 ?AddTail@CObList@@QEAAXPEAV1@@Z @ 1358 NONAME
 ?AddTail@CPtrList@@QEAAPEAU__POSITION@@PEAX@Z @ 1359 NONAME
 ?AddTail@CPtrList@@QEAAXPEAV1@@Z @ 1360 NONAME
 ?AddTail@CStringList@@QEAAPEAU__POSITION@@AEBV?$CStringT@_WV?$StrTraitMFC_DLL@_WV?$ChTraitsCRT@_W@ATL@@@@@ATL@@@Z @ 1361 NONAME
 ?AddTail@CStringList@@QEAAPEAU__POSITION@@PEB_W@Z @ 1362 NONAME
 ?AddTail@CStringList@@QEAAXPEAV1@@Z @ 1363 NONAME
 ?AddTool@CToolTipCtrl@@QEAAHPEAVCWnd@@IPEBUtagRECT@@_K@Z @ 1364 NONAME
 ?AddTool@CToolTipCtrl@@QEAAHPEAVCWnd@@PEB_WPEBUtagRECT@@_K@Z @ 1365 NONAME
 ?AddToRecentFileList@CWinApp@@UEAAXPEB_W@Z @ 1366 NONAME
 ?AddView@CDocument@@QEAAXPEAVCView@@@Z @ 1367 NONAME
 ?AdjustCP@CMetaFileDC@@IEAAXH@Z @ 1368 NONAME
 ?AdjustDialogPosition@CRichEditView@@QEAAXPEAVCDialog@@@Z @ 1369 NONAME
 ?AdjustRect@CRectTracker@@UEAAXHPEAUtagRECT@@@Z @ 1370 NONAME
 ?AdjustRect@CTabCtrl@@QEAAXHPEAUtagRECT@@@Z @ 1371 NONAME
 ?AdjustRect@CToolTipCtrl@@QEAAHPEAUtagRECT@@H@Z @ 1372 NONAME
 ?AdjustRect@XOleIPSite@COleControlSite@@UEAAJPEAUtagRECT@@@Z @ 1373 NONAME
 ?Advise@CDHtmlElementEventSink@@QEAAJPEAUIUnknown@@AEBU_GUID@@@Z @ 1374 NONAME
 ?Advise@XConnPt@CConnectionPoint@@UEAAJPEAUIUnknown@@PEAK@Z @ 1375 NONAME
 ?Advise@XOleObject@CDocObjectServer@@UEAAJPEAUIAdviseSink@@PEAK@Z @ 1376 NONAME
 ?Advise@XOleObject@COleControl@@UEAAJPEAUIAdviseSink@@PEAK@Z @ 1377 NONAME
 ?Advise@XOleObject@COleServerDoc@@UEAAJPEAUIAdviseSink@@PEAK@Z @ 1378 NONAME
 ?Advise@XOleObject@COleServerItem@@UEAAJPEAUIAdviseSink@@PEAK@Z @ 1379 NONAME
 ?AfxA2WHelper@@YAPEA_WPEA_WPEBDH@Z @ 1380 NONAME
 ?AfxAbort@@YAXXZ @ 1381 NONAME
 ?AfxActivateActCtx@@YAHPEAXPEA_K@Z @ 1382 NONAME
 ?AfxActivateActCtxWrapper@@YA?AW4eActCtxResult@@PEAXPEA_K@Z @ 1383 NONAME
 ?AfxAllocMemoryDebug@@YAPEAX_KHPEBDH@Z @ 1384 NONAME
 ?AfxAssertFailedLine@@YAHPEBDH@Z @ 1385 NONAME
 ?AfxAssertValidObject@@YAXPEBVCObject@@PEBDH@Z @ 1386 NONAME
 ?AfxBeginThread@@YAPEAVCWinThread@@P6AIPEAX@Z0HIKPEAU_SECURITY_ATTRIBUTES@@@Z @ 1387 NONAME
 ?AfxBeginThread@@YAPEAVCWinThread@@PEAUCRuntimeClass@@HIKPEAU_SECURITY_ATTRIBUTES@@@Z @ 1388 NONAME
 ?AfxBSTR2CString@@YAXPEAV?$CStringT@_WV?$StrTraitMFC_DLL@_WV?$ChTraitsCRT@_W@ATL@@@@@ATL@@PEA_W@Z @ 1389 NONAME
 ?AfxCallWndProc@@YA_JPEAVCWnd@@PEAUHWND__@@I_K_J@Z @ 1390 NONAME
 ?AfxCancelModes@@YAXPEAUHWND__@@@Z @ 1391 NONAME
 ?AfxCheckError@@YAXJ@Z @ 1392 NONAME
 ?AfxCheckMemory@@YAHXZ @ 1393 NONAME
 ?AfxClassInit@@YAXPEAUCRuntimeClass@@@Z @ 1394 NONAME
 ?AfxComparePath@@YAHPEB_W0@Z @ 1395 NONAME
 ?AfxCompareValueByRef@@YAHPEAX0H@Z @ 1396 NONAME
 ?AfxConnectionAdvise@@YAHPEAUIUnknown@@AEBU_GUID@@0HPEAK@Z @ 1397 NONAME
 ?AfxConnectionUnadvise@@YAHPEAUIUnknown@@AEBU_GUID@@0HK@Z @ 1398 NONAME
 ?AfxCopyValueByRef@@YAXPEAX0PEA_JH@Z @ 1399 NONAME
 ?AfxCoreInitModule@@YAXXZ @ 1400 NONAME
 ?AfxCreateActCtxW@@YAPEAXPEBUtagACTCTXW@@@Z @ 1401 NONAME
 ?AfxCreateDC@@YAPEAUHDC__@@PEAX0@Z @ 1402 NONAME
 ?AfxCriticalInit@@YAHXZ @ 1403 NONAME
 ?AfxCriticalNewHandler@@YAH_K@Z @ 1404 NONAME
 ?AfxCriticalTerm@@YAXXZ @ 1405 NONAME
 ?AfxCustomLogFont@@YAHIPEAUtagLOGFONTW@@@Z @ 1406 NONAME
 ?afxData@@3UAUX_DATA@@A @ 1407 NONAME DATA
 ?AfxDeactivateActCtx@@YAHK_K@Z @ 1408 NONAME
 ?AfxDeleteObject@@YAXPEAPEAX@Z @ 1409 NONAME
 ?AfxDelRegTreeHelper@@YAJPEAUHKEY__@@AEBV?$CStringT@_WV?$StrTraitMFC_DLL@_WV?$ChTraitsCRT@_W@ATL@@@@@ATL@@@Z @ 1410 NONAME
 ?AfxDiagnosticInit@@YAHXZ @ 1411 NONAME
 ?AfxDlgProc@@YA_JPEAUHWND__@@I_K_J@Z @ 1412 NONAME
 ?AfxDllCanUnloadNow@@YAJXZ @ 1413 NONAME
 ?AfxDllGetClassObject@@YAJAEBU_GUID@@0PEAPEAX@Z @ 1414 NONAME
 ?AfxDoForAllClasses@@YAXP6AXPEBUCRuntimeClass@@PEAX@Z1@Z @ 1415 NONAME
 ?AfxDoForAllObjects@@YAXP6AXPEAVCObject@@PEAX@Z1@Z @ 1416 NONAME
 ?AfxDrawDitheredBitmap@@YAXPEAVCDC@@HHAEBVCBitmap@@KK@Z @ 1417 NONAME
 ?AfxDrawGrayBitmap@@YAXPEAVCDC@@HHAEBVCBitmap@@K@Z @ 1418 NONAME
 ?afxDump@@3VCDumpContext@@A @ 1419 NONAME DATA
 ?AfxDump@@YAXPEBVCObject@@@Z @ 1420 NONAME
 ?AfxDumpMemoryLeaks@@YAHXZ @ 1421 NONAME
 ?AfxDynamicDownCast@@YAPEAVCObject@@PEAUCRuntimeClass@@PEAV1@@Z @ 1422 NONAME
 ?AfxDynamicDownCast@@YAPEBVCObject@@PEAUCRuntimeClass@@PEBV1@@Z @ 1423 NONAME
 ?AfxEditviewTerm@@YAXXZ @ 1424 NONAME
 ?AfxEnableControlContainer@@YAXPEAVCOccManager@@@Z @ 1425 NONAME
 ?AfxEnableMemoryLeakOverride@@YAHH@Z @ 1426 NONAME
 ?AfxEnableMemoryTracking@@YAHH@Z @ 1427 NONAME
 ?AfxEndDeferRegisterClass@@YAHJ@Z @ 1428 NONAME
 ?AfxEndThread@@YAXIH@Z @ 1429 NONAME
 ?AfxEnumMetaFileProc@@YAHPEAUHDC__@@PEAUtagHANDLETABLE@@PEAUtagMETARECORD@@H_J@Z @ 1430 NONAME
 ?AfxExtractSubString@@YAHAEAV?$CStringT@_WV?$StrTraitMFC_DLL@_WV?$ChTraitsCRT@_W@ATL@@@@@ATL@@PEB_WH_W@Z @ 1431 NONAME
 ?AfxFailMaxChars@@YAXPEAVCDataExchange@@H@Z @ 1432 NONAME
 ?AfxFailRadio@@YAXPEAVCDataExchange@@@Z @ 1433 NONAME
 ?AfxFieldText@@YAHPEAVCDataExchange@@HPEAXPEAVCRecordset@@@Z @ 1434 NONAME
 ?AfxFindMessageEntry@@YAPEBUAFX_MSGMAP_ENTRY@@PEBU1@III@Z @ 1435 NONAME
 ?AfxFindResourceHandle@@YAPEAUHINSTANCE__@@PEB_W0@Z @ 1436 NONAME
 ?AfxFindStringResourceHandle@@YAPEAUHINSTANCE__@@I@Z @ 1437 NONAME
 ?AfxFormatString1@@YAXAEAV?$CStringT@_WV?$StrTraitMFC_DLL@_WV?$ChTraitsCRT@_W@ATL@@@@@ATL@@IPEB_W@Z @ 1438 NONAME
 ?AfxFormatString2@@YAXAEAV?$CStringT@_WV?$StrTraitMFC_DLL@_WV?$ChTraitsCRT@_W@ATL@@@@@ATL@@IPEB_W1@Z @ 1439 NONAME
 ?AfxFormatStrings@@YAXAEAV?$CStringT@_WV?$StrTraitMFC_DLL@_WV?$ChTraitsCRT@_W@ATL@@@@@ATL@@IPEBQEB_WH@Z @ 1440 NONAME
 ?AfxFormatStrings@@YAXAEAV?$CStringT@_WV?$StrTraitMFC_DLL@_WV?$ChTraitsCRT@_W@ATL@@@@@ATL@@PEB_WPEBQEB_WH@Z @ 1441 NONAME
 ?AfxFreeLibrary@@YAHPEAUHINSTANCE__@@@Z @ 1442 NONAME
 ?AfxFreeMemoryDebug@@YAXPEAXH@Z @ 1443 NONAME
 ?AfxFullPath@@YAHPEA_WPEB_W@Z @ 1444 NONAME
 ?AfxGetAfxWndProc@@YAP6A_JPEAUHWND__@@I_K_J@ZXZ @ 1445 NONAME
 ?AfxGetAmbientActCtx@@YAHXZ @ 1446 NONAME
 ?AfxGetApp@@YAPEAVCWinApp@@XZ @ 1447 NONAME
 ?AfxGetAppModuleState@@YAPEAVAFX_MODULE_STATE@@XZ @ 1448 NONAME
 ?AfxGetAppName@@YAPEB_WXZ @ 1449 NONAME
 ?AfxGetClassIDFromString@@YAJPEB_WPEAU_GUID@@@Z @ 1450 NONAME
 ?AfxGetCurrentMessage@@YAPEAUtagMSG@@XZ @ 1451 NONAME
 ?AfxGetDitheredBitmap@@YAXAEBVCBitmap@@PEAV1@KK@Z @ 1452 NONAME
 ?AfxGetDlgItemStartFromHWND@@YAPEAUHWND__@@HPEAU1@@Z @ 1453 NONAME
 ?AfxGetDllVersion@@YAKXZ @ 1454 NONAME
 ?AfxGetFacilityString@@YAPEB_WJ@Z @ 1455 NONAME
 ?AfxGetFileName@@YAIPEB_WPEA_WI@Z @ 1456 NONAME
 ?AfxGetFileTitle@@YAIPEB_WPEA_WI@Z @ 1457 NONAME
 ?AfxGetFullScodeString@@YAPEB_WJ@Z @ 1458 NONAME
 ?AfxGetGrayBitmap@@YAXAEBVCBitmap@@PEAV1@K@Z @ 1459 NONAME
 ?AfxGetHENV@@YAPEAXXZ @ 1460 NONAME
 ?AfxGetIIDString@@YAPEB_WAEBU_GUID@@@Z @ 1461 NONAME
 ?AfxGetInProcServer@@YAHPEB_WAEAV?$CStringT@_WV?$StrTraitMFC_DLL@_WV?$ChTraitsCRT@_W@ATL@@@@@ATL@@@Z @ 1462 NONAME
 ?AfxGetInstanceHandle@@YAPEAUHINSTANCE__@@XZ @ 1463 NONAME
 ?AfxGetInstanceHandleHelper@@YAPEAUHINSTANCE__@@XZ @ 1464 NONAME
 ?AfxGetInternetHandleType@@YAKPEAX@Z @ 1465 NONAME
 ?AfxGetMainWnd@@YAPEAVCWnd@@XZ @ 1466 NONAME
 ?AfxGetModuleShortFileName@@YAXPEAUHINSTANCE__@@AEAV?$CStringT@_WV?$StrTraitMFC_DLL@_WV?$ChTraitsCRT@_W@ATL@@@@@ATL@@@Z @ 1467 NONAME
 ?AfxGetModuleState@@YAPEAVAFX_MODULE_STATE@@XZ @ 1468 NONAME
 ?AfxGetModuleThreadState@@YAPEAVAFX_MODULE_THREAD_STATE@@XZ @ 1469 NONAME
 ?AfxGetNewHandler@@YAP6AH_K@ZXZ @ 1470 NONAME
 ?AfxGetParentOwner@@YAPEAUHWND__@@PEAU1@@Z @ 1471 NONAME
 ?AfxGetPropSheetFont@@YAHAEAV?$CStringT@_WV?$StrTraitMFC_DLL@_WV?$ChTraitsCRT@_W@ATL@@@@@ATL@@AEAGH@Z @ 1472 NONAME
 ?AfxGetResourceHandle@@YAPEAUHINSTANCE__@@XZ @ 1473 NONAME
 ?AfxGetRichEditState@@YAPEAV_AFX_RICHEDIT_STATE@@XZ @ 1474 NONAME
 ?AfxGetRoot@@YAXPEB_WAEAV?$CStringT@_WV?$StrTraitMFC_DLL@_WV?$ChTraitsCRT@_W@ATL@@@@@ATL@@@Z @ 1475 NONAME
 ?AfxGetScodeRangeString@@YAPEB_WJ@Z @ 1476 NONAME
 ?AfxGetScodeString@@YAPEB_WJ@Z @ 1477 NONAME
 ?AfxGetSeverityString@@YAPEB_WJ@Z @ 1478 NONAME
 ?AfxGetStringManager@@YAPEAUIAtlStringMgr@ATL@@XZ @ 1479 NONAME
 ?AfxGetThread@@YAPEAVCWinThread@@XZ @ 1480 NONAME
 ?AfxGetThreadState@@YAPEAV_AFX_THREAD_STATE@@XZ @ 1481 NONAME
 ?AfxGetTypeLibCache@@YAPEAVCTypeLibCache@@PEBU_GUID@@@Z @ 1482 NONAME
 ?AfxGlobalFree@@YAXPEAX@Z @ 1483 NONAME
 ?AfxHelpEnabled@@YAHXZ @ 1484 NONAME
 ?AfxHookWindowCreate@@YAXPEAVCWnd@@@Z @ 1485 NONAME
 ?AfxHtmlHelp@@YAPEAUHWND__@@PEAU1@PEB_WI_K@Z @ 1486 NONAME
 ?AfxInitCurrentStateApp@@YAHXZ @ 1487 NONAME
 ?AfxInitExtensionModule@@YAHAEAUAFX_EXTENSION_MODULE@@PEAUHINSTANCE__@@@Z @ 1488 NONAME
 ?AfxInitLocalData@@YAXPEAUHINSTANCE__@@@Z @ 1489 NONAME
 ?AfxInitNetworkAddressControl@@YAHXZ @ 1490 NONAME
 ?AfxInitRichEdit@@YAHXZ @ 1491 NONAME
 ?AfxInitRichEdit2@@YAHXZ @ 1492 NONAME
 ?AfxInitThread@@YAXXZ @ 1493 NONAME
 ?AfxInternalIsIdleMessage@@YAHPEAUtagMSG@@@Z @ 1494 NONAME
 ?AfxInternalPreTranslateMessage@@YAHPEAUtagMSG@@@Z @ 1495 NONAME
 ?AfxInternalProcessWndProcException@@YA_JPEAVCException@@PEBUtagMSG@@@Z @ 1496 NONAME
 ?AfxInternalPumpMessage@@YAHXZ @ 1497 NONAME
 ?AfxInternetStatusCallback@@YAXPEAX_KK0K@Z @ 1498 NONAME
 ?AfxInternetStatusCallbackDebug@@YAXPEAX_KK0K@Z @ 1499 NONAME
 ?AfxIsDescendant@@YAHPEAUHWND__@@0@Z @ 1500 NONAME
 ?AfxIsIdleMessage@@YAHPEAUtagMSG@@@Z @ 1501 NONAME
 ?AfxIsMemoryBlock@@YAHPEBXIPEAJ@Z @ 1502 NONAME
 ?AfxIsModuleDll@@YAHXZ @ 1503 NONAME
 ?AfxIsValidAddress@@YAHPEBX_KH@Z @ 1504 NONAME
 ?AfxIsValidAtom@@YAHG@Z @ 1505 NONAME
 ?AfxIsValidAtom@@YAHPEB_W@Z @ 1506 NONAME
 ?AfxIsValidString@@YAHPEB_WH@Z @ 1507 NONAME
 ?AfxIsValidString@@YAHPEBDH@Z @ 1508 NONAME
 ?AfxLoadField@@YAXAEAVCRecordset@@IPEAXPEA_J@Z @ 1509 NONAME
 ?AfxLoadLangResourceDLL@@YAPEAUHINSTANCE__@@PEB_W@Z @ 1510 NONAME
 ?AfxLoadLangResourceDLL@@YAPEAUHINSTANCE__@@PEB_W0@Z @ 1511 NONAME
 ?AfxLoadLibrary@@YAPEAUHINSTANCE__@@PEB_W@Z @ 1512 NONAME
 ?AfxLoadLibraryEx@@YAPEAUHINSTANCE__@@PEB_WPEAXK@Z @ 1513 NONAME
 ?AfxLoadString@@YAHIPEA_WI@Z @ 1514 NONAME
 ?AfxLoadString@@YAHIPEADI@Z @ 1515 NONAME
 ?AfxLoadSysColorBitmap@@YAPEAUHBITMAP__@@PEAUHINSTANCE__@@PEAUHRSRC__@@H@Z @ 1516 NONAME
 ?AfxLockGlobals@@YAXH@Z @ 1517 NONAME
 ?AfxLockTempMaps@@YAXXZ @ 1518 NONAME
 ?afxMapHDC@@YAPEAVCHandleMap@@H@Z @ 1519 NONAME
 ?afxMapHGDIOBJ@@YAPEAVCHandleMap@@H@Z @ 1520 NONAME
 ?afxMapHIMAGELIST@@YAPEAVCHandleMap@@H@Z @ 1521 NONAME
 ?afxMapHMENU@@YAPEAVCHandleMap@@H@Z @ 1522 NONAME
 ?afxMapHWND@@YAPEAVCHandleMap@@H@Z @ 1523 NONAME
 ?AfxMergeMenus@@YAPEAUHMENU__@@PEAU1@0PEAJHH@Z @ 1524 NONAME
 ?AfxMessageBox@@YAHIII@Z @ 1525 NONAME
 ?AfxMessageBox@@YAHPEB_WII@Z @ 1526 NONAME
 ?AfxNewHandler@@YAH_K@Z @ 1527 NONAME
 ?AfxOleCanExitApp@@YAHXZ @ 1528 NONAME
 ?AfxOleGetMessageFilter@@YAPEAVCOleMessageFilter@@XZ @ 1529 NONAME
 ?AfxOleGetUserCtrl@@YAHXZ @ 1530 NONAME
 ?AfxOleHookProc@@YAIPEAUHWND__@@I_K_J@Z @ 1531 NONAME
 ?AfxOleInit@@YAHXZ @ 1532 NONAME
 ?AfxOleInprocRegisterHelper@@YAHPEAUHKEY__@@0H@Z @ 1533 NONAME
 ?AfxOleLockApp@@YAXXZ @ 1534 NONAME
 ?AfxOleLockControl@@YAHAEBU_GUID@@@Z @ 1535 NONAME
 ?AfxOleLockControl@@YAHPEB_W@Z @ 1536 NONAME
 ?AfxOleOnReleaseAllObjects@@YAXXZ @ 1537 NONAME
 ?AfxOleRegisterControlClass@@YAHPEAUHINSTANCE__@@AEBU_GUID@@PEB_WIIHK1GG@Z @ 1538 NONAME
 ?AfxOleRegisterHelper@@YAHPEBQEB_W0HHPEAUHKEY__@@@Z @ 1539 NONAME
 ?AfxOleRegisterPropertyPageClass@@YAHPEAUHINSTANCE__@@AEBU_GUID@@I@Z @ 1540 NONAME
 ?AfxOleRegisterPropertyPageClass@@YAHPEAUHINSTANCE__@@AEBU_GUID@@IH@Z @ 1541 NONAME
 ?AfxOleRegisterServerClass@@YAHAEBU_GUID@@PEB_W11W4OLE_APPTYPE@@PEAPEB_W3H1@Z @ 1542 NONAME
 ?AfxOleRegisterServerClass@@YAHAEBU_GUID@@PEB_W11W4OLE_APPTYPE@@PEAPEB_W3H11@Z @ 1543 NONAME
 ?AfxOleRegisterTypeLib@@YAHPEAUHINSTANCE__@@AEBU_GUID@@PEB_W2@Z @ 1544 NONAME
 ?AfxOleSetEditMenu@@YAXPEAVCOleClientItem@@PEAVCMenu@@IIII@Z @ 1545 NONAME
 ?AfxOleSetUserCtrl@@YAXH@Z @ 1546 NONAME
 ?AfxOleTerm@@YAXH@Z @ 1547 NONAME
 ?AfxOleTermOrFreeLib@@YAXHH@Z @ 1548 NONAME
 ?AfxOleUnlockAllControls@@YAXXZ @ 1549 NONAME
 ?AfxOleUnlockApp@@YAXXZ @ 1550 NONAME
 ?AfxOleUnlockControl@@YAHAEBU_GUID@@@Z @ 1551 NONAME
 ?AfxOleUnlockControl@@YAHPEB_W@Z @ 1552 NONAME
 ?AfxOleUnregisterClass@@YAHAEBU_GUID@@PEB_W@Z @ 1553 NONAME
 ?AfxOleUnregisterHelper@@YAHPEBQEB_W0HPEAUHKEY__@@@Z @ 1554 NONAME
 ?AfxOleUnregisterServerClass@@YAHAEBU_GUID@@PEB_W11W4OLE_APPTYPE@@PEAPEB_W3@Z @ 1555 NONAME
 ?AfxOleUnregisterTypeLib@@YAHAEBU_GUID@@GGK@Z @ 1556 NONAME
 ?AfxParseURL@@YAHPEB_WAEAKAEAV?$CStringT@_WV?$StrTraitMFC_DLL@_WV?$ChTraitsCRT@_W@ATL@@@@@ATL@@2AEAG@Z @ 1557 NONAME
 ?AfxParseURLEx@@YAHPEB_WAEAKAEAV?$CStringT@_WV?$StrTraitMFC_DLL@_WV?$ChTraitsCRT@_W@ATL@@@@@ATL@@2AEAG22K@Z @ 1558 NONAME
 ?AfxPostQuitMessage@@YAXH@Z @ 1559 NONAME
 ?AfxPreTranslateMessage@@YAHPEAUtagMSG@@@Z @ 1560 NONAME
 ?AfxProcessWndProcException@@YA_JPEAVCException@@PEBUtagMSG@@@Z @ 1561 NONAME
 ?AfxPropPageCallback@@YAIPEAUHWND__@@IPEAU_PROPSHEETPAGEW@@@Z @ 1562 NONAME
 ?AfxPropSheetCallback@@YAHPEAUHWND__@@I_J@Z @ 1563 NONAME
 ?AfxPumpMessage@@YAHXZ @ 1564 NONAME
 ?AfxReadStringLength@@YA_KAEAVCArchive@@AEAH@Z @ 1565 NONAME
 ?AfxRegisterClass@@YAHPEAUtagWNDCLASSW@@@Z @ 1566 NONAME
 ?AfxRegisterSiteFactory@@YAHPEAVIControlSiteFactory@@@Z @ 1567 NONAME
 ?AfxRegisterWndClass@@YAPEB_WIPEAUHICON__@@PEAUHBRUSH__@@0@Z @ 1568 NONAME
 ?AfxReleaseActCtx@@YAXPEAX@Z @ 1569 NONAME
 ?AfxRepositionWindow@@YAXPEAUAFX_SIZEPARENTPARAMS@@PEAUHWND__@@PEBUtagRECT@@@Z @ 1570 NONAME
 ?AfxResetMsgCache@@YAXXZ @ 1571 NONAME
 ?AfxResolveShortcut@@YAHPEAVCWnd@@PEB_WPEA_WH@Z @ 1572 NONAME
 ?AfxRFXBulkDefault@@YAXPEAVCFieldExchange@@PEB_WPEAXPEA_JH_K@Z @ 1573 NONAME
 ?AfxSafeArrayInit@@YAXPEAVCOleSafeArray@@@Z @ 1574 NONAME
 ?AfxSetAllocHook@@YAP6AH_KHJ@ZP6AH0HJ@Z@Z @ 1575 NONAME
 ?AfxSetAllocStop@@YAXJ@Z @ 1576 NONAME
 ?AfxSetAmbientActCtx@@YAXH@Z @ 1577 NONAME
 ?AfxSetModuleState@@YAPEAVAFX_MODULE_STATE@@PEAV1@@Z @ 1578 NONAME
 ?AfxSetNewHandler@@YAP6AH_K@ZP6AH0@Z@Z @ 1579 NONAME
 ?AfxSetResourceHandle@@YAXPEAUHINSTANCE__@@@Z @ 1580 NONAME
 ?AfxSetWindowText@@YAXPEAUHWND__@@PEB_W@Z @ 1581 NONAME
 ?AfxSocketTerm@@YAXXZ @ 1582 NONAME
 ?AfxStaticDownCast@@YAPEAVCObject@@PEAUCRuntimeClass@@PEAV1@@Z @ 1583 NONAME
 ?AfxStaticDownCast@@YAPEBVCObject@@PEAUCRuntimeClass@@PEBV1@@Z @ 1584 NONAME
 ?AfxStoreField@@YAXAEAVCRecordset@@IPEAX@Z @ 1585 NONAME
 ?AfxStringFromCLSID@@YA?AV?$CStringT@_WV?$StrTraitMFC_DLL@_WV?$ChTraitsCRT@_W@ATL@@@@@ATL@@AEBU_GUID@@@Z @ 1586 NONAME
 ?AfxTermExtensionModule@@YAXAEAUAFX_EXTENSION_MODULE@@H@Z @ 1587 NONAME
 ?AfxTermLocalData@@YAXPEAUHINSTANCE__@@H@Z @ 1588 NONAME
 ?AfxTermThread@@YAXPEAUHINSTANCE__@@@Z @ 1589 NONAME
 ?AfxTextFloatFormat@@YAXPEAVCDataExchange@@HPEAXNH@Z @ 1590 NONAME
 ?AfxThrowArchiveException@@YAXHPEB_W@Z @ 1591 NONAME
 ?AfxThrowDBException@@YAXFPEAVCDatabase@@PEAX@Z @ 1592 NONAME
 ?AfxThrowFileException@@YAXHJPEB_W@Z @ 1593 NONAME
 ?AfxThrowInternetException@@YAX_KK@Z @ 1594 NONAME
 ?AfxThrowInvalidArgException@@YAXXZ @ 1595 NONAME
 ?AfxThrowLastCleanup@@YAXXZ @ 1596 NONAME
 ?AfxThrowMemoryException@@YAXXZ @ 1597 NONAME
 ?AfxThrowNotSupportedException@@YAXXZ @ 1598 NONAME
 ?AfxThrowOleDispatchException@@YAXGII@Z @ 1599 NONAME
 ?AfxThrowOleDispatchException@@YAXGPEB_WI@Z @ 1600 NONAME
 ?AfxThrowOleException@@YAXJ@Z @ 1601 NONAME
 ?AfxThrowResourceException@@YAXXZ @ 1602 NONAME
 ?AfxThrowUserException@@YAXXZ @ 1603 NONAME
 ?AfxTimeToFileTime@@YAXAEBVCTime@ATL@@PEAU_FILETIME@@@Z @ 1604 NONAME
 ?AfxTlsAddRef@@YAXXZ @ 1605 NONAME
 ?AfxTlsRelease@@YAXXZ @ 1606 NONAME
 ?AfxTrace@@YAXPEB_WZZ @ 1607 NONAME
 ?afxTraceEnabled@@3HA @ 1608 NONAME DATA
 ?afxTraceFlags@@3IA @ 1609 NONAME DATA
 ?AfxTrackerTerm@@YAXXZ @ 1610 NONAME
 ?AfxTryCleanup@@YAXXZ @ 1611 NONAME
 ?AfxUnhookWindowCreate@@YAHXZ @ 1612 NONAME
 ?AfxUnlockGlobals@@YAXH@Z @ 1613 NONAME
 ?AfxUnlockTempMaps@@YAHH@Z @ 1614 NONAME
 ?AfxUnmergeMenus@@YAXPEAUHMENU__@@00@Z @ 1615 NONAME
 ?AfxUnregisterSiteFactory@@YAHPEAVIControlSiteFactory@@@Z @ 1616 NONAME
 ?AfxUnregisterWndClasses@@YAXXZ @ 1617 NONAME
 ?AfxVariantInit@@YAXPEAUtagVARIANT@@@Z @ 1618 NONAME
 ?AfxVerifyLicFile@@YAHPEAUHINSTANCE__@@PEB_W1I@Z @ 1619 NONAME
 ?AfxW2AHelper@@YAPEADPEADPEB_WH@Z @ 1620 NONAME
 ?AfxWingdixTerm@@YAXXZ @ 1621 NONAME
 ?AfxWinInit@@YAHPEAUHINSTANCE__@@0PEA_WH@Z @ 1622 NONAME
 ?AfxWinMain@@YAHPEAUHINSTANCE__@@0PEA_WH@Z @ 1623 NONAME
 ?AfxWinTerm@@YAXXZ @ 1624 NONAME
 ?AfxWndProc@@YA_JPEAUHWND__@@I_K_J@Z @ 1625 NONAME
 ?AfxWndProcBase@@YA_JPEAUHWND__@@I_K_J@Z @ 1626 NONAME
 ?AfxWndProcDllOle@@YA_JPEAUHWND__@@I_K_J@Z @ 1627 NONAME
 ?AfxWriteStringLength@@YAXAEAVCArchive@@_KH@Z @ 1628 NONAME
 ?Alloc@CFixedAlloc@@QEAAPEAXXZ @ 1629 NONAME
 ?Alloc@CFixedAllocNoSync@@QEAAPEAXXZ @ 1630 NONAME
 ?Alloc@CMemFile@@MEAAPEAE_K@Z @ 1631 NONAME
 ?Alloc@CSharedFile@@MEAAPEAE_K@Z @ 1632 NONAME
 ?AllocAndCacheFieldInfo@CRecordset@@IEAAXXZ @ 1633 NONAME
 ?Allocate@CAfxStringMgr@@UEAAPEAUCStringData@ATL@@HH@Z @ 1634 NONAME
 ?AllocConnect@CDatabase@@IEAAXK@Z @ 1635 NONAME
 ?AllocData@COleSafeArray@@QEAAXXZ @ 1636 NONAME
 ?AllocDataCache@CRecordset@@QEAAXXZ @ 1637 NONAME
 ?AllocDescriptor@COleSafeArray@@QEAAXK@Z @ 1638 NONAME
 ?AllocElements@CControlBar@@QEAAHHH@Z @ 1639 NONAME
 ?AllocElements@CStatusBar@@QEAAHHH@Z @ 1640 NONAME
 ?AllocHstmt@CRecordset@@IEAAHXZ @ 1641 NONAME
 ?AllocPSP@CPropertyPage@@IEAAXK@Z @ 1642 NONAME
 ?AllocRowset@CRecordset@@IEAAXXZ @ 1643 NONAME
 ?AllocSlot@CThreadSlotData@@QEAAHXZ @ 1644 NONAME
 ?AllocStatusArrays@CRecordset@@QEAAXXZ @ 1645 NONAME
 ?AllocSysString@?$CStringT@_WV?$StrTraitMFC_DLL@_WV?$ChTraitsCRT@_W@ATL@@@@@ATL@@QEBAPEA_WXZ @ 1646 NONAME
 ?AllocSysString@?$CStringT@DV?$StrTraitMFC_DLL@DV?$ChTraitsCRT@D@ATL@@@@@ATL@@QEBAPEA_WXZ @ 1647 NONAME
 ?AllocValue@CProperty@@AEAAPEAXK@Z @ 1648 NONAME
 ?AlphaBlend@CDC@@QEAAHHHHHPEAV1@HHHHU_BLENDFUNCTION@@@Z @ 1649 NONAME
 ?AmbientAppearance@COleControl@@QEAAFXZ @ 1650 NONAME
 ?AmbientBackColor@COleControl@@QEAAKXZ @ 1651 NONAME
 ?AmbientDisplayName@COleControl@@QEAA?AV?$CStringT@_WV?$StrTraitMFC_DLL@_WV?$ChTraitsCRT@_W@ATL@@@@@ATL@@XZ @ 1652 NONAME
 ?AmbientFont@COleControl@@QEAAPEAUIFontDisp@@XZ @ 1653 NONAME
 ?AmbientForeColor@COleControl@@QEAAKXZ @ 1654 NONAME
 ?AmbientLocaleID@COleControl@@QEAAKXZ @ 1655 NONAME
 ?AmbientScaleUnits@COleControl@@QEAA?AV?$CStringT@_WV?$StrTraitMFC_DLL@_WV?$ChTraitsCRT@_W@ATL@@@@@ATL@@XZ @ 1656 NONAME
 ?AmbientShowGrabHandles@COleControl@@QEAAHXZ @ 1657 NONAME
 ?AmbientShowHatching@COleControl@@QEAAHXZ @ 1658 NONAME
 ?AmbientTextAlign@COleControl@@QEAAFXZ @ 1659 NONAME
 ?AmbientUIDead@COleControl@@QEAAHXZ @ 1660 NONAME
 ?AmbientUserMode@COleControl@@QEAAHXZ @ 1661 NONAME
 ?AngleArc@CDC@@QEAAHHHHMM@Z @ 1662 NONAME
 ?AnimatePalette@CPalette@@QEAAXIIPEAUtagPALETTEENTRY@@@Z @ 1663 NONAME
 ?Append@?$CSimpleStringT@_W$00@ATL@@QEAAXAEBV12@@Z @ 1664 NONAME
 ?Append@?$CSimpleStringT@_W$00@ATL@@QEAAXPEB_W@Z @ 1665 NONAME
 ?Append@?$CSimpleStringT@_W$00@ATL@@QEAAXPEB_WH@Z @ 1666 NONAME
 ?Append@?$CSimpleStringT@D$00@ATL@@QEAAXAEBV12@@Z @ 1667 NONAME
 ?Append@?$CSimpleStringT@D$00@ATL@@QEAAXPEBD@Z @ 1668 NONAME
 ?Append@?$CSimpleStringT@D$00@ATL@@QEAAXPEBDH@Z @ 1669 NONAME
 ?Append@CByteArray@@QEAA_JAEBV1@@Z @ 1670 NONAME
 ?Append@CDWordArray@@QEAA_JAEBV1@@Z @ 1671 NONAME
 ?Append@CObArray@@QEAA_JAEBV1@@Z @ 1672 NONAME
 ?Append@CPtrArray@@QEAA_JAEBV1@@Z @ 1673 NONAME
 ?Append@CStringArray@@QEAA_JAEBV1@@Z @ 1674 NONAME
 ?Append@CUIntArray@@QEAA_JAEBV1@@Z @ 1675 NONAME
 ?Append@CWordArray@@QEAA_JAEBV1@@Z @ 1676 NONAME
 ?AppendChar@?$CSimpleStringT@_W$00@ATL@@QEAAX_W@Z @ 1677 NONAME
 ?AppendChar@?$CSimpleStringT@D$00@ATL@@QEAAXD@Z @ 1678 NONAME
 ?AppendFilterAndSortSQL@CRecordset@@IEAAXXZ @ 1679 NONAME
 ?AppendFormat@?$CStringT@_WV?$StrTraitMFC_DLL@_WV?$ChTraitsCRT@_W@ATL@@@@@ATL@@QEAAXIZZ @ 1680 NONAME
 ?AppendFormat@?$CStringT@_WV?$StrTraitMFC_DLL@_WV?$ChTraitsCRT@_W@ATL@@@@@ATL@@QEAAXPEB_WZZ @ 1681 NONAME
 ?AppendFormat@?$CStringT@DV?$StrTraitMFC_DLL@DV?$ChTraitsCRT@D@ATL@@@@@ATL@@QEAAXIZZ @ 1682 NONAME
 ?AppendFormat@?$CStringT@DV?$StrTraitMFC_DLL@DV?$ChTraitsCRT@D@ATL@@@@@ATL@@QEAAXPEBDZZ @ 1683 NONAME
 ?AppendFormatV@?$CStringT@_WV?$StrTraitMFC_DLL@_WV?$ChTraitsCRT@_W@ATL@@@@@ATL@@QEAAXPEB_WPEAD@Z @ 1684 NONAME
 ?AppendFormatV@?$CStringT@DV?$StrTraitMFC_DLL@DV?$ChTraitsCRT@D@ATL@@@@@ATL@@QEAAXPEBDPEAD@Z @ 1685 NONAME
 ?AppendMenuW@CMenu@@QEAAHI_KPEB_W@Z @ 1686 NONAME
 ?AppendMenuW@CMenu@@QEAAHI_KPEBVCBitmap@@@Z @ 1687 NONAME
 ?AppendNames@CRecordset@@QEAAIPEAV?$CStringT@_WV?$StrTraitMFC_DLL@_WV?$ChTraitsCRT@_W@ATL@@@@@ATL@@PEB_W@Z @ 1688 NONAME
 ?AppendNamesValues@CRecordset@@QEAAIPEAXPEAV?$CStringT@_WV?$StrTraitMFC_DLL@_WV?$ChTraitsCRT@_W@ATL@@@@@ATL@@PEB_W@Z @ 1689 NONAME
 ?AppendValues@CRecordset@@QEAAIPEAXPEAV?$CStringT@_WV?$StrTraitMFC_DLL@_WV?$ChTraitsCRT@_W@ATL@@@@@ATL@@PEB_W@Z @ 1690 NONAME
 ?Apply@XPropertyPage@COlePropertyPage@@UEAAJXZ @ 1691 NONAME
 ?ApplyOFNToShellDialog@CFileDialog@@QEAAXXZ @ 1692 NONAME
 ?ApplyPrintDevice@COleDocument@@QEAAHPEBUtagDVTARGETDEVICE@@@Z @ 1693 NONAME
 ?ApplyPrintDevice@COleDocument@@QEAAHPEBUtagPDW@@@Z @ 1694 NONAME
 ?ApplyViewState@XOleDocumentView@CDocObjectServer@@UEAAJPEAUIStream@@@Z @ 1695 NONAME
 ?ApproximateViewRect@CListCtrl@@QEBA?AVCSize@@V2@H@Z @ 1696 NONAME
 ?Arc@CDC@@QEAAHHHHHHHHH@Z @ 1697 NONAME
 ?Arc@CDC@@QEAAHPEBUtagRECT@@UtagPOINT@@1@Z @ 1698 NONAME
 ?ArcTo@CDC@@QEAAHHHHHHHHH@Z @ 1699 NONAME
 ?ArcTo@CDC@@QEAAHPEBUtagRECT@@UtagPOINT@@1@Z @ 1700 NONAME
 ?Arrange@CListCtrl@@QEAAHI@Z @ 1701 NONAME
 ?ArrangeIconicWindows@CWnd@@QEAAIXZ @ 1702 NONAME
 ?AssertValid@CAsyncMonikerFile@@UEBAXXZ @ 1703 NONAME
 ?AssertValid@CAsyncSocket@@UEBAXXZ @ 1704 NONAME
 ?AssertValid@CBitmapButton@@UEBAXXZ @ 1705 NONAME
 ?AssertValid@CByteArray@@UEBAXXZ @ 1706 NONAME
 ?AssertValid@CCachedDataPathProperty@@UEBAXXZ @ 1707 NONAME
 ?AssertValid@CClientDC@@UEBAXXZ @ 1708 NONAME
 ?AssertValid@CCmdTarget@@UEBAXXZ @ 1709 NONAME
 ?AssertValid@CControlBar@@UEBAXXZ @ 1710 NONAME
 ?AssertValid@CCtrlView@@UEBAXXZ @ 1711 NONAME
 ?AssertValid@CDatabase@@UEBAXXZ @ 1712 NONAME
 ?AssertValid@CDataPathProperty@@UEBAXXZ @ 1713 NONAME
 ?AssertValid@CDC@@UEBAXXZ @ 1714 NONAME
 ?AssertValid@CDialog@@UEBAXXZ @ 1715 NONAME
 ?AssertValid@CDocItem@@UEBAXXZ @ 1716 NONAME
 ?AssertValid@CDockBar@@UEBAXXZ @ 1717 NONAME
 ?AssertValid@CDocManager@@UEBAXXZ @ 1718 NONAME
 ?AssertValid@CDocObjectServer@@MEBAXXZ @ 1719 NONAME
 ?AssertValid@CDocObjectServerItem@@UEBAXXZ @ 1720 NONAME
 ?AssertValid@CDocTemplate@@UEBAXXZ @ 1721 NONAME
 ?AssertValid@CDocument@@UEBAXXZ @ 1722 NONAME
 ?AssertValid@CDWordArray@@UEBAXXZ @ 1723 NONAME
 ?AssertValid@CDynLinkLibrary@@UEBAXXZ @ 1724 NONAME
 ?AssertValid@CEditView@@UEBAXXZ @ 1725 NONAME
 ?AssertValid@CFile@@UEBAXXZ @ 1726 NONAME
 ?AssertValid@CFileFind@@MEBAXXZ @ 1727 NONAME
 ?AssertValid@CFormView@@UEBAXXZ @ 1728 NONAME
 ?AssertValid@CFrameWnd@@UEBAXXZ @ 1729 NONAME
 ?AssertValid@CFtpConnection@@UEBAXXZ @ 1730 NONAME
 ?AssertValid@CFtpFileFind@@UEBAXXZ @ 1731 NONAME
 ?AssertValid@CGdiObject@@UEBAXXZ @ 1732 NONAME
 ?AssertValid@CGopherConnection@@UEBAXXZ @ 1733 NONAME
 ?AssertValid@CGopherFile@@UEBAXXZ @ 1734 NONAME
 ?AssertValid@CGopherFileFind@@UEBAXXZ @ 1735 NONAME
 ?AssertValid@CHtmlEditDoc@@UEBAXXZ @ 1736 NONAME
 ?AssertValid@CHtmlEditView@@MEBAXXZ @ 1737 NONAME
 ?AssertValid@CHtmlView@@UEBAXXZ @ 1738 NONAME
 ?AssertValid@CHttpConnection@@UEBAXXZ @ 1739 NONAME
 ?AssertValid@CHttpFile@@MEBAXXZ @ 1740 NONAME
 ?AssertValid@CImageList@@UEBAXXZ @ 1741 NONAME
 ?AssertValid@CInternetConnection@@UEBAXXZ @ 1742 NONAME
 ?AssertValid@CInternetFile@@MEBAXXZ @ 1743 NONAME
 ?AssertValid@CLongBinary@@UEBAXXZ @ 1744 NONAME
 ?AssertValid@CMapPtrToPtr@@UEBAXXZ @ 1745 NONAME
 ?AssertValid@CMapPtrToWord@@UEBAXXZ @ 1746 NONAME
 ?AssertValid@CMapStringToOb@@UEBAXXZ @ 1747 NONAME
 ?AssertValid@CMapStringToPtr@@UEBAXXZ @ 1748 NONAME
 ?AssertValid@CMapStringToString@@UEBAXXZ @ 1749 NONAME
 ?AssertValid@CMapWordToOb@@UEBAXXZ @ 1750 NONAME
 ?AssertValid@CMapWordToPtr@@UEBAXXZ @ 1751 NONAME
 ?AssertValid@CMDIChildWnd@@UEBAXXZ @ 1752 NONAME
 ?AssertValid@CMDIFrameWnd@@UEBAXXZ @ 1753 NONAME
 ?AssertValid@CMemFile@@UEBAXXZ @ 1754 NONAME
 ?AssertValid@CMenu@@UEBAXXZ @ 1755 NONAME
 ?AssertValid@CMonikerFile@@UEBAXXZ @ 1756 NONAME
 ?AssertValid@CMultiDocTemplate@@UEBAXXZ @ 1757 NONAME
 ?AssertValid@CObArray@@UEBAXXZ @ 1758 NONAME
 ?AssertValid@CObject@@UEBAXXZ @ 1759 NONAME
 ?AssertValid@CObList@@UEBAXXZ @ 1760 NONAME
 ?AssertValid@COleChangeSourceDialog@@UEBAXXZ @ 1761 NONAME
 ?AssertValid@COleClientItem@@UEBAXXZ @ 1762 NONAME
 ?AssertValid@COleCntrFrameWnd@@UEBAXXZ @ 1763 NONAME
 ?AssertValid@COleControl@@UEBAXXZ @ 1764 NONAME
 ?AssertValid@COleDataSource@@UEBAXXZ @ 1765 NONAME
 ?AssertValid@COleDocIPFrameWnd@@UEBAXXZ @ 1766 NONAME
 ?AssertValid@COleDocument@@UEBAXXZ @ 1767 NONAME
 ?AssertValid@COleDropTarget@@UEBAXXZ @ 1768 NONAME
 ?AssertValid@COleIPFrameWnd@@UEBAXXZ @ 1769 NONAME
 ?AssertValid@COleLinkingDoc@@UEBAXXZ @ 1770 NONAME
 ?AssertValid@COleLinksDialog@@UEBAXXZ @ 1771 NONAME
 ?AssertValid@COleMessageFilter@@UEBAXXZ @ 1772 NONAME
 ?AssertValid@COleObjectFactory@@UEBAXXZ @ 1773 NONAME
 ?AssertValid@COlePasteSpecialDialog@@UEBAXXZ @ 1774 NONAME
 ?AssertValid@COlePropertiesDialog@@UEBAXXZ @ 1775 NONAME
 ?AssertValid@COleServerDoc@@UEBAXXZ @ 1776 NONAME
 ?AssertValid@COleServerItem@@UEBAXXZ @ 1777 NONAME
 ?AssertValid@COleStreamFile@@UEBAXXZ @ 1778 NONAME
 ?AssertValid@CPaintDC@@UEBAXXZ @ 1779 NONAME
 ?AssertValid@CPreviewDC@@UEBAXXZ @ 1780 NONAME
 ?AssertValid@CPreviewView@@UEBAXXZ @ 1781 NONAME
 ?AssertValid@CPropertyPage@@UEBAXXZ @ 1782 NONAME
 ?AssertValid@CPropertySheet@@UEBAXXZ @ 1783 NONAME
 ?AssertValid@CPtrArray@@UEBAXXZ @ 1784 NONAME
 ?AssertValid@CPtrList@@UEBAXXZ @ 1785 NONAME
 ?AssertValid@CRecordset@@UEBAXXZ @ 1786 NONAME
 ?AssertValid@CRecordView@@UEBAXXZ @ 1787 NONAME
 ?AssertValid@CRichEditCntrItem@@UEBAXXZ @ 1788 NONAME
 ?AssertValid@CRichEditDoc@@UEBAXXZ @ 1789 NONAME
 ?AssertValid@CRichEditView@@UEBAXXZ @ 1790 NONAME
 ?AssertValid@CScrollView@@UEBAXXZ @ 1791 NONAME
 ?AssertValid@CSingleDocTemplate@@UEBAXXZ @ 1792 NONAME
 ?AssertValid@CSocket@@MEBAXXZ @ 1793 NONAME
 ?AssertValid@CSocketFile@@UEBAXXZ @ 1794 NONAME
 ?AssertValid@CSplitterWnd@@UEBAXXZ @ 1795 NONAME
 ?AssertValid@CStatusBar@@UEBAXXZ @ 1796 NONAME
 ?AssertValid@CStringArray@@UEBAXXZ @ 1797 NONAME
 ?AssertValid@CStringList@@UEBAXXZ @ 1798 NONAME
 ?AssertValid@CSyncObject@@UEBAXXZ @ 1799 NONAME
 ?AssertValid@CToolBar@@UEBAXXZ @ 1800 NONAME
 ?AssertValid@CUIntArray@@UEBAXXZ @ 1801 NONAME
 ?AssertValid@CView@@UEBAXXZ @ 1802 NONAME
 ?AssertValid@CWinApp@@UEBAXXZ @ 1803 NONAME
 ?AssertValid@CWindowDC@@UEBAXXZ @ 1804 NONAME
 ?AssertValid@CWinThread@@UEBAXXZ @ 1805 NONAME
 ?AssertValid@CWnd@@UEBAXXZ @ 1806 NONAME
 ?AssertValid@CWordArray@@UEBAXXZ @ 1807 NONAME
 ?AssignInstance@CThreadSlotData@@QEAAXPEAUHINSTANCE__@@@Z @ 1808 NONAME
 ?AsyncSelect@CAsyncSocket@@QEAAHJ@Z @ 1809 NONAME
 ?Attach@?$CSimpleStringT@_W$00@ATL@@AEAAXPEAUCStringData@2@@Z @ 1810 NONAME
 ?Attach@?$CSimpleStringT@D$00@ATL@@AEAAXPEAUCStringData@2@@Z @ 1811 NONAME
 ?Attach@CAsyncSocket@@QEAAH_KJ@Z @ 1812 NONAME
 ?Attach@CDC@@QEAAHPEAUHDC__@@@Z @ 1813 NONAME
 ?Attach@CGdiObject@@QEAAHPEAX@Z @ 1814 NONAME
 ?Attach@CImageList@@QEAAHPEAU_IMAGELIST@@@Z @ 1815 NONAME
 ?Attach@CMemFile@@QEAAXPEAEII@Z @ 1816 NONAME
 ?Attach@CMenu@@QEAAHPEAUHMENU__@@@Z @ 1817 NONAME
 ?Attach@CMonikerFile@@IEAAHPEAUIMoniker@@PEAUIBindHost@@PEAUIBindStatusCallback@@PEAUIBindCtx@@PEAVCFileException@@@Z @ 1818 NONAME
 ?Attach@CMonikerFile@@IEAAHPEB_WPEAUIBindHost@@PEAUIBindStatusCallback@@PEAUIBindCtx@@PEAVCFileException@@@Z @ 1819 NONAME
 ?Attach@COleDataObject@@QEAAXPEAUIDataObject@@H@Z @ 1820 NONAME
 ?Attach@COleSafeArray@@QEAAXAEAUtagVARIANT@@@Z @ 1821 NONAME
 ?Attach@COleStreamFile@@QEAAXPEAUIStream@@@Z @ 1822 NONAME
 ?Attach@COleVariant@@QEAAXAEAUtagVARIANT@@@Z @ 1823 NONAME
 ?Attach@CSocket@@QEAAH_K@Z @ 1824 NONAME
 ?Attach@CWnd@@QEAAHPEAUHWND__@@@Z @ 1825 NONAME
 ?AttachClipboard@COleDataObject@@QEAAHXZ @ 1826 NONAME
 ?AttachControlSite@COleControlContainer@@QEAAXPEAVCWnd@@I@Z @ 1827 NONAME
 ?AttachControlSite@CWnd@@IEAAXPEAVCHandleMap@@@Z @ 1828 NONAME
 ?AttachControlSite@CWnd@@QEAAXPEAV1@I@Z @ 1829 NONAME
 ?AttachDataObject@COleClientItem@@QEBAXAEAVCOleDataObject@@@Z @ 1830 NONAME
 ?AttachDispatch@COleDispatchDriver@@QEAAXPEAUIDispatch@@H@Z @ 1831 NONAME
 ?AttachHandle@CAsyncSocket@@SAX_KPEAV1@H@Z @ 1832 NONAME
 ?AttachOnSetup@CPrintDialog@@MEAAPEAV1@XZ @ 1833 NONAME
 ?AttachWindow@COleControlSite@@QEAAXXZ @ 1834 NONAME
 ?AutoLoad@CBitmapButton@@QEAAHIPEAVCWnd@@@Z @ 1835 NONAME
 ?AutoSize@CToolBarCtrl@@QEAAXXZ @ 1836 NONAME
 ?AuxQueueAdd@CSocket@@KAXI_K_J@Z @ 1837 NONAME
 ?BeforeNavigate2@CHtmlView@@MEAAXPEAUIDispatch@@PEAUtagVARIANT@@1111PEAF@Z @ 1838 NONAME
 ?BeginBusyState@COleMessageFilter@@UEAAXXZ @ 1839 NONAME
 ?BeginDeferErrors@COleLinkingDoc@@QEAAXXZ @ 1840 NONAME
 ?BeginDrag@CDragListBox@@UEAAHVCPoint@@@Z @ 1841 NONAME
 ?BeginDrag@CImageList@@QEAAHHVCPoint@@@Z @ 1842 NONAME
 ?BeginDrag@CReBarCtrl@@QEAAXIK@Z @ 1843 NONAME
 ?BeginEnumFormats@COleDataObject@@QEAAXXZ @ 1844 NONAME
 ?BeginModalState@CFrameWnd@@UEAAXXZ @ 1845 NONAME
 ?BeginModalState@CWnd@@UEAAXXZ @ 1846 NONAME
 ?BeginPaint@CWnd@@QEAAPEAVCDC@@PEAUtagPAINTSTRUCT@@@Z @ 1847 NONAME
 ?BeginPath@CDC@@QEAAHXZ @ 1848 NONAME
 ?BeginTrans@CDatabase@@QEAAHXZ @ 1849 NONAME
 ?BeginWaitCursor@CCmdTarget@@QEAAXXZ @ 1850 NONAME
 ?Bind@CAsyncSocket@@QEAAHIPEB_W@Z @ 1851 NONAME
 ?Bind@CAsyncSocket@@QEAAHPEBUsockaddr@@H@Z @ 1852 NONAME
 ?BindColumns@CDataSourceControl@@UEAAXXZ @ 1853 NONAME
 ?BindControls@COccManager@@IEAAXPEAVCWnd@@@Z @ 1854 NONAME
 ?BindDefaultProperty@COleControlSite@@UEAAXJGPEB_WPEAVCWnd@@@Z @ 1855 NONAME
 ?BindDefaultProperty@CWnd@@QEAAXJGPEB_WPEAV1@@Z @ 1856 NONAME
 ?BindFieldsForUpdate@CRecordset@@QEAAXXZ @ 1857 NONAME
 ?BindFieldsToColumns@CRecordset@@QEAAIXZ @ 1858 NONAME
 ?BindParameters@CDatabase@@UEAAXPEAX@Z @ 1859 NONAME
 ?BindParams@CRecordset@@QEAAIPEAX@Z @ 1860 NONAME
 ?BindProp@CDataSourceControl@@UEAAXPEAVCDataBoundProperty@@H@Z @ 1861 NONAME
 ?BindProp@CDataSourceControl@@UEAAXPEAVCOleControlSite@@H@Z @ 1862 NONAME
 ?BindProperty@COleControlSite@@UEAAXJPEAVCWnd@@@Z @ 1863 NONAME
 ?BindProperty@CWnd@@QEAAXJPEAV1@@Z @ 1864 NONAME
 ?BitBlt@CDC@@QEAAHHHHHPEAV1@HHK@Z @ 1865 NONAME
 ?BoundPropertyChanged@COleControl@@QEAAXJ@Z @ 1866 NONAME
 ?BoundPropertyRequestEdit@COleControl@@QEAAHJ@Z @ 1867 NONAME
 ?BringToTop@CFrameWnd@@IEAAXH@Z @ 1868 NONAME
 ?BringWindowToTop@CWnd@@QEAAXXZ @ 1869 NONAME
 ?BroadcastAmbientPropertyChange@COleControlContainer@@UEAAXJ@Z @ 1870 NONAME
 ?BuildErrorString@CDBException@@UEAAXPEAVCDatabase@@PEAXH@Z @ 1871 NONAME
 ?BuildPropPageArray@CPropertySheet@@UEAAXXZ @ 1872 NONAME
 ?BuildSelectSQL@CRecordset@@IEAAXXZ @ 1873 NONAME
 ?BuildSharedMenu@COleControl@@MEAAHXZ @ 1874 NONAME
 ?BuildSharedMenu@COleDocIPFrameWnd@@MEAAHXZ @ 1875 NONAME
 ?BuildSharedMenu@COleIPFrameWnd@@MEAAHXZ @ 1876 NONAME
 ?BuildSQL@CRecordset@@IEAAXPEB_W@Z @ 1877 NONAME
 ?BuildUpdateSQL@CRecordset@@IEAAXXZ @ 1878 NONAME
 ?ButtonDblClk@COleControl@@IEAAXGIVCPoint@@@Z @ 1879 NONAME
 ?ButtonDown@COleControl@@IEAAXGIVCPoint@@@Z @ 1880 NONAME
 ?ButtonUp@COleControl@@IEAAXGIVCPoint@@@Z @ 1881 NONAME
 ?Cache@_AFXCTL_AMBIENT_CACHE@@QEAAXPEAUtagQACONTAINER@@@Z @ 1882 NONAME
 ?Cache@CTypeLibCache@@QEAAXKPEAUITypeLib@@@Z @ 1883 NONAME
 ?Cache@XOleCache@COleControl@@UEAAJPEAUtagFORMATETC@@KPEAK@Z @ 1884 NONAME
 ?CacheData@COleDataSource@@QEAAXGPEAUtagSTGMEDIUM@@PEAUtagFORMATETC@@@Z @ 1885 NONAME
 ?CacheGlobalData@COleDataSource@@QEAAXGPEAXPEAUtagFORMATETC@@@Z @ 1886 NONAME
 ?CacheTypeInfo@CTypeLibCache@@QEAAXKAEBU_GUID@@PEAUITypeInfo@@@Z @ 1887 NONAME
 ?CalcBorders@CMiniFrameWnd@@SAXPEAUtagRECT@@KK@Z @ 1888 NONAME
 ?CalcDynamicLayout@CControlBar@@UEAA?AVCSize@@HK@Z @ 1889 NONAME
 ?CalcDynamicLayout@CReBar@@UEAA?AVCSize@@HK@Z @ 1890 NONAME
 ?CalcDynamicLayout@CToolBar@@UEAA?AVCSize@@HK@Z @ 1891 NONAME
 ?CalcFixedLayout@CControlBar@@UEAA?AVCSize@@HH@Z @ 1892 NONAME
 ?CalcFixedLayout@CDialogBar@@UEAA?AVCSize@@HH@Z @ 1893 NONAME
 ?CalcFixedLayout@CDockBar@@UEAA?AVCSize@@HH@Z @ 1894 NONAME
 ?CalcFixedLayout@CReBar@@UEAA?AVCSize@@HH@Z @ 1895 NONAME
 ?CalcFixedLayout@CStatusBar@@UEAA?AVCSize@@HH@Z @ 1896 NONAME
 ?CalcFixedLayout@CToolBar@@UEAA?AVCSize@@HH@Z @ 1897 NONAME
 ?CalcInsideRect@CControlBar@@UEBAXAEAVCRect@@H@Z @ 1898 NONAME
 ?CalcInsideRect@CStatusBar@@UEBAXAEAVCRect@@H@Z @ 1899 NONAME
 ?CalcLayout@CToolBar@@IEAA?AVCSize@@KH@Z @ 1900 NONAME
 ?CalcMinimumItemHeight@CCheckListBox@@IEAAHXZ @ 1901 NONAME
 ?CalcPageDisplaySize@CPreviewView@@IEAA?AVCSize@@XZ @ 1902 NONAME
 ?CalcScaleRatio@CPreviewView@@MEAA?AVCSize@@V2@0@Z @ 1903 NONAME
 ?CalcSize@CToolBar@@IEAA?AVCSize@@PEAU_TBBUTTON@@H@Z @ 1904 NONAME
 ?CalcWindowRect@CEditView@@MEAAXPEAUtagRECT@@I@Z @ 1905 NONAME
 ?CalcWindowRect@CScrollView@@UEAAXPEAUtagRECT@@I@Z @ 1906 NONAME
 ?CalcWindowRect@CView@@UEAAXPEAUtagRECT@@I@Z @ 1907 NONAME
 ?CalcWindowRect@CWnd@@UEAAXPEAUtagRECT@@I@Z @ 1908 NONAME
 ?CallMemberFunc@CCmdTarget@@IEAAJPEBUAFX_DISPMAP_ENTRY@@GPEAUtagVARIANT@@PEAUtagDISPPARAMS@@PEAI@Z @ 1909 NONAME
 ?CanAccessExternal@CDHtmlDialog@@UEAAHXZ @ 1910 NONAME
 ?CanActivate@COleClientItem@@MEAAHXZ @ 1911 NONAME
 ?CanActivate@CRichEditCntrItem@@UEAAHXZ @ 1912 NONAME
 ?CanActivateNext@CSplitterWnd@@UEAAHH@Z @ 1913 NONAME
 ?CanAppend@CRecordset@@QEBAHXZ @ 1914 NONAME
 ?CanBookmark@CRecordset@@QEBAHXZ @ 1915 NONAME
 ?Cancel@CDatabase@@QEAAXXZ @ 1916 NONAME
 ?Cancel@CRecordset@@QEAAXXZ @ 1917 NONAME
 ?CancelBlockingCall@CSocket@@QEAAXXZ @ 1918 NONAME
 ?CancelDrag@CDragListBox@@UEAAXVCPoint@@@Z @ 1919 NONAME
 ?Cancelled@XNotifyDBEvents@COleControlSite@@UEAAJKKQEAUtagDBNOTIFYREASON@@@Z @ 1920 NONAME
 ?CancelLink@COleUILinkInfo@@UEAAJK@Z @ 1921 NONAME
 ?CancelLoop@CDockContext@@QEAAXXZ @ 1922 NONAME
 ?CancelToClose@CPropertyPage@@QEAAXXZ @ 1923 NONAME
 ?CancelToolTips@CWnd@@SAXH@Z @ 1924 NONAME
 ?CancelUpdate@CRecordset@@QEAAXXZ @ 1925 NONAME
 ?CanCloseFrame@CDocument@@UEAAHPEAVCFrameWnd@@@Z @ 1926 NONAME
 ?CanCloseFrame@COleServerDoc@@UEAAHPEAVCFrameWnd@@@Z @ 1927 NONAME
 ?CanCreateFromData@COleClientItem@@SAHPEBVCOleDataObject@@@Z @ 1928 NONAME
 ?CanCreateLinkFromData@COleClientItem@@SAHPEBVCOleDataObject@@@Z @ 1929 NONAME
 ?CanDock@CDockContext@@QEAAKXZ @ 1930 NONAME
 ?CanDock@CFrameWnd@@QEAAKVCRect@@KPEAPEAVCDockBar@@@Z @ 1931 NONAME
 ?CanEnterHelpMode@CFrameWnd@@QEAAHXZ @ 1932 NONAME
 ?CanInPlaceActivate@XOleIPSite@COleClientItem@@UEAAJXZ @ 1933 NONAME
 ?CanInPlaceActivate@XOleIPSite@COleControlSite@@UEAAJXZ @ 1934 NONAME
 ?CanPaste@COleClientItem@@SAHXZ @ 1935 NONAME
 ?CanPaste@CRichEditCtrl@@QEBAHI@Z @ 1936 NONAME
 ?CanPaste@CRichEditView@@QEBAHXZ @ 1937 NONAME
 ?CanPasteLink@COleClientItem@@SAHXZ @ 1938 NONAME
 ?CanRedo@CRichEditCtrl@@QEBAHXZ @ 1939 NONAME
 ?CanRestart@CRecordset@@QEBAHXZ @ 1940 NONAME
 ?CanScroll@CRecordset@@QEBAHXZ @ 1941 NONAME
 ?CanTransact@CDatabase@@QEBAHXZ @ 1942 NONAME
 ?CanTransact@CRecordset@@QEBAHXZ @ 1943 NONAME
 ?CanUndo@CEdit@@QEBAHXZ @ 1944 NONAME
 ?CanUndo@CRichEditCtrl@@QEBAHXZ @ 1945 NONAME
 ?CanUpdate@CDatabase@@QEBAHXZ @ 1946 NONAME
 ?CanUpdate@CRecordset@@QEBAHXZ @ 1947 NONAME
 ?CanWindowlessActivate@XOleIPSite@COleControlSite@@UEAAJXZ @ 1948 NONAME
 ?CDHtmlSinkHandlerQueryInterface@CDHtmlEventSink@@UEAAJAEBU_GUID@@PEAPEAX@Z @ 1949 NONAME
 ?CenterOnPoint@CScrollView@@IEAAXVCPoint@@@Z @ 1950 NONAME
 ?CenterWindow@CWnd@@QEAAXPEAV1@@Z @ 1951 NONAME
 ?ChangeBitmap@CToolBarCtrl@@QEAAHHH@Z @ 1952 NONAME
 ?ChangeClipboardChain@CWnd@@QEAAHPEAUHWND__@@@Z @ 1953 NONAME
 ?ChangeType@COleVariant@@QEAAXGPEAUtagVARIANT@@@Z @ 1954 NONAME
 ?CharFromPos@CEdit@@QEBAHVCPoint@@@Z @ 1955 NONAME
 ?CharFromPos@CRichEditCtrl@@QEBAHVCPoint@@@Z @ 1956 NONAME
 ?CharToItem@CListBox@@UEAAHII@Z @ 1957 NONAME
 ?CharToOemA@?$CStringT@_WV?$StrTraitMFC_DLL@_WV?$ChTraitsCRT@_W@ATL@@@@@ATL@@QEAAXXZ @ 1958 NONAME
 ?CharToOemA@?$CStringT@DV?$StrTraitMFC_DLL@DV?$ChTraitsCRT@D@ATL@@@@@ATL@@QEAAXXZ @ 1959 NONAME
 ?Check@CDatabase@@UEBAHF@Z @ 1960 NONAME
 ?Check@CRecordset@@UEBAHF@Z @ 1961 NONAME
 ?CheckAutoCenter@CDialog@@UEAAHXZ @ 1962 NONAME
 ?CheckAutoCenter@CWnd@@UEAAHXZ @ 1963 NONAME
 ?CheckButton@CToolBarCtrl@@QEAAHHH@Z @ 1964 NONAME
 ?CheckCount@CArchive@@QEAAXXZ @ 1965 NONAME
 ?CheckDlgButton@COleControlContainer@@UEAAXHI@Z @ 1966 NONAME
 ?CheckDlgButton@CWnd@@QEAAXHI@Z @ 1967 NONAME
 ?CheckFromPoint@CCheckListBox@@IEAAHVCPoint@@AEAH@Z @ 1968 NONAME
 ?CheckGeneral@COleClientItem@@MEAAXJ@Z @ 1969 NONAME
 ?CheckHstmt@CDatabase@@QEBAHFPEAX@Z @ 1970 NONAME
 ?CheckImplicitLoad@?$CStringT@_WV?$StrTraitMFC_DLL@_WV?$ChTraitsCRT@_W@ATL@@@@@ATL@@AEAA_NPEBX@Z @ 1971 NONAME
 ?CheckImplicitLoad@?$CStringT@DV?$StrTraitMFC_DLL@DV?$ChTraitsCRT@D@ATL@@@@@ATL@@AEAA_NPEBX@Z @ 1972 NONAME
 ?CheckMenuItem@CMenu@@QEAAIII@Z @ 1973 NONAME
 ?CheckMenuRadioItem@CMenu@@QEAAHIIII@Z @ 1974 NONAME
 ?Checkpoint@CMemoryState@@QEAAXXZ @ 1975 NONAME
 ?CheckRadioButton@COleControlContainer@@UEAAXHHH@Z @ 1976 NONAME
 ?CheckRadioButton@CWnd@@QEAAXHHH@Z @ 1977 NONAME
 ?CheckRowsetCurrencyStatus@CRecordset@@QEAAXGJ@Z @ 1978 NONAME
 ?CheckRowsetError@CRecordset@@UEAAXF@Z @ 1979 NONAME
 ?CheckScrollBars@CScrollView@@QEBAXAEAH0@Z @ 1980 NONAME
 ?ChildWindowFromPoint@CWnd@@QEBAPEAV1@UtagPOINT@@@Z @ 1981 NONAME
 ?ChildWindowFromPoint@CWnd@@QEBAPEAV1@UtagPOINT@@I@Z @ 1982 NONAME
 ?Chord@CDC@@QEAAHHHHHHHHH@Z @ 1983 NONAME
 ?Chord@CDC@@QEAAHPEBUtagRECT@@UtagPOINT@@1@Z @ 1984 NONAME
 ?Cleanup@CPropertyPage@@IEAAXXZ @ 1985 NONAME
 ?Cleanup@CSplitButton@@IEAAXXZ @ 1986 NONAME
 ?CleanupObjectArray@COlePropertyPage@@IEAAXXZ @ 1987 NONAME
 ?Clear@CComboBox@@QEAAXXZ @ 1988 NONAME
 ?Clear@CDBVariant@@QEAAXXZ @ 1989 NONAME
 ?Clear@CDockState@@QEAAXXZ @ 1990 NONAME
 ?Clear@CEdit@@QEAAXXZ @ 1991 NONAME
 ?Clear@COleSafeArray@@QEAAXXZ @ 1992 NONAME
 ?Clear@COleVariant@@QEAAXXZ @ 1993 NONAME
 ?Clear@CRichEditCtrl@@QEAAXXZ @ 1994 NONAME
 ?ClearAddress@CIPAddressCtrl@@QEAAXXZ @ 1995 NONAME
 ?ClearAllFilters@CHeaderCtrl@@QEAAHXZ @ 1996 NONAME
 ?ClearDirtyFieldStatus@CRecordset@@QEAAXK@Z @ 1997 NONAME
 ?ClearFieldStatus@CRecordset@@QEAAXXZ @ 1998 NONAME
 ?ClearFilter@CHeaderCtrl@@QEAAHH@Z @ 1999 NONAME
 ?ClearNullFieldStatus@CRecordset@@QEAAXK@Z @ 2000 NONAME
 ?ClearNullParamStatus@CRecordset@@QEAAXK@Z @ 2001 NONAME
 ?ClearSel@CSliderCtrl@@QEAAXH@Z @ 2002 NONAME
 ?ClearTics@CSliderCtrl@@QEAAXH@Z @ 2003 NONAME
 ?ClientToParent@COleControl@@UEBAXPEBUtagRECT@@PEAUtagPOINT@@@Z @ 2004 NONAME
 ?ClientToScreen@CWnd@@QEBAXPEAUtagPOINT@@@Z @ 2005 NONAME
 ?ClientToScreen@CWnd@@QEBAXPEAUtagRECT@@@Z @ 2006 NONAME
 ?ClipCaretRect@COleControl@@QEAAHPEAUtagRECT@@@Z @ 2007 NONAME
 ?ClipToPage@CPreviewDC@@QEAAXXZ @ 2008 NONAME
 ?Clone@CAfxStringMgr@@UEAAPEAUIAtlStringMgr@ATL@@XZ @ 2009 NONAME
 ?Clone@CArchiveStream@@UEAAJPEAPEAUIStream@@@Z @ 2010 NONAME
 ?Clone@XEnumVOID@CEnumArray@@UEAAJPEAPEAUIEnumVOID@@@Z @ 2011 NONAME
 ?Clone@XOleDocumentView@CDocObjectServer@@UEAAJPEAUIOleInPlaceSite@@PEAPEAUIOleDocumentView@@@Z @ 2012 NONAME
 ?CloneData@?$CSimpleStringT@_W$00@ATL@@CAPEAUCStringData@2@PEAU32@@Z @ 2013 NONAME
 ?CloneData@?$CSimpleStringT@D$00@ATL@@CAPEAUCStringData@2@PEAU32@@Z @ 2014 NONAME
 ?Close@CAnimateCtrl@@QEAAHXZ @ 2015 NONAME
 ?Close@CArchive@@QEAAXXZ @ 2016 NONAME
 ?Close@CAsyncMonikerFile@@UEAAXXZ @ 2017 NONAME
 ?Close@CAsyncSocket@@UEAAXXZ @ 2018 NONAME
 ?Close@CCachedDataPathProperty@@UEAAXXZ @ 2019 NONAME
 ?Close@CDatabase@@UEAAXXZ @ 2020 NONAME
 ?Close@CFile@@UEAAXXZ @ 2021 NONAME
 ?Close@CFileFind@@QEAAXXZ @ 2022 NONAME
 ?Close@CInternetConnection@@UEAAXXZ @ 2023 NONAME
 ?Close@CInternetFile@@UEAAXXZ @ 2024 NONAME
 ?Close@CInternetSession@@UEAAXXZ @ 2025 NONAME
 ?Close@CMemFile@@UEAAXXZ @ 2026 NONAME
 ?Close@CMetaFileDC@@QEAAPEAUHMETAFILE__@@XZ @ 2027 NONAME
 ?Close@CMirrorFile@@UEAAXXZ @ 2028 NONAME
 ?Close@CMonikerFile@@UEAAXXZ @ 2029 NONAME
 ?Close@COleClientItem@@QEAAXW4tagOLECLOSE@@@Z @ 2030 NONAME
 ?Close@COleStreamFile@@UEAAXXZ @ 2031 NONAME
 ?Close@CRecordset@@UEAAXXZ @ 2032 NONAME
 ?Close@CSocket@@UEAAXXZ @ 2033 NONAME
 ?Close@CSocketFile@@UEAAXXZ @ 2034 NONAME
 ?Close@CStdioFile@@UEAAXXZ @ 2035 NONAME
 ?Close@XOleObject@CDocObjectServer@@UEAAJK@Z @ 2036 NONAME
 ?Close@XOleObject@COleControl@@UEAAJK@Z @ 2037 NONAME
 ?Close@XOleObject@COleServerDoc@@UEAAJK@Z @ 2038 NONAME
 ?Close@XOleObject@COleServerItem@@UEAAJK@Z @ 2039 NONAME
 ?CloseAllDocuments@CDocManager@@UEAAXH@Z @ 2040 NONAME
 ?CloseAllDocuments@CDocTemplate@@UEAAXH@Z @ 2041 NONAME
 ?CloseAllDocuments@CWinApp@@QEAAXH@Z @ 2042 NONAME
 ?CloseContext@CFileFind@@MEAAXXZ @ 2043 NONAME
 ?CloseContext@CFtpFileFind@@MEAAXXZ @ 2044 NONAME
 ?CloseContext@CGopherFileFind@@MEAAXXZ @ 2045 NONAME
 ?CloseEnhanced@CMetaFileDC@@QEAAPEAUHENHMETAFILE__@@XZ @ 2046 NONAME
 ?CloseFigure@CDC@@QEAAHXZ @ 2047 NONAME
 ?CloseMonthCal@CDateTimeCtrl@@QEAAXXZ @ 2048 NONAME
 ?CloseThemeData@CThemeHelper@@SAJPEAX@Z @ 2049 NONAME
 ?CloseThemeDataFail@CThemeHelper@@CAJPEAX@Z @ 2050 NONAME
 ?CloseView@XOleDocumentView@CDocObjectServer@@UEAAJK@Z @ 2051 NONAME
 ?CloseWindow@CWnd@@QEAAXXZ @ 2052 NONAME
 ?Collate@?$CStringT@_WV?$StrTraitMFC_DLL@_WV?$ChTraitsCRT@_W@ATL@@@@@ATL@@QEBAHPEB_W@Z @ 2053 NONAME
 ?Collate@?$CStringT@DV?$StrTraitMFC_DLL@DV?$ChTraitsCRT@D@ATL@@@@@ATL@@QEBAHPEBD@Z @ 2054 NONAME
 ?CollateNoCase@?$CStringT@_WV?$StrTraitMFC_DLL@_WV?$ChTraitsCRT@_W@ATL@@@@@ATL@@QEBAHPEB_W@Z @ 2055 NONAME
 ?CollateNoCase@?$CStringT@DV?$StrTraitMFC_DLL@DV?$ChTraitsCRT@D@ATL@@@@@ATL@@QEBAHPEBD@Z @ 2056 NONAME
 ?CombineRgn@CRgn@@QEAAHPEBV1@0H@Z @ 2057 NONAME
 ?Command@CFtpConnection@@QEAAPEAVCInternetFile@@PEB_WW4CmdResponseType@1@K_K@Z @ 2058 NONAME
 ?CommandToIndex@CStatusBar@@QEBAHI@Z @ 2059 NONAME
 ?CommandToIndex@CToolBar@@QEBAHI@Z @ 2060 NONAME
 ?CommandToIndex@CToolBarCtrl@@QEBAII@Z @ 2061 NONAME
 ?Commit@CArchiveStream@@UEAAJK@Z @ 2062 NONAME
 ?CommitItem@COleClientItem@@UEAAXH@Z @ 2063 NONAME
 ?CommitItems@COleDocument@@QEAAXHPEAUIStorage@@@Z @ 2064 NONAME
 ?CommitTrans@CDatabase@@QEAAHXZ @ 2065 NONAME
 ?CommonConstruct@COleObjectFactory@@IEAAXAEBU_GUID@@PEAUCRuntimeClass@@HHPEB_W@Z @ 2066 NONAME
 ?CommonConstruct@CPropertyPage@@IEAAXPEB_WI@Z @ 2067 NONAME
 ?CommonConstruct@CPropertyPage@@IEAAXPEB_WIII@Z @ 2068 NONAME
 ?CommonConstruct@CPropertySheet@@QEAAXPEAVCWnd@@I@Z @ 2069 NONAME
 ?CommonConstruct@CPropertySheet@@QEAAXPEAVCWnd@@IPEAUHBITMAP__@@PEAUHPALETTE__@@1@Z @ 2070 NONAME
 ?CommonConstruct@CWinThread@@QEAAXXZ @ 2071 NONAME
 ?Compare@?$CStringT@_WV?$StrTraitMFC_DLL@_WV?$ChTraitsCRT@_W@ATL@@@@@ATL@@QEBAHPEB_W@Z @ 2072 NONAME
 ?Compare@?$CStringT@DV?$StrTraitMFC_DLL@DV?$ChTraitsCRT@D@ATL@@@@@ATL@@QEBAHPEBD@Z @ 2073 NONAME
 ?CompareItem@CComboBox@@UEAAHPEAUtagCOMPAREITEMSTRUCT@@@Z @ 2074 NONAME
 ?CompareItem@CListBox@@UEAAHPEAUtagCOMPAREITEMSTRUCT@@@Z @ 2075 NONAME
 ?CompareNoCase@?$CStringT@_WV?$StrTraitMFC_DLL@_WV?$ChTraitsCRT@_W@ATL@@@@@ATL@@QEBAHPEB_W@Z @ 2076 NONAME
 ?CompareNoCase@?$CStringT@DV?$StrTraitMFC_DLL@DV?$ChTraitsCRT@D@ATL@@@@@ATL@@QEBAHPEBD@Z @ 2077 NONAME
 ?ComputeDeltas@CPreviewDC@@IEAA?AVCSize@@AEAHPEB_WAEAIHIPEAHHPEA_W30@Z @ 2078 NONAME
 ?Concatenate@?$CSimpleStringT@_W$00@ATL@@KAXAEAV12@PEB_WH1H@Z @ 2079 NONAME
 ?Concatenate@?$CSimpleStringT@D$00@ATL@@KAXAEAV12@PEBDH1H@Z @ 2080 NONAME
 ?Connect@CAsyncSocket@@QEAAHPEB_WI@Z @ 2081 NONAME
 ?Connect@CAsyncSocket@@QEAAHPEBUsockaddr@@H@Z @ 2082 NONAME
 ?Connect@CDatabase@@IEAAHK@Z @ 2083 NONAME
 ?ConnectDHtmlElementEvents@CDHtmlDialog@@IEAAJ_K@Z @ 2084 NONAME
 ?ConnectDHtmlEvents@CDHtmlDialog@@IEAAJPEAUIUnknown@@@Z @ 2085 NONAME
 ?ConnectHelper@CAsyncSocket@@MEAAHPEBUsockaddr@@H@Z @ 2086 NONAME
 ?ConnectHelper@CSocket@@MEAAHPEBUsockaddr@@H@Z @ 2087 NONAME
 ?ConnectSink@COleControlSite@@IEAAKAEBU_GUID@@PEAUIUnknown@@@Z @ 2088 NONAME
 ?ConnectTemplate@COleTemplateServer@@QEAAXAEBU_GUID@@PEAVCDocTemplate@@H@Z @ 2089 NONAME
 ?ConnectToConnectionPoint@CDHtmlEventSink@@QEAAJPEAUIUnknown@@AEBU_GUID@@PEAK@Z @ 2090 NONAME
 ?ConnectToControl@CDHtmlControlSink@@QEAAJPEAUIUnknown@@@Z @ 2091 NONAME
 ?ConnectView@COleServerDoc@@IEAAXPEAVCWnd@@PEAVCView@@@Z @ 2092 NONAME
 ?Construct@?$CStringT@_WV?$StrTraitMFC_DLL@_WV?$ChTraitsCRT@_W@ATL@@@@@ATL@@SAXPEAV12@@Z @ 2093 NONAME
 ?Construct@?$CStringT@DV?$StrTraitMFC_DLL@DV?$ChTraitsCRT@D@ATL@@@@@ATL@@SAXPEAV12@@Z @ 2094 NONAME
 ?Construct@CPropertyPage@@QEAAXII@Z @ 2095 NONAME
 ?Construct@CPropertyPage@@QEAAXIIII@Z @ 2096 NONAME
 ?Construct@CPropertyPage@@QEAAXPEB_WI@Z @ 2097 NONAME
 ?Construct@CPropertyPage@@QEAAXPEB_WIII@Z @ 2098 NONAME
 ?Construct@CPropertySheet@@QEAAXIPEAVCWnd@@I@Z @ 2099 NONAME
 ?Construct@CPropertySheet@@QEAAXIPEAVCWnd@@IPEAUHBITMAP__@@PEAUHPALETTE__@@1@Z @ 2100 NONAME
 ?Construct@CPropertySheet@@QEAAXPEB_WPEAVCWnd@@I@Z @ 2101 NONAME
 ?Construct@CPropertySheet@@QEAAXPEB_WPEAVCWnd@@IPEAUHBITMAP__@@PEAUHPALETTE__@@2@Z @ 2102 NONAME
 ?Construct@CRectTracker@@IEAAXXZ @ 2103 NONAME
 ?ContextSensitiveHelp@XOleInPlaceActiveObject@COleControl@@UEAAJH@Z @ 2104 NONAME
 ?ContextSensitiveHelp@XOleInPlaceActiveObject@COleServerDoc@@UEAAJH@Z @ 2105 NONAME
 ?ContextSensitiveHelp@XOleInPlaceFrame@COleFrameHook@@UEAAJH@Z @ 2106 NONAME
 ?ContextSensitiveHelp@XOleInPlaceObject@COleControl@@UEAAJH@Z @ 2107 NONAME
 ?ContextSensitiveHelp@XOleInPlaceObject@COleServerDoc@@UEAAJH@Z @ 2108 NONAME
 ?ContextSensitiveHelp@XOleIPFrame@COleControlContainer@@UEAAJH@Z @ 2109 NONAME
 ?ContextSensitiveHelp@XOleIPSite@COleClientItem@@UEAAJH@Z @ 2110 NONAME
 ?ContextSensitiveHelp@XOleIPSite@COleControlSite@@UEAAJH@Z @ 2111 NONAME
 ?ContextSensitiveHelp@XRichEditOleCallback@CRichEditView@@UEAAJH@Z @ 2112 NONAME
 ?ContinueModal@CPropertySheet@@UEAAHXZ @ 2113 NONAME
 ?ContinueModal@CWnd@@UEAAHXZ @ 2114 NONAME
 ?ContinueRouting@CCmdUI@@QEAAXXZ @ 2115 NONAME
 ?ControlInfoChanged@COleControl@@QEAAXXZ @ 2116 NONAME
 ?ConvertObject@XOleUIObjInfo@COlePropertiesDialog@@UEAAJKAEBU_GUID@@@Z @ 2117 NONAME
 ?ConvertTo@COleClientItem@@UEAAHAEBU_GUID@@@Z @ 2118 NONAME
 ?ConvertTo@CRichEditCntrItem@@UEAAHAEBU_GUID@@@Z @ 2119 NONAME
 ?Copy@CByteArray@@QEAAXAEBV1@@Z @ 2120 NONAME
 ?Copy@CComboBox@@QEAAXXZ @ 2121 NONAME
 ?Copy@CDWordArray@@QEAAXAEBV1@@Z @ 2122 NONAME
 ?Copy@CEdit@@QEAAXXZ @ 2123 NONAME
 ?Copy@CImageList@@QEAAHHHI@Z @ 2124 NONAME
 ?Copy@CImageList@@QEAAHHPEAV1@HI@Z @ 2125 NONAME
 ?Copy@CObArray@@QEAAXAEBV1@@Z @ 2126 NONAME
 ?Copy@COleSafeArray@@QEAAXPEAPEAUtagSAFEARRAY@@@Z @ 2127 NONAME
 ?Copy@CPtrArray@@QEAAXAEBV1@@Z @ 2128 NONAME
 ?Copy@CRichEditCtrl@@QEAAXXZ @ 2129 NONAME
 ?Copy@CStringArray@@QEAAXAEBV1@@Z @ 2130 NONAME
 ?Copy@CUIntArray@@QEAAXAEBV1@@Z @ 2131 NONAME
 ?Copy@CWordArray@@QEAAXAEBV1@@Z @ 2132 NONAME
 ?CopyChars@?$CSimpleStringT@_W$00@ATL@@SAXPEA_WPEB_WH@Z @ 2133 NONAME
 ?CopyChars@?$CSimpleStringT@D$00@ATL@@SAXPEADPEBDH@Z @ 2134 NONAME
 ?CopyCharsOverlapped@?$CSimpleStringT@_W$00@ATL@@SAXPEA_WPEB_WH@Z @ 2135 NONAME
 ?CopyCharsOverlapped@?$CSimpleStringT@D$00@ATL@@SAXPEADPEBDH@Z @ 2136 NONAME
 ?CopyColumnID@CDataSourceControl@@QEAAHPEAUtagDBCOLUMNID@@PEBU2@@Z @ 2137 NONAME
 ?CopyRgn@CRgn@@QEAAHPEBV1@@Z @ 2138 NONAME
 ?CopyTo@CArchiveStream@@UEAAJPEAUIStream@@T_ULARGE_INTEGER@@PEAT3@2@Z @ 2139 NONAME
 ?CopyToClipboard@COleClientItem@@QEAAXH@Z @ 2140 NONAME
 ?CopyToClipboard@COleServerItem@@QEAAXH@Z @ 2141 NONAME
 ?Create@CAnimateCtrl@@UEAAHKAEBUtagRECT@@PEAVCWnd@@I@Z @ 2142 NONAME
 ?Create@CAsyncSocket@@QEAAHIHJPEB_W@Z @ 2143 NONAME
 ?Create@CButton@@UEAAHPEB_WKAEBUtagRECT@@PEAVCWnd@@I@Z @ 2144 NONAME
 ?Create@CCheckListBox@@UEAAHKAEBUtagRECT@@PEAVCWnd@@I@Z @ 2145 NONAME
 ?Create@CComboBox@@UEAAHKAEBUtagRECT@@PEAVCWnd@@I@Z @ 2146 NONAME
 ?Create@CComboBoxEx@@UEAAHKAEBUtagRECT@@PEAVCWnd@@I@Z @ 2147 NONAME
 ?Create@CControlFrameWnd@@UEAAHPEB_W@Z @ 2148 NONAME
 ?Create@CDateTimeCtrl@@UEAAHKAEBUtagRECT@@PEAVCWnd@@I@Z @ 2149 NONAME
 ?Create@CDialog@@UEAAHIPEAVCWnd@@@Z @ 2150 NONAME
 ?Create@CDialog@@UEAAHPEB_WPEAVCWnd@@@Z @ 2151 NONAME
 ?Create@CDialogBar@@UEAAHPEAVCWnd@@III@Z @ 2152 NONAME
 ?Create@CDialogBar@@UEAAHPEAVCWnd@@PEB_WII@Z @ 2153 NONAME
 ?Create@CDockBar@@UEAAHPEAVCWnd@@KI@Z @ 2154 NONAME
 ?Create@CEdit@@QEAAHKAEBUtagRECT@@PEAVCWnd@@I@Z @ 2155 NONAME
 ?Create@CFindReplaceDialog@@UEAAHHPEB_W0KPEAVCWnd@@@Z @ 2156 NONAME
 ?Create@CFormView@@MEAAHPEB_W0KAEBUtagRECT@@PEAVCWnd@@IPEAUCCreateContext@@@Z @ 2157 NONAME
 ?Create@CFrameWnd@@UEAAHPEB_W0KAEBUtagRECT@@PEAVCWnd@@0KPEAUCCreateContext@@@Z @ 2158 NONAME
 ?Create@CHeaderCtrl@@UEAAHKAEBUtagRECT@@PEAVCWnd@@I@Z @ 2159 NONAME
 ?Create@CHotKeyCtrl@@UEAAHKAEBUtagRECT@@PEAVCWnd@@I@Z @ 2160 NONAME
 ?Create@CHtmlEditCtrl@@UEAAHPEB_WKAEBUtagRECT@@PEAVCWnd@@HPEAUCCreateContext@@@Z @ 2161 NONAME
 ?Create@CHtmlEditView@@UEAAHPEB_W0KAEBUtagRECT@@PEAVCWnd@@IPEAUCCreateContext@@@Z @ 2162 NONAME
 ?Create@CHtmlView@@UEAAHPEB_W0KAEBUtagRECT@@PEAVCWnd@@IPEAUCCreateContext@@@Z @ 2163 NONAME
 ?Create@CImageList@@QEAAHAEAV1@H0HHH@Z @ 2164 NONAME
 ?Create@CImageList@@QEAAHHHIHH@Z @ 2165 NONAME
 ?Create@CImageList@@QEAAHIHHK@Z @ 2166 NONAME
 ?Create@CImageList@@QEAAHPEAV1@@Z @ 2167 NONAME
 ?Create@CImageList@@QEAAHPEB_WHHK@Z @ 2168 NONAME
 ?Create@CIPAddressCtrl@@UEAAHKAEBUtagRECT@@PEAVCWnd@@I@Z @ 2169 NONAME
 ?Create@CLinkCtrl@@UEAAHKAEBUtagRECT@@PEAVCWnd@@I@Z @ 2170 NONAME
 ?Create@CLinkCtrl@@UEAAHPEB_WKAEBUtagRECT@@PEAVCWnd@@I@Z @ 2171 NONAME
 ?Create@CListBox@@UEAAHKAEBUtagRECT@@PEAVCWnd@@I@Z @ 2172 NONAME
 ?Create@CListCtrl@@QEAAHKAEBUtagRECT@@PEAVCWnd@@I@Z @ 2173 NONAME
 ?Create@CMDIChildWnd@@UEAAHPEB_W0KAEBUtagRECT@@PEAVCMDIFrameWnd@@PEAUCCreateContext@@@Z @ 2174 NONAME
 ?Create@CMetaFileDC@@QEAAHPEB_W@Z @ 2175 NONAME
 ?Create@CMiniDockFrameWnd@@UEAAHPEAVCWnd@@K@Z @ 2176 NONAME
 ?Create@CMiniFrameWnd@@UEAAHPEB_W0KAEBUtagRECT@@PEAVCWnd@@I@Z @ 2177 NONAME
 ?Create@CMonthCalCtrl@@UEAAHKAEBUtagPOINT@@PEAVCWnd@@I@Z @ 2178 NONAME
 ?Create@CMonthCalCtrl@@UEAAHKAEBUtagRECT@@PEAVCWnd@@I@Z @ 2179 NONAME
 ?Create@CNetAddressCtrl@@UEAAHKAEBUtagRECT@@PEAVCWnd@@I@Z @ 2180 NONAME
 ?Create@COleResizeBar@@UEAAHPEAVCWnd@@KI@Z @ 2181 NONAME
 ?Create@COleSafeArray@@QEAAXGKPEAK@Z @ 2182 NONAME
 ?Create@COleSafeArray@@QEAAXGKPEAUtagSAFEARRAYBOUND@@@Z @ 2183 NONAME
 ?Create@CPagerCtrl@@UEAAHKAEBUtagRECT@@PEAVCWnd@@I@Z @ 2184 NONAME
 ?Create@CPlex@@SAPEAU1@AEAPEAU1@_K1@Z @ 2185 NONAME
 ?Create@CProgressCtrl@@UEAAHKAEBUtagRECT@@PEAVCWnd@@I@Z @ 2186 NONAME
 ?Create@CPropertySheet@@UEAAHPEAVCWnd@@KK@Z @ 2187 NONAME
 ?Create@CReBar@@UEAAHPEAVCWnd@@KKI@Z @ 2188 NONAME
 ?Create@CReBarCtrl@@QEAAHKAEBUtagRECT@@PEAVCWnd@@I@Z @ 2189 NONAME
 ?Create@CReflectorWnd@@QEAAHAEBVCRect@@PEAUHWND__@@@Z @ 2190 NONAME
 ?Create@CRichEditCtrl@@QEAAHKAEBUtagRECT@@PEAVCWnd@@I@Z @ 2191 NONAME
 ?Create@CScrollBar@@UEAAHKAEBUtagRECT@@PEAVCWnd@@I@Z @ 2192 NONAME
 ?Create@CSliderCtrl@@UEAAHKAEBUtagRECT@@PEAVCWnd@@I@Z @ 2193 NONAME
 ?Create@CSocket@@QEAAHIHPEB_W@Z @ 2194 NONAME
 ?Create@CSpinButtonCtrl@@UEAAHKAEBUtagRECT@@PEAVCWnd@@I@Z @ 2195 NONAME
 ?Create@CSplitButton@@UEAAHPEB_WKAEBUtagRECT@@PEAVCWnd@@I@Z @ 2196 NONAME
 ?Create@CSplitterWnd@@UEAAHPEAVCWnd@@HHUtagSIZE@@PEAUCCreateContext@@KI@Z @ 2197 NONAME
 ?Create@CStatic@@UEAAHPEB_WKAEBUtagRECT@@PEAVCWnd@@I@Z @ 2198 NONAME
 ?Create@CStatusBar@@UEAAHPEAVCWnd@@KI@Z @ 2199 NONAME
 ?Create@CStatusBarCtrl@@QEAAHKAEBUtagRECT@@PEAVCWnd@@I@Z @ 2200 NONAME
 ?Create@CTabCtrl@@UEAAHKAEBUtagRECT@@PEAVCWnd@@I@Z @ 2201 NONAME
 ?Create@CToolBar@@UEAAHPEAVCWnd@@KI@Z @ 2202 NONAME
 ?Create@CToolBarCtrl@@QEAAHKAEBUtagRECT@@PEAVCWnd@@I@Z @ 2203 NONAME
 ?Create@CToolTipCtrl@@UEAAHPEAVCWnd@@K@Z @ 2204 NONAME
 ?Create@CTreeCtrl@@QEAAHKAEBUtagRECT@@PEAVCWnd@@I@Z @ 2205 NONAME
 ?Create@CWnd@@UEAAHPEB_W0KAEBUtagRECT@@PEAV1@IPEAUCCreateContext@@@Z @ 2206 NONAME
 ?CreateAccessibleProxy@CWnd@@UEAAJ_K_JPEA_J@Z @ 2207 NONAME
 ?CreateActivationContext@AFX_MODULE_STATE@@QEAAXXZ @ 2208 NONAME
 ?CreateBindContext@CMonikerFile@@IEAAPEAUIBindCtx@@PEAVCFileException@@@Z @ 2209 NONAME
 ?CreateBindHost@CMonikerFile@@KAPEAUIBindHost@@XZ @ 2210 NONAME
 ?CreateBindStatusCallback@CAsyncMonikerFile@@MEAAPEAUIUnknown@@PEAU2@@Z @ 2211 NONAME
 ?CreateBitmap@CBitmap@@QEAAHHHIIPEBX@Z @ 2212 NONAME
 ?CreateBitmapIndirect@CBitmap@@QEAAHPEAUtagBITMAP@@@Z @ 2213 NONAME
 ?CreateBrushIndirect@CBrush@@QEAAHPEBUtagLOGBRUSH@@@Z @ 2214 NONAME
 ?CreateCaret@CWnd@@QEAAXPEAVCBitmap@@@Z @ 2215 NONAME
 ?CreateClient@CMDIFrameWnd@@UEAAHPEAUtagCREATESTRUCTW@@PEAVCMenu@@@Z @ 2216 NONAME
 ?CreateClientItem@CRichEditDoc@@UEBAPEAVCRichEditCntrItem@@PEAU_reobject@@@Z @ 2217 NONAME
 ?CreateCloneFrom@COleClientItem@@QEAAHPEBV1@@Z @ 2218 NONAME
 ?CreateCommon@CSplitterWnd@@IEAAHPEAVCWnd@@UtagSIZE@@KI@Z @ 2219 NONAME
 ?CreateCompatibleBitmap@CBitmap@@QEAAHPEAVCDC@@HH@Z @ 2220 NONAME
 ?CreateCompatibleDC@CDC@@QEAAHPEAV1@@Z @ 2221 NONAME
 ?CreateConnectionArray@CConnectionPoint@@QEAAXXZ @ 2222 NONAME
 ?CreateContainer@COccManager@@UEAAPEAVCOleControlContainer@@PEAVCWnd@@@Z @ 2223 NONAME
 ?CreateControl@COleControlContainer@@QEAAHPEAVCWnd@@AEBU_GUID@@PEB_WKAEBUtagRECT@@IPEAVCFile@@HPEA_WPEAPEAVCOleControlSite@@@Z @ 2224 NONAME
 ?CreateControl@COleControlContainer@@QEAAHPEAVCWnd@@AEBU_GUID@@PEB_WKPEBUtagPOINT@@PEBUtagSIZE@@IPEAVCFile@@HPEA_WPEAPEAVCOleControlSite@@@Z @ 2225 NONAME
 ?CreateControl@COleControlContainer@@QEAAHPEAVCWnd@@AEBVCControlCreationInfo@@KPEBUtagPOINT@@PEBUtagSIZE@@I@Z @ 2226 NONAME
 ?CreateControl@COleControlSite@@QEAAJPEAVCWnd@@AEBVCControlCreationInfo@@KPEBUtagPOINT@@PEBUtagSIZE@@I@Z @ 2227 NONAME
 ?CreateControl@COleControlSite@@UEAAJPEAVCWnd@@AEBU_GUID@@PEB_WKAEBUtagRECT@@IPEAVCFile@@HPEA_W@Z @ 2228 NONAME
 ?CreateControl@COleControlSite@@UEAAJPEAVCWnd@@AEBU_GUID@@PEB_WKPEBUtagPOINT@@PEBUtagSIZE@@IPEAVCFile@@HPEA_W@Z @ 2229 NONAME
 ?CreateControl@CWnd@@QEAAHAEBU_GUID@@PEB_WKAEBUtagRECT@@PEAV1@IPEAVCFile@@HPEA_W@Z @ 2230 NONAME
 ?CreateControl@CWnd@@QEAAHAEBU_GUID@@PEB_WKPEBUtagPOINT@@PEBUtagSIZE@@PEAV1@IPEAVCFile@@HPEA_W@Z @ 2231 NONAME
 ?CreateControl@CWnd@@QEAAHAEBVCControlCreationInfo@@KPEBUtagPOINT@@PEBUtagSIZE@@PEAV1@I@Z @ 2232 NONAME
 ?CreateControl@CWnd@@QEAAHPEB_W0KAEBUtagRECT@@PEAV1@IPEAVCFile@@HPEA_W@Z @ 2233 NONAME
 ?CreateControlCommon@COleControlContainer@@QEAAHPEAVCWnd@@AEBU_GUID@@AEBVCControlCreationInfo@@PEB_WKPEBUtagPOINT@@PEBUtagSIZE@@IPEAVCFile@@HPEA_WPEAPEAVCOleControlSite@@@Z @ 2234 NONAME
 ?CreateControlCommon@COleControlSite@@MEAAJPEAVCWnd@@AEBU_GUID@@AEBVCControlCreationInfo@@PEB_WKPEBUtagPOINT@@PEBUtagSIZE@@IPEAVCFile@@HPEA_W@Z @ 2235 NONAME
 ?CreateControlContainer@CWnd@@MEAAHPEAPEAVCOleControlContainer@@@Z @ 2236 NONAME
 ?CreateControlSite@CDHtmlDialog@@UEAAHPEAVCOleControlContainer@@PEAPEAVCOleControlSite@@IAEBU_GUID@@@Z @ 2237 NONAME
 ?CreateControlSite@CHtmlView@@UEAAHPEAVCOleControlContainer@@PEAPEAVCOleControlSite@@IAEBU_GUID@@@Z @ 2238 NONAME
 ?CreateControlSite@CWnd@@MEAAHPEAVCOleControlContainer@@PEAPEAVCOleControlSite@@IAEBU_GUID@@@Z @ 2239 NONAME
 ?CreateControlWindow@COleControl@@MEAAHPEAUHWND__@@AEBVCRect@@PEBUtagRECT@@@Z @ 2240 NONAME
 ?CreateDCW@CDC@@QEAAHPEB_W00PEBX@Z @ 2241 NONAME
 ?CreateDIBPatternBrush@CBrush@@QEAAHPEAXI@Z @ 2242 NONAME
 ?CreateDIBPatternBrush@CBrush@@QEAAHPEBXI@Z @ 2243 NONAME
 ?CreateDirectory@CFtpConnection@@QEAAHPEB_W@Z @ 2244 NONAME
 ?CreateDirectoryW@CFtpConnection@@QEAAHPEB_W@Z @ 2245 NONAME
 ?CreateDiscardableBitmap@CBitmap@@QEAAHPEAVCDC@@HH@Z @ 2246 NONAME
 ?CreateDispatch@COleDispatchDriver@@QEAAHAEBU_GUID@@PEAVCOleException@@@Z @ 2247 NONAME
 ?CreateDispatch@COleDispatchDriver@@QEAAHPEB_WPEAVCOleException@@@Z @ 2248 NONAME
 ?CreateDlg@CWnd@@IEAAHPEB_WPEAV1@@Z @ 2249 NONAME
 ?CreateDlgControl@COccManager@@IEAAHPEAVCWnd@@PEAUHWND__@@HPEAUDLGITEMTEMPLATE@@GPEAEKPEAPEAU3@@Z @ 2250 NONAME
 ?CreateDlgControls@COccManager@@UEAAHPEAVCWnd@@PEAXPEAU_AFX_OCC_DIALOG_INFO@@@Z @ 2251 NONAME
 ?CreateDlgControls@COccManager@@UEAAHPEAVCWnd@@PEB_WPEAU_AFX_OCC_DIALOG_INFO@@@Z @ 2252 NONAME
 ?CreateDlgIndirect@CWnd@@IEAAHPEBUDLGTEMPLATE@@PEAV1@PEAUHINSTANCE__@@@Z @ 2253 NONAME
 ?CreateDragImage@CHeaderCtrl@@QEAAPEAVCImageList@@H@Z @ 2254 NONAME
 ?CreateDragImage@CListCtrl@@QEAAPEAVCImageList@@HPEAUtagPOINT@@@Z @ 2255 NONAME
 ?CreateDragImage@CTreeCtrl@@QEAAPEAVCImageList@@PEAU_TREEITEM@@@Z @ 2256 NONAME
 ?CreateEllipticRgn@CRgn@@QEAAHHHHH@Z @ 2257 NONAME
 ?CreateEllipticRgnIndirect@CRgn@@QEAAHPEBUtagRECT@@@Z @ 2258 NONAME
 ?CreateEmpty@CPictureHolder@@QEAAHXZ @ 2259 NONAME
 ?CreateEnhanced@CMetaFileDC@@QEAAHPEAVCDC@@PEB_WPEBUtagRECT@@1@Z @ 2260 NONAME
 ?CreateEx@CAnimateCtrl@@UEAAHKKAEBUtagRECT@@PEAVCWnd@@I@Z @ 2261 NONAME
 ?CreateEx@CComboBoxEx@@UEAAHKKAEBUtagRECT@@PEAVCWnd@@I@Z @ 2262 NONAME
 ?CreateEx@CHeaderCtrl@@UEAAHKKAEBUtagRECT@@PEAVCWnd@@I@Z @ 2263 NONAME
 ?CreateEx@CHotKeyCtrl@@UEAAHKKAEBUtagRECT@@PEAVCWnd@@I@Z @ 2264 NONAME
 ?CreateEx@CIPAddressCtrl@@UEAAHKKAEBUtagRECT@@PEAVCWnd@@I@Z @ 2265 NONAME
 ?CreateEx@CLinkCtrl@@UEAAHKKAEBUtagRECT@@PEAVCWnd@@I@Z @ 2266 NONAME
 ?CreateEx@CLinkCtrl@@UEAAHPEB_WKKAEBUtagRECT@@PEAVCWnd@@I@Z @ 2267 NONAME
 ?CreateEx@CListCtrl@@QEAAHKKAEBUtagRECT@@PEAVCWnd@@I@Z @ 2268 NONAME
 ?CreateEx@CMiniFrameWnd@@UEAAHKPEB_W0KAEBUtagRECT@@PEAVCWnd@@I@Z @ 2269 NONAME
 ?CreateEx@CNetAddressCtrl@@UEAAHKKAEBUtagRECT@@PEAVCWnd@@I@Z @ 2270 NONAME
 ?CreateEx@CPagerCtrl@@UEAAHKKAEBUtagRECT@@PEAVCWnd@@I@Z @ 2271 NONAME
 ?CreateEx@CProgressCtrl@@UEAAHKKAEBUtagRECT@@PEAVCWnd@@I@Z @ 2272 NONAME
 ?CreateEx@CReBarCtrl@@QEAAHKKAEBUtagRECT@@PEAVCWnd@@I@Z @ 2273 NONAME
 ?CreateEx@CRichEditCtrl@@QEAAHKKAEBUtagRECT@@PEAVCWnd@@I@Z @ 2274 NONAME
 ?CreateEx@CSliderCtrl@@UEAAHKKAEBUtagRECT@@PEAVCWnd@@I@Z @ 2275 NONAME
 ?CreateEx@CSpinButtonCtrl@@UEAAHKKAEBUtagRECT@@PEAVCWnd@@I@Z @ 2276 NONAME
 ?CreateEx@CStatusBar@@UEAAHPEAVCWnd@@KKI@Z @ 2277 NONAME
 ?CreateEx@CStatusBarCtrl@@QEAAHKKAEBUtagRECT@@PEAVCWnd@@I@Z @ 2278 NONAME
 ?CreateEx@CTabCtrl@@UEAAHKKAEBUtagRECT@@PEAVCWnd@@I@Z @ 2279 NONAME
 ?CreateEx@CToolBar@@UEAAHPEAVCWnd@@KKVCRect@@I@Z @ 2280 NONAME
 ?CreateEx@CToolBarCtrl@@QEAAHKKAEBUtagRECT@@PEAVCWnd@@I@Z @ 2281 NONAME
 ?CreateEx@CToolTipCtrl@@UEAAHPEAVCWnd@@KK@Z @ 2282 NONAME
 ?CreateEx@CTreeCtrl@@QEAAHKKAEBUtagRECT@@PEAVCWnd@@I@Z @ 2283 NONAME
 ?CreateEx@CWnd@@UEAAHKPEB_W0KAEBUtagRECT@@PEAV1@IPEAX@Z @ 2284 NONAME
 ?CreateEx@CWnd@@UEAAHKPEB_W0KHHHHPEAUHWND__@@PEAUHMENU__@@PEAX@Z @ 2285 NONAME
 ?CreateFloatingFrame@CFrameWnd@@QEAAPEAVCMiniDockFrameWnd@@K@Z @ 2286 NONAME
 ?CreateFontIndirectW@CFont@@QEAAHPEBUtagLOGFONTW@@@Z @ 2287 NONAME
 ?CreateFontW@CFont@@QEAAHHHHHHEEEEEEEEPEB_W@Z @ 2288 NONAME
 ?CreateFrameWindow@COleControl@@MEAAPEAVCControlFrameWnd@@XZ @ 2289 NONAME
 ?CreateFromBitmap@CPictureHolder@@QEAAHI@Z @ 2290 NONAME
 ?CreateFromBitmap@CPictureHolder@@QEAAHPEAUHBITMAP__@@PEAUHPALETTE__@@H@Z @ 2291 NONAME
 ?CreateFromBitmap@CPictureHolder@@QEAAHPEAVCBitmap@@PEAVCPalette@@H@Z @ 2292 NONAME
 ?CreateFromClipboard@COleClientItem@@QEAAHW4tagOLERENDER@@GPEAUtagFORMATETC@@@Z @ 2293 NONAME
 ?CreateFromData@COleClientItem@@QEAAHPEAVCOleDataObject@@W4tagOLERENDER@@GPEAUtagFORMATETC@@@Z @ 2294 NONAME
 ?CreateFromData@CRgn@@QEAAHPEBUtagXFORM@@HPEBU_RGNDATA@@@Z @ 2295 NONAME
 ?CreateFromFile@COleClientItem@@QEAAHPEB_WAEBU_GUID@@W4tagOLERENDER@@GPEAUtagFORMATETC@@@Z @ 2296 NONAME
 ?CreateFromIcon@CPictureHolder@@QEAAHI@Z @ 2297 NONAME
 ?CreateFromIcon@CPictureHolder@@QEAAHPEAUHICON__@@H@Z @ 2298 NONAME
 ?CreateFromMetafile@CPictureHolder@@QEAAHPEAUHMETAFILE__@@HHH@Z @ 2299 NONAME
 ?CreateFromPath@CRgn@@QEAAHPEAVCDC@@@Z @ 2300 NONAME
 ?CreateGrayCaret@CWnd@@QEAAXHH@Z @ 2301 NONAME
 ?CreateHalftonePalette@CPalette@@QEAAHPEAVCDC@@@Z @ 2302 NONAME
 ?CreateHatchBrush@CBrush@@QEAAHHK@Z @ 2303 NONAME
 ?CreateICW@CDC@@QEAAHPEB_W00PEBX@Z @ 2304 NONAME
 ?CreateIndirect@CDialog@@IEAAHPEAXPEAVCWnd@@PEAUHINSTANCE__@@@Z @ 2305 NONAME
 ?CreateIndirect@CDialog@@IEAAHPEBUDLGTEMPLATE@@PEAVCWnd@@PEAXPEAUHINSTANCE__@@@Z @ 2306 NONAME
 ?CreateIndirect@CDialog@@UEAAHPEAXPEAVCWnd@@@Z @ 2307 NONAME
 ?CreateIndirect@CDialog@@UEAAHPEBUDLGTEMPLATE@@PEAVCWnd@@PEAX@Z @ 2308 NONAME
 ?CreateInPlaceFrame@COleServerDoc@@MEAAPEAVCOleIPFrameWnd@@PEAVCWnd@@@Z @ 2309 NONAME
 ?CreateInstance@AFX_COM@@QEAAJAEBU_GUID@@PEAUIUnknown@@0PEAPEAX@Z @ 2310 NONAME
 ?CreateInstance@XClassFactory@COleObjectFactory@@UEAAJPEAUIUnknown@@AEBU_GUID@@PEAPEAX@Z @ 2311 NONAME
 ?CreateInstanceLic@XClassFactory@COleObjectFactory@@UEAAJPEAUIUnknown@@0AEBU_GUID@@PEA_WPEAPEAX@Z @ 2312 NONAME
 ?CreateItem@COleInsertDialog@@QEAAHPEAVCOleClientItem@@@Z @ 2313 NONAME
 ?CreateItem@COlePasteSpecialDialog@@QEAAHPEAVCOleClientItem@@@Z @ 2314 NONAME
 ?CreateLinkFromClipboard@COleClientItem@@QEAAHW4tagOLERENDER@@GPEAUtagFORMATETC@@@Z @ 2315 NONAME
 ?CreateLinkFromData@COleClientItem@@QEAAHPEAVCOleDataObject@@W4tagOLERENDER@@GPEAUtagFORMATETC@@@Z @ 2316 NONAME
 ?CreateLinkFromFile@COleClientItem@@QEAAHPEB_WW4tagOLERENDER@@GPEAUtagFORMATETC@@@Z @ 2317 NONAME
 ?CreateLocator@CGopherConnection@@QEAA?AVCGopherLocator@@PEB_W0K@Z @ 2318 NONAME
 ?CreateLocator@CGopherConnection@@SA?AVCGopherLocator@@PEB_W@Z @ 2319 NONAME
 ?CreateLocator@CGopherConnection@@SA?AVCGopherLocator@@PEB_W00KG@Z @ 2320 NONAME
 ?CreateMemoryStream@COleStreamFile@@QEAAHPEAVCFileException@@@Z @ 2321 NONAME
 ?CreateMenu@CMenu@@QEAAHXZ @ 2322 NONAME
 ?CreateNewChild@CMDIFrameWnd@@QEAAPEAVCMDIChildWnd@@PEAUCRuntimeClass@@IPEAUHMENU__@@PEAUHACCEL__@@@Z @ 2323 NONAME
 ?CreateNewDocument@CDocTemplate@@UEAAPEAVCDocument@@XZ @ 2324 NONAME
 ?CreateNewFrame@CDocTemplate@@UEAAPEAVCFrameWnd@@PEAVCDocument@@PEAV2@@Z @ 2325 NONAME
 ?CreateNewItem@COleClientItem@@QEAAHAEBU_GUID@@W4tagOLERENDER@@GPEAUtagFORMATETC@@@Z @ 2326 NONAME
 ?CreateObject@CByteArray@@SAPEAVCObject@@XZ @ 2327 NONAME
 ?CreateObject@CDC@@SAPEAVCObject@@XZ @ 2328 NONAME
 ?CreateObject@CDocItem@@SAPEAVCObject@@XZ @ 2329 NONAME
 ?CreateObject@CDockState@@SAPEAVCObject@@XZ @ 2330 NONAME
 ?CreateObject@CDWordArray@@SAPEAVCObject@@XZ @ 2331 NONAME
 ?CreateObject@CEditView@@SAPEAVCObject@@XZ @ 2332 NONAME
 ?CreateObject@CFrameWnd@@SAPEAVCObject@@XZ @ 2333 NONAME
 ?CreateObject@CGdiObject@@SAPEAVCObject@@XZ @ 2334 NONAME
 ?CreateObject@CHtmlEditView@@SAPEAVCObject@@XZ @ 2335 NONAME
 ?CreateObject@CHtmlView@@SAPEAVCObject@@XZ @ 2336 NONAME
 ?CreateObject@CImageList@@SAPEAVCObject@@XZ @ 2337 NONAME
 ?CreateObject@CListView@@SAPEAVCObject@@XZ @ 2338 NONAME
 ?CreateObject@CMapStringToOb@@SAPEAVCObject@@XZ @ 2339 NONAME
 ?CreateObject@CMapStringToString@@SAPEAVCObject@@XZ @ 2340 NONAME
 ?CreateObject@CMapWordToOb@@SAPEAVCObject@@XZ @ 2341 NONAME
 ?CreateObject@CMDIChildWnd@@SAPEAVCObject@@XZ @ 2342 NONAME
 ?CreateObject@CMDIFrameWnd@@SAPEAVCObject@@XZ @ 2343 NONAME
 ?CreateObject@CMenu@@SAPEAVCObject@@XZ @ 2344 NONAME
 ?CreateObject@CMiniDockFrameWnd@@SAPEAVCObject@@XZ @ 2345 NONAME
 ?CreateObject@CMiniFrameWnd@@SAPEAVCObject@@XZ @ 2346 NONAME
 ?CreateObject@CObArray@@SAPEAVCObject@@XZ @ 2347 NONAME
 ?CreateObject@CObList@@SAPEAVCObject@@XZ @ 2348 NONAME
 ?CreateObject@COleDocIPFrameWnd@@SAPEAVCObject@@XZ @ 2349 NONAME
 ?CreateObject@COleIPFrameWnd@@SAPEAVCObject@@XZ @ 2350 NONAME
 ?CreateObject@CPreviewView@@SAPEAVCObject@@XZ @ 2351 NONAME
 ?CreateObject@CRichEditCntrItem@@SAPEAVCObject@@XZ @ 2352 NONAME
 ?CreateObject@CRichEditView@@SAPEAVCObject@@XZ @ 2353 NONAME
 ?CreateObject@CRuntimeClass@@QEAAPEAVCObject@@XZ @ 2354 NONAME
 ?CreateObject@CRuntimeClass@@SAPEAVCObject@@PEB_W@Z @ 2355 NONAME
 ?CreateObject@CRuntimeClass@@SAPEAVCObject@@PEBD@Z @ 2356 NONAME
 ?CreateObject@CStringArray@@SAPEAVCObject@@XZ @ 2357 NONAME
 ?CreateObject@CStringList@@SAPEAVCObject@@XZ @ 2358 NONAME
 ?CreateObject@CTreeView@@SAPEAVCObject@@XZ @ 2359 NONAME
 ?CreateObject@CWnd@@SAPEAVCObject@@XZ @ 2360 NONAME
 ?CreateObject@CWordArray@@SAPEAVCObject@@XZ @ 2361 NONAME
 ?CreateOleFont@COleControlContainer@@QEAAXPEAVCFont@@@Z @ 2362 NONAME
 ?CreateOleFrame@CDocTemplate@@QEAAPEAVCFrameWnd@@PEAVCWnd@@PEAVCDocument@@H@Z @ 2363 NONAME
 ?CreateOneDim@COleSafeArray@@QEAAXGKPEBXJ@Z @ 2364 NONAME
 ?CreateOrLoad@COleControlSite@@MEAAJAEBU_GUID@@PEAVCFile@@HPEA_W@Z @ 2365 NONAME
 ?CreateOrLoad@COleControlSite@@MEAAJAEBVCControlCreationInfo@@@Z @ 2366 NONAME
 ?CreatePalette@CPalette@@QEAAHPEAUtagLOGPALETTE@@@Z @ 2367 NONAME
 ?CreatePatternBrush@CBrush@@QEAAHPEAVCBitmap@@@Z @ 2368 NONAME
 ?CreatePen@CPen@@QEAAHHHK@Z @ 2369 NONAME
 ?CreatePen@CPen@@QEAAHHHPEBUtagLOGBRUSH@@HPEBK@Z @ 2370 NONAME
 ?CreatePenIndirect@CPen@@QEAAHPEAUtagLOGPEN@@@Z @ 2371 NONAME
 ?CreatePointFont@CFont@@QEAAHHPEB_WPEAVCDC@@@Z @ 2372 NONAME
 ?CreatePointFontIndirect@CFont@@QEAAHPEBUtagLOGFONTW@@PEAVCDC@@@Z @ 2373 NONAME
 ?CreatePolygonRgn@CRgn@@QEAAHPEAUtagPOINT@@HH@Z @ 2374 NONAME
 ?CreatePolyPolygonRgn@CRgn@@QEAAHPEAUtagPOINT@@PEAHHH@Z @ 2375 NONAME
 ?CreatePopupMenu@CMenu@@QEAAHXZ @ 2376 NONAME
 ?CreatePrinterDC@CPageSetupDialog@@QEAAPEAUHDC__@@XZ @ 2377 NONAME
 ?CreatePrinterDC@CPrintDialog@@QEAAPEAUHDC__@@XZ @ 2378 NONAME
 ?CreatePrinterDC@CPrintDialogEx@@QEAAPEAUHDC__@@XZ @ 2379 NONAME
 ?CreatePrinterDC@CWinApp@@QEAAHAEAVCDC@@@Z @ 2380 NONAME
 ?CreateRectRgn@CRgn@@QEAAHHHHH@Z @ 2381 NONAME
 ?CreateRectRgnIndirect@CRgn@@QEAAHPEBUtagRECT@@@Z @ 2382 NONAME
 ?CreateRoundRectRgn@CRgn@@QEAAHHHHHHH@Z @ 2383 NONAME
 ?CreateScrollBarCtrl@CSplitterWnd@@UEAAHKI@Z @ 2384 NONAME
 ?CreateSite@CControlSiteFactoryMgr@@QEAAPEAVCOleControlSite@@PEAVCOleControlContainer@@AEBVCControlCreationInfo@@@Z @ 2385 NONAME
 ?CreateSite@COccManager@@UEAAPEAVCOleControlSite@@PEAVCOleControlContainer@@@Z @ 2386 NONAME
 ?CreateSite@COccManager@@UEAAPEAVCOleControlSite@@PEAVCOleControlContainer@@AEBVCControlCreationInfo@@@Z @ 2387 NONAME
 ?CreateSolidBrush@CBrush@@QEAAHK@Z @ 2388 NONAME
 ?CreateSolidCaret@CWnd@@QEAAXHH@Z @ 2389 NONAME
 ?CreateStatic@CSplitterWnd@@UEAAHPEAVCWnd@@HHKI@Z @ 2390 NONAME
 ?CreateStaticFromClipboard@COleClientItem@@QEAAHW4tagOLERENDER@@GPEAUtagFORMATETC@@@Z @ 2391 NONAME
 ?CreateStaticFromData@COleClientItem@@QEAAHPEAVCOleDataObject@@W4tagOLERENDER@@GPEAUtagFORMATETC@@@Z @ 2392 NONAME
 ?CreateStockObject@CGdiObject@@QEAAHH@Z @ 2393 NONAME
 ?CreateStream@COleStreamFile@@QEAAHPEAUIStorage@@PEB_WKPEAVCFileException@@@Z @ 2394 NONAME
 ?CreateSysColorBrush@CBrush@@QEAAHH@Z @ 2395 NONAME
 ?CreateThread@CWinThread@@QEAAHKIPEAU_SECURITY_ATTRIBUTES@@@Z @ 2396 NONAME
 ?CreateTracker@COleControl@@IEAAXHH@Z @ 2397 NONAME
 ?CreateTracker@COleControl@@IEAAXHHPEBUtagRECT@@@Z @ 2398 NONAME
 ?CreateView@CFrameWnd@@QEAAPEAVCWnd@@PEAUCCreateContext@@I@Z @ 2399 NONAME
 ?CreateView@CSplitterWnd@@UEAAHHHPEAUCRuntimeClass@@UtagSIZE@@PEAUCCreateContext@@@Z @ 2400 NONAME
 ?CreateView@XOleDocument@CDocObjectServer@@UEAAJPEAUIOleInPlaceSite@@PEAUIStream@@KPEAPEAUIOleDocumentView@@@Z @ 2401 NONAME
 ?CreateWindowForSubclassedControl@COleControl@@IEAAXXZ @ 2402 NONAME
 ?Customize@CToolBarCtrl@@QEAAXXZ @ 2403 NONAME
 ?Cut@CComboBox@@QEAAXXZ @ 2404 NONAME
 ?Cut@CEdit@@QEAAXXZ @ 2405 NONAME
 ?Cut@CRichEditCtrl@@QEAAXXZ @ 2406 NONAME
 ?DAdvise@XDataObject@COleControl@@UEAAJPEAUtagFORMATETC@@KPEAUIAdviseSink@@PEAK@Z @ 2407 NONAME
 ?DAdvise@XDataObject@COleDataSource@@UEAAJPEAUtagFORMATETC@@KPEAUIAdviseSink@@PEAK@Z @ 2408 NONAME
 ?DAdvise@XDataObject@COleServerDoc@@UEAAJPEAUtagFORMATETC@@KPEAUIAdviseSink@@PEAK@Z @ 2409 NONAME
 ?DAdvise@XDataObject@COleServerItem@@UEAAJPEAUtagFORMATETC@@KPEAUIAdviseSink@@PEAK@Z @ 2410 NONAME
 ?DDP_CBIndex@@YAXPEAVCDataExchange@@HAEAHPEB_W@Z @ 2411 NONAME
 ?DDP_CBString@@YAXPEAVCDataExchange@@HAEAV?$CStringT@_WV?$StrTraitMFC_DLL@_WV?$ChTraitsCRT@_W@ATL@@@@@ATL@@PEB_W@Z @ 2412 NONAME
 ?DDP_CBStringExact@@YAXPEAVCDataExchange@@HAEAV?$CStringT@_WV?$StrTraitMFC_DLL@_WV?$ChTraitsCRT@_W@ATL@@@@@ATL@@PEB_W@Z @ 2413 NONAME
 ?DDP_Check@@YAXPEAVCDataExchange@@HAEAHPEB_W@Z @ 2414 NONAME
 ?DDP_EndCheck@@YAXPEAVCDataExchange@@HPEAHPEB_W@Z @ 2415 NONAME
 ?DDP_EndRadio@@YAXPEAVCDataExchange@@HPEAHPEB_W@Z @ 2416 NONAME
 ?DDP_EndText@@YAXPEAVCDataExchange@@HPEAEPEB_W@Z @ 2417 NONAME
 ?DDP_EndText@@YAXPEAVCDataExchange@@HPEAFPEB_W@Z @ 2418 NONAME
 ?DDP_EndText@@YAXPEAVCDataExchange@@HPEAHPEB_W@Z @ 2419 NONAME
 ?DDP_EndText@@YAXPEAVCDataExchange@@HPEAIPEB_W@Z @ 2420 NONAME
 ?DDP_EndText@@YAXPEAVCDataExchange@@HPEAJPEB_W@Z @ 2421 NONAME
 ?DDP_EndText@@YAXPEAVCDataExchange@@HPEAKPEB_W@Z @ 2422 NONAME
 ?DDP_EndText@@YAXPEAVCDataExchange@@HPEAMPEB_W@Z @ 2423 NONAME
 ?DDP_EndText@@YAXPEAVCDataExchange@@HPEANPEB_W@Z @ 2424 NONAME
 ?DDP_EndText@@YAXPEAVCDataExchange@@HPEAV?$CStringT@_WV?$StrTraitMFC_DLL@_WV?$ChTraitsCRT@_W@ATL@@@@@ATL@@PEB_W@Z @ 2425 NONAME
 ?DDP_LBIndex@@YAXPEAVCDataExchange@@HAEAHPEB_W@Z @ 2426 NONAME
 ?DDP_LBString@@YAXPEAVCDataExchange@@HAEAV?$CStringT@_WV?$StrTraitMFC_DLL@_WV?$ChTraitsCRT@_W@ATL@@@@@ATL@@PEB_W@Z @ 2427 NONAME
 ?DDP_LBStringExact@@YAXPEAVCDataExchange@@HAEAV?$CStringT@_WV?$StrTraitMFC_DLL@_WV?$ChTraitsCRT@_W@ATL@@@@@ATL@@PEB_W@Z @ 2428 NONAME
 ?DDP_PostProcessing@@YAXPEAVCDataExchange@@@Z @ 2429 NONAME
 ?DDP_Radio@@YAXPEAVCDataExchange@@HAEAHPEB_W@Z @ 2430 NONAME
 ?DDP_Text@@YAXPEAVCDataExchange@@HAEAEPEB_W@Z @ 2431 NONAME
 ?DDP_Text@@YAXPEAVCDataExchange@@HAEAFPEB_W@Z @ 2432 NONAME
 ?DDP_Text@@YAXPEAVCDataExchange@@HAEAHPEB_W@Z @ 2433 NONAME
 ?DDP_Text@@YAXPEAVCDataExchange@@HAEAIPEB_W@Z @ 2434 NONAME
 ?DDP_Text@@YAXPEAVCDataExchange@@HAEAJPEB_W@Z @ 2435 NONAME
 ?DDP_Text@@YAXPEAVCDataExchange@@HAEAKPEB_W@Z @ 2436 NONAME
 ?DDP_Text@@YAXPEAVCDataExchange@@HAEAMPEB_W@Z @ 2437 NONAME
 ?DDP_Text@@YAXPEAVCDataExchange@@HAEANPEB_W@Z @ 2438 NONAME
 ?DDP_Text@@YAXPEAVCDataExchange@@HAEAV?$CStringT@_WV?$StrTraitMFC_DLL@_WV?$ChTraitsCRT@_W@ATL@@@@@ATL@@PEB_W@Z @ 2439 NONAME
 ?DDV_MaxChars@@YAXPEAVCDataExchange@@AEBV?$CStringT@_WV?$StrTraitMFC_DLL@_WV?$ChTraitsCRT@_W@ATL@@@@@ATL@@H@Z @ 2440 NONAME
 ?DDV_MinMaxByte@@YAXPEAVCDataExchange@@EEE@Z @ 2441 NONAME
 ?DDV_MinMaxDateTime@@YAXPEAVCDataExchange@@AEAVCOleDateTime@ATL@@PEBV23@2@Z @ 2442 NONAME
 ?DDV_MinMaxDateTime@@YAXPEAVCDataExchange@@AEAVCTime@ATL@@PEBV23@2@Z @ 2443 NONAME
 ?DDV_MinMaxDouble@@YAXPEAVCDataExchange@@AEBNNN@Z @ 2444 NONAME
 ?DDV_MinMaxDWord@@YAXPEAVCDataExchange@@KKK@Z @ 2445 NONAME
 ?DDV_MinMaxFloat@@YAXPEAVCDataExchange@@AEBMMM@Z @ 2446 NONAME
 ?DDV_MinMaxInt@@YAXPEAVCDataExchange@@HHH@Z @ 2447 NONAME
 ?DDV_MinMaxLong@@YAXPEAVCDataExchange@@JJJ@Z @ 2448 NONAME
 ?DDV_MinMaxLongLong@@YAXPEAVCDataExchange@@_J11@Z @ 2449 NONAME
 ?DDV_MinMaxMonth@@YAXPEAVCDataExchange@@AEAVCOleDateTime@ATL@@PEBV23@2@Z @ 2450 NONAME
 ?DDV_MinMaxMonth@@YAXPEAVCDataExchange@@AEAVCTime@ATL@@PEBV23@2@Z @ 2451 NONAME
 ?DDV_MinMaxShort@@YAXPEAVCDataExchange@@FFF@Z @ 2452 NONAME
 ?DDV_MinMaxSlider@@YAXPEAVCDataExchange@@KKK@Z @ 2453 NONAME
 ?DDV_MinMaxUInt@@YAXPEAVCDataExchange@@III@Z @ 2454 NONAME
 ?DDV_MinMaxULongLong@@YAXPEAVCDataExchange@@_K11@Z @ 2455 NONAME
 ?DDX_CBIndex@@YAXPEAVCDataExchange@@HAEAH@Z @ 2456 NONAME
 ?DDX_CBString@@YAXPEAVCDataExchange@@HAEAV?$CStringT@_WV?$StrTraitMFC_DLL@_WV?$ChTraitsCRT@_W@ATL@@@@@ATL@@@Z @ 2457 NONAME
 ?DDX_CBStringExact@@YAXPEAVCDataExchange@@HAEAV?$CStringT@_WV?$StrTraitMFC_DLL@_WV?$ChTraitsCRT@_W@ATL@@@@@ATL@@@Z @ 2458 NONAME
 ?DDX_Check@@YAXPEAVCDataExchange@@HAEAH@Z @ 2459 NONAME
 ?DDX_Control@@YAXPEAVCDataExchange@@HAEAVCWnd@@@Z @ 2460 NONAME
 ?DDX_DateTimeCtrl@@YAXPEAVCDataExchange@@HAEAU_FILETIME@@@Z @ 2461 NONAME
 ?DDX_DateTimeCtrl@@YAXPEAVCDataExchange@@HAEAUtagDBDATE@@@Z @ 2462 NONAME
 ?DDX_DateTimeCtrl@@YAXPEAVCDataExchange@@HAEAUtagDBTIME@@@Z @ 2463 NONAME
 ?DDX_DateTimeCtrl@@YAXPEAVCDataExchange@@HAEAV?$CStringT@_WV?$StrTraitMFC_DLL@_WV?$ChTraitsCRT@_W@ATL@@@@@ATL@@@Z @ 2464 NONAME
 ?DDX_DateTimeCtrl@@YAXPEAVCDataExchange@@HAEAVCOleDateTime@ATL@@@Z @ 2465 NONAME
 ?DDX_DateTimeCtrl@@YAXPEAVCDataExchange@@HAEAVCTime@ATL@@@Z @ 2466 NONAME
 ?DDX_DHtml_AxControl@CDHtmlDialog@@IEAAXPEB_W0AEAUtagVARIANT@@H@Z @ 2467 NONAME
 ?DDX_DHtml_AxControl@CDHtmlDialog@@IEAAXPEB_WJAEAUtagVARIANT@@H@Z @ 2468 NONAME
 ?DDX_DHtml_AxControl@CDHtmlDialog@@QEAAXPEAVCDataExchange@@PEB_W1AEAUtagVARIANT@@@Z @ 2469 NONAME
 ?DDX_DHtml_AxControl@CDHtmlDialog@@QEAAXPEAVCDataExchange@@PEB_WJAEAUtagVARIANT@@@Z @ 2470 NONAME
 ?DDX_DHtml_CheckBox@CDHtmlDialog@@IEAAXPEB_WAEAHH@Z @ 2471 NONAME
 ?DDX_DHtml_CheckBox@CDHtmlDialog@@QEAAXPEAVCDataExchange@@PEB_WAEAH@Z @ 2472 NONAME
 ?DDX_DHtml_ElementText@CDHtmlDialog@@IEAAXPEB_WJAEAFH@Z @ 2473 NONAME
 ?DDX_DHtml_ElementText@CDHtmlDialog@@IEAAXPEB_WJAEAHH@Z @ 2474 NONAME
 ?DDX_DHtml_ElementText@CDHtmlDialog@@IEAAXPEB_WJAEAJH@Z @ 2475 NONAME
 ?DDX_DHtml_ElementText@CDHtmlDialog@@IEAAXPEB_WJAEAKH@Z @ 2476 NONAME
 ?DDX_DHtml_ElementText@CDHtmlDialog@@IEAAXPEB_WJAEAMH@Z @ 2477 NONAME
 ?DDX_DHtml_ElementText@CDHtmlDialog@@IEAAXPEB_WJAEANH@Z @ 2478 NONAME
 ?DDX_DHtml_ElementText@CDHtmlDialog@@IEAAXPEB_WJAEAV?$CStringT@_WV?$StrTraitMFC_DLL@_WV?$ChTraitsCRT@_W@ATL@@@@@ATL@@H@Z @ 2479 NONAME
 ?DDX_DHtml_ElementText@CDHtmlDialog@@QEAAXPEAVCDataExchange@@PEB_WJAEAF@Z @ 2480 NONAME
 ?DDX_DHtml_ElementText@CDHtmlDialog@@QEAAXPEAVCDataExchange@@PEB_WJAEAH@Z @ 2481 NONAME
 ?DDX_DHtml_ElementText@CDHtmlDialog@@QEAAXPEAVCDataExchange@@PEB_WJAEAJ@Z @ 2482 NONAME
 ?DDX_DHtml_ElementText@CDHtmlDialog@@QEAAXPEAVCDataExchange@@PEB_WJAEAK@Z @ 2483 NONAME
 ?DDX_DHtml_ElementText@CDHtmlDialog@@QEAAXPEAVCDataExchange@@PEB_WJAEAM@Z @ 2484 NONAME
 ?DDX_DHtml_ElementText@CDHtmlDialog@@QEAAXPEAVCDataExchange@@PEB_WJAEAN@Z @ 2485 NONAME
 ?DDX_DHtml_ElementText@CDHtmlDialog@@QEAAXPEAVCDataExchange@@PEB_WJAEAV?$CStringT@_WV?$StrTraitMFC_DLL@_WV?$ChTraitsCRT@_W@ATL@@@@@ATL@@@Z @ 2486 NONAME
 ?DDX_DHtml_ElementTextFloatFormat@CDHtmlDialog@@IEAAXPEB_WJPEAXNHH@Z @ 2487 NONAME
 ?DDX_DHtml_ElementTextWithFormat@CDHtmlDialog@@IEAAXPEB_WJ0IHZZ @ 2488 NONAME
 ?DDX_DHtml_Radio@CDHtmlDialog@@IEAAXPEB_WAEAJH@Z @ 2489 NONAME
 ?DDX_DHtml_Radio@CDHtmlDialog@@QEAAXPEAVCDataExchange@@PEB_WAEAJ@Z @ 2490 NONAME
 ?DDX_DHtml_SelectIndex@CDHtmlDialog@@IEAAXPEB_WAEAJH@Z @ 2491 NONAME
 ?DDX_DHtml_SelectIndex@CDHtmlDialog@@QEAAXPEAVCDataExchange@@PEB_WAEAJ@Z @ 2492 NONAME
 ?DDX_DHtml_SelectString@CDHtmlDialog@@IEAAXPEB_WAEAV?$CStringT@_WV?$StrTraitMFC_DLL@_WV?$ChTraitsCRT@_W@ATL@@@@@ATL@@H@Z @ 2493 NONAME
 ?DDX_DHtml_SelectString@CDHtmlDialog@@QEAAXPEAVCDataExchange@@PEB_WAEAV?$CStringT@_WV?$StrTraitMFC_DLL@_WV?$ChTraitsCRT@_W@ATL@@@@@ATL@@@Z @ 2494 NONAME
 ?DDX_DHtml_SelectValue@CDHtmlDialog@@IEAAXPEB_WAEAV?$CStringT@_WV?$StrTraitMFC_DLL@_WV?$ChTraitsCRT@_W@ATL@@@@@ATL@@H@Z @ 2495 NONAME
 ?DDX_DHtml_SelectValue@CDHtmlDialog@@QEAAXPEAVCDataExchange@@PEB_WAEAV?$CStringT@_WV?$StrTraitMFC_DLL@_WV?$ChTraitsCRT@_W@ATL@@@@@ATL@@@Z @ 2496 NONAME
 ?DDX_FieldCBIndex@@YAXPEAVCDataExchange@@HAEAHPEAVCRecordset@@@Z @ 2497 NONAME
 ?DDX_FieldCBString@@YAXPEAVCDataExchange@@HAEAV?$CStringT@_WV?$StrTraitMFC_DLL@_WV?$ChTraitsCRT@_W@ATL@@@@@ATL@@PEAVCRecordset@@@Z @ 2498 NONAME
 ?DDX_FieldCBStringExact@@YAXPEAVCDataExchange@@HAEAV?$CStringT@_WV?$StrTraitMFC_DLL@_WV?$ChTraitsCRT@_W@ATL@@@@@ATL@@PEAVCRecordset@@@Z @ 2499 NONAME
 ?DDX_FieldCheck@@YAXPEAVCDataExchange@@HAEAHPEAVCRecordset@@@Z @ 2500 NONAME
 ?DDX_FieldLBIndex@@YAXPEAVCDataExchange@@HAEAHPEAVCRecordset@@@Z @ 2501 NONAME
 ?DDX_FieldLBString@@YAXPEAVCDataExchange@@HAEAV?$CStringT@_WV?$StrTraitMFC_DLL@_WV?$ChTraitsCRT@_W@ATL@@@@@ATL@@PEAVCRecordset@@@Z @ 2502 NONAME
 ?DDX_FieldLBStringExact@@YAXPEAVCDataExchange@@HAEAV?$CStringT@_WV?$StrTraitMFC_DLL@_WV?$ChTraitsCRT@_W@ATL@@@@@ATL@@PEAVCRecordset@@@Z @ 2503 NONAME
 ?DDX_FieldRadio@@YAXPEAVCDataExchange@@HAEAHPEAVCRecordset@@@Z @ 2504 NONAME
 ?DDX_FieldScroll@@YAXPEAVCDataExchange@@HAEAHPEAVCRecordset@@@Z @ 2505 NONAME
 ?DDX_FieldText@@YAXPEAVCDataExchange@@HAEAEPEAVCRecordset@@@Z @ 2506 NONAME
 ?DDX_FieldText@@YAXPEAVCDataExchange@@HAEAHPEAVCRecordset@@@Z @ 2507 NONAME
 ?DDX_FieldText@@YAXPEAVCDataExchange@@HAEAIPEAVCRecordset@@@Z @ 2508 NONAME
 ?DDX_FieldText@@YAXPEAVCDataExchange@@HAEAJPEAVCRecordset@@@Z @ 2509 NONAME
 ?DDX_FieldText@@YAXPEAVCDataExchange@@HAEAKPEAVCRecordset@@@Z @ 2510 NONAME
 ?DDX_FieldText@@YAXPEAVCDataExchange@@HAEAMPEAVCRecordset@@@Z @ 2511 NONAME
 ?DDX_FieldText@@YAXPEAVCDataExchange@@HAEANPEAVCRecordset@@@Z @ 2512 NONAME
 ?DDX_FieldText@@YAXPEAVCDataExchange@@HAEAV?$CStringT@_WV?$StrTraitMFC_DLL@_WV?$ChTraitsCRT@_W@ATL@@@@@ATL@@PEAVCRecordset@@@Z @ 2513 NONAME
 ?DDX_FieldText@@YAXPEAVCDataExchange@@HPEA_WHPEAVCRecordset@@@Z @ 2514 NONAME
 ?DDX_IPAddress@@YAXPEAVCDataExchange@@HAEAK@Z @ 2515 NONAME
 ?DDX_LBIndex@@YAXPEAVCDataExchange@@HAEAH@Z @ 2516 NONAME
 ?DDX_LBString@@YAXPEAVCDataExchange@@HAEAV?$CStringT@_WV?$StrTraitMFC_DLL@_WV?$ChTraitsCRT@_W@ATL@@@@@ATL@@@Z @ 2517 NONAME
 ?DDX_LBStringExact@@YAXPEAVCDataExchange@@HAEAV?$CStringT@_WV?$StrTraitMFC_DLL@_WV?$ChTraitsCRT@_W@ATL@@@@@ATL@@@Z @ 2518 NONAME
 ?DDX_MonthCalCtrl@@YAXPEAVCDataExchange@@HAEAU_FILETIME@@@Z @ 2519 NONAME
 ?DDX_MonthCalCtrl@@YAXPEAVCDataExchange@@HAEAUtagDBDATE@@@Z @ 2520 NONAME
 ?DDX_MonthCalCtrl@@YAXPEAVCDataExchange@@HAEAVCOleDateTime@ATL@@@Z @ 2521 NONAME
 ?DDX_MonthCalCtrl@@YAXPEAVCDataExchange@@HAEAVCTime@ATL@@@Z @ 2522 NONAME
 ?DDX_OCBool@@YAXPEAVCDataExchange@@HJAEAH@Z @ 2523 NONAME
 ?DDX_OCBoolRO@@YAXPEAVCDataExchange@@HJAEAH@Z @ 2524 NONAME
 ?DDX_OCColor@@YAXPEAVCDataExchange@@HJAEAK@Z @ 2525 NONAME
 ?DDX_OCColorRO@@YAXPEAVCDataExchange@@HJAEAK@Z @ 2526 NONAME
 ?DDX_OCFloat@@YAXPEAVCDataExchange@@HJAEAM@Z @ 2527 NONAME
 ?DDX_OCFloat@@YAXPEAVCDataExchange@@HJAEAN@Z @ 2528 NONAME
 ?DDX_OCFloatRO@@YAXPEAVCDataExchange@@HJAEAM@Z @ 2529 NONAME
 ?DDX_OCFloatRO@@YAXPEAVCDataExchange@@HJAEAN@Z @ 2530 NONAME
 ?DDX_OCInt@@YAXPEAVCDataExchange@@HJAEAH@Z @ 2531 NONAME
 ?DDX_OCInt@@YAXPEAVCDataExchange@@HJAEAJ@Z @ 2532 NONAME
 ?DDX_OCIntRO@@YAXPEAVCDataExchange@@HJAEAH@Z @ 2533 NONAME
 ?DDX_OCIntRO@@YAXPEAVCDataExchange@@HJAEAJ@Z @ 2534 NONAME
 ?DDX_OCShort@@YAXPEAVCDataExchange@@HJAEAF@Z @ 2535 NONAME
 ?DDX_OCShortRO@@YAXPEAVCDataExchange@@HJAEAF@Z @ 2536 NONAME
 ?DDX_OCText@@YAXPEAVCDataExchange@@HJAEAV?$CStringT@_WV?$StrTraitMFC_DLL@_WV?$ChTraitsCRT@_W@ATL@@@@@ATL@@@Z @ 2537 NONAME
 ?DDX_OCTextRO@@YAXPEAVCDataExchange@@HJAEAV?$CStringT@_WV?$StrTraitMFC_DLL@_WV?$ChTraitsCRT@_W@ATL@@@@@ATL@@@Z @ 2538 NONAME
 ?DDX_Radio@@YAXPEAVCDataExchange@@HAEAH@Z @ 2539 NONAME
 ?DDX_Scroll@@YAXPEAVCDataExchange@@HAEAH@Z @ 2540 NONAME
 ?DDX_Slider@@YAXPEAVCDataExchange@@HAEAH@Z @ 2541 NONAME
 ?DDX_Text@@YAXPEAVCDataExchange@@HAEA_J@Z @ 2542 NONAME
 ?DDX_Text@@YAXPEAVCDataExchange@@HAEA_K@Z @ 2543 NONAME
 ?DDX_Text@@YAXPEAVCDataExchange@@HAEAE@Z @ 2544 NONAME
 ?DDX_Text@@YAXPEAVCDataExchange@@HAEAF@Z @ 2545 NONAME
 ?DDX_Text@@YAXPEAVCDataExchange@@HAEAH@Z @ 2546 NONAME
 ?DDX_Text@@YAXPEAVCDataExchange@@HAEAI@Z @ 2547 NONAME
 ?DDX_Text@@YAXPEAVCDataExchange@@HAEAJ@Z @ 2548 NONAME
 ?DDX_Text@@YAXPEAVCDataExchange@@HAEAK@Z @ 2549 NONAME
 ?DDX_Text@@YAXPEAVCDataExchange@@HAEAM@Z @ 2550 NONAME
 ?DDX_Text@@YAXPEAVCDataExchange@@HAEAN@Z @ 2551 NONAME
 ?DDX_Text@@YAXPEAVCDataExchange@@HAEAU_FILETIME@@@Z @ 2552 NONAME
 ?DDX_Text@@YAXPEAVCDataExchange@@HAEAU_GUID@@@Z @ 2553 NONAME
 ?DDX_Text@@YAXPEAVCDataExchange@@HAEAUtagDB_NUMERIC@@@Z @ 2554 NONAME
 ?DDX_Text@@YAXPEAVCDataExchange@@HAEAUtagDBDATE@@@Z @ 2555 NONAME
 ?DDX_Text@@YAXPEAVCDataExchange@@HAEAUtagDBTIME@@@Z @ 2556 NONAME
 ?DDX_Text@@YAXPEAVCDataExchange@@HAEAUtagDEC@@@Z @ 2557 NONAME
 ?DDX_Text@@YAXPEAVCDataExchange@@HAEAV?$CStringT@_WV?$StrTraitMFC_DLL@_WV?$ChTraitsCRT@_W@ATL@@@@@ATL@@@Z @ 2558 NONAME
 ?DDX_Text@@YAXPEAVCDataExchange@@HAEAVCOleCurrency@@@Z @ 2559 NONAME
 ?DDX_Text@@YAXPEAVCDataExchange@@HAEAVCOleDateTime@ATL@@@Z @ 2560 NONAME
 ?DDX_Text@@YAXPEAVCDataExchange@@HPEA_WH@Z @ 2561 NONAME
 ?Deactivate@COleClientItem@@QEAAXXZ @ 2562 NONAME
 ?Deactivate@XPropertyPage@COlePropertyPage@@UEAAJXZ @ 2563 NONAME
 ?DeactivateAndUndo@COleServerDoc@@QEAAHXZ @ 2564 NONAME
 ?DeactivateAndUndo@XOleIPSite@COleClientItem@@UEAAJXZ @ 2565 NONAME
 ?DeactivateAndUndo@XOleIPSite@COleControlSite@@UEAAJXZ @ 2566 NONAME
 ?DeactivateUI@COleClientItem@@QEAAXXZ @ 2567 NONAME
 ?Default@CFieldExchange@@QEAAXPEB_WPEAXPEA_JH_K3@Z @ 2568 NONAME
 ?Default@CWnd@@IEAA_JXZ @ 2569 NONAME
 ?DefWindowProcW@CMDIChildWnd@@MEAA_JI_K_J@Z @ 2570 NONAME
 ?DefWindowProcW@CMDIFrameWnd@@MEAA_JI_K_J@Z @ 2571 NONAME
 ?DefWindowProcW@COleControl@@MEAA_JI_K_J@Z @ 2572 NONAME
 ?DefWindowProcW@CPrintDialogEx@@UEAA_JI_K_J@Z @ 2573 NONAME
 ?DefWindowProcW@CWnd@@MEAA_JI_K_J@Z @ 2574 NONAME
 ?DelayRecalcLayout@CFrameWnd@@QEAAXH@Z @ 2575 NONAME
 ?DelayRenderData@COleDataSource@@QEAAXGPEAUtagFORMATETC@@@Z @ 2576 NONAME
 ?DelayRenderFileData@COleDataSource@@QEAAXGPEAUtagFORMATETC@@@Z @ 2577 NONAME
 ?DelaySetData@COleDataSource@@QEAAXGPEAUtagFORMATETC@@@Z @ 2578 NONAME
 ?DelayShow@CControlBar@@UEAAXH@Z @ 2579 NONAME
 ?DelayUpdateFrameMenu@CFrameWnd@@UEAAXPEAUHMENU__@@@Z @ 2580 NONAME
 ?DelayUpdateFrameMenu@CMDIFrameWnd@@UEAAXPEAUHMENU__@@@Z @ 2581 NONAME
 ?DelayUpdateFrameTitle@CFrameWnd@@QEAAXXZ @ 2582 NONAME
 ?Delete@?$CStringT@_WV?$StrTraitMFC_DLL@_WV?$ChTraitsCRT@_W@ATL@@@@@ATL@@QEAAHHH@Z @ 2583 NONAME
 ?Delete@?$CStringT@DV?$StrTraitMFC_DLL@DV?$ChTraitsCRT@D@ATL@@@@@ATL@@QEAAHHH@Z @ 2584 NONAME
 ?Delete@CException@@QEAAXXZ @ 2585 NONAME
 ?Delete@COleClientItem@@QEAAXH@Z @ 2586 NONAME
 ?Delete@CRecordset@@UEAAXXZ @ 2587 NONAME
 ?Delete@CWinThread@@UEAAXXZ @ 2588 NONAME
 ?DeleteAllItems@CListCtrl@@QEAAHXZ @ 2589 NONAME
 ?DeleteAllItems@CTabCtrl@@QEAAHXZ @ 2590 NONAME
 ?DeleteAllItems@CTreeCtrl@@QEAAHXZ @ 2591 NONAME
 ?DeleteBand@CReBarCtrl@@QEAAHI@Z @ 2592 NONAME
 ?DeleteButton@CToolBarCtrl@@QEAAHH@Z @ 2593 NONAME
 ?DeleteColumn@CListCtrl@@QEAAHH@Z @ 2594 NONAME
 ?DeleteColumn@CSplitterWnd@@UEAAXH@Z @ 2595 NONAME
 ?DeleteContents@CDocument@@UEAAXXZ @ 2596 NONAME
 ?DeleteContents@CEditView@@UEAAXXZ @ 2597 NONAME
 ?DeleteContents@CHtmlEditDoc@@UEAAXXZ @ 2598 NONAME
 ?DeleteContents@COleDocument@@UEAAXXZ @ 2599 NONAME
 ?DeleteContents@COleServerDoc@@UEAAXXZ @ 2600 NONAME
 ?DeleteContents@CRichEditDoc@@UEAAXXZ @ 2601 NONAME
 ?DeleteContents@CRichEditView@@UEAAXXZ @ 2602 NONAME
 ?DeleteDC@CDC@@QEAAHXZ @ 2603 NONAME
 ?DeleteImageList@CImageList@@QEAAHXZ @ 2604 NONAME
 ?DeleteItem@CComboBox@@UEAAXPEAUtagDELETEITEMSTRUCT@@@Z @ 2605 NONAME
 ?DeleteItem@CComboBoxEx@@QEAAHH@Z @ 2606 NONAME
 ?DeleteItem@CHeaderCtrl@@QEAAHH@Z @ 2607 NONAME
 ?DeleteItem@CListBox@@UEAAXPEAUtagDELETEITEMSTRUCT@@@Z @ 2608 NONAME
 ?DeleteItem@CListCtrl@@QEAAHH@Z @ 2609 NONAME
 ?DeleteItem@CTabCtrl@@QEAAHH@Z @ 2610 NONAME
 ?DeleteItem@CTreeCtrl@@QEAAHPEAU_TREEITEM@@@Z @ 2611 NONAME
 ?DeleteMenu@CMenu@@QEAAHII@Z @ 2612 NONAME
 ?DeleteObject@CGdiObject@@QEAAHXZ @ 2613 NONAME
 ?DeleteObject@XRichEditOleCallback@CRichEditView@@UEAAJPEAUIOleObject@@@Z @ 2614 NONAME
 ?DeleteRow@CSplitterWnd@@UEAAXH@Z @ 2615 NONAME
 ?DeleteString@CComboBox@@QEAAHI@Z @ 2616 NONAME
 ?DeleteString@CListBox@@QEAAHI@Z @ 2617 NONAME
 ?DeleteTemp@CHandleMap@@QEAAXXZ @ 2618 NONAME
 ?DeleteTempMap@CDC@@SAXXZ @ 2619 NONAME
 ?DeleteTempMap@CGdiObject@@SAXXZ @ 2620 NONAME
 ?DeleteTempMap@CImageList@@SAXXZ @ 2621 NONAME
 ?DeleteTempMap@CMenu@@SAXXZ @ 2622 NONAME
 ?DeleteTempMap@CWnd@@SAXXZ @ 2623 NONAME
 ?DeleteUnmarkedItems@CRichEditDoc@@IEBAXXZ @ 2624 NONAME
 ?DeleteValues@CThreadSlotData@@QEAAXPEAUCThreadData@@PEAUHINSTANCE__@@@Z @ 2625 NONAME
 ?DeleteValues@CThreadSlotData@@QEAAXPEAUHINSTANCE__@@H@Z @ 2626 NONAME
 ?DeleteView@CSplitterWnd@@UEAAXHH@Z @ 2627 NONAME
 ?DelRegTree@CWinApp@@QEAAJPEAUHKEY__@@AEBV?$CStringT@_WV?$StrTraitMFC_DLL@_WV?$ChTraitsCRT@_W@ATL@@@@@ATL@@@Z @ 2628 NONAME
 ?DelTool@CToolTipCtrl@@QEAAXPEAVCWnd@@_K@Z @ 2629 NONAME
 ?DeselectAll@CTabCtrl@@QEAAXH@Z @ 2630 NONAME
 ?Destroy@COleSafeArray@@QEAAXXZ @ 2631 NONAME
 ?DestroyControl@COleControlSite@@UEAAHXZ @ 2632 NONAME
 ?DestroyData@COleSafeArray@@QEAAXXZ @ 2633 NONAME
 ?DestroyDescriptor@COleSafeArray@@QEAAXXZ @ 2634 NONAME
 ?DestroyDockBars@CFrameWnd@@QEAAXXZ @ 2635 NONAME
 ?DestroyInPlaceFrame@COleServerDoc@@MEAAXPEAVCOleIPFrameWnd@@@Z @ 2636 NONAME
 ?DestroyMenu@CMenu@@QEAAHXZ @ 2637 NONAME
 ?DestroyModeless@CDHtmlDialog@@QEAAXXZ @ 2638 NONAME
 ?DestroySharedMenu@COleControl@@MEAAXXZ @ 2639 NONAME
 ?DestroySharedMenu@COleDocIPFrameWnd@@MEAAXXZ @ 2640 NONAME
 ?DestroySharedMenu@COleIPFrameWnd@@MEAAXXZ @ 2641 NONAME
 ?DestroyToolTipCtrl@CToolTipCtrl@@QEAAHXZ @ 2642 NONAME
 ?DestroyTracker@COleControl@@IEAAXXZ @ 2643 NONAME
 ?DestroyWindow@CControlBar@@UEAAHXZ @ 2644 NONAME
 ?DestroyWindow@CMDIChildWnd@@UEAAHXZ @ 2645 NONAME
 ?DestroyWindow@CWnd@@UEAAHXZ @ 2646 NONAME
 ?Detach@CAsyncSocket@@QEAA_KXZ @ 2647 NONAME
 ?Detach@CDC@@QEAAPEAUHDC__@@XZ @ 2648 NONAME
 ?Detach@CDialogTemplate@@QEAAPEAXXZ @ 2649 NONAME
 ?Detach@CGdiObject@@QEAAPEAXXZ @ 2650 NONAME
 ?Detach@CImageList@@QEAAPEAU_IMAGELIST@@XZ @ 2651 NONAME
 ?Detach@CMemFile@@QEAAPEAEXZ @ 2652 NONAME
 ?Detach@CMenu@@QEAAPEAUHMENU__@@XZ @ 2653 NONAME
 ?Detach@CMonikerFile@@QEAAHPEAVCFileException@@@Z @ 2654 NONAME
 ?Detach@COleDataObject@@QEAAPEAUIDataObject@@XZ @ 2655 NONAME
 ?Detach@COleSafeArray@@QEAA?AUtagVARIANT@@XZ @ 2656 NONAME
 ?Detach@COleStreamFile@@QEAAPEAUIStream@@XZ @ 2657 NONAME
 ?Detach@COleVariant@@QEAA?AUtagVARIANT@@XZ @ 2658 NONAME
 ?Detach@CSharedFile@@QEAAPEAXXZ @ 2659 NONAME
 ?Detach@CWindowlessDC@@QEAAPEAUHDC__@@XZ @ 2660 NONAME
 ?Detach@CWnd@@QEAAPEAUHWND__@@XZ @ 2661 NONAME
 ?DetachDispatch@COleDispatchDriver@@QEAAPEAUIDispatch@@XZ @ 2662 NONAME
 ?DetachHandle@CAsyncSocket@@SAX_KH@Z @ 2663 NONAME
 ?DetachWindow@COleControlSite@@QEAAXXZ @ 2664 NONAME
 ?DevModeChange@CWinApp@@QEAAXPEA_W@Z @ 2665 NONAME
 ?DHtmlEventHook@CDHtmlEventSink@@UEAAHPEAJJPEAUtagDISPPARAMS@@PEAUtagVARIANT@@PEAUtagEXCEPINFO@@PEAI@Z @ 2666 NONAME
 ?DidEvent@XNotifyDBEvents@COleControlSite@@UEAAJKKQEAUtagDBNOTIFYREASON@@@Z @ 2667 NONAME
 ?Difference@CMemoryState@@QEAAHAEBU1@0@Z @ 2668 NONAME
 ?Dir@CComboBox@@QEAAHIPEB_W@Z @ 2669 NONAME
 ?Dir@CComboBoxEx@@QEAAHIPEB_W@Z @ 2670 NONAME
 ?Dir@CListBox@@QEAAHIPEB_W@Z @ 2671 NONAME
 ?DiscardUndoState@COleServerDoc@@QEAAHXZ @ 2672 NONAME
 ?DiscardUndoState@XOleIPSite@COleClientItem@@UEAAJXZ @ 2673 NONAME
 ?DiscardUndoState@XOleIPSite@COleControlSite@@UEAAJXZ @ 2674 NONAME
 ?Disconnect@COleDispatchImpl@@UEAAXXZ @ 2675 NONAME
 ?DisconnectDHtmlElementEvents@CDHtmlDialog@@IEAAXXZ @ 2676 NONAME
 ?DisconnectDHtmlEvents@CDHtmlDialog@@IEAAXXZ @ 2677 NONAME
 ?DisconnectFromConnectionPoint@CDHtmlEventSink@@QEAAXPEAUIUnknown@@AEBU_GUID@@AEAK@Z @ 2678 NONAME
 ?DisconnectSink@COleControlSite@@IEAAXAEBU_GUID@@K@Z @ 2679 NONAME
 ?DisconnectViews@CDocument@@QEAAXXZ @ 2680 NONAME
 ?DispatchThreadMessage@CWinThread@@IEAAXPEAUtagMSG@@@Z @ 2681 NONAME
 ?DispatchThreadMessageEx@CWinThread@@IEAAHPEAUtagMSG@@@Z @ 2682 NONAME
 ?DisplayBand@CRichEditCtrl@@QEAAHPEAUtagRECT@@@Z @ 2683 NONAME
 ?DisplayError@COleControl@@UEAAXJPEB_W00I@Z @ 2684 NONAME
 ?DlgDirListComboBoxW@CWnd@@QEAAHPEA_WHHI@Z @ 2685 NONAME
 ?DlgDirListW@CWnd@@QEAAHPEA_WHHI@Z @ 2686 NONAME
 ?DlgDirSelect@CWnd@@QEAAHPEA_WH@Z @ 2687 NONAME
 ?DlgDirSelect@CWnd@@QEAAHPEA_WHH@Z @ 2688 NONAME
 ?DlgDirSelectComboBox@CWnd@@QEAAHPEA_WH@Z @ 2689 NONAME
 ?DlgDirSelectComboBox@CWnd@@QEAAHPEA_WHH@Z @ 2690 NONAME
 ?DoBeginPrinting@CDocObjectServer@@IEAAXPEAVCView@@PEAVCDC@@PEAUCPrintInfo@@@Z @ 2691 NONAME
 ?DoBulkFieldExchange@CRecordset@@UEAAXPEAVCFieldExchange@@@Z @ 2692 NONAME
 ?DoCallBack@CAsyncSocket@@SAX_K_J@Z @ 2693 NONAME
 ?DoChangeIcon@COleChangeIconDialog@@QEAAHPEAVCOleClientItem@@@Z @ 2694 NONAME
 ?DockControlBar@CDockBar@@QEAAXPEAVCControlBar@@PEBUtagRECT@@@Z @ 2695 NONAME
 ?DockControlBar@CFrameWnd@@QEAAXPEAVCControlBar@@IPEBUtagRECT@@@Z @ 2696 NONAME
 ?DockControlBar@CFrameWnd@@QEAAXPEAVCControlBar@@PEAVCDockBar@@PEBUtagRECT@@@Z @ 2697 NONAME
 ?DoClick@COleControl@@QEAAXXZ @ 2698 NONAME
 ?DoContextSensitiveHelp@COleFrameHook@@QEAAHH@Z @ 2699 NONAME
 ?DoConvert@COleConvertDialog@@QEAAHPEAVCOleClientItem@@@Z @ 2700 NONAME
 ?DocumentComplete@CHtmlView@@MEAAXPEAUIDispatch@@PEAUtagVARIANT@@@Z @ 2701 NONAME
 ?DoDataExchange@CWnd@@MEAAXPEAVCDataExchange@@@Z @ 2702 NONAME
 ?DoDefaultPrinting@COleDocObjectItem@@SAJPEAVCView@@PEAUCPrintInfo@@@Z @ 2703 NONAME
 ?DoDragDrop@COleClientItem@@QEAAKPEBUtagRECT@@VCPoint@@HK0@Z @ 2704 NONAME
 ?DoDragDrop@COleDataSource@@QEAAKKPEBUtagRECT@@PEAVCOleDropSource@@@Z @ 2705 NONAME
 ?DoDragDrop@COleServerItem@@QEAAKPEBUtagRECT@@VCPoint@@HK0@Z @ 2706 NONAME
 ?DoEnableModeless@COleFrameHook@@QEAAHH@Z @ 2707 NONAME
 ?DoEnableModeless@CWinApp@@SAXH@Z @ 2708 NONAME
 ?DoEndPrinting@CDocObjectServer@@IEAAXPEAVCView@@PEAVCDC@@PEAUCPrintInfo@@@Z @ 2709 NONAME
 ?DoFieldExchange@CRecordset@@UEAAXPEAVCFieldExchange@@@Z @ 2710 NONAME
 ?DoFileSave@CDocument@@UEAAHXZ @ 2711 NONAME
 ?DoKeyboardSplit@CSplitterWnd@@UEAAHXZ @ 2712 NONAME
 ?DoMessageBox@CWinApp@@UEAAHPEB_WII@Z @ 2713 NONAME
 ?DoModal@CColorDialog@@UEAA_JXZ @ 2714 NONAME
 ?DoModal@CDialog@@UEAA_JXZ @ 2715 NONAME
 ?DoModal@CFileDialog@@UEAA_JXZ @ 2716 NONAME
 ?DoModal@CFontDialog@@UEAA_JXZ @ 2717 NONAME
 ?DoModal@COleBusyDialog@@UEAA_JXZ @ 2718 NONAME
 ?DoModal@COleChangeIconDialog@@UEAA_JXZ @ 2719 NONAME
 ?DoModal@COleChangeSourceDialog@@UEAA_JXZ @ 2720 NONAME
 ?DoModal@COleConvertDialog@@UEAA_JXZ @ 2721 NONAME
 ?DoModal@COleInsertDialog@@QEAA_JK@Z @ 2722 NONAME
 ?DoModal@COleInsertDialog@@UEAA_JXZ @ 2723 NONAME
 ?DoModal@COleLinksDialog@@UEAA_JXZ @ 2724 NONAME
 ?DoModal@COlePasteSpecialDialog@@UEAA_JXZ @ 2725 NONAME
 ?DoModal@COlePropertiesDialog@@UEAA_JXZ @ 2726 NONAME
 ?DoModal@COleUpdateDialog@@UEAA_JXZ @ 2727 NONAME
 ?DoModal@CPageSetupDialog@@UEAA_JXZ @ 2728 NONAME
 ?DoModal@CPrintDialog@@UEAA_JXZ @ 2729 NONAME
 ?DoModal@CPrintDialogEx@@UEAA_JXZ @ 2730 NONAME
 ?DoModal@CPropertySheet@@UEAA_JXZ @ 2731 NONAME
 ?DoMouseWheel@CScrollView@@QEAAHIFVCPoint@@@Z @ 2732 NONAME
 ?DoOleVerb@CCmdTarget@@QEAAHJPEAUtagMSG@@PEAUHWND__@@PEBUtagRECT@@@Z @ 2733 NONAME
 ?DoPaint@CControlBar@@UEAAXPEAVCDC@@@Z @ 2734 NONAME
 ?DoPaint@CDockBar@@UEAAXPEAVCDC@@@Z @ 2735 NONAME
 ?DoPaste@CRichEditView@@QEAAXAEAVCOleDataObject@@GPEAX@Z @ 2736 NONAME
 ?DoPrepareDC@CDocObjectServer@@IEAAXPEAVCView@@PEAVCDC@@PEAUCPrintInfo@@@Z @ 2737 NONAME
 ?DoPreparePrinting@CDocObjectServer@@IEAAHPEAVCView@@PEAUCPrintInfo@@@Z @ 2738 NONAME
 ?DoPreparePrinting@CView@@QEAAHPEAUCPrintInfo@@@Z @ 2739 NONAME
 ?DoPrint@CDocObjectServer@@IEAAXPEAVCView@@PEAVCDC@@PEAUCPrintInfo@@@Z @ 2740 NONAME
 ?DoPrintDialog@CWinApp@@QEAA_JPEAVCPrintDialog@@@Z @ 2741 NONAME
 ?DoPrintPreview@CView@@QEAAHIPEAV1@PEAUCRuntimeClass@@PEAUCPrintPreviewState@@@Z @ 2742 NONAME
 ?DoPromptFileName@CDocManager@@UEAAHAEAV?$CStringT@_WV?$StrTraitMFC_DLL@_WV?$ChTraitsCRT@_W@ATL@@@@@ATL@@IKHPEAVCDocTemplate@@@Z @ 2743 NONAME
 ?DoPromptFileName@CWinApp@@QEAAHAEAV?$CStringT@_WV?$StrTraitMFC_DLL@_WV?$ChTraitsCRT@_W@ATL@@@@@ATL@@IKHPEAVCDocTemplate@@@Z @ 2744 NONAME
 ?DoPropExchange@COleControl@@UEAAXPEAVCPropExchange@@@Z @ 2745 NONAME
 ?DoSave@CDocument@@UEAAHPEB_WH@Z @ 2746 NONAME
 ?DoScroll@CSplitterWnd@@UEAAHPEAVCView@@IH@Z @ 2747 NONAME
 ?DoScrollBy@CSplitterWnd@@UEAAHPEAVCView@@VCSize@@H@Z @ 2748 NONAME
 ?DoSuperclassPaint@COleControl@@QEAAXPEAVCDC@@AEBVCRect@@@Z @ 2749 NONAME
 ?DoUpdate@CCmdUI@@QEAAHPEAVCCmdTarget@@H@Z @ 2750 NONAME
 ?DoUpdate@COleCmdUI@@UEAAHPEAVCCmdTarget@@H@Z @ 2751 NONAME
 ?DoVerb@COleClientItem@@UEAAHJPEAVCView@@PEAUtagMSG@@@Z @ 2752 NONAME
 ?DoVerb@COleControlSite@@UEAAJJPEAUtagMSG@@@Z @ 2753 NONAME
 ?DoVerb@XOleObject@CDocObjectServer@@UEAAJJPEAUtagMSG@@PEAUIOleClientSite@@JPEAUHWND__@@PEBUtagRECT@@@Z @ 2754 NONAME
 ?DoVerb@XOleObject@COleControl@@UEAAJJPEAUtagMSG@@PEAUIOleClientSite@@JPEAUHWND__@@PEBUtagRECT@@@Z @ 2755 NONAME
 ?DoVerb@XOleObject@COleServerDoc@@UEAAJJPEAUtagMSG@@PEAUIOleClientSite@@JPEAUHWND__@@PEBUtagRECT@@@Z @ 2756 NONAME
 ?DoVerb@XOleObject@COleServerItem@@UEAAJJPEAUtagMSG@@PEAUIOleClientSite@@JPEAUHWND__@@PEBUtagRECT@@@Z @ 2757 NONAME
 ?DoWaitCursor@CWinApp@@UEAAXH@Z @ 2758 NONAME
 ?DoZoom@CPreviewView@@IEAAXIVCPoint@@@Z @ 2759 NONAME
 ?DPtoHIMETRIC@CDC@@QEBAXPEAUtagSIZE@@@Z @ 2760 NONAME
 ?DPtoLP@CDC@@QEBAXPEAUtagPOINT@@H@Z @ 2761 NONAME
 ?DPtoLP@CDC@@QEBAXPEAUtagRECT@@@Z @ 2762 NONAME
 ?DPtoLP@CDC@@QEBAXPEAUtagSIZE@@@Z @ 2763 NONAME
 ?DragAcceptFiles@CWnd@@QEAAXH@Z @ 2764 NONAME
 ?DragDetect@CWnd@@QEBAHUtagPOINT@@@Z @ 2765 NONAME
 ?DragEnter@CImageList@@SAHPEAVCWnd@@VCPoint@@@Z @ 2766 NONAME
 ?DragEnter@XDropTarget@COleDropTarget@@UEAAJPEAUIDataObject@@KU_POINTL@@PEAK@Z @ 2767 NONAME
 ?Dragging@CDragListBox@@UEAAIVCPoint@@@Z @ 2768 NONAME
 ?DragLeave@CImageList@@SAHPEAVCWnd@@@Z @ 2769 NONAME
 ?DragLeave@XDropTarget@COleDropTarget@@UEAAJXZ @ 2770 NONAME
 ?DragMove@CImageList@@SAHVCPoint@@@Z @ 2771 NONAME
 ?DragMove@CReBarCtrl@@QEAAXK@Z @ 2772 NONAME
 ?DragOver@XDropTarget@COleDropTarget@@UEAAJKU_POINTL@@PEAK@Z @ 2773 NONAME
 ?DragShowNolock@CImageList@@SAHH@Z @ 2774 NONAME
 ?Draw@CImageList@@QEAAHPEAVCDC@@HUtagPOINT@@I@Z @ 2775 NONAME
 ?Draw@COleClientItem@@QEAAHPEAVCDC@@PEBUtagRECT@@W4tagDVASPECT@@@Z @ 2776 NONAME
 ?Draw@CRectTracker@@QEBAXPEAVCDC@@@Z @ 2777 NONAME
 ?Draw@XViewObject@COleControl@@UEAAJKJPEAXPEAUtagDVTARGETDEVICE@@PEAUHDC__@@2PEBU_RECTL@@3P6AH_K@Z4@Z @ 2778 NONAME
 ?Draw3dRect@CDC@@QEAAXHHHHKK@Z @ 2779 NONAME
 ?Draw3dRect@CDC@@QEAAXPEBUtagRECT@@KK@Z @ 2780 NONAME
 ?DrawAllSplitBars@CSplitterWnd@@MEAAXPEAVCDC@@HH@Z @ 2781 NONAME
 ?DrawAnimatedRects@CWnd@@QEAAHHPEBUtagRECT@@0@Z @ 2782 NONAME
 ?DrawBorders@CControlBar@@UEAAXPEAVCDC@@AEAVCRect@@@Z @ 2783 NONAME
 ?DrawCaption@CWnd@@QEAAHPEAVCDC@@PEBUtagRECT@@I@Z @ 2784 NONAME
 ?DrawContent@COleControl@@IEAAXPEAVCDC@@AEAVCRect@@@Z @ 2785 NONAME
 ?DrawDragRect@CDC@@QEAAXPEBUtagRECT@@UtagSIZE@@01PEAVCBrush@@2@Z @ 2786 NONAME
 ?DrawEdge@CDC@@QEAAHPEAUtagRECT@@II@Z @ 2787 NONAME
 ?DrawEscape@CDC@@QEAAHHHPEBD@Z @ 2788 NONAME
 ?DrawEx@CImageList@@QEAAHPEAVCDC@@HUtagPOINT@@UtagSIZE@@KKI@Z @ 2789 NONAME
 ?DrawFocusRect@CDC@@QEAAXPEBUtagRECT@@@Z @ 2790 NONAME
 ?DrawFocusRect@CDockContext@@QEAAXH@Z @ 2791 NONAME
 ?DrawFrameControl@CDC@@QEAAHPEAUtagRECT@@II@Z @ 2792 NONAME
 ?DrawGripper@CControlBar@@UEAAXPEAVCDC@@AEBVCRect@@@Z @ 2793 NONAME
 ?DrawIcon@CDC@@QEAAHHHPEAUHICON__@@@Z @ 2794 NONAME
 ?DrawIcon@CDC@@QEAAHUtagPOINT@@PEAUHICON__@@@Z @ 2795 NONAME
 ?DrawIndirect@CImageList@@QEAAHPEAU_IMAGELISTDRAWPARAMS@@@Z @ 2796 NONAME
 ?DrawIndirect@CImageList@@QEAAHPEAVCDC@@HUtagPOINT@@UtagSIZE@@1IKKKKKK@Z @ 2797 NONAME
 ?DrawInsert@CDragListBox@@UEAAXH@Z @ 2798 NONAME
 ?DrawItem@CBitmapButton@@MEAAXPEAUtagDRAWITEMSTRUCT@@@Z @ 2799 NONAME
 ?DrawItem@CButton@@UEAAXPEAUtagDRAWITEMSTRUCT@@@Z @ 2800 NONAME
 ?DrawItem@CCheckListBox@@UEAAXPEAUtagDRAWITEMSTRUCT@@@Z @ 2801 NONAME
 ?DrawItem@CChevronOwnerDrawMenu@@UEAAXPEAUtagDRAWITEMSTRUCT@@@Z @ 2802 NONAME
 ?DrawItem@CComboBox@@UEAAXPEAUtagDRAWITEMSTRUCT@@@Z @ 2803 NONAME
 ?DrawItem@CHeaderCtrl@@UEAAXPEAUtagDRAWITEMSTRUCT@@@Z @ 2804 NONAME
 ?DrawItem@CListBox@@UEAAXPEAUtagDRAWITEMSTRUCT@@@Z @ 2805 NONAME
 ?DrawItem@CListCtrl@@UEAAXPEAUtagDRAWITEMSTRUCT@@@Z @ 2806 NONAME
 ?DrawItem@CListView@@UEAAXPEAUtagDRAWITEMSTRUCT@@@Z @ 2807 NONAME
 ?DrawItem@CMenu@@UEAAXPEAUtagDRAWITEMSTRUCT@@@Z @ 2808 NONAME
 ?DrawItem@CStatic@@UEAAXPEAUtagDRAWITEMSTRUCT@@@Z @ 2809 NONAME
 ?DrawItem@CStatusBar@@UEAAXPEAUtagDRAWITEMSTRUCT@@@Z @ 2810 NONAME
 ?DrawItem@CStatusBarCtrl@@UEAAXPEAUtagDRAWITEMSTRUCT@@@Z @ 2811 NONAME
 ?DrawItem@CTabCtrl@@UEAAXPEAUtagDRAWITEMSTRUCT@@@Z @ 2812 NONAME
 ?DrawMenuBar@CWnd@@QEAAXXZ @ 2813 NONAME
 ?DrawMetafile@COleControl@@IEAAXPEAVCDC@@AEAVCRect@@@Z @ 2814 NONAME
 ?DrawNCGripper@CControlBar@@UEAAXPEAVCDC@@AEBVCRect@@@Z @ 2815 NONAME
 ?DrawNonThemedGripper@CControlBar@@UEAAHPEAVCDC@@AEBVCRect@@@Z @ 2816 NONAME
 ?DrawSingle@CDragListBox@@QEAAXH@Z @ 2817 NONAME
 ?DrawState@CDC@@QEAAHVCPoint@@VCSize@@P6AHPEAUHDC__@@_J_KHH@Z3IPEAUHBRUSH__@@@Z @ 2818 NONAME
 ?DrawState@CDC@@QEAAHVCPoint@@VCSize@@P6AHPEAUHDC__@@_J_KHH@Z3IPEAVCBrush@@@Z @ 2819 NONAME
 ?DrawState@CDC@@QEAAHVCPoint@@VCSize@@PEAUHBITMAP__@@IPEAUHBRUSH__@@@Z @ 2820 NONAME
 ?DrawState@CDC@@QEAAHVCPoint@@VCSize@@PEAUHICON__@@IPEAUHBRUSH__@@@Z @ 2821 NONAME
 ?DrawState@CDC@@QEAAHVCPoint@@VCSize@@PEAUHICON__@@IPEAVCBrush@@@Z @ 2822 NONAME
 ?DrawState@CDC@@QEAAHVCPoint@@VCSize@@PEAVCBitmap@@IPEAVCBrush@@@Z @ 2823 NONAME
 ?DrawState@CDC@@QEAAHVCPoint@@VCSize@@PEB_WIHHPEAUHBRUSH__@@@Z @ 2824 NONAME
 ?DrawState@CDC@@QEAAHVCPoint@@VCSize@@PEB_WIHHPEAVCBrush@@@Z @ 2825 NONAME
 ?DrawText@CDC@@QEAAHAEBV?$CStringT@_WV?$StrTraitMFC_DLL@_WV?$ChTraitsCRT@_W@ATL@@@@@ATL@@PEAUtagRECT@@I@Z @ 2826 NONAME
 ?DrawText@CDC@@QEAAHPEB_WHPEAUtagRECT@@I@Z @ 2827 NONAME
 ?DrawText@CMetaFileDC@@QEAAHAEBV?$CStringT@_WV?$StrTraitMFC_DLL@_WV?$ChTraitsCRT@_W@ATL@@@@@ATL@@PEAUtagRECT@@I@Z @ 2828 NONAME
 ?DrawText@CMetaFileDC@@QEAAHPEB_WHPEAUtagRECT@@I@Z @ 2829 NONAME
 ?DrawTextEx@CDC@@QEAAHAEBV?$CStringT@_WV?$StrTraitMFC_DLL@_WV?$ChTraitsCRT@_W@ATL@@@@@ATL@@PEAUtagRECT@@IPEAUtagDRAWTEXTPARAMS@@@Z @ 2830 NONAME
 ?DrawTextEx@CDC@@QEAAHPEA_WHPEAUtagRECT@@IPEAUtagDRAWTEXTPARAMS@@@Z @ 2831 NONAME
 ?DrawTextEx@CMetaFileDC@@QEAAHAEBV?$CStringT@_WV?$StrTraitMFC_DLL@_WV?$ChTraitsCRT@_W@ATL@@@@@ATL@@PEAUtagRECT@@IPEAUtagDRAWTEXTPARAMS@@@Z @ 2832 NONAME
 ?DrawTextEx@CMetaFileDC@@QEAAHPEA_WHPEAUtagRECT@@IPEAUtagDRAWTEXTPARAMS@@@Z @ 2833 NONAME
 ?DrawTextExW@CDC@@QEAAHAEBV?$CStringT@_WV?$StrTraitMFC_DLL@_WV?$ChTraitsCRT@_W@ATL@@@@@ATL@@PEAUtagRECT@@IPEAUtagDRAWTEXTPARAMS@@@Z @ 2834 NONAME
 ?DrawTextExW@CDC@@UEAAHPEA_WHPEAUtagRECT@@IPEAUtagDRAWTEXTPARAMS@@@Z @ 2835 NONAME
 ?DrawTextExW@CMetaFileDC@@QEAAHAEBV?$CStringT@_WV?$StrTraitMFC_DLL@_WV?$ChTraitsCRT@_W@ATL@@@@@ATL@@PEAUtagRECT@@IPEAUtagDRAWTEXTPARAMS@@@Z @ 2836 NONAME
 ?DrawTextExW@CMetaFileDC@@UEAAHPEA_WHPEAUtagRECT@@IPEAUtagDRAWTEXTPARAMS@@@Z @ 2837 NONAME
 ?DrawTextExW@CPreviewDC@@UEAAHPEA_WHPEAUtagRECT@@IPEAUtagDRAWTEXTPARAMS@@@Z @ 2838 NONAME
 ?DrawTextW@CDC@@QEAAHAEBV?$CStringT@_WV?$StrTraitMFC_DLL@_WV?$ChTraitsCRT@_W@ATL@@@@@ATL@@PEAUtagRECT@@I@Z @ 2839 NONAME
 ?DrawTextW@CDC@@UEAAHPEB_WHPEAUtagRECT@@I@Z @ 2840 NONAME
 ?DrawTextW@CMetaFileDC@@QEAAHAEBV?$CStringT@_WV?$StrTraitMFC_DLL@_WV?$ChTraitsCRT@_W@ATL@@@@@ATL@@PEAUtagRECT@@I@Z @ 2841 NONAME
 ?DrawTextW@CMetaFileDC@@UEAAHPEB_WHPEAUtagRECT@@I@Z @ 2842 NONAME
 ?DrawTextW@CPreviewDC@@UEAAHPEB_WHPEAUtagRECT@@I@Z @ 2843 NONAME
 ?DrawThemeBackground@CThemeHelper@@SAJPEAXPEAUHDC__@@HHPEBUtagRECT@@2@Z @ 2844 NONAME
 ?DrawThemeBackgroundFail@CThemeHelper@@CAJPEAXPEAUHDC__@@HHPEBUtagRECT@@2@Z @ 2845 NONAME
 ?DrawThemedGripper@CControlBar@@UEAAHPEAVCDC@@AEBVCRect@@H@Z @ 2846 NONAME
 ?DrawThemeParentBackground@CThemeHelper@@SAJPEAUHWND__@@PEAUHDC__@@PEAUtagRECT@@@Z @ 2847 NONAME
 ?DrawThemeParentBackgroundFail@CThemeHelper@@CAJPEAUHWND__@@PEAUHDC__@@PEAUtagRECT@@@Z @ 2848 NONAME
 ?DrawTrackerRect@CRectTracker@@UEAAXPEBUtagRECT@@PEAVCWnd@@PEAVCDC@@1@Z @ 2849 NONAME
 ?Drop@XDropTarget@COleDropTarget@@UEAAJPEAUIDataObject@@KU_POINTL@@PEAK@Z @ 2850 NONAME
 ?Dropped@CDragListBox@@UEAAXHVCPoint@@@Z @ 2851 NONAME
 ?Dump@CArchiveException@@UEBAXAEAVCDumpContext@@@Z @ 2852 NONAME
 ?Dump@CAsyncMonikerFile@@UEBAXAEAVCDumpContext@@@Z @ 2853 NONAME
 ?Dump@CAsyncSocket@@UEBAXAEAVCDumpContext@@@Z @ 2854 NONAME
 ?Dump@CBitmap@@UEBAXAEAVCDumpContext@@@Z @ 2855 NONAME
 ?Dump@CBitmapButton@@UEBAXAEAVCDumpContext@@@Z @ 2856 NONAME
 ?Dump@CBrush@@UEBAXAEAVCDumpContext@@@Z @ 2857 NONAME
 ?Dump@CByteArray@@UEBAXAEAVCDumpContext@@@Z @ 2858 NONAME
 ?Dump@CCachedDataPathProperty@@UEBAXAEAVCDumpContext@@@Z @ 2859 NONAME
 ?Dump@CClientDC@@UEBAXAEAVCDumpContext@@@Z @ 2860 NONAME
 ?Dump@CCmdTarget@@UEBAXAEAVCDumpContext@@@Z @ 2861 NONAME
 ?Dump@CColorDialog@@UEBAXAEAVCDumpContext@@@Z @ 2862 NONAME
 ?Dump@CControlBar@@UEBAXAEAVCDumpContext@@@Z @ 2863 NONAME
 ?Dump@CCtrlView@@UEBAXAEAVCDumpContext@@@Z @ 2864 NONAME
 ?Dump@CDatabase@@UEBAXAEAVCDumpContext@@@Z @ 2865 NONAME
 ?Dump@CDataPathProperty@@UEBAXAEAVCDumpContext@@@Z @ 2866 NONAME
 ?Dump@CDC@@UEBAXAEAVCDumpContext@@@Z @ 2867 NONAME
 ?Dump@CDialog@@UEBAXAEAVCDumpContext@@@Z @ 2868 NONAME
 ?Dump@CDocItem@@UEBAXAEAVCDumpContext@@@Z @ 2869 NONAME
 ?Dump@CDockBar@@UEBAXAEAVCDumpContext@@@Z @ 2870 NONAME
 ?Dump@CDocManager@@UEBAXAEAVCDumpContext@@@Z @ 2871 NONAME
 ?Dump@CDocObjectServer@@MEBAXAEAVCDumpContext@@@Z @ 2872 NONAME
 ?Dump@CDocObjectServerItem@@UEBAXAEAVCDumpContext@@@Z @ 2873 NONAME
 ?Dump@CDocTemplate@@UEBAXAEAVCDumpContext@@@Z @ 2874 NONAME
 ?Dump@CDocument@@UEBAXAEAVCDumpContext@@@Z @ 2875 NONAME
 ?Dump@CDWordArray@@UEBAXAEAVCDumpContext@@@Z @ 2876 NONAME
 ?Dump@CDynLinkLibrary@@UEBAXAEAVCDumpContext@@@Z @ 2877 NONAME
 ?Dump@CEditView@@UEBAXAEAVCDumpContext@@@Z @ 2878 NONAME
 ?Dump@CFile@@UEBAXAEAVCDumpContext@@@Z @ 2879 NONAME
 ?Dump@CFileDialog@@UEBAXAEAVCDumpContext@@@Z @ 2880 NONAME
 ?Dump@CFileException@@UEBAXAEAVCDumpContext@@@Z @ 2881 NONAME
 ?Dump@CFileFind@@MEBAXAEAVCDumpContext@@@Z @ 2882 NONAME
 ?Dump@CFileStatus@@QEBAXAEAVCDumpContext@@@Z @ 2883 NONAME
 ?Dump@CFindReplaceDialog@@UEBAXAEAVCDumpContext@@@Z @ 2884 NONAME
 ?Dump@CFont@@UEBAXAEAVCDumpContext@@@Z @ 2885 NONAME
 ?Dump@CFontDialog@@UEBAXAEAVCDumpContext@@@Z @ 2886 NONAME
 ?Dump@CFormView@@UEBAXAEAVCDumpContext@@@Z @ 2887 NONAME
 ?Dump@CFrameWnd@@UEBAXAEAVCDumpContext@@@Z @ 2888 NONAME
 ?Dump@CFtpConnection@@UEBAXAEAVCDumpContext@@@Z @ 2889 NONAME
 ?Dump@CFtpFileFind@@UEBAXAEAVCDumpContext@@@Z @ 2890 NONAME
 ?Dump@CGdiObject@@UEBAXAEAVCDumpContext@@@Z @ 2891 NONAME
 ?Dump@CGopherConnection@@UEBAXAEAVCDumpContext@@@Z @ 2892 NONAME
 ?Dump@CGopherFile@@UEBAXAEAVCDumpContext@@@Z @ 2893 NONAME
 ?Dump@CGopherFileFind@@UEBAXAEAVCDumpContext@@@Z @ 2894 NONAME
 ?Dump@CHtmlEditDoc@@UEBAXAEAVCDumpContext@@@Z @ 2895 NONAME
 ?Dump@CHtmlEditView@@MEBAXAEAVCDumpContext@@@Z @ 2896 NONAME
 ?Dump@CHtmlView@@UEBAXAEAVCDumpContext@@@Z @ 2897 NONAME
 ?Dump@CHttpConnection@@UEBAXAEAVCDumpContext@@@Z @ 2898 NONAME
 ?Dump@CHttpFile@@MEBAXAEAVCDumpContext@@@Z @ 2899 NONAME
 ?Dump@CImageList@@UEBAXAEAVCDumpContext@@@Z @ 2900 NONAME
 ?Dump@CInternetConnection@@UEBAXAEAVCDumpContext@@@Z @ 2901 NONAME
 ?Dump@CInternetException@@UEBAXAEAVCDumpContext@@@Z @ 2902 NONAME
 ?Dump@CInternetFile@@MEBAXAEAVCDumpContext@@@Z @ 2903 NONAME
 ?Dump@CInternetSession@@UEBAXAEAVCDumpContext@@@Z @ 2904 NONAME
 ?Dump@CLongBinary@@UEBAXAEAVCDumpContext@@@Z @ 2905 NONAME
 ?Dump@CMapPtrToPtr@@UEBAXAEAVCDumpContext@@@Z @ 2906 NONAME
 ?Dump@CMapPtrToWord@@UEBAXAEAVCDumpContext@@@Z @ 2907 NONAME
 ?Dump@CMapStringToOb@@UEBAXAEAVCDumpContext@@@Z @ 2908 NONAME
 ?Dump@CMapStringToPtr@@UEBAXAEAVCDumpContext@@@Z @ 2909 NONAME
 ?Dump@CMapStringToString@@UEBAXAEAVCDumpContext@@@Z @ 2910 NONAME
 ?Dump@CMapWordToOb@@UEBAXAEAVCDumpContext@@@Z @ 2911 NONAME
 ?Dump@CMapWordToPtr@@UEBAXAEAVCDumpContext@@@Z @ 2912 NONAME
 ?Dump@CMDIChildWnd@@UEBAXAEAVCDumpContext@@@Z @ 2913 NONAME
 ?Dump@CMDIFrameWnd@@UEBAXAEAVCDumpContext@@@Z @ 2914 NONAME
 ?Dump@CMemFile@@UEBAXAEAVCDumpContext@@@Z @ 2915 NONAME
 ?Dump@CMenu@@UEBAXAEAVCDumpContext@@@Z @ 2916 NONAME
 ?Dump@CMonikerFile@@UEBAXAEAVCDumpContext@@@Z @ 2917 NONAME
 ?Dump@CMultiDocTemplate@@UEBAXAEAVCDumpContext@@@Z @ 2918 NONAME
 ?Dump@CObArray@@UEBAXAEAVCDumpContext@@@Z @ 2919 NONAME
 ?Dump@CObject@@UEBAXAEAVCDumpContext@@@Z @ 2920 NONAME
 ?Dump@CObList@@UEBAXAEAVCDumpContext@@@Z @ 2921 NONAME
 ?Dump@COleBusyDialog@@UEBAXAEAVCDumpContext@@@Z @ 2922 NONAME
 ?Dump@COleChangeIconDialog@@UEBAXAEAVCDumpContext@@@Z @ 2923 NONAME
 ?Dump@COleChangeSourceDialog@@UEBAXAEAVCDumpContext@@@Z @ 2924 NONAME
 ?Dump@COleClientItem@@UEBAXAEAVCDumpContext@@@Z @ 2925 NONAME
 ?Dump@COleControl@@UEBAXAEAVCDumpContext@@@Z @ 2926 NONAME
 ?Dump@COleConvertDialog@@UEBAXAEAVCDumpContext@@@Z @ 2927 NONAME
 ?Dump@COleDataSource@@UEBAXAEAVCDumpContext@@@Z @ 2928 NONAME
 ?Dump@COleDialog@@UEBAXAEAVCDumpContext@@@Z @ 2929 NONAME
 ?Dump@COleDocIPFrameWnd@@UEBAXAEAVCDumpContext@@@Z @ 2930 NONAME
 ?Dump@COleDocument@@UEBAXAEAVCDumpContext@@@Z @ 2931 NONAME
 ?Dump@COleDropSource@@UEBAXAEAVCDumpContext@@@Z @ 2932 NONAME
 ?Dump@COleDropTarget@@UEBAXAEAVCDumpContext@@@Z @ 2933 NONAME
 ?Dump@COleInsertDialog@@UEBAXAEAVCDumpContext@@@Z @ 2934 NONAME
 ?Dump@COleIPFrameWnd@@UEBAXAEAVCDumpContext@@@Z @ 2935 NONAME
 ?Dump@COleLinkingDoc@@UEBAXAEAVCDumpContext@@@Z @ 2936 NONAME
 ?Dump@COleLinksDialog@@UEBAXAEAVCDumpContext@@@Z @ 2937 NONAME
 ?Dump@COleMessageFilter@@UEBAXAEAVCDumpContext@@@Z @ 2938 NONAME
 ?Dump@COleObjectFactory@@UEBAXAEAVCDumpContext@@@Z @ 2939 NONAME
 ?Dump@COlePasteSpecialDialog@@UEBAXAEAVCDumpContext@@@Z @ 2940 NONAME
 ?Dump@COlePropertiesDialog@@UEBAXAEAVCDumpContext@@@Z @ 2941 NONAME
 ?Dump@COleServerDoc@@UEBAXAEAVCDumpContext@@@Z @ 2942 NONAME
 ?Dump@COleServerItem@@UEBAXAEAVCDumpContext@@@Z @ 2943 NONAME
 ?Dump@COleStreamFile@@UEBAXAEAVCDumpContext@@@Z @ 2944 NONAME
 ?Dump@COleUpdateDialog@@UEBAXAEAVCDumpContext@@@Z @ 2945 NONAME
 ?Dump@CPageSetupDialog@@UEBAXAEAVCDumpContext@@@Z @ 2946 NONAME
 ?Dump@CPaintDC@@UEBAXAEAVCDumpContext@@@Z @ 2947 NONAME
 ?Dump@CPen@@UEBAXAEAVCDumpContext@@@Z @ 2948 NONAME
 ?Dump@CPreviewDC@@UEBAXAEAVCDumpContext@@@Z @ 2949 NONAME
 ?Dump@CPreviewView@@UEBAXAEAVCDumpContext@@@Z @ 2950 NONAME
 ?Dump@CPrintDialog@@UEBAXAEAVCDumpContext@@@Z @ 2951 NONAME
 ?Dump@CPrintDialogEx@@UEBAXAEAVCDumpContext@@@Z @ 2952 NONAME
 ?Dump@CPropertyPage@@UEBAXAEAVCDumpContext@@@Z @ 2953 NONAME
 ?Dump@CPropertySheet@@UEBAXAEAVCDumpContext@@@Z @ 2954 NONAME
 ?Dump@CPtrArray@@UEBAXAEAVCDumpContext@@@Z @ 2955 NONAME
 ?Dump@CPtrList@@UEBAXAEAVCDumpContext@@@Z @ 2956 NONAME
 ?Dump@CRecordset@@UEBAXAEAVCDumpContext@@@Z @ 2957 NONAME
 ?Dump@CRecordView@@UEBAXAEAVCDumpContext@@@Z @ 2958 NONAME
 ?Dump@CRichEditCntrItem@@UEBAXAEAVCDumpContext@@@Z @ 2959 NONAME
 ?Dump@CRichEditDoc@@UEBAXAEAVCDumpContext@@@Z @ 2960 NONAME
 ?Dump@CRichEditView@@UEBAXAEAVCDumpContext@@@Z @ 2961 NONAME
 ?Dump@CScrollView@@UEBAXAEAVCDumpContext@@@Z @ 2962 NONAME
 ?Dump@CSingleDocTemplate@@UEBAXAEAVCDumpContext@@@Z @ 2963 NONAME
 ?Dump@CSocket@@MEBAXAEAVCDumpContext@@@Z @ 2964 NONAME
 ?Dump@CSocketFile@@UEBAXAEAVCDumpContext@@@Z @ 2965 NONAME
 ?Dump@CSplitterWnd@@UEBAXAEAVCDumpContext@@@Z @ 2966 NONAME
 ?Dump@CStatusBar@@UEBAXAEAVCDumpContext@@@Z @ 2967 NONAME
 ?Dump@CStdioFile@@UEBAXAEAVCDumpContext@@@Z @ 2968 NONAME
 ?Dump@CStringArray@@UEBAXAEAVCDumpContext@@@Z @ 2969 NONAME
 ?Dump@CStringList@@UEBAXAEAVCDumpContext@@@Z @ 2970 NONAME
 ?Dump@CSyncObject@@UEBAXAEAVCDumpContext@@@Z @ 2971 NONAME
 ?Dump@CToolBar@@UEBAXAEAVCDumpContext@@@Z @ 2972 NONAME
 ?Dump@CUIntArray@@UEBAXAEAVCDumpContext@@@Z @ 2973 NONAME
 ?Dump@CView@@UEBAXAEAVCDumpContext@@@Z @ 2974 NONAME
 ?Dump@CWinApp@@UEBAXAEAVCDumpContext@@@Z @ 2975 NONAME
 ?Dump@CWindowDC@@UEBAXAEAVCDumpContext@@@Z @ 2976 NONAME
 ?Dump@CWinThread@@UEBAXAEAVCDumpContext@@@Z @ 2977 NONAME
 ?Dump@CWnd@@UEBAXAEAVCDumpContext@@@Z @ 2978 NONAME
 ?Dump@CWordArray@@UEBAXAEAVCDumpContext@@@Z @ 2979 NONAME
 ?DumpAllObjectsSince@CMemoryState@@QEBAXXZ @ 2980 NONAME
 ?DumpAsHex@CDumpContext@@QEAAAEAV1@_J@Z @ 2981 NONAME
 ?DumpAsHex@CDumpContext@@QEAAAEAV1@_K@Z @ 2982 NONAME
 ?DumpAsHex@CDumpContext@@QEAAAEAV1@E@Z @ 2983 NONAME
 ?DumpAsHex@CDumpContext@@QEAAAEAV1@G@Z @ 2984 NONAME
 ?DumpAsHex@CDumpContext@@QEAAAEAV1@H@Z @ 2985 NONAME
 ?DumpAsHex@CDumpContext@@QEAAAEAV1@I@Z @ 2986 NONAME
 ?DumpAsHex@CDumpContext@@QEAAAEAV1@J@Z @ 2987 NONAME
 ?DumpAsHex@CDumpContext@@QEAAAEAV1@K@Z @ 2988 NONAME
 ?DumpFields@CRecordset@@QEBAXAEAVCDumpContext@@@Z @ 2989 NONAME
 ?DumpStatistics@CMemoryState@@QEBAXXZ @ 2990 NONAME
 ?DUnadvise@XDataObject@COleControl@@UEAAJK@Z @ 2991 NONAME
 ?DUnadvise@XDataObject@COleDataSource@@UEAAJK@Z @ 2992 NONAME
 ?DUnadvise@XDataObject@COleServerDoc@@UEAAJK@Z @ 2993 NONAME
 ?DUnadvise@XDataObject@COleServerItem@@UEAAJK@Z @ 2994 NONAME
 ?Duplicate@CFile@@UEBAPEAV1@XZ @ 2995 NONAME
 ?Duplicate@CInternetFile@@UEBAPEAVCFile@@XZ @ 2996 NONAME
 ?Duplicate@CMemFile@@UEBAPEAVCFile@@XZ @ 2997 NONAME
 ?Duplicate@COleStreamFile@@UEBAPEAVCFile@@XZ @ 2998 NONAME
 ?Duplicate@CSocketFile@@UEBAPEAVCFile@@XZ @ 2999 NONAME
 ?Duplicate@CStdioFile@@UEBAPEAVCFile@@XZ @ 3000 NONAME
 ?dwStyleDefault@CEditView@@2KB @ 3001 NONAME DATA
 ?Edit@CRecordset@@UEAAXXZ @ 3002 NONAME
 ?EditFilter@CHeaderCtrl@@QEAAHHH@Z @ 3003 NONAME
 ?EditLabel@CListCtrl@@QEAAPEAVCEdit@@H@Z @ 3004 NONAME
 ?EditLabel@CTreeCtrl@@QEAAPEAVCEdit@@PEAU_TREEITEM@@@Z @ 3005 NONAME
 ?EditProperty@XPropertyPage@COlePropertyPage@@UEAAJJ@Z @ 3006 NONAME
 ?EditStreamCallBack@CRichEditView@@SAK_KPEAEJPEAJ@Z @ 3007 NONAME
 ?ElementAt@CByteArray@@QEAAAEAE_J@Z @ 3008 NONAME
 ?ElementAt@CDWordArray@@QEAAAEAK_J@Z @ 3009 NONAME
 ?ElementAt@CObArray@@QEAAAEAPEAVCObject@@_J@Z @ 3010 NONAME
 ?ElementAt@CPtrArray@@QEAAAEAPEAX_J@Z @ 3011 NONAME
 ?ElementAt@CStringArray@@QEAAAEAV?$CStringT@_WV?$StrTraitMFC_DLL@_WV?$ChTraitsCRT@_W@ATL@@@@@ATL@@_J@Z @ 3012 NONAME
 ?ElementAt@CUIntArray@@QEAAAEAI_J@Z @ 3013 NONAME
 ?ElementAt@CWordArray@@QEAAAEAG_J@Z @ 3014 NONAME
 ?Ellipse@CDC@@QEAAHHHHH@Z @ 3015 NONAME
 ?Ellipse@CDC@@QEAAHPEBUtagRECT@@@Z @ 3016 NONAME
 ?Empty@?$CSimpleStringT@_W$00@ATL@@QEAAXXZ @ 3017 NONAME
 ?Empty@?$CSimpleStringT@D$00@ATL@@QEAAXXZ @ 3018 NONAME
 ?Empty@CDBException@@QEAAXXZ @ 3019 NONAME
 ?Empty@COleDataSource@@QEAAXXZ @ 3020 NONAME
 ?EmptyUndoBuffer@CEdit@@QEAAXXZ @ 3021 NONAME
 ?EmptyUndoBuffer@CRichEditCtrl@@QEAAXXZ @ 3022 NONAME
 ?Enable@CCheckListBox@@QEAAXHH@Z @ 3023 NONAME
 ?Enable@CCmdUI@@UEAAXH@Z @ 3024 NONAME
 ?Enable@COleCmdUI@@UEAAXH@Z @ 3025 NONAME
 ?Enable@CStatusCmdUI@@UEAAXH@Z @ 3026 NONAME
 ?Enable@CTestCmdUI@@UEAAXH@Z @ 3027 NONAME
 ?Enable@CToolCmdUI@@UEAAXH@Z @ 3028 NONAME
 ?Enable3dControls@CWinApp@@IEAAHXZ @ 3029 NONAME
 ?EnableActiveAccessibility@CWnd@@QEAAXXZ @ 3030 NONAME
 ?EnableAggregation@CCmdTarget@@QEAAXXZ @ 3031 NONAME
 ?EnableAutomation@CCmdTarget@@QEAAXXZ @ 3032 NONAME
 ?EnableBookmarks@CRecordset@@IEAAXXZ @ 3033 NONAME
 ?EnableBusyDialog@COleMessageFilter@@QEAAXH@Z @ 3034 NONAME
 ?EnableButton@CToolBarCtrl@@QEAAHHH@Z @ 3035 NONAME
 ?EnableCompoundFile@COleDocument@@QEAAXH@Z @ 3036 NONAME
 ?EnableConnections@CCmdTarget@@QEAAXXZ @ 3037 NONAME
 ?EnableDocking@CControlBar@@QEAAXK@Z @ 3038 NONAME
 ?EnableDocking@CFrameWnd@@QEAAXK@Z @ 3039 NONAME
 ?EnableDocking@CReBar@@QEAAXK@Z @ 3040 NONAME
 ?EnableDocking@CStatusBar@@QEAAXK@Z @ 3041 NONAME
 ?EnableDSC@COleControlSite@@UEAAXXZ @ 3042 NONAME
 ?EnableHtmlHelp@CWinApp@@QEAAXXZ @ 3043 NONAME
 ?EnableMenuItem@CMenu@@QEAAIII@Z @ 3044 NONAME
 ?EnableModeless@CBrowserControlSite@@MEAAJH@Z @ 3045 NONAME
 ?EnableModeless@CDHtmlDialog@@UEAAJH@Z @ 3046 NONAME
 ?EnableModeless@CWinApp@@QEAAXH@Z @ 3047 NONAME
 ?EnableModeless@XDocHostUIHandler@CHtmlControlSite@@UEAAJH@Z @ 3048 NONAME
 ?EnableModeless@XOleInPlaceActiveObject@COleControl@@UEAAJH@Z @ 3049 NONAME
 ?EnableModeless@XOleInPlaceActiveObject@COleServerDoc@@UEAAJH@Z @ 3050 NONAME
 ?EnableModeless@XOleInPlaceFrame@COleFrameHook@@UEAAJH@Z @ 3051 NONAME
 ?EnableModeless@XOleIPFrame@COleControlContainer@@UEAAJH@Z @ 3052 NONAME
 ?EnableNotRespondingDialog@COleMessageFilter@@QEAAXH@Z @ 3053 NONAME
 ?EnableScrollBar@CScrollBar@@QEAAHI@Z @ 3054 NONAME
 ?EnableScrollBar@CWnd@@QEAAHHI@Z @ 3055 NONAME
 ?EnableScrollBarCtrl@CWnd@@QEAAXHH@Z @ 3056 NONAME
 ?EnableShellOpen@CWinApp@@IEAAXXZ @ 3057 NONAME
 ?EnableSimpleFrame@COleControl@@QEAAXXZ @ 3058 NONAME
 ?EnableStackedTabs@CPropertySheet@@QEAAXH@Z @ 3059 NONAME
 ?EnableStatusCallback@CInternetSession@@QEAAHH@Z @ 3060 NONAME
 ?EnableToolTips@CWnd@@QEAAHH@Z @ 3061 NONAME
 ?EnableTrackingToolTips@CWnd@@QEAAHH@Z @ 3062 NONAME
 ?EnableTypeLib@CCmdTarget@@QEAAXXZ @ 3063 NONAME
 ?EnableWindow@COleControlSite@@UEAAHH@Z @ 3064 NONAME
 ?EnableWindow@CWnd@@QEAAHH@Z @ 3065 NONAME
 ?EndBusyState@COleMessageFilter@@UEAAXXZ @ 3066 NONAME
 ?EndCallbacks@CAsyncMonikerFile@@IEAAXXZ @ 3067 NONAME
 ?EndDeferErrors@COleLinkingDoc@@QEAAJJ@Z @ 3068 NONAME
 ?EndDialog@CDialog@@QEAAXH@Z @ 3069 NONAME
 ?EndDialog@CPropertyPage@@QEAAXH@Z @ 3070 NONAME
 ?EndDialog@CPropertySheet@@QEAAXH@Z @ 3071 NONAME
 ?EndDoc@CDC@@QEAAHXZ @ 3072 NONAME
 ?EndDrag@CDockContext@@QEAAXXZ @ 3073 NONAME
 ?EndDrag@CImageList@@SAXXZ @ 3074 NONAME
 ?EndDrag@CReBarCtrl@@QEAAXXZ @ 3075 NONAME
 ?EndEditLabelNow@CTreeCtrl@@QEAAHH@Z @ 3076 NONAME
 ?EndModalLoop@CWnd@@UEAAXH@Z @ 3077 NONAME
 ?EndModalState@CFrameWnd@@UEAAXXZ @ 3078 NONAME
 ?EndModalState@CWnd@@UEAAXXZ @ 3079 NONAME
 ?EndPage@CDC@@QEAAHXZ @ 3080 NONAME
 ?EndPaint@CWnd@@QEAAXPEAUtagPAINTSTRUCT@@@Z @ 3081 NONAME
 ?EndPath@CDC@@QEAAHXZ @ 3082 NONAME
 ?EndRequest@CHttpFile@@QEAAHKPEAU_INTERNET_BUFFERSW@@_K@Z @ 3083 NONAME
 ?EndResize@CDockContext@@QEAAXXZ @ 3084 NONAME
 ?EndWaitCursor@CCmdTarget@@QEAAXXZ @ 3085 NONAME
 ?EnsureClipboardObject@COleDataObject@@QEAAXXZ @ 3086 NONAME
 ?EnsureParentFrame@CWnd@@QEBAPEAVCFrameWnd@@XZ @ 3087 NONAME
 ?EnsureRead@CArchive@@QEAAXPEAXI@Z @ 3088 NONAME
 ?EnsureSchemaMapExists@CArchive@@QEAAXPEAPEAV?$CArray@W4LoadArrayObjType@CArchive@@AEBW412@@@@Z @ 3089 NONAME
 ?EnsureStdObj@CWnd@@UEAAJXZ @ 3090 NONAME
 ?EnsureTopLevelParent@CWnd@@QEBAPEAV1@XZ @ 3091 NONAME
 ?EnsureVisible@CListCtrl@@QEAAHHH@Z @ 3092 NONAME
 ?EnsureVisible@CTreeCtrl@@QEAAHPEAU_TREEITEM@@@Z @ 3093 NONAME
 ?EnumAdvise@XOleObject@CDocObjectServer@@UEAAJPEAPEAUIEnumSTATDATA@@@Z @ 3094 NONAME
 ?EnumAdvise@XOleObject@COleControl@@UEAAJPEAPEAUIEnumSTATDATA@@@Z @ 3095 NONAME
 ?EnumAdvise@XOleObject@COleServerDoc@@UEAAJPEAPEAUIEnumSTATDATA@@@Z @ 3096 NONAME
 ?EnumAdvise@XOleObject@COleServerItem@@UEAAJPEAPEAUIEnumSTATDATA@@@Z @ 3097 NONAME
 ?EnumCache@XOleCache@COleControl@@UEAAJPEAPEAUIEnumSTATDATA@@@Z @ 3098 NONAME
 ?EnumChildProc@COlePropertyPage@@KAHPEAUHWND__@@_J@Z @ 3099 NONAME
 ?EnumConnectionPoints@COleConnPtContainer@@UEAAJPEAPEAUIEnumConnectionPoints@@@Z @ 3100 NONAME
 ?EnumConnections@XConnPt@CConnectionPoint@@UEAAJPEAPEAUIEnumConnections@@@Z @ 3101 NONAME
 ?EnumControls@COlePropertyPage@@KAHPEAUHWND__@@_J@Z @ 3102 NONAME
 ?EnumDAdvise@XDataObject@COleControl@@UEAAJPEAPEAUIEnumSTATDATA@@@Z @ 3103 NONAME
 ?EnumDAdvise@XDataObject@COleDataSource@@UEAAJPEAPEAUIEnumSTATDATA@@@Z @ 3104 NONAME
 ?EnumDAdvise@XDataObject@COleServerDoc@@UEAAJPEAPEAUIEnumSTATDATA@@@Z @ 3105 NONAME
 ?EnumDAdvise@XDataObject@COleServerItem@@UEAAJPEAPEAUIEnumSTATDATA@@@Z @ 3106 NONAME
 ?EnumFormatEtc@XDataObject@COleControl@@UEAAJKPEAPEAUIEnumFORMATETC@@@Z @ 3107 NONAME
 ?EnumFormatEtc@XDataObject@COleDataSource@@UEAAJKPEAPEAUIEnumFORMATETC@@@Z @ 3108 NONAME
 ?EnumFormatEtc@XDataObject@COleServerDoc@@UEAAJKPEAPEAUIEnumFORMATETC@@@Z @ 3109 NONAME
 ?EnumFormatEtc@XDataObject@COleServerItem@@UEAAJKPEAPEAUIEnumFORMATETC@@@Z @ 3110 NONAME
 ?EnumObjects@CDC@@QEAAHHP6AHPEAX_J@Z1@Z @ 3111 NONAME
 ?EnumObjects@XOleContainer@COleControlContainer@@UEAAJKPEAPEAUIEnumUnknown@@@Z @ 3112 NONAME
 ?EnumObjects@XOleItemContainer@COleLinkingDoc@@UEAAJKPEAPEAUIEnumUnknown@@@Z @ 3113 NONAME
 ?EnumOleVerbs@CCmdTarget@@QEAAHPEAPEAUIEnumOLEVERB@@@Z @ 3114 NONAME
 ?EnumVerbs@XOleObject@CDocObjectServer@@UEAAJPEAPEAUIEnumOLEVERB@@@Z @ 3115 NONAME
 ?EnumVerbs@XOleObject@COleControl@@UEAAJPEAPEAUIEnumOLEVERB@@@Z @ 3116 NONAME
 ?EnumVerbs@XOleObject@COleServerDoc@@UEAAJPEAPEAUIEnumOLEVERB@@@Z @ 3117 NONAME
 ?EnumVerbs@XOleObject@COleServerItem@@UEAAJPEAPEAUIEnumOLEVERB@@@Z @ 3118 NONAME
 ?EnumViews@XOleDocument@CDocObjectServer@@UEAAJPEAPEAUIEnumOleDocumentViews@@PEAPEAUIOleDocumentView@@@Z @ 3119 NONAME
 ?EqualRgn@CRgn@@QEBAHPEBV1@@Z @ 3120 NONAME
 ?EraseNonClient@CControlBar@@QEAAXXZ @ 3121 NONAME
 ?ErrnoToException@CFileException@@SAHH@Z @ 3122 NONAME
 ?ErrorDlg@CHttpFile@@QEAAKPEAVCWnd@@KKPEAPEAX@Z @ 3123 NONAME
 ?Escape@CDC@@QEAAHHHPEBDHPEAD@Z @ 3124 NONAME
 ?Escape@CDC@@UEAAHHHPEBDPEAX@Z @ 3125 NONAME
 ?Escape@CMetaFileDC@@UEAAHHHPEBDPEAX@Z @ 3126 NONAME
 ?Escape@CPreviewDC@@UEAAHHHPEBDPEAX@Z @ 3127 NONAME
 ?ExchangeBlobProp@CArchivePropExchange@@UEAAHPEB_WPEAPEAXPEAX@Z @ 3128 NONAME
 ?ExchangeBlobProp@CAsyncPropExchange@@UEAAHPEB_WPEAPEAXPEAX@Z @ 3129 NONAME
 ?ExchangeBlobProp@CPropbagPropExchange@@UEAAHPEB_WPEAPEAXPEAX@Z @ 3130 NONAME
 ?ExchangeBlobProp@CPropsetPropExchange@@UEAAHPEB_WPEAPEAXPEAX@Z @ 3131 NONAME
 ?ExchangeBlobProp@CResetPropExchange@@UEAAHPEB_WPEAPEAXPEAX@Z @ 3132 NONAME
 ?ExchangeExtent@COleControl@@QEAAHPEAVCPropExchange@@@Z @ 3133 NONAME
 ?ExchangeFontProp@CArchivePropExchange@@UEAAHPEB_WAEAVCFontHolder@@PEBUtagFONTDESC@@PEAUIFontDisp@@@Z @ 3134 NONAME
 ?ExchangeFontProp@CAsyncPropExchange@@UEAAHPEB_WAEAVCFontHolder@@PEBUtagFONTDESC@@PEAUIFontDisp@@@Z @ 3135 NONAME
 ?ExchangeFontProp@CPropbagPropExchange@@UEAAHPEB_WAEAVCFontHolder@@PEBUtagFONTDESC@@PEAUIFontDisp@@@Z @ 3136 NONAME
 ?ExchangeFontProp@CPropsetPropExchange@@UEAAHPEB_WAEAVCFontHolder@@PEBUtagFONTDESC@@PEAUIFontDisp@@@Z @ 3137 NONAME
 ?ExchangeFontProp@CResetPropExchange@@UEAAHPEB_WAEAVCFontHolder@@PEBUtagFONTDESC@@PEAUIFontDisp@@@Z @ 3138 NONAME
 ?ExchangePersistentProp@CArchivePropExchange@@UEAAHPEB_WPEAPEAUIUnknown@@AEBU_GUID@@PEAU2@@Z @ 3139 NONAME
 ?ExchangePersistentProp@CAsyncPropExchange@@UEAAHPEB_WPEAPEAUIUnknown@@AEBU_GUID@@PEAU2@@Z @ 3140 NONAME
 ?ExchangePersistentProp@CPropbagPropExchange@@UEAAHPEB_WPEAPEAUIUnknown@@AEBU_GUID@@PEAU2@@Z @ 3141 NONAME
 ?ExchangePersistentProp@CPropsetPropExchange@@UEAAHPEB_WPEAPEAUIUnknown@@AEBU_GUID@@PEAU2@@Z @ 3142 NONAME
 ?ExchangePersistentProp@CResetPropExchange@@UEAAHPEB_WPEAPEAUIUnknown@@AEBU_GUID@@PEAU2@@Z @ 3143 NONAME
 ?ExchangeProp@CArchivePropExchange@@UEAAHPEB_WGPEAXPEBX@Z @ 3144 NONAME
 ?ExchangeProp@CAsyncPropExchange@@UEAAHPEB_WGPEAXPEBX@Z @ 3145 NONAME
 ?ExchangeProp@CPropbagPropExchange@@UEAAHPEB_WGPEAXPEBX@Z @ 3146 NONAME
 ?ExchangeProp@CPropsetPropExchange@@UEAAHPEB_WGPEAXPEBX@Z @ 3147 NONAME
 ?ExchangeProp@CResetPropExchange@@UEAAHPEB_WGPEAXPEBX@Z @ 3148 NONAME
 ?ExchangeStockProps@COleControl@@QEAAXPEAVCPropExchange@@@Z @ 3149 NONAME
 ?ExchangeVersion@CAsyncPropExchange@@UEAAHAEAKKH@Z @ 3150 NONAME
 ?ExchangeVersion@COleControl@@QEAAHPEAVCPropExchange@@KH@Z @ 3151 NONAME
 ?ExchangeVersion@CPropExchange@@UEAAHAEAKKH@Z @ 3152 NONAME
 ?ExcludeClipRect@CDC@@QEAAHHHHH@Z @ 3153 NONAME
 ?ExcludeClipRect@CDC@@QEAAHPEBUtagRECT@@@Z @ 3154 NONAME
 ?ExcludeUpdateRgn@CDC@@QEAAHPEAVCWnd@@@Z @ 3155 NONAME
 ?Exec@XOleCommandTarget@CDocObjectServer@@UEAAJPEBU_GUID@@KKPEAUtagVARIANT@@1@Z @ 3156 NONAME
 ?Exec@XOleCommandTarget@COleFrameHook@@UEAAJPEBU_GUID@@KKPEAUtagVARIANT@@1@Z @ 3157 NONAME
 ?ExecCommand@COleDocObjectItem@@QEAAJKKPEBU_GUID@@@Z @ 3158 NONAME
 ?ExecFormsCommand@CHtmlView@@QEAAJKPEAUtagVARIANT@@0@Z @ 3159 NONAME
 ?ExecHandler@CHtmlEditView@@UEAAHI@Z @ 3160 NONAME
 ?ExecuteDlgInit@CWnd@@QEAAHPEAX@Z @ 3161 NONAME
 ?ExecuteDlgInit@CWnd@@QEAAHPEB_W@Z @ 3162 NONAME
 ?ExecuteSetPosUpdate@CRecordset@@IEAAXXZ @ 3163 NONAME
 ?ExecuteSQL@CDatabase@@QEAAXPEB_W@Z @ 3164 NONAME
 ?ExecuteUpdateSQL@CRecordset@@IEAAXXZ @ 3165 NONAME
 ?ExecWB@CHtmlView@@QEAAXW4OLECMDID@@W4OLECMDEXECOPT@@PEAUtagVARIANT@@2@Z @ 3166 NONAME
 ?ExitHelpMode@CFrameWnd@@UEAAXXZ @ 3167 NONAME
 ?ExitInstance@COleControlModule@@UEAAHXZ @ 3168 NONAME
 ?ExitInstance@CWinApp@@UEAAHXZ @ 3169 NONAME
 ?ExitInstance@CWinThread@@UEAAHXZ @ 3170 NONAME
 ?Expand@CTreeCtrl@@QEAAHPEAU_TREEITEM@@I@Z @ 3171 NONAME
 ?ExternalAddRef@CCmdTarget@@QEAAKXZ @ 3172 NONAME
 ?ExternalDisconnect@CCmdTarget@@QEAAXXZ @ 3173 NONAME
 ?ExternalQueryInterface@CCmdTarget@@QEAAKPEBXPEAPEAX@Z @ 3174 NONAME
 ?ExternalRelease@CCmdTarget@@QEAAKXZ @ 3175 NONAME
 ?ExtFloodFill@CDC@@QEAAHHHKI@Z @ 3176 NONAME
 ?ExtractIconW@CImageList@@QEAAPEAUHICON__@@H@Z @ 3177 NONAME
 ?ExtTextOutW@CDC@@QEAAHHHIPEBUtagRECT@@AEBV?$CStringT@_WV?$StrTraitMFC_DLL@_WV?$ChTraitsCRT@_W@ATL@@@@@ATL@@PEAH@Z @ 3178 NONAME
 ?ExtTextOutW@CDC@@UEAAHHHIPEBUtagRECT@@PEB_WIPEAH@Z @ 3179 NONAME
 ?ExtTextOutW@CMetaFileDC@@QEAAHHHIPEBUtagRECT@@AEBV?$CStringT@_WV?$StrTraitMFC_DLL@_WV?$ChTraitsCRT@_W@ATL@@@@@ATL@@PEAH@Z @ 3180 NONAME
 ?ExtTextOutW@CMetaFileDC@@UEAAHHHIPEBUtagRECT@@PEB_WIPEAH@Z @ 3181 NONAME
 ?ExtTextOutW@CPreviewDC@@UEAAHHHIPEBUtagRECT@@PEB_WIPEAH@Z @ 3182 NONAME
 ?Fail@CDataExchange@@QEAAXXZ @ 3183 NONAME
 ?FailedToDo@XNotifyDBEvents@COleControlSite@@UEAAJKKQEAUtagDBNOTIFYREASON@@@Z @ 3184 NONAME
 ?FetchData@CRecordset@@QEAAFGJPEA_K@Z @ 3185 NONAME
 ?FillBuffer@CArchive@@QEAAXI@Z @ 3186 NONAME
 ?FillInLogFont@CFontDialog@@QEAAKAEBU_charformatw@@@Z @ 3187 NONAME
 ?FillInToolInfo@CToolTipCtrl@@QEBAXAEAUtagTOOLINFOW@@PEAVCWnd@@_K@Z @ 3188 NONAME
 ?FillListSitesOrWnds@COleControlContainer@@UEAAHPEAU_AFX_OCC_DIALOG_INFO@@@Z @ 3189 NONAME
 ?FillOutsideRect@CScrollView@@QEAAXPEAVCDC@@PEAVCBrush@@@Z @ 3190 NONAME
 ?FillPath@CDC@@QEAAHXZ @ 3191 NONAME
 ?FillRect@CDC@@QEAAXPEBUtagRECT@@PEAVCBrush@@@Z @ 3192 NONAME
 ?FillRgn@CDC@@QEAAHPEAVCRgn@@PEAVCBrush@@@Z @ 3193 NONAME
 ?FillSolidRect@CDC@@QEAAXHHHHK@Z @ 3194 NONAME
 ?FillSolidRect@CDC@@QEAAXPEBUtagRECT@@K@Z @ 3195 NONAME
 ?FilterDataObject@CBrowserControlSite@@MEAAJPEAUIDataObject@@PEAPEAU2@@Z @ 3196 NONAME
 ?FilterDataObject@CDHtmlDialog@@UEAAJPEAUIDataObject@@PEAPEAU2@@Z @ 3197 NONAME
 ?FilterDataObject@XDocHostUIHandler@CHtmlControlSite@@UEAAJPEAUIDataObject@@PEAPEAU3@@Z @ 3198 NONAME
 ?FilterToolTipMessage@CWnd@@QEAAXPEAUtagMSG@@@Z @ 3199 NONAME
 ?Find@?$CStringT@_WV?$StrTraitMFC_DLL@_WV?$ChTraitsCRT@_W@ATL@@@@@ATL@@QEBAH_WH@Z @ 3200 NONAME
 ?Find@?$CStringT@_WV?$StrTraitMFC_DLL@_WV?$ChTraitsCRT@_W@ATL@@@@@ATL@@QEBAHPEB_WH@Z @ 3201 NONAME
 ?Find@?$CStringT@DV?$StrTraitMFC_DLL@DV?$ChTraitsCRT@D@ATL@@@@@ATL@@QEBAHDH@Z @ 3202 NONAME
 ?Find@?$CStringT@DV?$StrTraitMFC_DLL@DV?$ChTraitsCRT@D@ATL@@@@@ATL@@QEBAHPEBDH@Z @ 3203 NONAME
 ?Find@CObList@@QEBAPEAU__POSITION@@PEAVCObject@@PEAU2@@Z @ 3204 NONAME
 ?Find@CPtrList@@QEBAPEAU__POSITION@@PEAXPEAU2@@Z @ 3205 NONAME
 ?Find@CStringList@@QEBAPEAU__POSITION@@PEB_WPEAU2@@Z @ 3206 NONAME
 ?FindAndSelect@CRichEditView@@QEAAJKAEAU_findtextexw@@@Z @ 3207 NONAME
 ?FindBar@CDockBar@@QEAAHPEAVCControlBar@@H@Z @ 3208 NONAME
 ?FindConnectionPoint@COleConnPtContainer@@UEAAJAEBU_GUID@@PEAPEAUIConnectionPoint@@@Z @ 3209 NONAME
 ?FindDHtmlEventEntry@CDHtmlEventSink@@QEAAHPEBUDHtmlEventMapEntry@@JPEAPEAUIHTMLElement@@@Z @ 3210 NONAME
 ?FindFile@CFileFind@@UEAAHPEB_WK@Z @ 3211 NONAME
 ?FindFile@CFtpFileFind@@UEAAHPEB_WK@Z @ 3212 NONAME
 ?FindFile@CGopherFileFind@@UEAAHAEAVCGopherLocator@@PEB_WK@Z @ 3213 NONAME
 ?FindFile@CGopherFileFind@@UEAAHPEB_WK@Z @ 3214 NONAME
 ?FindIndex@CObList@@QEBAPEAU__POSITION@@_J@Z @ 3215 NONAME
 ?FindIndex@CPtrList@@QEBAPEAU__POSITION@@_J@Z @ 3216 NONAME
 ?FindIndex@CStringList@@QEBAPEAU__POSITION@@_J@Z @ 3217 NONAME
 ?FindItem@CListCtrl@@QEBAHPEAUtagLVFINDINFOW@@H@Z @ 3218 NONAME
 ?FindItem@COleControlContainer@@UEBAPEAVCOleControlSite@@I@Z @ 3219 NONAME
 ?FindNext@CFindReplaceDialog@@QEBAHXZ @ 3220 NONAME
 ?FindNextFileW@CFileFind@@UEAAHXZ @ 3221 NONAME
 ?FindNextFileW@CFtpFileFind@@UEAAHXZ @ 3222 NONAME
 ?FindNextFileW@CGopherFileFind@@UEAAHXZ @ 3223 NONAME
 ?FindOneOf@?$CStringT@_WV?$StrTraitMFC_DLL@_WV?$ChTraitsCRT@_W@ATL@@@@@ATL@@QEBAHPEB_W@Z @ 3224 NONAME
 ?FindOneOf@?$CStringT@DV?$StrTraitMFC_DLL@DV?$ChTraitsCRT@D@ATL@@@@@ATL@@QEBAHPEBD@Z @ 3225 NONAME
 ?FindPageRect@CPreviewView@@IEAAHAEAVCPoint@@AEAI@Z @ 3226 NONAME
 ?FindSinkForObject@CDHtmlDialog@@IEAAHPEB_W@Z @ 3227 NONAME
 ?FindSiteOrWnd@CWnd@@QEBAPEAU__POSITION@@PEBUCOleControlSiteOrWnd@@@Z @ 3228 NONAME
 ?FindSiteOrWndWithFocus@CWnd@@QEBAPEAU__POSITION@@XZ @ 3229 NONAME
 ?FindSQLToken@CRecordset@@SAPEB_WPEB_W0@Z @ 3230 NONAME
 ?FindString@CComboBox@@QEBAHHPEB_W@Z @ 3231 NONAME
 ?FindString@CComboBoxEx@@QEBAHHPEB_W@Z @ 3232 NONAME
 ?FindString@CListBox@@QEBAHHPEB_W@Z @ 3233 NONAME
 ?FindStringExact@CComboBox@@QEBAHHPEB_W@Z @ 3234 NONAME
 ?FindStringExact@CListBox@@QEBAHHPEB_W@Z @ 3235 NONAME
 ?FindTextSimple@CRichEditView@@QEAAHPEAV_AFX_RICHEDIT_STATE@@@Z @ 3236 NONAME
 ?FindTextSimple@CRichEditView@@QEAAHPEB_WHHH@Z @ 3237 NONAME
 ?FindTextW@CEditView@@QEAAHPEB_WHH@Z @ 3238 NONAME
 ?FindTextW@CRichEditCtrl@@QEBAJKPEAU_findtextexw@@@Z @ 3239 NONAME
 ?FindTextW@CRichEditView@@QEAAHPEAV_AFX_RICHEDIT_STATE@@@Z @ 3240 NONAME
 ?FindTextW@CRichEditView@@QEAAHPEB_WHHH@Z @ 3241 NONAME
 ?FindWindowExW@CWnd@@SAPEAV1@PEAUHWND__@@0PEB_W1@Z @ 3242 NONAME
 ?FindWindowW@CWnd@@SAPEAV1@PEB_W0@Z @ 3243 NONAME
 ?FindWordBreak@CRichEditCtrl@@QEBAKIK@Z @ 3244 NONAME
 ?FinishCreate@COleClientItem@@MEAAHJ@Z @ 3245 NONAME
 ?FireClick@COleControl@@QEAAXXZ @ 3246 NONAME
 ?FireDblClick@COleControl@@QEAAXXZ @ 3247 NONAME
 ?FireError@COleControl@@QEAAXJPEB_WI@Z @ 3248 NONAME
 ?FireEvent@COleControl@@QEAAXJPEAEZZ @ 3249 NONAME
 ?FireEvent@XNotifyDBEvents@COleControlSite@@QEAAJKKQEAUtagDBNOTIFYREASON@@W4DSCSTATE@@@Z @ 3250 NONAME
 ?FireEventV@COleControl@@IEAAXJPEAEPEAD@Z @ 3251 NONAME
 ?FireKeyDown@COleControl@@QEAAXPEAGF@Z @ 3252 NONAME
 ?FireKeyPress@COleControl@@QEAAXPEAG@Z @ 3253 NONAME
 ?FireKeyUp@COleControl@@QEAAXPEAGF@Z @ 3254 NONAME
 ?FireMouseDown@COleControl@@QEAAXFFJJ@Z @ 3255 NONAME
 ?FireMouseMove@COleControl@@QEAAXFFJJ@Z @ 3256 NONAME
 ?FireMouseUp@COleControl@@QEAAXFFJJ@Z @ 3257 NONAME
 ?FireReadyStateChange@COleControl@@QEAAXXZ @ 3258 NONAME
 ?Fixups@CRecordset@@QEAAXXZ @ 3259 NONAME
 ?FlashWindow@CWnd@@QEAAHH@Z @ 3260 NONAME
 ?FlattenPath@CDC@@QEAAHXZ @ 3261 NONAME
 ?FloatControlBar@CFrameWnd@@QEAAXPEAVCControlBar@@VCPoint@@K@Z @ 3262 NONAME
 ?FloodFill@CDC@@QEAAHHHK@Z @ 3263 NONAME
 ?Flush@CArchive@@QEAAXXZ @ 3264 NONAME
 ?Flush@CDumpContext@@QEAAXXZ @ 3265 NONAME
 ?Flush@CFile@@UEAAXXZ @ 3266 NONAME
 ?Flush@CInternetFile@@UEAAXXZ @ 3267 NONAME
 ?Flush@CMemFile@@UEAAXXZ @ 3268 NONAME
 ?Flush@CMonikerFile@@UEAAXXZ @ 3269 NONAME
 ?Flush@COleStreamFile@@UEAAXXZ @ 3270 NONAME
 ?Flush@CSocketFile@@UEAAXXZ @ 3271 NONAME
 ?Flush@CStdioFile@@UEAAXXZ @ 3272 NONAME
 ?FlushClipboard@COleDataSource@@SAXXZ @ 3273 NONAME
 ?FlushResultSet@CRecordset@@QEAAHXZ @ 3274 NONAME
 ?FmtLines@CEdit@@QEAAHH@Z @ 3275 NONAME
 ?Fork@?$CSimpleStringT@_W$00@ATL@@AEAAXH@Z @ 3276 NONAME
 ?Fork@?$CSimpleStringT@D$00@ATL@@AEAAXH@Z @ 3277 NONAME
 ?Format@?$CStringT@_WV?$StrTraitMFC_DLL@_WV?$ChTraitsCRT@_W@ATL@@@@@ATL@@QEAAXIZZ @ 3278 NONAME
 ?Format@?$CStringT@_WV?$StrTraitMFC_DLL@_WV?$ChTraitsCRT@_W@ATL@@@@@ATL@@QEAAXPEB_WZZ @ 3279 NONAME
 ?Format@?$CStringT@DV?$StrTraitMFC_DLL@DV?$ChTraitsCRT@D@ATL@@@@@ATL@@QEAAXIZZ @ 3280 NONAME
 ?Format@?$CStringT@DV?$StrTraitMFC_DLL@DV?$ChTraitsCRT@D@ATL@@@@@ATL@@QEAAXPEBDZZ @ 3281 NONAME
 ?Format@COleCurrency@@QEBA?AV?$CStringT@_WV?$StrTraitMFC_DLL@_WV?$ChTraitsCRT@_W@ATL@@@@@ATL@@KK@Z @ 3282 NONAME
 ?FormatMessage@?$CStringT@_WV?$StrTraitMFC_DLL@_WV?$ChTraitsCRT@_W@ATL@@@@@ATL@@QEAAXIZZ @ 3283 NONAME
 ?FormatMessage@?$CStringT@_WV?$StrTraitMFC_DLL@_WV?$ChTraitsCRT@_W@ATL@@@@@ATL@@QEAAXPEB_WZZ @ 3284 NONAME
 ?FormatMessage@?$CStringT@DV?$StrTraitMFC_DLL@DV?$ChTraitsCRT@D@ATL@@@@@ATL@@QEAAXIZZ @ 3285 NONAME
 ?FormatMessage@?$CStringT@DV?$StrTraitMFC_DLL@DV?$ChTraitsCRT@D@ATL@@@@@ATL@@QEAAXPEBDZZ @ 3286 NONAME
 ?FormatMessageV@?$CStringT@_WV?$StrTraitMFC_DLL@_WV?$ChTraitsCRT@_W@ATL@@@@@ATL@@QEAAXPEB_WPEAPEAD@Z @ 3287 NONAME
 ?FormatMessageV@?$CStringT@DV?$StrTraitMFC_DLL@DV?$ChTraitsCRT@D@ATL@@@@@ATL@@QEAAXPEBDPEAPEAD@Z @ 3288 NONAME
 ?FormatMessageW@?$CStringT@_WV?$StrTraitMFC_DLL@_WV?$ChTraitsCRT@_W@ATL@@@@@ATL@@QEAAXIZZ @ 3289 NONAME
 ?FormatMessageW@?$CStringT@_WV?$StrTraitMFC_DLL@_WV?$ChTraitsCRT@_W@ATL@@@@@ATL@@QEAAXPEB_WZZ @ 3290 NONAME
 ?FormatMessageW@?$CStringT@DV?$StrTraitMFC_DLL@DV?$ChTraitsCRT@D@ATL@@@@@ATL@@QEAAXIZZ @ 3291 NONAME
 ?FormatMessageW@?$CStringT@DV?$StrTraitMFC_DLL@DV?$ChTraitsCRT@D@ATL@@@@@ATL@@QEAAXPEBDZZ @ 3292 NONAME
 ?FormatRange@CRichEditCtrl@@QEAAJPEAU_formatrange@@H@Z @ 3293 NONAME
 ?FormatV@?$CStringT@_WV?$StrTraitMFC_DLL@_WV?$ChTraitsCRT@_W@ATL@@@@@ATL@@QEAAXPEB_WPEAD@Z @ 3294 NONAME
 ?FormatV@?$CStringT@DV?$StrTraitMFC_DLL@DV?$ChTraitsCRT@D@ATL@@@@@ATL@@QEAAXPEBDPEAD@Z @ 3295 NONAME
 ?ForwardActivationMsg@COleControl@@IEAAXPEAUtagMSG@@@Z @ 3296 NONAME
 ?FrameRect@CDC@@QEAAXPEBUtagRECT@@PEAVCBrush@@@Z @ 3297 NONAME
 ?FrameRgn@CDC@@QEAAHPEAVCRgn@@PEAVCBrush@@HH@Z @ 3298 NONAME
 ?Free@CAfxStringMgr@@UEAAXPEAUCStringData@ATL@@@Z @ 3299 NONAME
 ?Free@CDatabase@@IEAAXXZ @ 3300 NONAME
 ?Free@CFixedAlloc@@QEAAXPEAX@Z @ 3301 NONAME
 ?Free@CFixedAllocNoSync@@QEAAXPEAX@Z @ 3302 NONAME
 ?Free@CMemFile@@MEAAXPEAE@Z @ 3303 NONAME
 ?Free@CSharedFile@@MEAAXPEAE@Z @ 3304 NONAME
 ?FreeAll@CFixedAlloc@@QEAAXXZ @ 3305 NONAME
 ?FreeAll@CFixedAllocNoSync@@QEAAXXZ @ 3306 NONAME
 ?FreeAssoc@CMapPtrToPtr@@IEAAXPEAUCAssoc@1@@Z @ 3307 NONAME
 ?FreeAssoc@CMapPtrToWord@@IEAAXPEAUCAssoc@1@@Z @ 3308 NONAME
 ?FreeAssoc@CMapStringToOb@@IEAAXPEAUCAssoc@1@@Z @ 3309 NONAME
 ?FreeAssoc@CMapStringToPtr@@IEAAXPEAUCAssoc@1@@Z @ 3310 NONAME
 ?FreeAssoc@CMapStringToString@@IEAAXPEAVCAssoc@1@@Z @ 3311 NONAME
 ?FreeAssoc@CMapWordToOb@@IEAAXPEAUCAssoc@1@@Z @ 3312 NONAME
 ?FreeAssoc@CMapWordToPtr@@IEAAXPEAUCAssoc@1@@Z @ 3313 NONAME
 ?FreeDataCache@CRecordset@@QEAAXXZ @ 3314 NONAME
 ?FreeDataChain@CPlex@@QEAAXXZ @ 3315 NONAME
 ?FreeExtra@?$CSimpleStringT@_W$00@ATL@@QEAAXXZ @ 3316 NONAME
 ?FreeExtra@?$CSimpleStringT@D$00@ATL@@QEAAXXZ @ 3317 NONAME
 ?FreeExtra@CByteArray@@QEAAXXZ @ 3318 NONAME
 ?FreeExtra@CDWordArray@@QEAAXXZ @ 3319 NONAME
 ?FreeExtra@CObArray@@QEAAXXZ @ 3320 NONAME
 ?FreeExtra@CPtrArray@@QEAAXXZ @ 3321 NONAME
 ?FreeExtra@CStringArray@@QEAAXXZ @ 3322 NONAME
 ?FreeExtra@CUIntArray@@QEAAXXZ @ 3323 NONAME
 ?FreeExtra@CWordArray@@QEAAXXZ @ 3324 NONAME
 ?FreeNode@CObList@@IEAAXPEAUCNode@1@@Z @ 3325 NONAME
 ?FreeNode@CPtrList@@IEAAXPEAUCNode@1@@Z @ 3326 NONAME
 ?FreeNode@CStringList@@IEAAXPEAUCNode@1@@Z @ 3327 NONAME
 ?FreeRowset@CRecordset@@IEAAXXZ @ 3328 NONAME
 ?FreeSlot@CThreadSlotData@@QEAAXH@Z @ 3329 NONAME
 ?FreeValue@CProperty@@AEAAXXZ @ 3330 NONAME
 ?Freeze@XViewObject@COleControl@@UEAAJKJPEAXPEAK@Z @ 3331 NONAME
 ?FreezeAllEvents@COleControlContainer@@QEAAXH@Z @ 3332 NONAME
 ?FreezeEvents@COleControlSite@@QEAAXH@Z @ 3333 NONAME
 ?FreezeEvents@XOleControl@COleControl@@UEAAJH@Z @ 3334 NONAME
 ?FreezeLink@COleClientItem@@UEAAHXZ @ 3335 NONAME
 ?FromHandle@CAsyncSocket@@SAPEAV1@_K@Z @ 3336 NONAME
 ?FromHandle@CBitmap@@SAPEAV1@PEAUHBITMAP__@@@Z @ 3337 NONAME
 ?FromHandle@CBrush@@SAPEAV1@PEAUHBRUSH__@@@Z @ 3338 NONAME
 ?FromHandle@CDC@@SAPEAV1@PEAUHDC__@@@Z @ 3339 NONAME
 ?FromHandle@CFont@@SAPEAV1@PEAUHFONT__@@@Z @ 3340 NONAME
 ?FromHandle@CGdiObject@@SAPEAV1@PEAX@Z @ 3341 NONAME
 ?FromHandle@CHandleMap@@QEAAPEAVCObject@@PEAX@Z @ 3342 NONAME
 ?FromHandle@CImageList@@SAPEAV1@PEAU_IMAGELIST@@@Z @ 3343 NONAME
 ?FromHandle@CMenu@@SAPEAV1@PEAUHMENU__@@@Z @ 3344 NONAME
 ?FromHandle@CPalette@@SAPEAV1@PEAUHPALETTE__@@@Z @ 3345 NONAME
 ?FromHandle@CPen@@SAPEAV1@PEAUHPEN__@@@Z @ 3346 NONAME
 ?FromHandle@CRgn@@SAPEAV1@PEAUHRGN__@@@Z @ 3347 NONAME
 ?FromHandle@CSocket@@SAPEAV1@_K@Z @ 3348 NONAME
 ?FromHandle@CWnd@@SAPEAV1@PEAUHWND__@@@Z @ 3349 NONAME
 ?FromHandlePermanent@CImageList@@SAPEAV1@PEAU_IMAGELIST@@@Z @ 3350 NONAME
 ?FromHandlePermanent@CMenu@@SAPEAV1@PEAUHMENU__@@@Z @ 3351 NONAME
 ?FromHandlePermanent@CWnd@@SAPEAV1@PEAUHWND__@@@Z @ 3352 NONAME
 ?FromIDispatch@CCmdTarget@@SAPEAV1@PEAUIDispatch@@@Z @ 3353 NONAME
 ?FromName@CRuntimeClass@@SAPEAU1@PEB_W@Z @ 3354 NONAME
 ?FromName@CRuntimeClass@@SAPEAU1@PEBD@Z @ 3355 NONAME
 ?Get@CProperty@@QEAAPEAXPEAK@Z @ 3356 NONAME
 ?Get@CProperty@@QEAAPEAXXZ @ 3357 NONAME
 ?Get@CPropertySection@@QEAAPEAXK@Z @ 3358 NONAME
 ?Get@CPropertySection@@QEAAPEAXKPEAK@Z @ 3359 NONAME
 ?Get@CPropertySet@@QEAAPEAXU_GUID@@K@Z @ 3360 NONAME
 ?Get@CPropertySet@@QEAAPEAXU_GUID@@KPEAK@Z @ 3361 NONAME
 ?get_accChild@CWnd@@UEAAJUtagVARIANT@@PEAPEAUIDispatch@@@Z @ 3362 NONAME
 ?get_accChild@XAccessible@CWnd@@UEAAJUtagVARIANT@@PEAPEAUIDispatch@@@Z @ 3363 NONAME
 ?get_accChildCount@CWnd@@UEAAJPEAJ@Z @ 3364 NONAME
 ?get_accChildCount@XAccessible@CWnd@@UEAAJPEAJ@Z @ 3365 NONAME
 ?get_accDefaultAction@CCheckListBox@@MEAAJUtagVARIANT@@PEAPEA_W@Z @ 3366 NONAME
 ?get_accDefaultAction@CWnd@@UEAAJUtagVARIANT@@PEAPEA_W@Z @ 3367 NONAME
 ?get_accDefaultAction@XAccessible@CWnd@@UEAAJUtagVARIANT@@PEAPEA_W@Z @ 3368 NONAME
 ?get_accDescription@CWnd@@UEAAJUtagVARIANT@@PEAPEA_W@Z @ 3369 NONAME
 ?get_accDescription@XAccessible@CWnd@@UEAAJUtagVARIANT@@PEAPEA_W@Z @ 3370 NONAME
 ?get_accFocus@CWnd@@UEAAJPEAUtagVARIANT@@@Z @ 3371 NONAME
 ?get_accFocus@XAccessible@CWnd@@UEAAJPEAUtagVARIANT@@@Z @ 3372 NONAME
 ?get_accHelp@CWnd@@UEAAJUtagVARIANT@@PEAPEA_W@Z @ 3373 NONAME
 ?get_accHelp@XAccessible@CWnd@@UEAAJUtagVARIANT@@PEAPEA_W@Z @ 3374 NONAME
 ?get_accHelpTopic@CWnd@@UEAAJPEAPEA_WUtagVARIANT@@PEAJ@Z @ 3375 NONAME
 ?get_accHelpTopic@XAccessible@CWnd@@UEAAJPEAPEA_WUtagVARIANT@@PEAJ@Z @ 3376 NONAME
 ?get_accKeyboardShortcut@CWnd@@UEAAJUtagVARIANT@@PEAPEA_W@Z @ 3377 NONAME
 ?get_accKeyboardShortcut@XAccessible@CWnd@@UEAAJUtagVARIANT@@PEAPEA_W@Z @ 3378 NONAME
 ?get_accName@CToolBar@@UEAAJUtagVARIANT@@PEAPEA_W@Z @ 3379 NONAME
 ?get_accName@CWnd@@UEAAJUtagVARIANT@@PEAPEA_W@Z @ 3380 NONAME
 ?get_accName@XAccessible@CWnd@@UEAAJUtagVARIANT@@PEAPEA_W@Z @ 3381 NONAME
 ?get_accParent@CWnd@@UEAAJPEAPEAUIDispatch@@@Z @ 3382 NONAME
 ?get_accParent@XAccessible@CWnd@@UEAAJPEAPEAUIDispatch@@@Z @ 3383 NONAME
 ?get_accRole@CCheckListBox@@MEAAJUtagVARIANT@@PEAU2@@Z @ 3384 NONAME
 ?get_accRole@CWnd@@UEAAJUtagVARIANT@@PEAU2@@Z @ 3385 NONAME
 ?get_accRole@XAccessible@CWnd@@UEAAJUtagVARIANT@@PEAU3@@Z @ 3386 NONAME
 ?get_accSelection@CWnd@@UEAAJPEAUtagVARIANT@@@Z @ 3387 NONAME
 ?get_accSelection@XAccessible@CWnd@@UEAAJPEAUtagVARIANT@@@Z @ 3388 NONAME
 ?get_accState@CCheckListBox@@MEAAJUtagVARIANT@@PEAU2@@Z @ 3389 NONAME
 ?get_accState@CWnd@@UEAAJUtagVARIANT@@PEAU2@@Z @ 3390 NONAME
 ?get_accState@XAccessible@CWnd@@UEAAJUtagVARIANT@@PEAU3@@Z @ 3391 NONAME
 ?get_accValue@CWnd@@UEAAJUtagVARIANT@@PEAPEA_W@Z @ 3392 NONAME
 ?get_accValue@XAccessible@CWnd@@UEAAJUtagVARIANT@@PEAPEA_W@Z @ 3393 NONAME
 ?GetAccel@CSpinButtonCtrl@@QEBAIHPEAU_UDACCEL@@@Z @ 3394 NONAME
 ?GetAccessibilityHitTest@CWnd@@QEAAJJJPEAUtagVARIANT@@@Z @ 3395 NONAME
 ?GetAccessibilityLocation@CWnd@@QEAAJUtagVARIANT@@PEAJ111@Z @ 3396 NONAME
 ?GetAccessibleChild@CWnd@@QEAAJUtagVARIANT@@PEAPEAUIDispatch@@@Z @ 3397 NONAME
 ?GetAccessibleChildCount@CWnd@@QEAAJXZ @ 3398 NONAME
 ?GetAccessibleName@CWnd@@QEAAJUtagVARIANT@@PEAPEA_W@Z @ 3399 NONAME
 ?GetActivationPolicy@COleControl@@UEAAKXZ @ 3400 NONAME
 ?GetActivationPolicy@XPointerInactive@COleControl@@UEAAJPEAK@Z @ 3401 NONAME
 ?GetActiveDocument@CFrameWnd@@UEAAPEAVCDocument@@XZ @ 3402 NONAME
 ?GetActiveFrame@CFrameWnd@@UEAAPEAV1@XZ @ 3403 NONAME
 ?GetActiveFrame@CMDIFrameWnd@@UEAAPEAVCFrameWnd@@XZ @ 3404 NONAME
 ?GetActiveIndex@CPropertySheet@@QEBAHXZ @ 3405 NONAME
 ?GetActivePage@CPropertySheet@@QEBAPEAVCPropertyPage@@XZ @ 3406 NONAME
 ?GetActivePane@CSplitterWnd@@IEAAPEAVCWnd@@AEAH0@Z @ 3407 NONAME
 ?GetActivePane@CSplitterWnd@@UEAAPEAVCWnd@@PEAH0@Z @ 3408 NONAME
 ?GetActiveView@CFrameWnd@@QEBAPEAVCView@@XZ @ 3409 NONAME
 ?GetActiveView@COleClientItem@@QEBAPEAVCView@@XZ @ 3410 NONAME
 ?GetActiveView@COleDocObjectItem@@QEBAPEAUIOleDocumentView@@XZ @ 3411 NONAME
 ?GetActiveView@CRichEditCntrItem@@QEAAPEAVCRichEditView@@XZ @ 3412 NONAME
 ?GetActiveWindow@CWnd@@SAPEAV1@XZ @ 3413 NONAME
 ?GetAddress@CIPAddressCtrl@@QEBAHAEAE000@Z @ 3414 NONAME
 ?GetAddress@CIPAddressCtrl@@QEBAHAEAK@Z @ 3415 NONAME
 ?GetAddressBar@CHtmlView@@QEBAHXZ @ 3416 NONAME
 ?GetAdvise@XViewObject@COleControl@@UEAAJPEAK0PEAPEAUIAdviseSink@@@Z @ 3417 NONAME
 ?GetAllocLength@?$CSimpleStringT@_W$00@ATL@@QEBAHXZ @ 3418 NONAME
 ?GetAllocLength@?$CSimpleStringT@D$00@ATL@@QEBAHXZ @ 3419 NONAME
 ?GetAmbientDispatchDriver@COleControl@@IEAAPEAVCOleDispatchDriver@@XZ @ 3420 NONAME
 ?GetAmbientProp@COleControlContainer@@UEAAHPEAVCOleControlSite@@JPEAUtagVARIANT@@@Z @ 3421 NONAME
 ?GetAmbientProperty@COleControl@@QEAAHJGPEAX@Z @ 3422 NONAME
 ?GetAnchorHighlight@CToolBarCtrl@@QEBAHXZ @ 3423 NONAME
 ?GetAnchorIndex@CListBox@@QEBAHXZ @ 3424 NONAME
 ?GetAppearance@COleControl@@QEAAFXZ @ 3425 NONAME
 ?GetApplication@CHtmlView@@QEBAPEAUIDispatch@@XZ @ 3426 NONAME
 ?GetAppRegistryKey@CWinApp@@QEAAPEAUHKEY__@@XZ @ 3427 NONAME
 ?GetArcDirection@CDC@@QEBAHXZ @ 3428 NONAME
 ?GetAspectRatioFilter@CDC@@QEBA?AVCSize@@XZ @ 3429 NONAME
 ?GetAssocAt@CMapPtrToPtr@@IEBAPEAUCAssoc@1@PEAXAEAI1@Z @ 3430 NONAME
 ?GetAssocAt@CMapPtrToWord@@IEBAPEAUCAssoc@1@PEAXAEAI1@Z @ 3431 NONAME
 ?GetAssocAt@CMapStringToOb@@IEBAPEAUCAssoc@1@PEB_WAEAI1@Z @ 3432 NONAME
 ?GetAssocAt@CMapStringToPtr@@IEBAPEAUCAssoc@1@PEB_WAEAI1@Z @ 3433 NONAME
 ?GetAssocAt@CMapStringToString@@IEBAPEAVCAssoc@1@PEB_WAEAI1@Z @ 3434 NONAME
 ?GetAssocAt@CMapWordToOb@@IEBAPEAUCAssoc@1@GAEAI0@Z @ 3435 NONAME
 ?GetAssocAt@CMapWordToPtr@@IEBAPEAUCAssoc@1@GAEAI0@Z @ 3436 NONAME
 ?GetAt@?$CSimpleStringT@_W$00@ATL@@QEBA_WH@Z @ 3437 NONAME
 ?GetAt@?$CSimpleStringT@D$00@ATL@@QEBADH@Z @ 3438 NONAME
 ?GetAt@CByteArray@@QEBAE_J@Z @ 3439 NONAME
 ?GetAt@CDWordArray@@QEBAK_J@Z @ 3440 NONAME
 ?GetAt@CObArray@@QEBAPEAVCObject@@_J@Z @ 3441 NONAME
 ?GetAt@CObList@@QEAAAEAPEAVCObject@@PEAU__POSITION@@@Z @ 3442 NONAME
 ?GetAt@CObList@@QEBAPEBVCObject@@PEAU__POSITION@@@Z @ 3443 NONAME
 ?GetAt@CPtrArray@@QEBAPEAX_J@Z @ 3444 NONAME
 ?GetAt@CPtrList@@QEAAAEAPEAXPEAU__POSITION@@@Z @ 3445 NONAME
 ?GetAt@CPtrList@@QEBAPEBXPEAU__POSITION@@@Z @ 3446 NONAME
 ?GetAt@CStringArray@@QEBAAEBV?$CStringT@_WV?$StrTraitMFC_DLL@_WV?$ChTraitsCRT@_W@ATL@@@@@ATL@@_J@Z @ 3447 NONAME
 ?GetAt@CStringList@@QEAAAEAV?$CStringT@_WV?$StrTraitMFC_DLL@_WV?$ChTraitsCRT@_W@ATL@@@@@ATL@@PEAU__POSITION@@@Z @ 3448 NONAME
 ?GetAt@CStringList@@QEBAAEBV?$CStringT@_WV?$StrTraitMFC_DLL@_WV?$ChTraitsCRT@_W@ATL@@@@@ATL@@PEAU__POSITION@@@Z @ 3449 NONAME
 ?GetAt@CUIntArray@@QEBAI_J@Z @ 3450 NONAME
 ?GetAt@CWordArray@@QEBAG_J@Z @ 3451 NONAME
 ?GetAttribute@CGopherConnection@@QEAAHAEAVCGopherLocator@@V?$CStringT@_WV?$StrTraitMFC_DLL@_WV?$ChTraitsCRT@_W@ATL@@@@@ATL@@AEAV34@@Z @ 3452 NONAME
 ?GetBackColor@COleControl@@QEAAKXZ @ 3453 NONAME
 ?GetBandBorders@CReBarCtrl@@QEBAXIPEAUtagRECT@@@Z @ 3454 NONAME
 ?GetBandCount@CReBarCtrl@@QEBAIXZ @ 3455 NONAME
 ?GetBandInfo@CReBarCtrl@@QEBAHIPEAUtagREBARBANDINFOW@@@Z @ 3456 NONAME
 ?GetBarColor@CProgressCtrl@@QEBAKXZ @ 3457 NONAME
 ?GetBarHeight@CReBarCtrl@@QEBAIXZ @ 3458 NONAME
 ?GetBarInfo@CControlBar@@QEAAXPEAVCControlBarInfo@@@Z @ 3459 NONAME
 ?GetBarInfo@CDockBar@@QEAAXPEAVCControlBarInfo@@@Z @ 3460 NONAME
 ?GetBarInfo@CReBarCtrl@@QEBAHPEAUtagREBARINFO@@@Z @ 3461 NONAME
 ?GetBarStyle@CControlBar@@QEAAKXZ @ 3462 NONAME
 ?GetBase@CSpinButtonCtrl@@QEBAIXZ @ 3463 NONAME
 ?GetBindInfo@CAsyncMonikerFile@@MEBAKXZ @ 3464 NONAME
 ?GetBinding@CAsyncMonikerFile@@QEBAPEAUIBinding@@XZ @ 3465 NONAME
 ?GetBitmap@CBitmap@@QEAAHPEAUtagBITMAP@@@Z @ 3466 NONAME
 ?GetBitmap@CButton@@QEBAPEAUHBITMAP__@@XZ @ 3467 NONAME
 ?GetBitmap@CStatic@@QEBAPEAUHBITMAP__@@XZ @ 3468 NONAME
 ?GetBitmap@CToolBarCtrl@@QEBAHH@Z @ 3469 NONAME
 ?GetBitmapBits@CBitmap@@QEBAKKPEAX@Z @ 3470 NONAME
 ?GetBitmapDimension@CBitmap@@QEBA?AVCSize@@XZ @ 3471 NONAME
 ?GetBitmapFlags@CToolBarCtrl@@QEBAIXZ @ 3472 NONAME
 ?GetBitmapMargin@CHeaderCtrl@@QEBAHXZ @ 3473 NONAME
 ?GetBkColor@CDC@@QEBAKXZ @ 3474 NONAME
 ?GetBkColor@CImageList@@QEBAKXZ @ 3475 NONAME
 ?GetBkColor@CListCtrl@@QEBAKXZ @ 3476 NONAME
 ?GetBkColor@CProgressCtrl@@QEBAKXZ @ 3477 NONAME
 ?GetBkColor@CReBarCtrl@@QEBAKXZ @ 3478 NONAME
 ?GetBkColor@CTreeCtrl@@QEBAKXZ @ 3479 NONAME
 ?GetBkImage@CListCtrl@@QEBAHPEAUtagLVBKIMAGEW@@@Z @ 3480 NONAME
 ?GetBkMode@CDC@@QEBAHXZ @ 3481 NONAME
 ?GetBlob@CBlobProperty@@QEAAPEAXXZ @ 3482 NONAME
 ?GetBookmark@CRecordset@@QEAAXAEAVCDBVariant@@@Z @ 3483 NONAME
 ?GetBookmarkPersistence@CDatabase@@QEBAKXZ @ 3484 NONAME
 ?GetBorder@XOleInPlaceFrame@COleFrameHook@@UEAAJPEAUtagRECT@@@Z @ 3485 NONAME
 ?GetBorder@XOleIPFrame@COleControlContainer@@UEAAJPEAUtagRECT@@@Z @ 3486 NONAME
 ?GetBorders@CControlBar@@QEBA?AVCRect@@XZ @ 3487 NONAME
 ?GetBorders@CStatusBarCtrl@@QEBAHAEAH00@Z @ 3488 NONAME
 ?GetBorders@CStatusBarCtrl@@QEBAHPEAH@Z @ 3489 NONAME
 ?GetBorderStyle@COleControl@@QEAAFXZ @ 3490 NONAME
 ?GetBoundClientRow@CDataSourceControl@@QEAAJXZ @ 3491 NONAME
 ?GetBoundFieldIndex@CRecordset@@QEAAHPEAX@Z @ 3492 NONAME
 ?GetBoundParamIndex@CRecordset@@QEAAHPEAX@Z @ 3493 NONAME
 ?GetBoundsRect@CDC@@QEAAIPEAUtagRECT@@I@Z @ 3494 NONAME
 ?GetBrushOrg@CDC@@QEBA?AVCPoint@@XZ @ 3495 NONAME
 ?GetBubbleSize@CToolTipCtrl@@QEBA?AVCSize@@PEAUtagTOOLINFOW@@@Z @ 3496 NONAME
 ?GetBuddy@CSliderCtrl@@QEBAPEAVCWnd@@H@Z @ 3497 NONAME
 ?GetBuddy@CSpinButtonCtrl@@QEBAPEAVCWnd@@XZ @ 3498 NONAME
 ?GetBuffer@?$CSimpleStringT@_W$00@ATL@@QEAAPEA_WH@Z @ 3499 NONAME
 ?GetBuffer@?$CSimpleStringT@_W$00@ATL@@QEAAPEA_WXZ @ 3500 NONAME
 ?GetBuffer@?$CSimpleStringT@D$00@ATL@@QEAAPEADH@Z @ 3501 NONAME
 ?GetBuffer@?$CSimpleStringT@D$00@ATL@@QEAAPEADXZ @ 3502 NONAME
 ?GetBufferLength@CEditView@@QEBAIXZ @ 3503 NONAME
 ?GetBufferPtr@CFile@@UEAAIIIPEAPEAX0@Z @ 3504 NONAME
 ?GetBufferPtr@CMemFile@@UEAAIIIPEAPEAX0@Z @ 3505 NONAME
 ?GetBufferPtr@CSocketFile@@UEAAIIIPEAPEAX0@Z @ 3506 NONAME
 ?GetBufferSetLength@?$CSimpleStringT@_W$00@ATL@@QEAAPEA_WH@Z @ 3507 NONAME
 ?GetBufferSetLength@?$CSimpleStringT@D$00@ATL@@QEAAPEADH@Z @ 3508 NONAME
 ?GetBusy@CHtmlView@@QEBAHXZ @ 3509 NONAME
 ?GetButton@CToolBarCtrl@@QEBAHHPEAU_TBBUTTON@@@Z @ 3510 NONAME
 ?GetButtonCount@CToolBarCtrl@@QEBAHXZ @ 3511 NONAME
 ?GetButtonInfo@CToolBar@@QEBAXHAEAI0AEAH@Z @ 3512 NONAME
 ?GetButtonInfo@CToolBarCtrl@@QEBAHHPEAUTBBUTTONINFOW@@@Z @ 3513 NONAME
 ?GetButtonSize@CToolBarCtrl@@QEBAKXZ @ 3514 NONAME
 ?GetButtonStyle@CButton@@QEBAIXZ @ 3515 NONAME
 ?GetButtonStyle@CToolBar@@QEBAIH@Z @ 3516 NONAME
 ?GetButtonText@CToolBar@@QEBA?AV?$CStringT@_WV?$StrTraitMFC_DLL@_WV?$ChTraitsCRT@_W@ATL@@@@@ATL@@H@Z @ 3517 NONAME
 ?GetButtonText@CToolBar@@QEBAXHAEAV?$CStringT@_WV?$StrTraitMFC_DLL@_WV?$ChTraitsCRT@_W@ATL@@@@@ATL@@@Z @ 3518 NONAME
 ?GetByteArray@COleSafeArray@@QEAAXAEAVCByteArray@@@Z @ 3519 NONAME
 ?GetByteArrayFromVariantArray@COleVariant@@QEAAXAEAVCByteArray@@@Z @ 3520 NONAME
 ?GetByteOrder@CPropertySet@@QEAAGXZ @ 3521 NONAME
 ?GetCachedExtent@COleClientItem@@QEAAHPEAUtagSIZE@@W4tagDVASPECT@@@Z @ 3522 NONAME
 ?GetCacheEntry@COleDataSource@@IEAAPEAUAFX_DATACACHE_ENTRY@@PEAUtagFORMATETC@@W4tagDATADIR@@@Z @ 3523 NONAME
 ?GetCalendarBorder@CMonthCalCtrl@@QEBAHXZ @ 3524 NONAME
 ?GetCalendarCount@CMonthCalCtrl@@QEBAHXZ @ 3525 NONAME
 ?GetCalendarGridInfo@CMonthCalCtrl@@QEBAHPEAUtagMCGRIDINFO@@@Z @ 3526 NONAME
 ?GetCalID@CMonthCalCtrl@@QEBAKXZ @ 3527 NONAME
 ?GetCallbackMask@CListCtrl@@QEBAIXZ @ 3528 NONAME
 ?GetCanonicalFormatEtc@XDataObject@COleControl@@UEAAJPEAUtagFORMATETC@@0@Z @ 3529 NONAME
 ?GetCanonicalFormatEtc@XDataObject@COleDataSource@@UEAAJPEAUtagFORMATETC@@0@Z @ 3530 NONAME
 ?GetCanonicalFormatEtc@XDataObject@COleServerDoc@@UEAAJPEAUtagFORMATETC@@0@Z @ 3531 NONAME
 ?GetCanonicalFormatEtc@XDataObject@COleServerItem@@UEAAJPEAUtagFORMATETC@@0@Z @ 3532 NONAME
 ?GetCapture@COleControl@@QEAAPEAVCWnd@@XZ @ 3533 NONAME
 ?GetCapture@CWnd@@SAPEAV1@XZ @ 3534 NONAME
 ?GetCapture@XOleIPSite@COleControlSite@@UEAAJXZ @ 3535 NONAME
 ?GetCaretIndex@CListBox@@QEBAHXZ @ 3536 NONAME
 ?GetCaretPos@CWnd@@SA?AVCPoint@@XZ @ 3537 NONAME
 ?GetChannelRect@CSliderCtrl@@QEBAXPEAUtagRECT@@@Z @ 3538 NONAME
 ?GetCharABCWidthsW@CDC@@QEBAHIIPEAU_ABC@@@Z @ 3539 NONAME
 ?GetCharABCWidthsW@CDC@@QEBAHIIPEAU_ABCFLOAT@@@Z @ 3540 NONAME
 ?GetCharacterPlacementW@CDC@@QEBAKAEAV?$CStringT@_WV?$StrTraitMFC_DLL@_WV?$ChTraitsCRT@_W@ATL@@@@@ATL@@HPEAUtagGCP_RESULTSW@@K@Z @ 3541 NONAME
 ?GetCharacterPlacementW@CDC@@QEBAKPEB_WHHPEAUtagGCP_RESULTSW@@K@Z @ 3542 NONAME
 ?GetCharFormat@CFontDialog@@QEBAXAEAU_charformatw@@@Z @ 3543 NONAME
 ?GetCharFormatSelection@CRichEditView@@QEAAAEAUCHARFORMAT2W@@XZ @ 3544 NONAME
 ?GetCharPos@CRichEditCtrl@@QEBA?AVCPoint@@J@Z @ 3545 NONAME
 ?GetCharWidthW@CDC@@QEBAHIIPEAH@Z @ 3546 NONAME
 ?GetCharWidthW@CDC@@QEBAHIIPEAM@Z @ 3547 NONAME
 ?GetCheck@CButton@@QEBAHXZ @ 3548 NONAME
 ?GetCheck@CCheckListBox@@QEAAHH@Z @ 3549 NONAME
 ?GetCheck@CListCtrl@@QEBAHH@Z @ 3550 NONAME
 ?GetCheck@CTreeCtrl@@QEBAHPEAU_TREEITEM@@@Z @ 3551 NONAME
 ?GetCheckedRadioButton@CWnd@@QEBAHHH@Z @ 3552 NONAME
 ?GetCheckStyle@CCheckListBox@@QEAAIXZ @ 3553 NONAME
 ?GetChildItem@CTreeCtrl@@QEBAPEAU_TREEITEM@@PEAU2@@Z @ 3554 NONAME
 ?GetClassID@CBlobProperty@@UEAAJPEAU_GUID@@@Z @ 3555 NONAME
 ?GetClassID@COleClientItem@@QEBAXPEAU_GUID@@@Z @ 3556 NONAME
 ?GetClassID@COleConvertDialog@@QEBAAEBU_GUID@@XZ @ 3557 NONAME
 ?GetClassID@COleInsertDialog@@QEBAAEBU_GUID@@XZ @ 3558 NONAME
 ?GetClassID@COleObjectFactory@@QEBAAEBU_GUID@@XZ @ 3559 NONAME
 ?GetClassID@CPropertySet@@QEAA?AU_GUID@@XZ @ 3560 NONAME
 ?GetClassID@XPersistFile@COleLinkingDoc@@UEAAJPEAU_GUID@@@Z @ 3561 NONAME
 ?GetClassID@XPersistMemory@COleControl@@UEAAJPEAU_GUID@@@Z @ 3562 NONAME
 ?GetClassID@XPersistPropertyBag@COleControl@@UEAAJPEAU_GUID@@@Z @ 3563 NONAME
 ?GetClassID@XPersistStorage@COleControl@@UEAAJPEAU_GUID@@@Z @ 3564 NONAME
 ?GetClassID@XPersistStorage@COleServerDoc@@UEAAJPEAU_GUID@@@Z @ 3565 NONAME
 ?GetClassID@XPersistStreamInit@COleControl@@UEAAJPEAU_GUID@@@Z @ 3566 NONAME
 ?GetClassInfoW@XProvideClassInfo@COleControl@@UEAAJPEAPEAUITypeInfo@@@Z @ 3567 NONAME
 ?GetClassObject@AFX_COM@@QEAAJAEBU_GUID@@0PEAPEAX@Z @ 3568 NONAME
 ?GetClientOffset@COleControl@@UEBAXPEAJ0@Z @ 3569 NONAME
 ?GetClientRect@COleControl@@UEBAXPEAUtagRECT@@@Z @ 3570 NONAME
 ?GetClientRect@CWnd@@QEBAXPEAUtagRECT@@@Z @ 3571 NONAME
 ?GetClientSite@COleClientItem@@MEAAPEAUIOleClientSite@@XZ @ 3572 NONAME
 ?GetClientSite@COleControl@@QEAAPEAUIOleClientSite@@XZ @ 3573 NONAME
 ?GetClientSite@COleServerDoc@@QEBAPEAUIOleClientSite@@XZ @ 3574 NONAME
 ?GetClientSite@CRichEditCntrItem@@UEAAPEAUIOleClientSite@@XZ @ 3575 NONAME
 ?GetClientSite@XOleObject@CDocObjectServer@@UEAAJPEAPEAUIOleClientSite@@@Z @ 3576 NONAME
 ?GetClientSite@XOleObject@COleControl@@UEAAJPEAPEAUIOleClientSite@@@Z @ 3577 NONAME
 ?GetClientSite@XOleObject@COleServerDoc@@UEAAJPEAPEAUIOleClientSite@@@Z @ 3578 NONAME
 ?GetClientSite@XOleObject@COleServerItem@@UEAAJPEAPEAUIOleClientSite@@@Z @ 3579 NONAME
 ?GetClipboardData@COleClientItem@@QEAAXPEAVCOleDataSource@@HPEAUtagPOINT@@PEAUtagSIZE@@@Z @ 3580 NONAME
 ?GetClipboardData@COleServerItem@@QEAAXPEAVCOleDataSource@@HPEAUtagPOINT@@PEAUtagSIZE@@@Z @ 3581 NONAME
 ?GetClipboardData@CRichEditView@@MEAAJPEAU_charrange@@KPEAUIDataObject@@PEAPEAU3@@Z @ 3582 NONAME
 ?GetClipboardData@XOleObject@CDocObjectServer@@UEAAJKPEAPEAUIDataObject@@@Z @ 3583 NONAME
 ?GetClipboardData@XOleObject@COleControl@@UEAAJKPEAPEAUIDataObject@@@Z @ 3584 NONAME
 ?GetClipboardData@XOleObject@COleServerDoc@@UEAAJKPEAPEAUIDataObject@@@Z @ 3585 NONAME
 ?GetClipboardData@XOleObject@COleServerItem@@UEAAJKPEAPEAUIDataObject@@@Z @ 3586 NONAME
 ?GetClipboardData@XRichEditOleCallback@CRichEditView@@UEAAJPEAU_charrange@@KPEAPEAUIDataObject@@@Z @ 3587 NONAME
 ?GetClipboardOwner@COleDataSource@@SAPEAV1@XZ @ 3588 NONAME
 ?GetClipboardOwner@CWnd@@SAPEAV1@XZ @ 3589 NONAME
 ?GetClipboardViewer@CWnd@@SAPEAV1@XZ @ 3590 NONAME
 ?GetClipBox@CDC@@UEBAHPEAUtagRECT@@@Z @ 3591 NONAME
 ?GetClipBox@CMetaFileDC@@UEBAHPEAUtagRECT@@@Z @ 3592 NONAME
 ?GetColor@CColorDialog@@QEBAKXZ @ 3593 NONAME
 ?GetColor@CFontDialog@@QEBAKXZ @ 3594 NONAME
 ?GetColor@CMonthCalCtrl@@QEBAKH@Z @ 3595 NONAME
 ?GetColorAdjustment@CDC@@QEBAHPEAUtagCOLORADJUSTMENT@@@Z @ 3596 NONAME
 ?GetColorScheme@CReBarCtrl@@QEBAHPEAUtagCOLORSCHEME@@@Z @ 3597 NONAME
 ?GetColorScheme@CToolBarCtrl@@QEBAHPEAUtagCOLORSCHEME@@@Z @ 3598 NONAME
 ?GetColorSet@XViewObject@COleControl@@UEAAJKJPEAXPEAUtagDVTARGETDEVICE@@PEAUHDC__@@PEAPEAUtagLOGPALETTE@@@Z @ 3599 NONAME
 ?GetColumn@CListCtrl@@QEBAHHPEAUtagLVCOLUMNW@@@Z @ 3600 NONAME
 ?GetColumnCount@CSplitterWnd@@QEBAHXZ @ 3601 NONAME
 ?GetColumnInfo@CSplitterWnd@@QEBAXHAEAH0@Z @ 3602 NONAME
 ?GetColumnOrderArray@CListCtrl@@QEBAHPEAHH@Z @ 3603 NONAME
 ?GetColumnWidth@CListCtrl@@QEBAHH@Z @ 3604 NONAME
 ?GetComboBoxCtrl@CComboBoxEx@@QEBAPEAVCComboBox@@XZ @ 3605 NONAME
 ?GetCommandMap@CCmdTarget@@MEBAPEBUAFX_OLECMDMAP@@XZ @ 3606 NONAME
 ?GetCommandMap@COleDocObjectItem@@MEBAPEBUAFX_OLECMDMAP@@XZ @ 3607 NONAME
 ?GetConnect@CDatabase@@QEBAAEBV?$CStringT@_WV?$StrTraitMFC_DLL@_WV?$ChTraitsCRT@_W@ATL@@@@@ATL@@XZ @ 3608 NONAME
 ?GetConnectInfo@CDatabase@@IEAAXXZ @ 3609 NONAME
 ?GetConnectionCount@CConnectionPoint@@QEAAHXZ @ 3610 NONAME
 ?GetConnectionHook@CCmdTarget@@MEAAPEAUIConnectionPoint@@AEBU_GUID@@@Z @ 3611 NONAME
 ?GetConnectionHook@COleControl@@MEAAPEAUIConnectionPoint@@AEBU_GUID@@@Z @ 3612 NONAME
 ?GetConnectionInterface@XConnPt@CConnectionPoint@@UEAAJPEAU_GUID@@@Z @ 3613 NONAME
 ?GetConnectionMap@CCmdTarget@@MEBAPEBUAFX_CONNECTIONMAP@@XZ @ 3614 NONAME
 ?GetConnectionMap@COleControl@@MEBAPEBUAFX_CONNECTIONMAP@@XZ @ 3615 NONAME
 ?GetConnectionPointContainer@XConnPt@CConnectionPoint@@UEAAJPEAPEAUIConnectionPointContainer@@@Z @ 3616 NONAME
 ?GetConnections@CConnectionPoint@@QEAAPEBVCPtrArray@@XZ @ 3617 NONAME
 ?GetContainer@CConnectionPoint@@UEAAPEAUIConnectionPointContainer@@XZ @ 3618 NONAME
 ?GetContainer@CHtmlView@@QEBAPEAUIDispatch@@XZ @ 3619 NONAME
 ?GetContainer@COleDocument@@UEAAPEAUIOleItemContainer@@XZ @ 3620 NONAME
 ?GetContainer@COleLinkingDoc@@UEAAPEAUIOleItemContainer@@XZ @ 3621 NONAME
 ?GetContainer@XOleClientSite@COleClientItem@@UEAAJPEAPEAUIOleContainer@@@Z @ 3622 NONAME
 ?GetContainer@XOleClientSite@COleControlSite@@UEAAJPEAPEAUIOleContainer@@@Z @ 3623 NONAME
 ?GetContentExtent@XQuickActivate@COleControl@@UEAAJPEAUtagSIZE@@@Z @ 3624 NONAME
 ?GetContext@CInternetConnection@@QEBA_KXZ @ 3625 NONAME
 ?GetContext@CInternetFile@@QEBA_KXZ @ 3626 NONAME
 ?GetContext@CInternetSession@@QEBA_KXZ @ 3627 NONAME
 ?GetContextMenu@CRichEditView@@MEAAPEAUHMENU__@@GPEAUIOleObject@@PEAU_charrange@@@Z @ 3628 NONAME
 ?GetContextMenu@XRichEditOleCallback@CRichEditView@@UEAAJGPEAUIOleObject@@PEAU_charrange@@PEAPEAUHMENU__@@@Z @ 3629 NONAME
 ?GetControl@CDataPathProperty@@QEAAPEAVCOleControl@@XZ @ 3630 NONAME
 ?GetControlBar@CFrameWnd@@QEAAPEAVCControlBar@@I@Z @ 3631 NONAME
 ?GetControlContainer@CWnd@@QEAAPEAVCOleControlContainer@@XZ @ 3632 NONAME
 ?GetControlDispatch@CDHtmlDialog@@QEAAJPEB_WPEAPEAUIDispatch@@@Z @ 3633 NONAME
 ?GetControlFlags@COleControl@@UEAAKXZ @ 3634 NONAME
 ?GetControlInfo@COleControlSite@@IEAAXXZ @ 3635 NONAME
 ?GetControlInfo@XOleControl@COleControl@@UEAAJPEAUtagCONTROLINFO@@@Z @ 3636 NONAME
 ?GetControllingFrame@CDocObjectServer@@QEBAPEAVCOleDocIPFrameWnd@@XZ @ 3637 NONAME
 ?GetControllingUnknown@CCmdTarget@@QEAAPEAUIUnknown@@XZ @ 3638 NONAME
 ?GetControlProperty@CDHtmlDialog@@QEAA?AUtagVARIANT@@PEAUIDispatch@@J@Z @ 3639 NONAME
 ?GetControlProperty@CDHtmlDialog@@QEAA?AUtagVARIANT@@PEB_W0@Z @ 3640 NONAME
 ?GetControlProperty@CDHtmlDialog@@QEAA?AUtagVARIANT@@PEB_WJ@Z @ 3641 NONAME
 ?GetControlSize@COleControl@@QEAAXPEAH0@Z @ 3642 NONAME
 ?GetControlStatus@COlePropertyPage@@QEAAHI@Z @ 3643 NONAME
 ?GetControlUnknown@CWnd@@QEAAPEAUIUnknown@@XZ @ 3644 NONAME
 ?GetConvertInfo@XOleUIObjInfo@COlePropertiesDialog@@UEAAJKPEAU_GUID@@PEAG0PEAPEAU3@PEAI@Z @ 3645 NONAME
 ?GetCookie@CInternetSession@@SAHPEB_W0AEAV?$CStringT@_WV?$StrTraitMFC_DLL@_WV?$ChTraitsCRT@_W@ATL@@@@@ATL@@@Z @ 3646 NONAME
 ?GetCookie@CInternetSession@@SAHPEB_W0PEA_WK@Z @ 3647 NONAME
 ?GetCookieLength@CInternetSession@@SAKPEB_W0@Z @ 3648 NONAME
 ?GetCopies@CPrintDialog@@QEBAHXZ @ 3649 NONAME
 ?GetCopies@CPrintDialogEx@@QEBAHXZ @ 3650 NONAME
 ?GetCount@CByteArray@@QEBA_JXZ @ 3651 NONAME
 ?GetCount@CComboBox@@QEBAHXZ @ 3652 NONAME
 ?GetCount@CControlBar@@QEBAHXZ @ 3653 NONAME
 ?GetCount@CDWordArray@@QEBA_JXZ @ 3654 NONAME
 ?GetCount@CListBox@@QEBAHXZ @ 3655 NONAME
 ?GetCount@CMapPtrToPtr@@QEBA_JXZ @ 3656 NONAME
 ?GetCount@CMapPtrToWord@@QEBA_JXZ @ 3657 NONAME
 ?GetCount@CMapStringToOb@@QEBA_JXZ @ 3658 NONAME
 ?GetCount@CMapStringToPtr@@QEBA_JXZ @ 3659 NONAME
 ?GetCount@CMapStringToString@@QEBA_JXZ @ 3660 NONAME
 ?GetCount@CMapWordToOb@@QEBA_JXZ @ 3661 NONAME
 ?GetCount@CMapWordToPtr@@QEBA_JXZ @ 3662 NONAME
 ?GetCount@CObArray@@QEBA_JXZ @ 3663 NONAME
 ?GetCount@CObList@@QEBA_JXZ @ 3664 NONAME
 ?GetCount@CPropertySection@@QEAAKXZ @ 3665 NONAME
 ?GetCount@CPropertySet@@QEAAKXZ @ 3666 NONAME
 ?GetCount@CPtrArray@@QEBA_JXZ @ 3667 NONAME
 ?GetCount@CPtrList@@QEBA_JXZ @ 3668 NONAME
 ?GetCount@CStringArray@@QEBA_JXZ @ 3669 NONAME
 ?GetCount@CStringList@@QEBA_JXZ @ 3670 NONAME
 ?GetCount@CTreeCtrl@@QEBAIXZ @ 3671 NONAME
 ?GetCount@CUIntArray@@QEBA_JXZ @ 3672 NONAME
 ?GetCount@CWordArray@@QEBA_JXZ @ 3673 NONAME
 ?GetCountPerPage@CListCtrl@@QEBAHXZ @ 3674 NONAME
 ?GetCreationTime@CFileFind@@UEBAHAEAVCTime@ATL@@@Z @ 3675 NONAME
 ?GetCreationTime@CFileFind@@UEBAHPEAU_FILETIME@@@Z @ 3676 NONAME
 ?GetCreationTime@CGopherFileFind@@UEBAHAEAVCTime@ATL@@@Z @ 3677 NONAME
 ?GetCreationTime@CGopherFileFind@@UEBAHPEAU_FILETIME@@@Z @ 3678 NONAME
 ?GetCurFile@XPersistFile@COleLinkingDoc@@UEAAJPEAPEA_W@Z @ 3679 NONAME
 ?GetCurFocus@CTabCtrl@@QEBAHXZ @ 3680 NONAME
 ?GetCurrentBitmap@CDC@@QEBAPEAVCBitmap@@XZ @ 3681 NONAME
 ?GetCurrentBrush@CDC@@QEBAPEAVCBrush@@XZ @ 3682 NONAME
 ?GetCurrentDirectoryAsURL@CFtpConnection@@QEBAHAEAV?$CStringT@_WV?$StrTraitMFC_DLL@_WV?$ChTraitsCRT@_W@ATL@@@@@ATL@@@Z @ 3683 NONAME
 ?GetCurrentDirectoryAsURL@CFtpConnection@@QEBAHPEA_WPEAK@Z @ 3684 NONAME
 ?GetCurrentDirectoryW@CFtpConnection@@QEBAHAEAV?$CStringT@_WV?$StrTraitMFC_DLL@_WV?$ChTraitsCRT@_W@ATL@@@@@ATL@@@Z @ 3685 NONAME
 ?GetCurrentDirectoryW@CFtpConnection@@QEBAHPEA_WPEAK@Z @ 3686 NONAME
 ?GetCurrentFont@CDC@@QEBAPEAVCFont@@XZ @ 3687 NONAME
 ?GetCurrentFont@CFontDialog@@QEAAXPEAUtagLOGFONTW@@@Z @ 3688 NONAME
 ?GetCurrentMessage@CWnd@@KAPEBUtagMSG@@XZ @ 3689 NONAME
 ?GetCurrentPalette@CDC@@QEBAPEAVCPalette@@XZ @ 3690 NONAME
 ?GetCurrentPen@CDC@@QEBAPEAVCPen@@XZ @ 3691 NONAME
 ?GetCurrentPosition@CDC@@QEBA?AVCPoint@@XZ @ 3692 NONAME
 ?GetCurrentTool@CToolTipCtrl@@QEBAHPEAUtagTOOLINFOW@@@Z @ 3693 NONAME
 ?GetCurrentUrl@CDHtmlDialog@@QEAAXAEAV?$CStringT@_WV?$StrTraitMFC_DLL@_WV?$ChTraitsCRT@_W@ATL@@@@@ATL@@@Z @ 3694 NONAME
 ?GetCurrentView@CMonthCalCtrl@@QEBAKXZ @ 3695 NONAME
 ?GetCurSel@CComboBox@@QEBAHXZ @ 3696 NONAME
 ?GetCurSel@CListBox@@QEBAHXZ @ 3697 NONAME
 ?GetCurSel@CMonthCalCtrl@@QEBAHAEAVCOleDateTime@ATL@@@Z @ 3698 NONAME
 ?GetCurSel@CMonthCalCtrl@@QEBAHAEAVCTime@ATL@@@Z @ 3699 NONAME
 ?GetCurSel@CMonthCalCtrl@@QEBAHPEAU_SYSTEMTIME@@@Z @ 3700 NONAME
 ?GetCurSel@CTabCtrl@@QEBAHXZ @ 3701 NONAME
 ?GetCursor@CButton@@QEAAPEAUHICON__@@XZ @ 3702 NONAME
 ?GetCursor@CDataBoundProperty@@QEAAPEAUIUnknown@@XZ @ 3703 NONAME
 ?GetCursor@CDataSourceControl@@UEAAPEAUIUnknown@@XZ @ 3704 NONAME
 ?GetCursor@COleControlSite@@IEAAJJPEAPEAUIUnknown@@PEAPEAX@Z @ 3705 NONAME
 ?GetCursor@CStatic@@QEAAPEAUHICON__@@XZ @ 3706 NONAME
 ?GetCursor@XBoundObjectSite@COleControlSite@@UEAAJJPEAPEAUICursor@@PEAPEAX@Z @ 3707 NONAME
 ?GetCursorCommitBehavior@CDatabase@@QEBAHXZ @ 3708 NONAME
 ?GetCursorRollbackBehavior@CDatabase@@QEBAHXZ @ 3709 NONAME
 ?GetData@?$CSimpleStringT@_W$00@ATL@@AEBAPEAUCStringData@2@XZ @ 3710 NONAME
 ?GetData@?$CSimpleStringT@D$00@ATL@@AEBAPEAUCStringData@2@XZ @ 3711 NONAME
 ?GetData@CByteArray@@QEAAPEAEXZ @ 3712 NONAME
 ?GetData@CByteArray@@QEBAPEBEXZ @ 3713 NONAME
 ?GetData@CDWordArray@@QEAAPEAKXZ @ 3714 NONAME
 ?GetData@CDWordArray@@QEBAPEBKXZ @ 3715 NONAME
 ?GetData@CObArray@@QEAAPEAPEAVCObject@@XZ @ 3716 NONAME
 ?GetData@CObArray@@QEBAPEAPEBVCObject@@XZ @ 3717 NONAME
 ?GetData@COleDataObject@@QEAAHGPEAUtagSTGMEDIUM@@PEAUtagFORMATETC@@@Z @ 3718 NONAME
 ?GetData@CProcessLocalObject@@QEAAPEAVCNoTrackObject@@P6APEAV2@XZ@Z @ 3719 NONAME
 ?GetData@CPtrArray@@QEAAPEAPEAXXZ @ 3720 NONAME
 ?GetData@CPtrArray@@QEBAPEAPEBXXZ @ 3721 NONAME
 ?GetData@CRecordset@@SA_JPEAVCDatabase@@PEAXFF1_JF@Z @ 3722 NONAME
 ?GetData@CStringArray@@QEAAPEAV?$CStringT@_WV?$StrTraitMFC_DLL@_WV?$ChTraitsCRT@_W@ATL@@@@@ATL@@XZ @ 3723 NONAME
 ?GetData@CStringArray@@QEBAPEBV?$CStringT@_WV?$StrTraitMFC_DLL@_WV?$ChTraitsCRT@_W@ATL@@@@@ATL@@XZ @ 3724 NONAME
 ?GetData@CThreadLocalObject@@QEAAPEAVCNoTrackObject@@P6APEAV2@XZ@Z @ 3725 NONAME
 ?GetData@CUIntArray@@QEAAPEAIXZ @ 3726 NONAME
 ?GetData@CUIntArray@@QEBAPEBIXZ @ 3727 NONAME
 ?GetData@CWordArray@@QEAAPEAGXZ @ 3728 NONAME
 ?GetData@CWordArray@@QEBAPEBGXZ @ 3729 NONAME
 ?GetData@XDataObject@COleControl@@UEAAJPEAUtagFORMATETC@@PEAUtagSTGMEDIUM@@@Z @ 3730 NONAME
 ?GetData@XDataObject@COleDataSource@@UEAAJPEAUtagFORMATETC@@PEAUtagSTGMEDIUM@@@Z @ 3731 NONAME
 ?GetData@XDataObject@COleServerDoc@@UEAAJPEAUtagFORMATETC@@PEAUtagSTGMEDIUM@@@Z @ 3732 NONAME
 ?GetData@XDataObject@COleServerItem@@UEAAJPEAUtagFORMATETC@@PEAUtagSTGMEDIUM@@@Z @ 3733 NONAME
 ?GetDatabaseName@CDatabase@@QEBA?AV?$CStringT@_WV?$StrTraitMFC_DLL@_WV?$ChTraitsCRT@_W@ATL@@@@@ATL@@XZ @ 3734 NONAME
 ?GetDataBuffer@CRecordset@@SAPEAXAEAVCDBVariant@@FPEA_JF_K@Z @ 3735 NONAME
 ?GetDataHere@XDataObject@COleControl@@UEAAJPEAUtagFORMATETC@@PEAUtagSTGMEDIUM@@@Z @ 3736 NONAME
 ?GetDataHere@XDataObject@COleDataSource@@UEAAJPEAUtagFORMATETC@@PEAUtagSTGMEDIUM@@@Z @ 3737 NONAME
 ?GetDataHere@XDataObject@COleServerDoc@@UEAAJPEAUtagFORMATETC@@PEAUtagSTGMEDIUM@@@Z @ 3738 NONAME
 ?GetDataHere@XDataObject@COleServerItem@@UEAAJPEAUtagFORMATETC@@PEAUtagSTGMEDIUM@@@Z @ 3739 NONAME
 ?GetDataNA@CThreadLocalObject@@QEAAPEAVCNoTrackObject@@XZ @ 3740 NONAME
 ?GetDataObject@COleServerItem@@QEAAPEAUIDataObject@@XZ @ 3741 NONAME
 ?GetDataSource@COleControl@@IEAAPEAVCControlDataSource@1@XZ @ 3742 NONAME
 ?GetDataSource@COleServerItem@@IEAAPEAVCOleDataSource@@XZ @ 3743 NONAME
 ?GetDateTimePickerInfo@CDateTimeCtrl@@QEBAHPEAUtagDATETIMEPICKERINFO@@@Z @ 3744 NONAME
 ?GetDC@COleControl@@QEAAPEAVCDC@@PEBUtagRECT@@K@Z @ 3745 NONAME
 ?GetDC@CWnd@@QEAAPEAVCDC@@XZ @ 3746 NONAME
 ?GetDC@XOleIPSite@COleControlSite@@UEAAJPEBUtagRECT@@KPEAPEAUHDC__@@@Z @ 3747 NONAME
 ?GetDCEx@CWnd@@QEAAPEAVCDC@@PEAVCRgn@@K@Z @ 3748 NONAME
 ?GetDefaultAccelerator@CDocument@@UEAAPEAUHACCEL__@@XZ @ 3749 NONAME
 ?GetDefaultAccelerator@CFrameWnd@@UEAAPEAUHACCEL__@@XZ @ 3750 NONAME
 ?GetDefaultAccelerator@COleServerDoc@@MEAAPEAUHACCEL__@@XZ @ 3751 NONAME
 ?GetDefaultCharFormat@CRichEditCtrl@@QEBAKAEAU_charformatw@@@Z @ 3752 NONAME
 ?GetDefaultCharFormat@CRichEditCtrl@@QEBAKAEAUCHARFORMAT2W@@@Z @ 3753 NONAME
 ?GetDefaultConnect@CRecordset@@UEAA?AV?$CStringT@_WV?$StrTraitMFC_DLL@_WV?$ChTraitsCRT@_W@ATL@@@@@ATL@@XZ @ 3754 NONAME
 ?GetDefaultFieldType@CRecordset@@SAFF@Z @ 3755 NONAME
 ?GetDefaultItem@CMenu@@QEAAIIH@Z @ 3756 NONAME
 ?GetDefaultMenu@CDocument@@UEAAPEAUHMENU__@@XZ @ 3757 NONAME
 ?GetDefaultMenu@COleServerDoc@@MEAAPEAUHMENU__@@XZ @ 3758 NONAME
 ?GetDefaults@CPrintDialog@@QEAAHXZ @ 3759 NONAME
 ?GetDefaults@CPrintDialogEx@@QEAAHXZ @ 3760 NONAME
 ?GetDefaultSQL@CRecordset@@UEAA?AV?$CStringT@_WV?$StrTraitMFC_DLL@_WV?$ChTraitsCRT@_W@ATL@@@@@ATL@@XZ @ 3761 NONAME
 ?GetDefBtnCode@COccManager@@SAKPEAVCWnd@@@Z @ 3762 NONAME
 ?GetDefBtnCode@COleControlSite@@QEAAKXZ @ 3763 NONAME
 ?GetDefID@CDialog@@QEBAKXZ @ 3764 NONAME
 ?GetDelayTime@CToolTipCtrl@@QEBAHK@Z @ 3765 NONAME
 ?GetDepth@CDumpContext@@QEBAHXZ @ 3766 NONAME
 ?GetDescendantWindow@CWnd@@QEBAPEAV1@HH@Z @ 3767 NONAME
 ?GetDescendantWindow@CWnd@@SAPEAV1@PEAUHWND__@@HH@Z @ 3768 NONAME
 ?GetDesktopWindow@CWnd@@SAPEAV1@XZ @ 3769 NONAME
 ?GetDeviceCaps@CDC@@QEBAHH@Z @ 3770 NONAME
 ?GetDeviceName@CPageSetupDialog@@QEBA?AV?$CStringT@_WV?$StrTraitMFC_DLL@_WV?$ChTraitsCRT@_W@ATL@@@@@ATL@@XZ @ 3771 NONAME
 ?GetDeviceName@CPrintDialog@@QEBA?AV?$CStringT@_WV?$StrTraitMFC_DLL@_WV?$ChTraitsCRT@_W@ATL@@@@@ATL@@XZ @ 3772 NONAME
 ?GetDeviceName@CPrintDialogEx@@QEBA?AV?$CStringT@_WV?$StrTraitMFC_DLL@_WV?$ChTraitsCRT@_W@ATL@@@@@ATL@@XZ @ 3773 NONAME
 ?GetDeviceScrollPosition@CScrollView@@QEBA?AVCPoint@@XZ @ 3774 NONAME
 ?GetDeviceScrollSizes@CScrollView@@QEBAXAEAHAEAUtagSIZE@@11@Z @ 3775 NONAME
 ?GetDevMode@CPageSetupDialog@@QEBAPEAU_devicemodeW@@XZ @ 3776 NONAME
 ?GetDevMode@CPrintDialog@@QEBAPEAU_devicemodeW@@XZ @ 3777 NONAME
 ?GetDevMode@CPrintDialogEx@@QEBAPEAU_devicemodeW@@XZ @ 3778 NONAME
 ?GetDHtmlCommandMapping@CHtmlEditView@@UEAAIIAEAHAEAI@Z @ 3779 NONAME
 ?GetDHtmlDocument@CDHtmlDialog@@UEAAJPEAPEAUIHTMLDocument2@@@Z @ 3780 NONAME
 ?GetDHtmlDocument@CHtmlEditCtrl@@QEBAHPEAPEAUIHTMLDocument2@@@Z @ 3781 NONAME
 ?GetDHtmlDocument@CHtmlEditView@@QEBAHPEAPEAUIHTMLDocument2@@@Z @ 3782 NONAME
 ?GetDHtmlEventMap@@YAPEBUDHtmlEventMapEntry@@XZ @ 3783 NONAME
 ?GetDHtmlEventMap@CDHtmlDialog@@MEAAPEBUDHtmlEventMapEntry@@XZ @ 3784 NONAME
 ?GetDHtmlEventMap@CMultiPageDHtmlDialog@@MEAAPEBUDHtmlEventMapEntry@@XZ @ 3785 NONAME
 ?GetDim@COleSafeArray@@QEAAKXZ @ 3786 NONAME
 ?GetDisabledImageList@CToolBarCtrl@@QEBAPEAVCImageList@@XZ @ 3787 NONAME
 ?GetDispatchIID@CCmdTarget@@UEAAHPEAU_GUID@@@Z @ 3788 NONAME
 ?GetDispatchIID@COleControl@@MEAAHPEAU_GUID@@@Z @ 3789 NONAME
 ?GetDispatchMap@CCmdTarget@@MEBAPEBUAFX_DISPMAP@@XZ @ 3790 NONAME
 ?GetDispatchMap@COleControlContainer@@MEBAPEBUAFX_DISPMAP@@XZ @ 3791 NONAME
 ?GetDispEntry@CCmdTarget@@IEAAPEBUAFX_DISPMAP_ENTRY@@J@Z @ 3792 NONAME
 ?GetDisplayName@COleChangeSourceDialog@@QEAA?AV?$CStringT@_WV?$StrTraitMFC_DLL@_WV?$ChTraitsCRT@_W@ATL@@@@@ATL@@XZ @ 3793 NONAME
 ?GetDisplayName@CRecentFileList@@UEBAHAEAV?$CStringT@_WV?$StrTraitMFC_DLL@_WV?$ChTraitsCRT@_W@ATL@@@@@ATL@@HPEB_WHH@Z @ 3794 NONAME
 ?GetDisplayString@CFontHolder@@QEAAHAEAV?$CStringT@_WV?$StrTraitMFC_DLL@_WV?$ChTraitsCRT@_W@ATL@@@@@ATL@@@Z @ 3795 NONAME
 ?GetDisplayString@CPictureHolder@@QEAAHAEAV?$CStringT@_WV?$StrTraitMFC_DLL@_WV?$ChTraitsCRT@_W@ATL@@@@@ATL@@@Z @ 3796 NONAME
 ?GetDisplayString@XPerPropertyBrowsing@COleControl@@UEAAJJPEAPEA_W@Z @ 3797 NONAME
 ?GetDlgCtrlID@COleControlSite@@UEBAHXZ @ 3798 NONAME
 ?GetDlgCtrlID@CWnd@@QEBAHXZ @ 3799 NONAME
 ?GetDlgItem@COleControlContainer@@UEBAPEAVCWnd@@H@Z @ 3800 NONAME
 ?GetDlgItem@COleControlContainer@@UEBAXHPEAPEAUHWND__@@@Z @ 3801 NONAME
 ?GetDlgItem@CWnd@@QEBAPEAV1@H@Z @ 3802 NONAME
 ?GetDlgItem@CWnd@@QEBAXHPEAPEAUHWND__@@@Z @ 3803 NONAME
 ?GetDlgItemInt@COleControlContainer@@UEBAIHPEAHH@Z @ 3804 NONAME
 ?GetDlgItemInt@CWnd@@QEBAIHPEAHH@Z @ 3805 NONAME
 ?GetDlgItemTextW@COleControlContainer@@UEBAHHPEA_WH@Z @ 3806 NONAME
 ?GetDlgItemTextW@CWnd@@QEBAHHAEAV?$CStringT@_WV?$StrTraitMFC_DLL@_WV?$ChTraitsCRT@_W@ATL@@@@@ATL@@@Z @ 3807 NONAME
 ?GetDlgItemTextW@CWnd@@QEBAHHPEA_WH@Z @ 3808 NONAME
 ?GetDocFrame@COleIPFrameWnd@@QEAAPEAVCFrameWnd@@XZ @ 3809 NONAME
 ?GetDockBar@CDockContext@@QEAAPEAVCDockBar@@K@Z @ 3810 NONAME
 ?GetDockedControlBar@CDockBar@@IEBAPEAVCControlBar@@H@Z @ 3811 NONAME
 ?GetDockedCount@CDockBar@@QEBAHXZ @ 3812 NONAME
 ?GetDockedVisibleCount@CDockBar@@UEBAHXZ @ 3813 NONAME
 ?GetDockingFrame@CControlBar@@QEBAPEAVCFrameWnd@@XZ @ 3814 NONAME
 ?GetDockState@CFrameWnd@@QEBAXAEAVCDockState@@@Z @ 3815 NONAME
 ?GetDocMiscStatus@XOleDocument@CDocObjectServer@@UEAAJPEAK@Z @ 3816 NONAME
 ?GetDocObjectServer@COleServerDoc@@MEAAPEAVCDocObjectServer@@PEAUIOleDocumentSite@@@Z @ 3817 NONAME
 ?GetDocString@CDocTemplate@@UEBAHAEAV?$CStringT@_WV?$StrTraitMFC_DLL@_WV?$ChTraitsCRT@_W@ATL@@@@@ATL@@W4DocStringIndex@1@@Z @ 3818 NONAME
 ?GetDocTemplate@CDocument@@QEBAPEAVCDocTemplate@@XZ @ 3819 NONAME
 ?GetDocument@CDocItem@@QEBAPEAVCDocument@@XZ @ 3820 NONAME
 ?GetDocument@COleClientItem@@QEBAPEAVCOleDocument@@XZ @ 3821 NONAME
 ?GetDocument@COleServerItem@@QEBAPEAVCOleServerDoc@@XZ @ 3822 NONAME
 ?GetDocument@CRichEditCntrItem@@QEAAPEAVCRichEditDoc@@XZ @ 3823 NONAME
 ?GetDocument@CRichEditView@@QEBAPEAVCRichEditDoc@@XZ @ 3824 NONAME
 ?GetDocument@CView@@QEBAPEAVCDocument@@XZ @ 3825 NONAME
 ?GetDocument@XOleDocumentView@CDocObjectServer@@UEAAJPEAPEAUIUnknown@@@Z @ 3826 NONAME
 ?GetDocumentCount@CDocManager@@IEAAHXZ @ 3827 NONAME
 ?GetDragDropEffect@XRichEditOleCallback@CRichEditView@@UEAAJHKPEAK@Z @ 3828 NONAME
 ?GetDragImage@CImageList@@SAPEAV1@PEAUtagPOINT@@0@Z @ 3829 NONAME
 ?GetDrawAspect@COleClientItem@@QEBA?AW4tagDVASPECT@@XZ @ 3830 NONAME
 ?GetDrawAspect@COleConvertDialog@@QEBA?AW4tagDVASPECT@@XZ @ 3831 NONAME
 ?GetDrawAspect@COleInsertDialog@@QEBA?AW4tagDVASPECT@@XZ @ 3832 NONAME
 ?GetDrawAspect@COlePasteSpecialDialog@@QEBA?AW4tagDVASPECT@@XZ @ 3833 NONAME
 ?GetDriverName@CPageSetupDialog@@QEBA?AV?$CStringT@_WV?$StrTraitMFC_DLL@_WV?$ChTraitsCRT@_W@ATL@@@@@ATL@@XZ @ 3834 NONAME
 ?GetDriverName@CPrintDialog@@QEBA?AV?$CStringT@_WV?$StrTraitMFC_DLL@_WV?$ChTraitsCRT@_W@ATL@@@@@ATL@@XZ @ 3835 NONAME
 ?GetDriverName@CPrintDialogEx@@QEBA?AV?$CStringT@_WV?$StrTraitMFC_DLL@_WV?$ChTraitsCRT@_W@ATL@@@@@ATL@@XZ @ 3836 NONAME
 ?GetDropHilightItem@CTreeCtrl@@QEBAPEAU_TREEITEM@@XZ @ 3837 NONAME
 ?GetDroppedControlRect@CComboBox@@QEBAXPEAUtagRECT@@@Z @ 3838 NONAME
 ?GetDroppedState@CComboBox@@QEBAHXZ @ 3839 NONAME
 ?GetDroppedWidth@CComboBox@@QEBAHXZ @ 3840 NONAME
 ?GetDropTarget@CBrowserControlSite@@MEAAJPEAUIDropTarget@@PEAPEAU2@@Z @ 3841 NONAME
 ?GetDropTarget@CDHtmlDialog@@UEAAJPEAUIDropTarget@@PEAPEAU2@@Z @ 3842 NONAME
 ?GetDropTarget@CReBarCtrl@@QEBAPEAUIDropTarget@@XZ @ 3843 NONAME
 ?GetDropTarget@CToolBarCtrl@@QEBAJPEAPEAUIDropTarget@@@Z @ 3844 NONAME
 ?GetDropTarget@XDocHostUIHandler@CHtmlControlSite@@UEAAJPEAUIDropTarget@@PEAPEAU3@@Z @ 3845 NONAME
 ?GetDropTarget@XOleInPlaceObject@COleControl@@UEAAJPEAPEAUIDropTarget@@@Z @ 3846 NONAME
 ?GetDSCCursor@CWnd@@QEAAPEAUIUnknown@@XZ @ 3847 NONAME
 ?GetEditControl@CListCtrl@@QEBAPEAVCEdit@@XZ @ 3848 NONAME
 ?GetEditControl@CTreeCtrl@@QEBAPEAVCEdit@@XZ @ 3849 NONAME
 ?GetEditCtrl@CComboBoxEx@@QEBAPEAVCEdit@@XZ @ 3850 NONAME
 ?GetEditCtrl@CEditView@@QEBAAEAVCEdit@@XZ @ 3851 NONAME
 ?GetEditSel@CComboBox@@QEBAKXZ @ 3852 NONAME
 ?GetElement@CDHtmlDialog@@QEAAJPEB_WPEAPEAUIDispatch@@PEAH@Z @ 3853 NONAME
 ?GetElement@CDHtmlDialog@@QEAAJPEB_WPEAPEAUIHTMLElement@@@Z @ 3854 NONAME
 ?GetElement@COleSafeArray@@QEAAXPEAJPEAX@Z @ 3855 NONAME
 ?GetElementHtml@CDHtmlDialog@@QEAAPEA_WPEB_W@Z @ 3856 NONAME
 ?GetElementInterface@CDHtmlDialog@@QEAAJPEB_WAEBU_GUID@@PEAPEAX@Z @ 3857 NONAME
 ?GetElementProperty@CDHtmlDialog@@QEAA?AUtagVARIANT@@PEB_WJ@Z @ 3858 NONAME
 ?GetElementText@CDHtmlDialog@@QEAAPEA_WPEB_W@Z @ 3859 NONAME
 ?GetElemSize@COleSafeArray@@QEAAKXZ @ 3860 NONAME
 ?GetEmbeddedItem@COleServerDoc@@QEAAPEAVCOleServerItem@@XZ @ 3861 NONAME
 ?GetEmbeddedItemData@COleClientItem@@IEAAXPEAUtagSTGMEDIUM@@@Z @ 3862 NONAME
 ?GetEmbedSourceData@COleServerItem@@QEAAXPEAUtagSTGMEDIUM@@@Z @ 3863 NONAME
 ?GetEnabled@COleControl@@QEAAHXZ @ 3864 NONAME
 ?GetEnhMetaFileW@CStatic@@QEBAPEAUHENHMETAFILE__@@XZ @ 3865 NONAME
 ?GetEntryCount@CCmdTarget@@KAIPEBUAFX_DISPMAP@@@Z @ 3866 NONAME
 ?GetEntryCount@CPalette@@QEAAHXZ @ 3867 NONAME
 ?GetEnumVariant@XAccessibleServer@CWnd@@UEAAJPEAPEAUIEnumVARIANT@@@Z @ 3868 NONAME
 ?GetEnvironmentVariableW@?$CStringT@_WV?$StrTraitMFC_DLL@_WV?$ChTraitsCRT@_W@ATL@@@@@ATL@@QEAAHPEB_W@Z @ 3869 NONAME
 ?GetEnvironmentVariableW@?$CStringT@DV?$StrTraitMFC_DLL@DV?$ChTraitsCRT@D@ATL@@@@@ATL@@QEAAHPEBD@Z @ 3870 NONAME
 ?GetErrorMessage@CArchiveException@@UEBAHPEA_WIPEAI@Z @ 3871 NONAME
 ?GetErrorMessage@CDBException@@UEBAHPEA_WIPEAI@Z @ 3872 NONAME
 ?GetErrorMessage@CException@@UEAAHPEA_WIPEAI@Z @ 3873 NONAME
 ?GetErrorMessage@CException@@UEBAHPEA_WIPEAI@Z @ 3874 NONAME
 ?GetErrorMessage@CFileException@@UEBAHPEA_WIPEAI@Z @ 3875 NONAME
 ?GetErrorMessage@CInternetException@@UEBAHPEA_WIPEAI@Z @ 3876 NONAME
 ?GetErrorMessage@COleDispatchException@@UEBAHPEA_WIPEAI@Z @ 3877 NONAME
 ?GetErrorMessage@COleException@@UEBAHPEA_WIPEAI@Z @ 3878 NONAME
 ?GetErrorMessage@CSimpleException@@UEBAHPEA_WIPEAI@Z @ 3879 NONAME
 ?GetEvent@CDHtmlDialog@@QEAAJPEAPEAUIHTMLEventObj@@@Z @ 3880 NONAME
 ?GetEventIID@COleControlSite@@QEAAHPEAU_GUID@@@Z @ 3881 NONAME
 ?GetEventMap@COleControl@@MEBAPEBUAFX_EVENTMAP@@XZ @ 3882 NONAME
 ?GetEventMapEntry@COleControl@@IEBAPEBUAFX_EVENTMAP_ENTRY@@PEB_WPEAJ@Z @ 3883 NONAME
 ?GetEventMapForUrl@CMultiPageDHtmlDialog@@MEAAPEBUDHtmlEventMapEntry@@PEB_W@Z @ 3884 NONAME
 ?GetEventMask@CRichEditCtrl@@QEBAJXZ @ 3885 NONAME
 ?GetEventSinkEntry@CCmdTarget@@IEAAPEBUAFX_EVENTSINKMAP_ENTRY@@IPEAUAFX_EVENT@@@Z @ 3886 NONAME
 ?GetEventSinkMap@CCmdTarget@@MEBAPEBUAFX_EVENTSINKMAP@@XZ @ 3887 NONAME
 ?GetEventSinkMap@CDHtmlDialog@@MEBAPEBUAFX_EVENTSINKMAP@@XZ @ 3888 NONAME
 ?GetEventSinkMap@CHtmlEditCtrl@@MEBAPEBUAFX_EVENTSINKMAP@@XZ @ 3889 NONAME
 ?GetEventSinkMap@CHtmlView@@MEBAPEBUAFX_EVENTSINKMAP@@XZ @ 3890 NONAME
 ?GetExStyle@COleControlSite@@UEBAKXZ @ 3891 NONAME
 ?GetExStyle@CWnd@@QEBAKXZ @ 3892 NONAME
 ?GetExtendedControl@COleControl@@QEAAPEAUIDispatch@@XZ @ 3893 NONAME
 ?GetExtendedControl@XOleControlSite@COleControlSite@@UEAAJPEAPEAUIDispatch@@@Z @ 3894 NONAME
 ?GetExtendedStyle@CComboBoxEx@@QEBAKXZ @ 3895 NONAME
 ?GetExtendedStyle@CListCtrl@@QEBAKXZ @ 3896 NONAME
 ?GetExtendedStyle@CReBarCtrl@@QEBAKXZ @ 3897 NONAME
 ?GetExtendedStyle@CTabCtrl@@QEBAKXZ @ 3898 NONAME
 ?GetExtendedStyle@CToolBarCtrl@@QEBAKXZ @ 3899 NONAME
 ?GetExtendedStyle@CTreeCtrl@@QEBAKXZ @ 3900 NONAME
 ?GetExtendedUI@CComboBox@@QEBAHXZ @ 3901 NONAME
 ?GetExtent@COleClientItem@@QEAAHPEAUtagSIZE@@W4tagDVASPECT@@@Z @ 3902 NONAME
 ?GetExtent@XOleObject@CDocObjectServer@@UEAAJKPEAUtagSIZE@@@Z @ 3903 NONAME
 ?GetExtent@XOleObject@COleControl@@UEAAJKPEAUtagSIZE@@@Z @ 3904 NONAME
 ?GetExtent@XOleObject@COleServerDoc@@UEAAJKPEAUtagSIZE@@@Z @ 3905 NONAME
 ?GetExtent@XOleObject@COleServerItem@@UEAAJKPEAUtagSIZE@@@Z @ 3906 NONAME
 ?GetExtent@XViewObject@COleControl@@UEAAJKJPEAUtagDVTARGETDEVICE@@PEAUtagSIZE@@@Z @ 3907 NONAME
 ?GetExternal@CBrowserControlSite@@MEAAJPEAPEAUIDispatch@@@Z @ 3908 NONAME
 ?GetExternal@CDHtmlDialog@@UEAAJPEAPEAUIDispatch@@@Z @ 3909 NONAME
 ?GetExternal@XDocHostUIHandler@CHtmlControlSite@@UEAAJPEAPEAUIDispatch@@@Z @ 3910 NONAME
 ?GetExtLogPen@CPen@@QEAAHPEAUtagEXTLOGPEN@@@Z @ 3911 NONAME
 ?GetExtraConnectionPoints@CCmdTarget@@MEAAHPEAVCPtrArray@@@Z @ 3912 NONAME
 ?GetExtraConnectionPoints@COleControl@@MEAAHPEAVCPtrArray@@@Z @ 3913 NONAME
 ?GetFaceName@CFontDialog@@QEBA?AV?$CStringT@_WV?$StrTraitMFC_DLL@_WV?$ChTraitsCRT@_W@ATL@@@@@ATL@@XZ @ 3914 NONAME
 ?GetFieldIndexByName@CRecordset@@QEAAFPEB_W@Z @ 3915 NONAME
 ?GetFieldLengthBuffer@CRecordset@@QEAAPEA_JKH@Z @ 3916 NONAME
 ?GetFieldStatus@CRecordset@@QEAAEK@Z @ 3917 NONAME
 ?GetFieldValue@CRecordset@@QEAAXFAEAV?$CStringT@_WV?$StrTraitMFC_DLL@_WV?$ChTraitsCRT@_W@ATL@@@@@ATL@@@Z @ 3918 NONAME
 ?GetFieldValue@CRecordset@@QEAAXFAEAV?$CStringT@DV?$StrTraitMFC_DLL@DV?$ChTraitsCRT@D@ATL@@@@@ATL@@@Z @ 3919 NONAME
 ?GetFieldValue@CRecordset@@QEAAXFAEAVCDBVariant@@F@Z @ 3920 NONAME
 ?GetFieldValue@CRecordset@@QEAAXPEB_WAEAV?$CStringT@_WV?$StrTraitMFC_DLL@_WV?$ChTraitsCRT@_W@ATL@@@@@ATL@@@Z @ 3921 NONAME
 ?GetFieldValue@CRecordset@@QEAAXPEB_WAEAV?$CStringT@DV?$StrTraitMFC_DLL@DV?$ChTraitsCRT@D@ATL@@@@@ATL@@@Z @ 3922 NONAME
 ?GetFieldValue@CRecordset@@QEAAXPEB_WAEAVCDBVariant@@F@Z @ 3923 NONAME
 ?GetFile@CArchive@@QEBAPEAVCFile@@XZ @ 3924 NONAME
 ?GetFile@CDocument@@UEAAPEAVCFile@@PEB_WIPEAVCFileException@@@Z @ 3925 NONAME
 ?GetFile@CFtpConnection@@QEAAHPEB_W0HKK_K@Z @ 3926 NONAME
 ?GetFileData@COleDataObject@@QEAAPEAVCFile@@GPEAUtagFORMATETC@@@Z @ 3927 NONAME
 ?GetFileExt@CFileDialog@@QEBA?AV?$CStringT@_WV?$StrTraitMFC_DLL@_WV?$ChTraitsCRT@_W@ATL@@@@@ATL@@XZ @ 3928 NONAME
 ?GetFileName@CFile@@UEBA?AV?$CStringT@_WV?$StrTraitMFC_DLL@_WV?$ChTraitsCRT@_W@ATL@@@@@ATL@@XZ @ 3929 NONAME
 ?GetFileName@CFileDialog@@QEBA?AV?$CStringT@_WV?$StrTraitMFC_DLL@_WV?$ChTraitsCRT@_W@ATL@@@@@ATL@@XZ @ 3930 NONAME
 ?GetFileName@CFileFind@@UEBA?AV?$CStringT@_WV?$StrTraitMFC_DLL@_WV?$ChTraitsCRT@_W@ATL@@@@@ATL@@XZ @ 3931 NONAME
 ?GetFileName@CGopherFileFind@@UEBA?AV?$CStringT@_WV?$StrTraitMFC_DLL@_WV?$ChTraitsCRT@_W@ATL@@@@@ATL@@XZ @ 3932 NONAME
 ?GetFileName@COleChangeSourceDialog@@QEAA?AV?$CStringT@_WV?$StrTraitMFC_DLL@_WV?$ChTraitsCRT@_W@ATL@@@@@ATL@@XZ @ 3933 NONAME
 ?GetFilePath@CFile@@UEBA?AV?$CStringT@_WV?$StrTraitMFC_DLL@_WV?$ChTraitsCRT@_W@ATL@@@@@ATL@@XZ @ 3934 NONAME
 ?GetFilePath@CFileFind@@UEBA?AV?$CStringT@_WV?$StrTraitMFC_DLL@_WV?$ChTraitsCRT@_W@ATL@@@@@ATL@@XZ @ 3935 NONAME
 ?GetFilePath@CGopherFileFind@@UEBA?AV?$CStringT@_WV?$StrTraitMFC_DLL@_WV?$ChTraitsCRT@_W@ATL@@@@@ATL@@XZ @ 3936 NONAME
 ?GetFileTitle@CFile@@UEBA?AV?$CStringT@_WV?$StrTraitMFC_DLL@_WV?$ChTraitsCRT@_W@ATL@@@@@ATL@@XZ @ 3937 NONAME
 ?GetFileTitle@CFileDialog@@QEBA?AV?$CStringT@_WV?$StrTraitMFC_DLL@_WV?$ChTraitsCRT@_W@ATL@@@@@ATL@@XZ @ 3938 NONAME
 ?GetFileTitle@CFileFind@@UEBA?AV?$CStringT@_WV?$StrTraitMFC_DLL@_WV?$ChTraitsCRT@_W@ATL@@@@@ATL@@XZ @ 3939 NONAME
 ?GetFileTitle@CGopherFileFind@@UEBA?AV?$CStringT@_WV?$StrTraitMFC_DLL@_WV?$ChTraitsCRT@_W@ATL@@@@@ATL@@XZ @ 3940 NONAME
 ?GetFileTypeString@COleServerDoc@@MEAAHAEAV?$CStringT@_WV?$StrTraitMFC_DLL@_WV?$ChTraitsCRT@_W@ATL@@@@@ATL@@@Z @ 3941 NONAME
 ?GetFileURL@CFileFind@@UEBA?AV?$CStringT@_WV?$StrTraitMFC_DLL@_WV?$ChTraitsCRT@_W@ATL@@@@@ATL@@XZ @ 3942 NONAME
 ?GetFileURL@CFtpFileFind@@UEBA?AV?$CStringT@_WV?$StrTraitMFC_DLL@_WV?$ChTraitsCRT@_W@ATL@@@@@ATL@@XZ @ 3943 NONAME
 ?GetFileURL@CGopherFileFind@@UEBA?AV?$CStringT@_WV?$StrTraitMFC_DLL@_WV?$ChTraitsCRT@_W@ATL@@@@@ATL@@XZ @ 3944 NONAME
 ?GetFileURL@CHttpFile@@UEBA?AV?$CStringT@_WV?$StrTraitMFC_DLL@_WV?$ChTraitsCRT@_W@ATL@@@@@ATL@@XZ @ 3945 NONAME
 ?GetFindString@CFindReplaceDialog@@QEBA?AV?$CStringT@_WV?$StrTraitMFC_DLL@_WV?$ChTraitsCRT@_W@ATL@@@@@ATL@@XZ @ 3946 NONAME
 ?GetFirstDayOfWeek@CMonthCalCtrl@@QEBAHPEAH@Z @ 3947 NONAME
 ?GetFirstDocPosition@CMultiDocTemplate@@UEBAPEAU__POSITION@@XZ @ 3948 NONAME
 ?GetFirstDocPosition@CSingleDocTemplate@@UEBAPEAU__POSITION@@XZ @ 3949 NONAME
 ?GetFirstDocTemplatePosition@CDocManager@@UEBAPEAU__POSITION@@XZ @ 3950 NONAME
 ?GetFirstDocTemplatePosition@CWinApp@@QEBAPEAU__POSITION@@XZ @ 3951 NONAME
 ?GetFirstFrame@COleDocument@@QEAAPEAVCFrameWnd@@XZ @ 3952 NONAME
 ?GetFirstSelectedItemPosition@CListCtrl@@QEBAPEAU__POSITION@@XZ @ 3953 NONAME
 ?GetFirstViewPosition@CDocument@@UEBAPEAU__POSITION@@XZ @ 3954 NONAME
 ?GetFirstVisibleItem@CTreeCtrl@@QEBAPEAU_TREEITEM@@XZ @ 3955 NONAME
 ?GetFirstVisibleLine@CEdit@@QEBAHXZ @ 3956 NONAME
 ?GetFirstVisibleLine@CRichEditCtrl@@QEBAHXZ @ 3957 NONAME
 ?GetFocus@COleControl@@QEAAPEAVCWnd@@XZ @ 3958 NONAME
 ?GetFocus@CWnd@@SAPEAV1@XZ @ 3959 NONAME
 ?GetFocus@XOleIPSite@COleControlSite@@UEAAJXZ @ 3960 NONAME
 ?GetFocusedItem@CHeaderCtrl@@QEBAHXZ @ 3961 NONAME
 ?GetFolderPath@CFileDialog@@QEBA?AV?$CStringT@_WV?$StrTraitMFC_DLL@_WV?$ChTraitsCRT@_W@ATL@@@@@ATL@@XZ @ 3962 NONAME
 ?GetFont@CDialogTemplate@@QEBAHAEAV?$CStringT@_WV?$StrTraitMFC_DLL@_WV?$ChTraitsCRT@_W@ATL@@@@@ATL@@AEAG@Z @ 3963 NONAME
 ?GetFont@CDialogTemplate@@SAHPEBUDLGTEMPLATE@@AEAV?$CStringT@_WV?$StrTraitMFC_DLL@_WV?$ChTraitsCRT@_W@ATL@@@@@ATL@@AEAG@Z @ 3964 NONAME
 ?GetFont@COleControl@@QEAAPEAUIFontDisp@@XZ @ 3965 NONAME
 ?GetFont@CWnd@@QEBAPEAVCFont@@XZ @ 3966 NONAME
 ?GetFontData@CDC@@QEBAKKKPEAXK@Z @ 3967 NONAME
 ?GetFontDispatch@CFontHolder@@QEAAPEAUIFontDisp@@XZ @ 3968 NONAME
 ?GetFontHandle@CFontHolder@@QEAAPEAUHFONT__@@JJ@Z @ 3969 NONAME
 ?GetFontHandle@CFontHolder@@QEAAPEAUHFONT__@@XZ @ 3970 NONAME
 ?GetFontLanguageInfo@CDC@@QEBAKXZ @ 3971 NONAME
 ?GetFontSizeField@CDialogTemplate@@KAPEAEPEBUDLGTEMPLATE@@@Z @ 3972 NONAME
 ?GetFontTextMetrics@COleControl@@QEAAXPEAUtagTEXTMETRICW@@AEAVCFontHolder@@@Z @ 3973 NONAME
 ?GetForeColor@COleControl@@QEAAKXZ @ 3974 NONAME
 ?GetForegroundWindow@CWnd@@SAPEAV1@XZ @ 3975 NONAME
 ?GetFormatEtc@CAsyncMonikerFile@@QEBAPEAUtagFORMATETC@@XZ @ 3976 NONAME
 ?GetFormatID@CPropertySection@@QEAA?AU_GUID@@XZ @ 3977 NONAME
 ?GetFormatVersion@CPropertySet@@QEAAGXZ @ 3978 NONAME
 ?GetFromPage@CPrintDialog@@QEBAHXZ @ 3979 NONAME
 ?GetFromPage@CPrintInfo@@QEBAIXZ @ 3980 NONAME
 ?GetFromPrefix@COleChangeSourceDialog@@QEAA?AV?$CStringT@_WV?$StrTraitMFC_DLL@_WV?$ChTraitsCRT@_W@ATL@@@@@ATL@@XZ @ 3981 NONAME
 ?GetFtpConnection@CInternetSession@@QEAAPEAVCFtpConnection@@PEB_W00GH@Z @ 3982 NONAME
 ?GetFullName@CHtmlView@@QEBA?AV?$CStringT@_WV?$StrTraitMFC_DLL@_WV?$ChTraitsCRT@_W@ATL@@@@@ATL@@XZ @ 3983 NONAME
 ?GetFullScreen@CHtmlView@@QEBAHXZ @ 3984 NONAME
 ?GetFuncInfoFromId@CDHtmlControlSink@@QEAAJAEBU_GUID@@JKAEAU_ATL_FUNC_INFO@ATL@@@Z @ 3985 NONAME
 ?GetGlobalData@COleDataObject@@QEAAPEAXGPEAUtagFORMATETC@@@Z @ 3986 NONAME
 ?GetGlyphOutlineW@CDC@@QEBAKIIPEAU_GLYPHMETRICS@@KPEAXPEBU_MAT2@@@Z @ 3987 NONAME
 ?GetGopherConnection@CInternetSession@@QEAAPEAVCGopherConnection@@PEB_W00G@Z @ 3988 NONAME
 ?GetGraphicsMode@CDC@@QEBAHXZ @ 3989 NONAME
 ?GetGUID@XProvideClassInfo@COleControl@@UEAAJKPEAU_GUID@@@Z @ 3990 NONAME
 ?GetHalftoneBrush@CDC@@SAPEAVCBrush@@XZ @ 3991 NONAME
 ?GetHandle@CEdit@@QEBAPEAXXZ @ 3992 NONAME
 ?GetHandleMask@CRectTracker@@UEBAIXZ @ 3993 NONAME
 ?GetHandleRect@CRectTracker@@IEBAXHPEAVCRect@@@Z @ 3994 NONAME
 ?GetHandleSize@CRectTracker@@MEBAHPEBUtagRECT@@@Z @ 3995 NONAME
 ?GetHashTableSize@CMapPtrToPtr@@QEBAIXZ @ 3996 NONAME
 ?GetHashTableSize@CMapPtrToWord@@QEBAIXZ @ 3997 NONAME
 ?GetHashTableSize@CMapStringToOb@@QEBAIXZ @ 3998 NONAME
 ?GetHashTableSize@CMapStringToPtr@@QEBAIXZ @ 3999 NONAME
 ?GetHashTableSize@CMapStringToString@@QEBAIXZ @ 4000 NONAME
 ?GetHashTableSize@CMapWordToOb@@QEBAIXZ @ 4001 NONAME
 ?GetHashTableSize@CMapWordToPtr@@QEBAIXZ @ 4002 NONAME
 ?GetHead@CObList@@QEAAAEAPEAVCObject@@XZ @ 4003 NONAME
 ?GetHead@CObList@@QEBAPEBVCObject@@XZ @ 4004 NONAME
 ?GetHead@CPtrList@@QEAAAEAPEAXXZ @ 4005 NONAME
 ?GetHead@CPtrList@@QEBAPEBXXZ @ 4006 NONAME
 ?GetHead@CStringList@@QEAAAEAV?$CStringT@_WV?$StrTraitMFC_DLL@_WV?$ChTraitsCRT@_W@ATL@@@@@ATL@@XZ @ 4007 NONAME
 ?GetHead@CStringList@@QEBAAEBV?$CStringT@_WV?$StrTraitMFC_DLL@_WV?$ChTraitsCRT@_W@ATL@@@@@ATL@@XZ @ 4008 NONAME
 ?GetHeaderCtrl@CListCtrl@@QEBAPEAVCHeaderCtrl@@XZ @ 4009 NONAME
 ?GetHeadPosition@CObList@@QEBAPEAU__POSITION@@XZ @ 4010 NONAME
 ?GetHeadPosition@CPtrList@@QEBAPEAU__POSITION@@XZ @ 4011 NONAME
 ?GetHeadPosition@CStringList@@QEBAPEAU__POSITION@@XZ @ 4012 NONAME
 ?GetHeight@CHtmlView@@QEBAJXZ @ 4013 NONAME
 ?GetHelpMenu@COleDocObjectItem@@MEAAPEAVCMenu@@AEAI@Z @ 4014 NONAME
 ?GetHelpMode@CWinApp@@QEAA?AW4AFX_HELP_TYPE@@XZ @ 4015 NONAME
 ?GetHitRect@CSplitterWnd@@MEAAXHAEAVCRect@@@Z @ 4016 NONAME
 ?GetHorizontalExtent@CComboBox@@QEBAIXZ @ 4017 NONAME
 ?GetHorizontalExtent@CListBox@@QEBAHXZ @ 4018 NONAME
 ?GetHostInfo@CBrowserControlSite@@MEAAJPEAU_DOCHOSTUIINFO@@@Z @ 4019 NONAME
 ?GetHostInfo@CDHtmlDialog@@UEAAJPEAU_DOCHOSTUIINFO@@@Z @ 4020 NONAME
 ?GetHostInfo@XDocHostUIHandler@CHtmlControlSite@@UEAAJPEAU_DOCHOSTUIINFO@@@Z @ 4021 NONAME
 ?GetHotCursor@CListCtrl@@QEBAPEAUHICON__@@XZ @ 4022 NONAME
 ?GetHotImageList@CToolBarCtrl@@QEBAPEAVCImageList@@XZ @ 4023 NONAME
 ?GetHotItem@CListCtrl@@QEBAHXZ @ 4024 NONAME
 ?GetHotItem@CToolBarCtrl@@QEBAHXZ @ 4025 NONAME
 ?GetHotKey@CHotKeyCtrl@@QEBAKXZ @ 4026 NONAME
 ?GetHotKey@CHotKeyCtrl@@QEBAXAEAG0@Z @ 4027 NONAME
 ?GetHotKeyName@CHotKeyCtrl@@QEBA?AV?$CStringT@_WV?$StrTraitMFC_DLL@_WV?$ChTraitsCRT@_W@ATL@@@@@ATL@@XZ @ 4028 NONAME
 ?GetHoverTime@CListCtrl@@QEBAKXZ @ 4029 NONAME
 ?GetHtmlDocument@CHtmlView@@QEBAPEAUIDispatch@@XZ @ 4030 NONAME
 ?GetHttpConnection@CInternetSession@@QEAAPEAVCHttpConnection@@PEB_WG00@Z @ 4031 NONAME
 ?GetHttpConnection@CInternetSession@@QEAAPEAVCHttpConnection@@PEB_WKG00@Z @ 4032 NONAME
 ?GetHwnd@COleControl@@QEAAIXZ @ 4033 NONAME
 ?GetHWND@XAccessibleServer@CWnd@@UEAAJPEAPEAUHWND__@@@Z @ 4034 NONAME
 ?GetIcon@CButton@@QEBAPEAUHICON__@@XZ @ 4035 NONAME
 ?GetIcon@CStatic@@QEBAPEAUHICON__@@XZ @ 4036 NONAME
 ?GetIcon@CStatusBarCtrl@@QEBAPEAUHICON__@@H@Z @ 4037 NONAME
 ?GetIcon@CWnd@@QEBAPEAUHICON__@@H@Z @ 4038 NONAME
 ?GetIconFromRegistry@COleClientItem@@QEBAPEAUHICON__@@XZ @ 4039 NONAME
 ?GetIconFromRegistry@COleClientItem@@SAPEAUHICON__@@AEAU_GUID@@@Z @ 4040 NONAME
 ?GetIconicMetafile@COleChangeIconDialog@@QEBAPEAXXZ @ 4041 NONAME
 ?GetIconicMetafile@COleClientItem@@QEAAPEAXXZ @ 4042 NONAME
 ?GetIconicMetafile@COleConvertDialog@@QEBAPEAXXZ @ 4043 NONAME
 ?GetIconicMetafile@COleInsertDialog@@QEBAPEAXXZ @ 4044 NONAME
 ?GetIconicMetafile@COlePasteSpecialDialog@@QEBAPEAXXZ @ 4045 NONAME
 ?GetIconWndClass@CFrameWnd@@IEAAPEB_WKI@Z @ 4046 NONAME
 ?GetID@CProperty@@QEAAKXZ @ 4047 NONAME
 ?GetID@CPropertySection@@QEAAHPEB_WPEAK@Z @ 4048 NONAME
 ?GetIDataObject@COleDataObject@@QEAAPEAUIDataObject@@H@Z @ 4049 NONAME
 ?GetIdealSize@CDateTimeCtrl@@QEBAHPEAUtagSIZE@@@Z @ 4050 NONAME
 ?GetIDispatch@CCmdTarget@@QEAAPEAUIDispatch@@H@Z @ 4051 NONAME
 ?GetIDsOfNames@CDHtmlControlSink@@UEAAJAEBU_GUID@@PEAPEA_WIKPEAJ@Z @ 4052 NONAME
 ?GetIDsOfNames@CDHtmlElementEventSink@@UEAAJAEBU_GUID@@PEAPEA_WIKPEAJ@Z @ 4053 NONAME
 ?GetIDsOfNames@CDHtmlEventSink@@UEAAJAEBU_GUID@@PEAPEA_WIKPEAJ@Z @ 4054 NONAME
 ?GetIDsOfNames@COleDispatchImpl@@UEAAJAEBU_GUID@@PEAPEA_WIKPEAJ@Z @ 4055 NONAME
 ?GetIDsOfNames@XAccessible@CWnd@@UEAAJAEBU_GUID@@PEAPEA_WIKPEAJ@Z @ 4056 NONAME
 ?GetIDsOfNames@XAmbientProps@COleControlSite@@UEAAJAEBU_GUID@@PEAPEA_WIKPEAJ@Z @ 4057 NONAME
 ?GetIDsOfNames@XEventSink@COleControlSite@@UEAAJAEBU_GUID@@PEAPEA_WIKPEAJ@Z @ 4058 NONAME
 ?GetIFileDialogCustomize@CFileDialog@@QEAAPEAUIFileDialogCustomize@@XZ @ 4059 NONAME
 ?GetIFileOpenDialog@CFileDialog@@QEAAPEAUIFileOpenDialog@@XZ @ 4060 NONAME
 ?GetIFileSaveDialog@CFileDialog@@QEAAPEAUIFileSaveDialog@@XZ @ 4061 NONAME
 ?GetIID@XEventConnPt@COleControl@@UEAAAEBU_GUID@@XZ @ 4062 NONAME
 ?GetImageCount@CImageList@@QEBAHXZ @ 4063 NONAME
 ?GetImageInfo@CImageList@@QEBAHHPEAU_IMAGEINFO@@@Z @ 4064 NONAME
 ?GetImageList@CComboBoxEx@@QEBAPEAVCImageList@@XZ @ 4065 NONAME
 ?GetImageList@CHeaderCtrl@@QEBAPEAVCImageList@@H@Z @ 4066 NONAME
 ?GetImageList@CListCtrl@@QEBAPEAVCImageList@@H@Z @ 4067 NONAME
 ?GetImageList@CReBarCtrl@@QEBAPEAVCImageList@@XZ @ 4068 NONAME
 ?GetImageList@CTabCtrl@@QEBAPEAVCImageList@@XZ @ 4069 NONAME
 ?GetImageList@CToolBarCtrl@@QEBAPEAVCImageList@@XZ @ 4070 NONAME
 ?GetImageList@CTreeCtrl@@QEBAPEAVCImageList@@H@Z @ 4071 NONAME
 ?GetIndent@CTreeCtrl@@QEBAIXZ @ 4072 NONAME
 ?GetInPlaceActiveItem@COleDocument@@UEAAPEAVCOleClientItem@@PEAVCWnd@@@Z @ 4073 NONAME
 ?GetInPlaceActiveItem@CRichEditDoc@@UEAAPEAVCOleClientItem@@PEAVCWnd@@@Z @ 4074 NONAME
 ?GetInPlaceActiveItem@CRichEditView@@QEBAPEAVCRichEditCntrItem@@XZ @ 4075 NONAME
 ?GetInPlaceContext@XRichEditOleCallback@CRichEditView@@UEAAJPEAPEAUIOleInPlaceFrame@@PEAPEAUIOleInPlaceUIWindow@@PEAUtagOIFI@@@Z @ 4076 NONAME
 ?GetInPlaceDocFrame@COleIPFrameWnd@@QEAAJPEAPEAUIOleInPlaceUIWindow@@@Z @ 4077 NONAME
 ?GetInPlaceFrame@COleIPFrameWnd@@QEAAJPEAPEAUIOleInPlaceUIWindow@@@Z @ 4078 NONAME
 ?GetInPlaceMenu@COleIPFrameWnd@@MEAAPEAUHMENU__@@XZ @ 4079 NONAME
 ?GetInPlaceSite@XOleDocumentView@CDocObjectServer@@UEAAJPEAPEAUIOleInPlaceSite@@@Z @ 4080 NONAME
 ?GetInPlaceWindow@COleClientItem@@QEAAPEAVCWnd@@XZ @ 4081 NONAME
 ?GetInsertMark@CToolBarCtrl@@QEBAXPEAUTBINSERTMARK@@@Z @ 4082 NONAME
 ?GetInsertMarkColor@CToolBarCtrl@@QEBAKXZ @ 4083 NONAME
 ?GetInsertMarkColor@CTreeCtrl@@QEBAKXZ @ 4084 NONAME
 ?GetInsideRect@CSplitterWnd@@MEBAXAEAVCRect@@@Z @ 4085 NONAME
 ?GetInterface@CCmdTarget@@QEAAPEAUIUnknown@@PEBX@Z @ 4086 NONAME
 ?GetInterfaceHook@CBrowserControlSite@@MEAAPEAUIUnknown@@PEBX@Z @ 4087 NONAME
 ?GetInterfaceHook@CCmdTarget@@UEAAPEAUIUnknown@@PEBX@Z @ 4088 NONAME
 ?GetInterfaceHook@COleControl@@MEAAPEAUIUnknown@@PEBX@Z @ 4089 NONAME
 ?GetInterfaceHook@COleServerDoc@@MEAAPEAUIUnknown@@PEBX@Z @ 4090 NONAME
 ?GetInterfaceMap@CCmdTarget@@MEBAPEBUAFX_INTERFACEMAP@@XZ @ 4091 NONAME
 ?GetInterfaceMap@CDocObjectServer@@MEBAPEBUAFX_INTERFACEMAP@@XZ @ 4092 NONAME
 ?GetInterfaceMap@CEnumConnections@@MEBAPEBUAFX_INTERFACEMAP@@XZ @ 4093 NONAME
 ?GetInterfaceMap@CEnumConnPoints@@MEBAPEBUAFX_INTERFACEMAP@@XZ @ 4094 NONAME
 ?GetInterfaceMap@CEnumFormatEtc@@MEBAPEBUAFX_INTERFACEMAP@@XZ @ 4095 NONAME
 ?GetInterfaceMap@CEnumOleVerb@@MEBAPEBUAFX_INTERFACEMAP@@XZ @ 4096 NONAME
 ?GetInterfaceMap@CEnumUnknown@@MEBAPEBUAFX_INTERFACEMAP@@XZ @ 4097 NONAME
 ?GetInterfaceMap@CFileDialog@@MEBAPEBUAFX_INTERFACEMAP@@XZ @ 4098 NONAME
 ?GetInterfaceMap@CHtmlControlSite@@MEBAPEBUAFX_INTERFACEMAP@@XZ @ 4099 NONAME
 ?GetInterfaceMap@COleClientItem@@MEBAPEBUAFX_INTERFACEMAP@@XZ @ 4100 NONAME
 ?GetInterfaceMap@COleControl@@MEBAPEBUAFX_INTERFACEMAP@@XZ @ 4101 NONAME
 ?GetInterfaceMap@COleControlContainer@@MEBAPEBUAFX_INTERFACEMAP@@XZ @ 4102 NONAME
 ?GetInterfaceMap@COleControlSite@@MEBAPEBUAFX_INTERFACEMAP@@XZ @ 4103 NONAME
 ?GetInterfaceMap@COleDataSource@@MEBAPEBUAFX_INTERFACEMAP@@XZ @ 4104 NONAME
 ?GetInterfaceMap@COleDocObjectItem@@MEBAPEBUAFX_INTERFACEMAP@@XZ @ 4105 NONAME
 ?GetInterfaceMap@COleDropSource@@MEBAPEBUAFX_INTERFACEMAP@@XZ @ 4106 NONAME
 ?GetInterfaceMap@COleDropTarget@@MEBAPEBUAFX_INTERFACEMAP@@XZ @ 4107 NONAME
 ?GetInterfaceMap@COleFrameHook@@MEBAPEBUAFX_INTERFACEMAP@@XZ @ 4108 NONAME
 ?GetInterfaceMap@COleLinkingDoc@@MEBAPEBUAFX_INTERFACEMAP@@XZ @ 4109 NONAME
 ?GetInterfaceMap@COleMessageFilter@@MEBAPEBUAFX_INTERFACEMAP@@XZ @ 4110 NONAME
 ?GetInterfaceMap@COleObjectFactory@@MEBAPEBUAFX_INTERFACEMAP@@XZ @ 4111 NONAME
 ?GetInterfaceMap@COlePropertyPage@@MEBAPEBUAFX_INTERFACEMAP@@XZ @ 4112 NONAME
 ?GetInterfaceMap@COleServerDoc@@MEBAPEBUAFX_INTERFACEMAP@@XZ @ 4113 NONAME
 ?GetInterfaceMap@COleServerItem@@MEBAPEBUAFX_INTERFACEMAP@@XZ @ 4114 NONAME
 ?GetInterfaceMap@CRichEditView@@MEBAPEBUAFX_INTERFACEMAP@@XZ @ 4115 NONAME
 ?GetInterfaceMap@CWnd@@MEBAPEBUAFX_INTERFACEMAP@@XZ @ 4116 NONAME
 ?GetIRichEditOle@CRichEditCtrl@@QEBAPEAUIRichEditOle@@XZ @ 4117 NONAME
 ?GetItem@CComboBoxEx@@QEAAHPEAUtagCOMBOBOXEXITEMW@@@Z @ 4118 NONAME
 ?GetItem@CHeaderCtrl@@QEBAHHPEAU_HD_ITEMW@@@Z @ 4119 NONAME
 ?GetItem@CListCtrl@@QEBAHPEAUtagLVITEMW@@@Z @ 4120 NONAME
 ?GetItem@CTabCtrl@@QEBAHHPEAUtagTCITEMW@@@Z @ 4121 NONAME
 ?GetItem@CTreeCtrl@@QEBAHPEAUtagTVITEMW@@@Z @ 4122 NONAME
 ?GetItemClipRect@COleServerDoc@@QEBAXPEAUtagRECT@@@Z @ 4123 NONAME
 ?GetItemCount@CHeaderCtrl@@QEBAHXZ @ 4124 NONAME
 ?GetItemCount@CListCtrl@@QEBAHXZ @ 4125 NONAME
 ?GetItemCount@CTabCtrl@@QEBAHXZ @ 4126 NONAME
 ?GetItemData@CComboBox@@QEBA_KH@Z @ 4127 NONAME
 ?GetItemData@CListBox@@QEBA_KH@Z @ 4128 NONAME
 ?GetItemData@CListCtrl@@QEBA_KH@Z @ 4129 NONAME
 ?GetItemData@CTreeCtrl@@QEBA_KPEAU_TREEITEM@@@Z @ 4130 NONAME
 ?GetItemDataPtr@CComboBox@@QEBAPEAXH@Z @ 4131 NONAME
 ?GetItemDataPtr@CListBox@@QEBAPEAXH@Z @ 4132 NONAME
 ?GetItemDropDownRect@CHeaderCtrl@@QEBAHHPEAUtagRECT@@@Z @ 4133 NONAME
 ?GetItemExpandedImageIndex@CTreeCtrl@@QEBAHPEAU_TREEITEM@@@Z @ 4134 NONAME
 ?GetItemHeight@CComboBox@@QEBAHH@Z @ 4135 NONAME
 ?GetItemHeight@CListBox@@QEBAHH@Z @ 4136 NONAME
 ?GetItemHeight@CTreeCtrl@@QEBAFXZ @ 4137 NONAME
 ?GetItemID@CStatusBar@@QEBAIH@Z @ 4138 NONAME
 ?GetItemID@CToolBar@@QEBAIH@Z @ 4139 NONAME
 ?GetItemImage@CTreeCtrl@@QEBAHPEAU_TREEITEM@@AEAH1@Z @ 4140 NONAME
 ?GetItemName@COleChangeSourceDialog@@QEAA?AV?$CStringT@_WV?$StrTraitMFC_DLL@_WV?$ChTraitsCRT@_W@ATL@@@@@ATL@@XZ @ 4141 NONAME
 ?GetItemName@COleClientItem@@QEBAXPEA_W@Z @ 4142 NONAME
 ?GetItemName@COleClientItem@@QEBAXPEA_WI@Z @ 4143 NONAME
 ?GetItemName@COleServerItem@@QEBAAEBV?$CStringT@_WV?$StrTraitMFC_DLL@_WV?$ChTraitsCRT@_W@ATL@@@@@ATL@@XZ @ 4144 NONAME
 ?GetItemPartRect@CTreeCtrl@@QEAAHPEAU_TREEITEM@@W4_TVITEMPART@@PEAUtagRECT@@@Z @ 4145 NONAME
 ?GetItemPosition@CListCtrl@@QEBAHHPEAUtagPOINT@@@Z @ 4146 NONAME
 ?GetItemPosition@COleServerDoc@@QEBAXPEAUtagRECT@@@Z @ 4147 NONAME
 ?GetItemRect@CHeaderCtrl@@QEBAHHPEAUtagRECT@@@Z @ 4148 NONAME
 ?GetItemRect@CListBox@@QEBAHHPEAUtagRECT@@@Z @ 4149 NONAME
 ?GetItemRect@CListCtrl@@QEBAHHPEAUtagRECT@@I@Z @ 4150 NONAME
 ?GetItemRect@CStatusBar@@QEBAXHPEAUtagRECT@@@Z @ 4151 NONAME
 ?GetItemRect@CTabCtrl@@QEBAHHPEAUtagRECT@@@Z @ 4152 NONAME
 ?GetItemRect@CToolBar@@UEBAXHPEAUtagRECT@@@Z @ 4153 NONAME
 ?GetItemRect@CToolBarCtrl@@QEBAHHPEAUtagRECT@@@Z @ 4154 NONAME
 ?GetItemRect@CTreeCtrl@@QEBAHPEAU_TREEITEM@@PEAUtagRECT@@H@Z @ 4155 NONAME
 ?GetItemSpacing@CListCtrl@@QEBAHHPEAH0@Z @ 4156 NONAME
 ?GetItemState@CListCtrl@@QEBAIHI@Z @ 4157 NONAME
 ?GetItemState@COleClientItem@@QEBAIXZ @ 4158 NONAME
 ?GetItemState@CTabCtrl@@QEBAKHK@Z @ 4159 NONAME
 ?GetItemState@CTreeCtrl@@QEBAIPEAU_TREEITEM@@I@Z @ 4160 NONAME
 ?GetItemStateEx@CTreeCtrl@@QEBAIPEAU_TREEITEM@@@Z @ 4161 NONAME
 ?GetItemStorage@COleClientItem@@UEAAXXZ @ 4162 NONAME
 ?GetItemStorageCompound@COleClientItem@@QEAAXXZ @ 4163 NONAME
 ?GetItemStorageFlat@COleClientItem@@QEAAXXZ @ 4164 NONAME
 ?GetItemText@CListCtrl@@QEBA?AV?$CStringT@_WV?$StrTraitMFC_DLL@_WV?$ChTraitsCRT@_W@ATL@@@@@ATL@@HH@Z @ 4165 NONAME
 ?GetItemText@CListCtrl@@QEBAHHHPEA_WH@Z @ 4166 NONAME
 ?GetItemText@CTreeCtrl@@QEBA?AV?$CStringT@_WV?$StrTraitMFC_DLL@_WV?$ChTraitsCRT@_W@ATL@@@@@ATL@@PEAU_TREEITEM@@@Z @ 4167 NONAME
 ?GetKerningPairsW@CDC@@QEBAHHPEAUtagKERNINGPAIR@@@Z @ 4168 NONAME
 ?GetKeyName@CHotKeyCtrl@@SA?AV?$CStringT@_WV?$StrTraitMFC_DLL@_WV?$ChTraitsCRT@_W@ATL@@@@@ATL@@IH@Z @ 4169 NONAME
 ?GetLastAccessTime@CFileFind@@UEBAHAEAVCTime@ATL@@@Z @ 4170 NONAME
 ?GetLastAccessTime@CFileFind@@UEBAHPEAU_FILETIME@@@Z @ 4171 NONAME
 ?GetLastAccessTime@CGopherFileFind@@UEBAHAEAVCTime@ATL@@@Z @ 4172 NONAME
 ?GetLastAccessTime@CGopherFileFind@@UEBAHPEAU_FILETIME@@@Z @ 4173 NONAME
 ?GetLastActivePopup@CWnd@@QEBAPEAV1@XZ @ 4174 NONAME
 ?GetLastError@CAsyncSocket@@SAHXZ @ 4175 NONAME
 ?GetLastError@COleDialog@@QEBAIXZ @ 4176 NONAME
 ?GetLastStatus@COleClientItem@@QEBAJXZ @ 4177 NONAME
 ?GetLastUpdate@COleUILinkInfo@@UEAAJKPEAU_FILETIME@@@Z @ 4178 NONAME
 ?GetLastVisibleItem@CTreeCtrl@@QEBAPEAU_TREEITEM@@XZ @ 4179 NONAME
 ?GetLastWriteTime@CFileFind@@UEBAHAEAVCTime@ATL@@@Z @ 4180 NONAME
 ?GetLastWriteTime@CFileFind@@UEBAHPEAU_FILETIME@@@Z @ 4181 NONAME
 ?GetLastWriteTime@CGopherFileFind@@UEBAHAEAVCTime@ATL@@@Z @ 4182 NONAME
 ?GetLastWriteTime@CGopherFileFind@@UEBAHPEAU_FILETIME@@@Z @ 4183 NONAME
 ?GetLayout@CDC@@QEBAKXZ @ 4184 NONAME
 ?GetLBFetchSize@CRecordset@@MEAA_J_J@Z @ 4185 NONAME
 ?GetLBound@COleSafeArray@@QEAAXKPEAJ@Z @ 4186 NONAME
 ?GetLBReallocSize@CRecordset@@MEAA_J_J@Z @ 4187 NONAME
 ?GetLBText@CComboBox@@QEBAHHPEA_W@Z @ 4188 NONAME
 ?GetLBText@CComboBox@@QEBAXHAEAV?$CStringT@_WV?$StrTraitMFC_DLL@_WV?$ChTraitsCRT@_W@ATL@@@@@ATL@@@Z @ 4189 NONAME
 ?GetLBTextLen@CComboBox@@QEBAHH@Z @ 4190 NONAME
 ?GetLeft@CHtmlView@@QEBAJXZ @ 4191 NONAME
 ?GetLength@?$CSimpleStringT@_W$00@ATL@@QEBAHXZ @ 4192 NONAME
 ?GetLength@?$CSimpleStringT@D$00@ATL@@QEBAHXZ @ 4193 NONAME
 ?GetLength@CFile@@UEBA_KXZ @ 4194 NONAME
 ?GetLength@CFileFind@@QEBA_KXZ @ 4195 NONAME
 ?GetLength@CGopherFileFind@@UEBA_KXZ @ 4196 NONAME
 ?GetLength@CInternetFile@@UEBA_KXZ @ 4197 NONAME
 ?GetLength@CMemFile@@UEBA_KXZ @ 4198 NONAME
 ?GetLength@COleStreamFile@@UEBA_KXZ @ 4199 NONAME
 ?GetLength@CSocketFile@@UEBA_KXZ @ 4200 NONAME
 ?GetLength@CStdioFile@@UEBA_KXZ @ 4201 NONAME
 ?GetLicenseKey@COleObjectFactory@@MEAAHKPEAPEA_W@Z @ 4202 NONAME
 ?GetLicInfo@XClassFactory@COleObjectFactory@@UEAAJPEAUtagLICINFO@@@Z @ 4203 NONAME
 ?GetLimitText@CEdit@@QEBAIXZ @ 4204 NONAME
 ?GetLimitText@CRichEditCtrl@@QEBAJXZ @ 4205 NONAME
 ?GetLine@CEdit@@QEBAHHPEA_W@Z @ 4206 NONAME
 ?GetLine@CEdit@@QEBAHHPEA_WH@Z @ 4207 NONAME
 ?GetLine@CRichEditCtrl@@QEBAHHPEA_W@Z @ 4208 NONAME
 ?GetLine@CRichEditCtrl@@QEBAHHPEA_WH@Z @ 4209 NONAME
 ?GetLineColor@CTreeCtrl@@QEBAKXZ @ 4210 NONAME
 ?GetLineCount@CEdit@@QEBAHXZ @ 4211 NONAME
 ?GetLineCount@CRichEditCtrl@@QEBAHXZ @ 4212 NONAME
 ?GetLineSize@CSliderCtrl@@QEBAHXZ @ 4213 NONAME
 ?GetLinkItem@COleUILinkInfo@@AEAAPEAVCOleClientItem@@K@Z @ 4214 NONAME
 ?GetLinkSource@COleUILinkInfo@@UEAAJKPEAPEA_WPEAK00PEAH2@Z @ 4215 NONAME
 ?GetLinkSourceData@COleClientItem@@IEAAHPEAUtagSTGMEDIUM@@@Z @ 4216 NONAME
 ?GetLinkSourceData@COleServerItem@@QEAAHPEAUtagSTGMEDIUM@@@Z @ 4217 NONAME
 ?GetLinkUpdateOptions@COleClientItem@@QEAA?AW4tagOLEUPDATE@@XZ @ 4218 NONAME
 ?GetLinkUpdateOptions@COleUILinkInfo@@UEAAJKPEAK@Z @ 4219 NONAME
 ?GetList@CPropertySection@@QEAAPEAVCPtrList@@XZ @ 4220 NONAME
 ?GetList@CPropertySet@@QEAAPEAVCPtrList@@XZ @ 4221 NONAME
 ?GetListCtrl@CListView@@QEBAAEAVCListCtrl@@XZ @ 4222 NONAME
 ?GetLocale@CComboBox@@QEBAKXZ @ 4223 NONAME
 ?GetLocale@CListBox@@QEBAKXZ @ 4224 NONAME
 ?GetLocationName@CHtmlView@@QEBA?AV?$CStringT@_WV?$StrTraitMFC_DLL@_WV?$ChTraitsCRT@_W@ATL@@@@@ATL@@XZ @ 4225 NONAME
 ?GetLocationURL@CHtmlView@@QEBA?AV?$CStringT@_WV?$StrTraitMFC_DLL@_WV?$ChTraitsCRT@_W@ATL@@@@@ATL@@XZ @ 4226 NONAME
 ?GetLocator@CGopherFileFind@@QEBA?AVCGopherLocator@@XZ @ 4227 NONAME
 ?GetLocatorType@CGopherLocator@@QEBAHAEAK@Z @ 4228 NONAME
 ?GetLogBrush@CBrush@@QEAAHPEAUtagLOGBRUSH@@@Z @ 4229 NONAME
 ?GetLogFont@CFont@@QEAAHPEAUtagLOGFONTW@@@Z @ 4230 NONAME
 ?GetLogPen@CPen@@QEAAHPEAUtagLOGPEN@@@Z @ 4231 NONAME
 ?GetLongBinaryData@CFieldExchange@@QEAAXHAEAVCLongBinary@@PEA_J@Z @ 4232 NONAME
 ?GetLongBinaryDataAndCleanup@CRecordset@@SAXPEAVCDatabase@@PEAXF_JPEAPEAX2AEAVCDBVariant@@F@Z @ 4233 NONAME
 ?GetLongBinarySize@CFieldExchange@@QEAA_JH@Z @ 4234 NONAME
 ?GetLongCharDataAndCleanup@CRecordset@@SAXPEAVCDatabase@@PEAXF_JPEAPEAX2AEAV?$CStringT@_WV?$StrTraitMFC_DLL@_WV?$ChTraitsCRT@_W@ATL@@@@@ATL@@FF@Z @ 4235 NONAME
 ?GetLongCharDataAndCleanup@CRecordset@@SAXPEAVCDatabase@@PEAXF_JPEAPEAX2AEAV?$CStringT@DV?$StrTraitMFC_DLL@DV?$ChTraitsCRT@D@ATL@@@@@ATL@@FF@Z @ 4236 NONAME
 ?GetMainFrame@COleIPFrameWnd@@QEAAPEAVCFrameWnd@@XZ @ 4237 NONAME
 ?GetMainWnd@CWinThread@@UEAAPEAVCWnd@@XZ @ 4238 NONAME
 ?GetManager@?$CSimpleStringT@_W$00@ATL@@QEBAPEAUIAtlStringMgr@2@XZ @ 4239 NONAME
 ?GetManager@?$CSimpleStringT@D$00@ATL@@QEBAPEAUIAtlStringMgr@2@XZ @ 4240 NONAME
 ?GetManager@?$CStringT@_WV?$StrTraitMFC_DLL@_WV?$ChTraitsCRT@_W@ATL@@@@@ATL@@QEBAPEAUIAtlStringMgr@2@XZ @ 4241 NONAME
 ?GetManager@?$CStringT@DV?$StrTraitMFC_DLL@DV?$ChTraitsCRT@D@ATL@@@@@ATL@@QEBAPEAUIAtlStringMgr@2@XZ @ 4242 NONAME
 ?GetMapMode@CDC@@QEBAHXZ @ 4243 NONAME
 ?GetMargin@CToolTipCtrl@@QEBAXPEAUtagRECT@@@Z @ 4244 NONAME
 ?GetMargins@CEdit@@QEBAKXZ @ 4245 NONAME
 ?GetMargins@CPageSetupDialog@@QEBAXPEAUtagRECT@@0@Z @ 4246 NONAME
 ?GetMargins@CRichEditView@@QEBA?AVCRect@@XZ @ 4247 NONAME
 ?GetMaxConnections@CConnectionPoint@@UEAAHXZ @ 4248 NONAME
 ?GetMaxPage@CPrintInfo@@QEBAIXZ @ 4249 NONAME
 ?GetMaxSelCount@CMonthCalCtrl@@QEBAHXZ @ 4250 NONAME
 ?GetMaxSize@CToolBarCtrl@@QEBAHPEAUtagSIZE@@@Z @ 4251 NONAME
 ?GetMaxTextRows@CToolBarCtrl@@QEBAHXZ @ 4252 NONAME
 ?GetMaxTipWidth@CToolTipCtrl@@QEBAHXZ @ 4253 NONAME
 ?GetMaxTodayWidth@CMonthCalCtrl@@QEBAKXZ @ 4254 NONAME
 ?GetMDIFrame@CMDIChildWnd@@QEAAPEAVCMDIFrameWnd@@XZ @ 4255 NONAME
 ?GetMenu@CFrameWnd@@UEBAPEAVCMenu@@XZ @ 4256 NONAME
 ?GetMenu@CWnd@@UEBAPEAVCMenu@@XZ @ 4257 NONAME
 ?GetMenuBar@CHtmlView@@QEBAHXZ @ 4258 NONAME
 ?GetMenuBarInfo@CFrameWnd@@QEBAHJJPEAUtagMENUBARINFO@@@Z @ 4259 NONAME
 ?GetMenuBarState@CFrameWnd@@UEBAKXZ @ 4260 NONAME
 ?GetMenuBarVisibility@CFrameWnd@@UEBAKXZ @ 4261 NONAME
 ?GetMenuContextHelpId@CMenu@@QEBAKXZ @ 4262 NONAME
 ?GetMenuItemCount@CMenu@@QEBAIXZ @ 4263 NONAME
 ?GetMenuItemID@CMenu@@QEBAIH@Z @ 4264 NONAME
 ?GetMenuItemInfoW@CMenu@@QEAAHIPEAUtagMENUITEMINFOW@@H@Z @ 4265 NONAME
 ?GetMenuState@CMenu@@QEBAIII@Z @ 4266 NONAME
 ?GetMenuStringW@CMenu@@QEBAHIAEAV?$CStringT@_WV?$StrTraitMFC_DLL@_WV?$ChTraitsCRT@_W@ATL@@@@@ATL@@I@Z @ 4267 NONAME
 ?GetMenuStringW@CMenu@@QEBAHIPEA_WHI@Z @ 4268 NONAME
 ?GetMessageBar@CFrameWnd@@UEAAPEAVCWnd@@XZ @ 4269 NONAME
 ?GetMessageBar@CMDIChildWnd@@MEAAPEAVCWnd@@XZ @ 4270 NONAME
 ?GetMessageMap@CCheckListBox@@MEBAPEBUAFX_MSGMAP@@XZ @ 4271 NONAME
 ?GetMessageMap@CCmdTarget@@MEBAPEBUAFX_MSGMAP@@XZ @ 4272 NONAME
 ?GetMessageMap@CCommonDialog@@MEBAPEBUAFX_MSGMAP@@XZ @ 4273 NONAME
 ?GetMessageMap@CControlBar@@MEBAPEBUAFX_MSGMAP@@XZ @ 4274 NONAME
 ?GetMessageMap@CControlFrameWnd@@MEBAPEBUAFX_MSGMAP@@XZ @ 4275 NONAME
 ?GetMessageMap@CCtrlView@@MEBAPEBUAFX_MSGMAP@@XZ @ 4276 NONAME
 ?GetMessageMap@CDHtmlDialog@@MEBAPEBUAFX_MSGMAP@@XZ @ 4277 NONAME
 ?GetMessageMap@CDialog@@MEBAPEBUAFX_MSGMAP@@XZ @ 4278 NONAME
 ?GetMessageMap@CDialogBar@@MEBAPEBUAFX_MSGMAP@@XZ @ 4279 NONAME
 ?GetMessageMap@CDockBar@@MEBAPEBUAFX_MSGMAP@@XZ @ 4280 NONAME
 ?GetMessageMap@CDocObjectServer@@MEBAPEBUAFX_MSGMAP@@XZ @ 4281 NONAME
 ?GetMessageMap@CDocument@@MEBAPEBUAFX_MSGMAP@@XZ @ 4282 NONAME
 ?GetMessageMap@CEditView@@MEBAPEBUAFX_MSGMAP@@XZ @ 4283 NONAME
 ?GetMessageMap@CFormView@@MEBAPEBUAFX_MSGMAP@@XZ @ 4284 NONAME
 ?GetMessageMap@CFrameWnd@@MEBAPEBUAFX_MSGMAP@@XZ @ 4285 NONAME
 ?GetMessageMap@CHtmlEditView@@MEBAPEBUAFX_MSGMAP@@XZ @ 4286 NONAME
 ?GetMessageMap@CHtmlView@@MEBAPEBUAFX_MSGMAP@@XZ @ 4287 NONAME
 ?GetMessageMap@CListCtrl@@MEBAPEBUAFX_MSGMAP@@XZ @ 4288 NONAME
 ?GetMessageMap@CListView@@MEBAPEBUAFX_MSGMAP@@XZ @ 4289 NONAME
 ?GetMessageMap@CMDIChildWnd@@MEBAPEBUAFX_MSGMAP@@XZ @ 4290 NONAME
 ?GetMessageMap@CMDIFrameWnd@@MEBAPEBUAFX_MSGMAP@@XZ @ 4291 NONAME
 ?GetMessageMap@CMiniDockFrameWnd@@MEBAPEBUAFX_MSGMAP@@XZ @ 4292 NONAME
 ?GetMessageMap@CMiniFrameWnd@@MEBAPEBUAFX_MSGMAP@@XZ @ 4293 NONAME
 ?GetMessageMap@COleControl@@MEBAPEBUAFX_MSGMAP@@XZ @ 4294 NONAME
 ?GetMessageMap@COleDBRecordView@@MEBAPEBUAFX_MSGMAP@@XZ @ 4295 NONAME
 ?GetMessageMap@COleDocIPFrameWnd@@MEBAPEBUAFX_MSGMAP@@XZ @ 4296 NONAME
 ?GetMessageMap@COleIPFrameWnd@@MEBAPEBUAFX_MSGMAP@@XZ @ 4297 NONAME
 ?GetMessageMap@COlePropertyPage@@MEBAPEBUAFX_MSGMAP@@XZ @ 4298 NONAME
 ?GetMessageMap@COleResizeBar@@MEBAPEBUAFX_MSGMAP@@XZ @ 4299 NONAME
 ?GetMessageMap@COleServerDoc@@MEBAPEBUAFX_MSGMAP@@XZ @ 4300 NONAME
 ?GetMessageMap@CPreviewView@@MEBAPEBUAFX_MSGMAP@@XZ @ 4301 NONAME
 ?GetMessageMap@CPrintDialog@@MEBAPEBUAFX_MSGMAP@@XZ @ 4302 NONAME
 ?GetMessageMap@CPrintDialogEx@@MEBAPEBUAFX_MSGMAP@@XZ @ 4303 NONAME
 ?GetMessageMap@CPropertyPage@@MEBAPEBUAFX_MSGMAP@@XZ @ 4304 NONAME
 ?GetMessageMap@CPropertySheet@@MEBAPEBUAFX_MSGMAP@@XZ @ 4305 NONAME
 ?GetMessageMap@CReBar@@MEBAPEBUAFX_MSGMAP@@XZ @ 4306 NONAME
 ?GetMessageMap@CRecordView@@MEBAPEBUAFX_MSGMAP@@XZ @ 4307 NONAME
 ?GetMessageMap@CRichEditView@@MEBAPEBUAFX_MSGMAP@@XZ @ 4308 NONAME
 ?GetMessageMap@CScrollView@@MEBAPEBUAFX_MSGMAP@@XZ @ 4309 NONAME
 ?GetMessageMap@CSocketWnd@@MEBAPEBUAFX_MSGMAP@@XZ @ 4310 NONAME
 ?GetMessageMap@CSplitButton@@MEBAPEBUAFX_MSGMAP@@XZ @ 4311 NONAME
 ?GetMessageMap@CSplitterWnd@@MEBAPEBUAFX_MSGMAP@@XZ @ 4312 NONAME
 ?GetMessageMap@CStatusBar@@MEBAPEBUAFX_MSGMAP@@XZ @ 4313 NONAME
 ?GetMessageMap@CTabCtrl@@MEBAPEBUAFX_MSGMAP@@XZ @ 4314 NONAME
 ?GetMessageMap@CToolBar@@MEBAPEBUAFX_MSGMAP@@XZ @ 4315 NONAME
 ?GetMessageMap@CToolBarCtrl@@MEBAPEBUAFX_MSGMAP@@XZ @ 4316 NONAME
 ?GetMessageMap@CToolTipCtrl@@MEBAPEBUAFX_MSGMAP@@XZ @ 4317 NONAME
 ?GetMessageMap@CTreeCtrl@@MEBAPEBUAFX_MSGMAP@@XZ @ 4318 NONAME
 ?GetMessageMap@CTreeView@@MEBAPEBUAFX_MSGMAP@@XZ @ 4319 NONAME
 ?GetMessageMap@CView@@MEBAPEBUAFX_MSGMAP@@XZ @ 4320 NONAME
 ?GetMessageMap@CWinApp@@MEBAPEBUAFX_MSGMAP@@XZ @ 4321 NONAME
 ?GetMessageMap@CWnd@@MEBAPEBUAFX_MSGMAP@@XZ @ 4322 NONAME
 ?GetMessageString@CFrameWnd@@UEBAXIAEAV?$CStringT@_WV?$StrTraitMFC_DLL@_WV?$ChTraitsCRT@_W@ATL@@@@@ATL@@@Z @ 4323 NONAME
 ?GetMessageString@COleControl@@UEBAXIAEAV?$CStringT@_WV?$StrTraitMFC_DLL@_WV?$ChTraitsCRT@_W@ATL@@@@@ATL@@@Z @ 4324 NONAME
 ?GetMetaData@CDataSourceControl@@QEAAJXZ @ 4325 NONAME
 ?GetMetafileData@COleControl@@IEAAHPEAUtagFORMATETC@@PEAUtagSTGMEDIUM@@@Z @ 4326 NONAME
 ?GetMetafileData@COleServerItem@@MEAAHPEAUtagFORMATETC@@PEAUtagSTGMEDIUM@@@Z @ 4327 NONAME
 ?GetMinPage@CPrintInfo@@QEBAIXZ @ 4328 NONAME
 ?GetMinReqRect@CMonthCalCtrl@@QEBAHPEAUtagRECT@@@Z @ 4329 NONAME
 ?GetMiscStatus@XOleObject@CDocObjectServer@@UEAAJKPEAK@Z @ 4330 NONAME
 ?GetMiscStatus@XOleObject@COleControl@@UEAAJKPEAK@Z @ 4331 NONAME
 ?GetMiscStatus@XOleObject@COleServerDoc@@UEAAJKPEAK@Z @ 4332 NONAME
 ?GetMiscStatus@XOleObject@COleServerItem@@UEAAJKPEAK@Z @ 4333 NONAME
 ?GetMiterLimit@CDC@@QEBAMXZ @ 4334 NONAME
 ?GetModify@CEdit@@QEBAHXZ @ 4335 NONAME
 ?GetModify@CRichEditCtrl@@QEBAHXZ @ 4336 NONAME
 ?GetModifyPointers@CRectTracker@@IEAAXHPEAPEAH0PEAH1@Z @ 4337 NONAME
 ?GetMoniker@CMonikerFile@@QEBAPEAUIMoniker@@XZ @ 4338 NONAME
 ?GetMoniker@COleDocument@@UEAAPEAUIMoniker@@W4tagOLEGETMONIKER@@@Z @ 4339 NONAME
 ?GetMoniker@COleLinkingDoc@@UEAAPEAUIMoniker@@W4tagOLEGETMONIKER@@@Z @ 4340 NONAME
 ?GetMoniker@COleServerDoc@@UEAAPEAUIMoniker@@W4tagOLEGETMONIKER@@@Z @ 4341 NONAME
 ?GetMoniker@COleServerItem@@QEAAPEAUIMoniker@@W4tagOLEGETMONIKER@@@Z @ 4342 NONAME
 ?GetMoniker@XOleClientSite@COleClientItem@@UEAAJKKPEAPEAUIMoniker@@@Z @ 4343 NONAME
 ?GetMoniker@XOleClientSite@COleControlSite@@UEAAJKKPEAPEAUIMoniker@@@Z @ 4344 NONAME
 ?GetMoniker@XOleObject@CDocObjectServer@@UEAAJKKPEAPEAUIMoniker@@@Z @ 4345 NONAME
 ?GetMoniker@XOleObject@COleControl@@UEAAJKKPEAPEAUIMoniker@@@Z @ 4346 NONAME
 ?GetMoniker@XOleObject@COleServerDoc@@UEAAJKKPEAPEAUIMoniker@@@Z @ 4347 NONAME
 ?GetMoniker@XOleObject@COleServerItem@@UEAAJKKPEAPEAUIMoniker@@@Z @ 4348 NONAME
 ?GetMonthCalColor@CDateTimeCtrl@@QEBAKH@Z @ 4349 NONAME
 ?GetMonthCalCtrl@CDateTimeCtrl@@QEBAPEAVCMonthCalCtrl@@XZ @ 4350 NONAME
 ?GetMonthCalFont@CDateTimeCtrl@@QEBAPEAVCFont@@XZ @ 4351 NONAME
 ?GetMonthCalStyle@CDateTimeCtrl@@QEBAKXZ @ 4352 NONAME
 ?GetMonthDelta@CMonthCalCtrl@@QEBAHXZ @ 4353 NONAME
 ?GetMonthRange@CMonthCalCtrl@@QEBAHAEAVCOleDateTime@ATL@@0K@Z @ 4354 NONAME
 ?GetMonthRange@CMonthCalCtrl@@QEBAHAEAVCTime@ATL@@0K@Z @ 4355 NONAME
 ?GetMonthRange@CMonthCalCtrl@@QEBAHPEAU_SYSTEMTIME@@0K@Z @ 4356 NONAME
 ?GetNaturalExtent@XViewObject@COleControl@@UEAAJKJPEAUtagDVTARGETDEVICE@@PEAUHDC__@@PEAUtagExtentInfo@@PEAUtagSIZE@@@Z @ 4357 NONAME
 ?GetNearestColor@CDC@@QEBAKK@Z @ 4358 NONAME
 ?GetNearestPaletteIndex@CPalette@@QEBAIK@Z @ 4359 NONAME
 ?GetNewItemNumber@COleClientItem@@QEAAKXZ @ 4360 NONAME
 ?GetNewStorage@XRichEditOleCallback@CRichEditView@@UEAAJPEAPEAUIStorage@@@Z @ 4361 NONAME
 ?GetNext@CDataBoundProperty@@QEAAPEAV1@XZ @ 4362 NONAME
 ?GetNext@CObList@@QEAAAEAPEAVCObject@@AEAPEAU__POSITION@@@Z @ 4363 NONAME
 ?GetNext@CObList@@QEBAPEBVCObject@@AEAPEAU__POSITION@@@Z @ 4364 NONAME
 ?GetNext@CPtrList@@QEAAAEAPEAXAEAPEAU__POSITION@@@Z @ 4365 NONAME
 ?GetNext@CPtrList@@QEBAPEBXAEAPEAU__POSITION@@@Z @ 4366 NONAME
 ?GetNext@CStringList@@QEAAAEAV?$CStringT@_WV?$StrTraitMFC_DLL@_WV?$ChTraitsCRT@_W@ATL@@@@@ATL@@AEAPEAU__POSITION@@@Z @ 4367 NONAME
 ?GetNext@CStringList@@QEBAAEBV?$CStringT@_WV?$StrTraitMFC_DLL@_WV?$ChTraitsCRT@_W@ATL@@@@@ATL@@AEAPEAU__POSITION@@@Z @ 4368 NONAME
 ?GetNextAssoc@CMapPtrToPtr@@QEBAXAEAPEAU__POSITION@@AEAPEAX1@Z @ 4369 NONAME
 ?GetNextAssoc@CMapPtrToWord@@QEBAXAEAPEAU__POSITION@@AEAPEAXAEAG@Z @ 4370 NONAME
 ?GetNextAssoc@CMapStringToOb@@QEBAXAEAPEAU__POSITION@@AEAV?$CStringT@_WV?$StrTraitMFC_DLL@_WV?$ChTraitsCRT@_W@ATL@@@@@ATL@@AEAPEAVCObject@@@Z @ 4371 NONAME
 ?GetNextAssoc@CMapStringToPtr@@QEBAXAEAPEAU__POSITION@@AEAV?$CStringT@_WV?$StrTraitMFC_DLL@_WV?$ChTraitsCRT@_W@ATL@@@@@ATL@@AEAPEAX@Z @ 4372 NONAME
 ?GetNextAssoc@CMapStringToString@@QEBAXAEAPEAU__POSITION@@AEAV?$CStringT@_WV?$StrTraitMFC_DLL@_WV?$ChTraitsCRT@_W@ATL@@@@@ATL@@1@Z @ 4373 NONAME
 ?GetNextAssoc@CMapWordToOb@@QEBAXAEAPEAU__POSITION@@AEAGAEAPEAVCObject@@@Z @ 4374 NONAME
 ?GetNextAssoc@CMapWordToPtr@@QEBAXAEAPEAU__POSITION@@AEAGAEAPEAX@Z @ 4375 NONAME
 ?GetNextClientItem@COleDocument@@QEBAPEAVCOleClientItem@@AEAPEAU__POSITION@@@Z @ 4376 NONAME
 ?GetNextConnection@CConnectionPoint@@QEBAPEAUIUnknown@@AEAPEAU__POSITION@@@Z @ 4377 NONAME
 ?GetNextDlgGroupItem@CWnd@@QEBAPEAUCOleControlSiteOrWnd@@PEAU2@@Z @ 4378 NONAME
 ?GetNextDlgGroupItem@CWnd@@QEBAPEAV1@PEAV1@H@Z @ 4379 NONAME
 ?GetNextDlgTabItem@CWnd@@QEBAPEAUCOleControlSiteOrWnd@@PEAU2@H@Z @ 4380 NONAME
 ?GetNextDlgTabItem@CWnd@@QEBAPEAV1@PEAV1@H@Z @ 4381 NONAME
 ?GetNextDoc@CMultiDocTemplate@@UEBAPEAVCDocument@@AEAPEAU__POSITION@@@Z @ 4382 NONAME
 ?GetNextDoc@CSingleDocTemplate@@UEBAPEAVCDocument@@AEAPEAU__POSITION@@@Z @ 4383 NONAME
 ?GetNextDocTemplate@CDocManager@@UEBAPEAVCDocTemplate@@AEAPEAU__POSITION@@@Z @ 4384 NONAME
 ?GetNextDocTemplate@CWinApp@@QEBAPEAVCDocTemplate@@AEAPEAU__POSITION@@@Z @ 4385 NONAME
 ?GetNextFormat@COleDataObject@@QEAAHPEAUtagFORMATETC@@@Z @ 4386 NONAME
 ?GetNextItem@CListCtrl@@QEBAHHH@Z @ 4387 NONAME
 ?GetNextItem@COleDocument@@UEBAPEAVCDocItem@@AEAPEAU__POSITION@@@Z @ 4388 NONAME
 ?GetNextItem@CTreeCtrl@@QEBAPEAU_TREEITEM@@PEAU2@I@Z @ 4389 NONAME
 ?GetNextItemOfKind@COleDocument@@IEBAPEAVCDocItem@@AEAPEAU__POSITION@@PEAUCRuntimeClass@@@Z @ 4390 NONAME
 ?GetNextLink@COleUILinkInfo@@UEAAKK@Z @ 4391 NONAME
 ?GetNextPathName@CFileDialog@@QEBA?AV?$CStringT@_WV?$StrTraitMFC_DLL@_WV?$ChTraitsCRT@_W@ATL@@@@@ATL@@AEAPEAU__POSITION@@@Z @ 4392 NONAME
 ?GetNextSelectedItem@CListCtrl@@QEBAHAEAPEAU__POSITION@@@Z @ 4393 NONAME
 ?GetNextServerItem@COleDocument@@QEBAPEAVCOleServerItem@@AEAPEAU__POSITION@@@Z @ 4394 NONAME
 ?GetNextSiblingItem@CTreeCtrl@@QEBAPEAU_TREEITEM@@PEAU2@@Z @ 4395 NONAME
 ?GetNextView@CDocument@@UEBAPEAVCView@@AEAPEAU__POSITION@@@Z @ 4396 NONAME
 ?GetNextVisibleItem@CTreeCtrl@@QEBAPEAU_TREEITEM@@PEAU2@@Z @ 4397 NONAME
 ?GetNextWindow@CWnd@@QEBAPEAV1@I@Z @ 4398 NONAME
 ?GetNilString@CAfxStringMgr@@UEAAPEAUCStringData@ATL@@XZ @ 4399 NONAME
 ?GetNotifier@CFindReplaceDialog@@SAPEAV1@_J@Z @ 4400 NONAME
 ?GetNotSupported@CCmdTarget@@QEAAXXZ @ 4401 NONAME
 ?GetNotSupported@COleControl@@QEAAXXZ @ 4402 NONAME
 ?GetNumberOfWorkAreas@CListCtrl@@QEBAIXZ @ 4403 NONAME
 ?GetNumTics@CSliderCtrl@@QEBAIXZ @ 4404 NONAME
 ?GetObject@CGdiObject@@QEBAHHPEAX@Z @ 4405 NONAME
 ?GetObject@CHttpFile@@QEBA?AV?$CStringT@_WV?$StrTraitMFC_DLL@_WV?$ChTraitsCRT@_W@ATL@@@@@ATL@@XZ @ 4406 NONAME
 ?GetObjectArray@COlePropertyPage@@QEAAPEAPEAUIDispatch@@PEAK@Z @ 4407 NONAME
 ?GetObjectDescriptorData@COleClientItem@@IEAAXPEAUtagPOINT@@PEAUtagSIZE@@PEAUtagSTGMEDIUM@@@Z @ 4408 NONAME
 ?GetObjectDescriptorData@COleServerItem@@QEAAXPEAUtagPOINT@@PEAUtagSIZE@@PEAUtagSTGMEDIUM@@@Z @ 4409 NONAME
 ?GetObjectInfo@XOleUIObjInfo@COlePropertiesDialog@@UEAAJKPEAKPEAPEA_W111@Z @ 4410 NONAME
 ?GetObjectSchema@CArchive@@QEAAIXZ @ 4411 NONAME
 ?GetObjectStorage@XOleItemContainer@COleLinkingDoc@@UEAAJPEA_WPEAUIBindCtx@@AEBU_GUID@@PEAPEAX@Z @ 4412 NONAME
 ?GetObjectType@CGdiObject@@QEBAIXZ @ 4413 NONAME
 ?GetObjectW@CGdiObject@@QEBAHHPEAX@Z @ 4414 NONAME
 ?GetObjectW@CHttpFile@@QEBA?AV?$CStringT@_WV?$StrTraitMFC_DLL@_WV?$ChTraitsCRT@_W@ATL@@@@@ATL@@XZ @ 4415 NONAME
 ?GetObjectW@XOleItemContainer@COleLinkingDoc@@UEAAJPEA_WKPEAUIBindCtx@@AEBU_GUID@@PEAPEAX@Z @ 4416 NONAME
 ?GetOccDialogInfo@CDialog@@MEAAPEAU_AFX_OCC_DIALOG_INFO@@XZ @ 4417 NONAME
 ?GetOccDialogInfo@CFormView@@MEAAPEAU_AFX_OCC_DIALOG_INFO@@XZ @ 4418 NONAME
 ?GetOccDialogInfo@CWnd@@MEAAPEAU_AFX_OCC_DIALOG_INFO@@XZ @ 4419 NONAME
 ?GetODBCFieldCount@CRecordset@@QEBAFXZ @ 4420 NONAME
 ?GetODBCFieldInfo@CRecordset@@QEAAXFAEAUCODBCFieldInfo@@@Z @ 4421 NONAME
 ?GetODBCFieldInfo@CRecordset@@QEAAXPEB_WAEAUCODBCFieldInfo@@@Z @ 4422 NONAME
 ?GetOffline@CHtmlView@@QEBAHXZ @ 4423 NONAME
 ?GetOFN@CFileDialog@@QEAAAEAUtagOFNW@@XZ @ 4424 NONAME
 ?GetOFN@CFileDialog@@QEBAAEBUtagOFNW@@XZ @ 4425 NONAME
 ?GetOleControlSite@CWnd@@QEBAPEAVCOleControlSite@@I@Z @ 4426 NONAME
 ?GetOleObject@COleServerItem@@QEAAPEAUIOleObject@@XZ @ 4427 NONAME
 ?GetOneDimSize@COleSafeArray@@QEAAKXZ @ 4428 NONAME
 ?GetOpenClipboardWindow@CWnd@@SAPEAV1@XZ @ 4429 NONAME
 ?GetOpenDocumentCount@CDocManager@@UEAAHXZ @ 4430 NONAME
 ?GetOpenDocumentCount@CWinApp@@QEAAHXZ @ 4431 NONAME
 ?GetOptionKeyPath@CBrowserControlSite@@MEAAJPEAPEA_WK@Z @ 4432 NONAME
 ?GetOptionKeyPath@CDHtmlDialog@@UEAAJPEAPEA_WK@Z @ 4433 NONAME
 ?GetOptionKeyPath@XDocHostUIHandler@CHtmlControlSite@@UEAAJPEAPEA_WK@Z @ 4434 NONAME
 ?GetOptions@CRichEditCtrl@@QEBAIXZ @ 4435 NONAME
 ?GetOrderArray@CHeaderCtrl@@QEBAHPEAHH@Z @ 4436 NONAME
 ?GetOrigin@CListCtrl@@QEBAHPEAUtagPOINT@@@Z @ 4437 NONAME
 ?GetOSVersion@CPropertySet@@QEAAKXZ @ 4438 NONAME
 ?GetOuterWindow@COleControl@@IEBAPEAVCWnd@@XZ @ 4439 NONAME
 ?GetOutlineTextMetricsW@CDC@@QEBAIIPEAU_OUTLINETEXTMETRICW@@@Z @ 4440 NONAME
 ?GetOutputCharWidth@CDC@@QEBAHIIPEAH@Z @ 4441 NONAME
 ?GetOutputTabbedTextExtent@CDC@@QEBA?AVCSize@@AEBV?$CStringT@_WV?$StrTraitMFC_DLL@_WV?$ChTraitsCRT@_W@ATL@@@@@ATL@@HPEAH@Z @ 4442 NONAME
 ?GetOutputTabbedTextExtent@CDC@@QEBA?AVCSize@@PEB_WHHPEAH@Z @ 4443 NONAME
 ?GetOutputTextExtent@CDC@@QEBA?AVCSize@@AEBV?$CStringT@_WV?$StrTraitMFC_DLL@_WV?$ChTraitsCRT@_W@ATL@@@@@ATL@@@Z @ 4444 NONAME
 ?GetOutputTextExtent@CDC@@QEBA?AVCSize@@PEB_WH@Z @ 4445 NONAME
 ?GetOutputTextMetrics@CDC@@QEBAHPEAUtagTEXTMETRICW@@@Z @ 4446 NONAME
 ?GetOverflowRect@CHeaderCtrl@@QEBAHPEAUtagRECT@@@Z @ 4447 NONAME
 ?GetOwner@CWnd@@QEBAPEAV1@XZ @ 4448 NONAME
 ?GetPadding@CToolBarCtrl@@QEBAXAEAH0@Z @ 4449 NONAME
 ?GetPage@CPropertySheet@@QEBAPEAVCPropertyPage@@H@Z @ 4450 NONAME
 ?GetPageCount@COleDocObjectItem@@QEAAHPEAJ0@Z @ 4451 NONAME
 ?GetPageCount@CPropertySheet@@QEBAHXZ @ 4452 NONAME
 ?GetPageIndex@CPropertySheet@@QEAAHPEAVCPropertyPage@@@Z @ 4453 NONAME
 ?GetPageInfo@XPrint@CDocObjectServer@@UEAAJPEAJ0@Z @ 4454 NONAME
 ?GetPageInfo@XPropertyPage@COlePropertyPage@@UEAAJPEAUtagPROPPAGEINFO@@@Z @ 4455 NONAME
 ?GetPageRect@CRichEditView@@QEBA?AVCRect@@XZ @ 4456 NONAME
 ?GetPages@XSpecifyPropertyPages@COleControl@@UEAAJPEAUtagCAUUID@@@Z @ 4457 NONAME
 ?GetPageSite@COlePropertyPage@@QEAAPEAUIPropertyPageSite@@XZ @ 4458 NONAME
 ?GetPageSize@CSliderCtrl@@QEBAHXZ @ 4459 NONAME
 ?GetPalette@CReBarCtrl@@QEBAPEAVCPalette@@XZ @ 4460 NONAME
 ?GetPaletteEntries@CPalette@@QEBAIIIPEAUtagPALETTEENTRY@@@Z @ 4461 NONAME
 ?GetPane@CSplitterWnd@@QEBAPEAVCWnd@@HH@Z @ 4462 NONAME
 ?GetPaneInfo@CStatusBar@@QEBAXHAEAI0AEAH@Z @ 4463 NONAME
 ?GetPaneStyle@CStatusBar@@QEBAIH@Z @ 4464 NONAME
 ?GetPaneText@CStatusBar@@QEBA?AV?$CStringT@_WV?$StrTraitMFC_DLL@_WV?$ChTraitsCRT@_W@ATL@@@@@ATL@@H@Z @ 4465 NONAME
 ?GetPaneText@CStatusBar@@QEBAXHAEAV?$CStringT@_WV?$StrTraitMFC_DLL@_WV?$ChTraitsCRT@_W@ATL@@@@@ATL@@@Z @ 4466 NONAME
 ?GetPaperSize@CPageSetupDialog@@QEBA?AVCSize@@XZ @ 4467 NONAME
 ?GetPaperSize@CRichEditView@@QEBA?AVCSize@@XZ @ 4468 NONAME
 ?GetParaFormat@CRichEditCtrl@@QEBAKAEAU_paraformat@@@Z @ 4469 NONAME
 ?GetParaFormat@CRichEditCtrl@@QEBAKAEAUPARAFORMAT2@@@Z @ 4470 NONAME
 ?GetParaFormatSelection@CRichEditView@@QEAAAEAUPARAFORMAT2@@XZ @ 4471 NONAME
 ?GetParent@CWnd@@QEBAPEAV1@XZ @ 4472 NONAME
 ?GetParentBrowser@CHtmlView@@QEBAPEAUIDispatch@@XZ @ 4473 NONAME
 ?GetParentFrame@CWnd@@QEBAPEAVCFrameWnd@@XZ @ 4474 NONAME
 ?GetParentItem@CTreeCtrl@@QEBAPEAU_TREEITEM@@PEAU2@@Z @ 4475 NONAME
 ?GetParentOwner@CWnd@@QEBAPEAV1@XZ @ 4476 NONAME
 ?GetParentSplitter@CView@@SAPEAVCSplitterWnd@@PEBVCWnd@@H@Z @ 4477 NONAME
 ?GetParts@CStatusBarCtrl@@QEBAHHPEAH@Z @ 4478 NONAME
 ?GetPasswordChar@CEdit@@QEBA_WXZ @ 4479 NONAME
 ?GetPasteIndex@COlePasteSpecialDialog@@QEBAHXZ @ 4480 NONAME
 ?GetPath@CDataPathProperty@@QEBA?AV?$CStringT@_WV?$StrTraitMFC_DLL@_WV?$ChTraitsCRT@_W@ATL@@@@@ATL@@XZ @ 4481 NONAME
 ?GetPath@CDC@@QEBAHPEAUtagPOINT@@PEAEH@Z @ 4482 NONAME
 ?GetPathName@CDocument@@QEBAAEBV?$CStringT@_WV?$StrTraitMFC_DLL@_WV?$ChTraitsCRT@_W@ATL@@@@@ATL@@XZ @ 4483 NONAME
 ?GetPathName@CFileDialog@@QEBA?AV?$CStringT@_WV?$StrTraitMFC_DLL@_WV?$ChTraitsCRT@_W@ATL@@@@@ATL@@XZ @ 4484 NONAME
 ?GetPathName@COleInsertDialog@@QEBA?AV?$CStringT@_WV?$StrTraitMFC_DLL@_WV?$ChTraitsCRT@_W@ATL@@@@@ATL@@XZ @ 4485 NONAME
 ?GetPeerName@CAsyncSocket@@QEAAHAEAV?$CStringT@_WV?$StrTraitMFC_DLL@_WV?$ChTraitsCRT@_W@ATL@@@@@ATL@@AEAI@Z @ 4486 NONAME
 ?GetPeerName@CAsyncSocket@@QEAAHPEAUsockaddr@@PEAH@Z @ 4487 NONAME
 ?GetPictureDispatch@CPictureHolder@@QEAAPEAUIPictureDisp@@XZ @ 4488 NONAME
 ?GetPixel@CDC@@QEBAKHH@Z @ 4489 NONAME
 ?GetPixel@CDC@@QEBAKUtagPOINT@@@Z @ 4490 NONAME
 ?GetPolyFillMode@CDC@@QEBAHXZ @ 4491 NONAME
 ?GetPortName@CPageSetupDialog@@QEBA?AV?$CStringT@_WV?$StrTraitMFC_DLL@_WV?$ChTraitsCRT@_W@ATL@@@@@ATL@@XZ @ 4492 NONAME
 ?GetPortName@CPrintDialog@@QEBA?AV?$CStringT@_WV?$StrTraitMFC_DLL@_WV?$ChTraitsCRT@_W@ATL@@@@@ATL@@XZ @ 4493 NONAME
 ?GetPortName@CPrintDialogEx@@QEBA?AV?$CStringT@_WV?$StrTraitMFC_DLL@_WV?$ChTraitsCRT@_W@ATL@@@@@ATL@@XZ @ 4494 NONAME
 ?GetPos@CProgressCtrl@@QEBAHXZ @ 4495 NONAME
 ?GetPos@CSliderCtrl@@QEBAHXZ @ 4496 NONAME
 ?GetPos@CSpinButtonCtrl@@QEBAHXZ @ 4497 NONAME
 ?GetPos32@CSpinButtonCtrl@@QEBAHPEAH@Z @ 4498 NONAME
 ?GetPosition@CFile@@UEBA_KXZ @ 4499 NONAME
 ?GetPosition@CMemFile@@UEBA_KXZ @ 4500 NONAME
 ?GetPosition@COleStreamFile@@UEBA_KXZ @ 4501 NONAME
 ?GetPosition@CSocketFile@@UEBA_KXZ @ 4502 NONAME
 ?GetPosition@CStdioFile@@UEBA_KXZ @ 4503 NONAME
 ?GetPredefinedStrings@XPerPropertyBrowsing@COleControl@@UEAAJJPEAUtagCALPOLESTR@@PEAUtagCADWORD@@@Z @ 4504 NONAME
 ?GetPredefinedValue@XPerPropertyBrowsing@COleControl@@UEAAJJKPEAUtagVARIANT@@@Z @ 4505 NONAME
 ?GetPrev@CObList@@QEAAAEAPEAVCObject@@AEAPEAU__POSITION@@@Z @ 4506 NONAME
 ?GetPrev@CObList@@QEBAPEBVCObject@@AEAPEAU__POSITION@@@Z @ 4507 NONAME
 ?GetPrev@CPtrList@@QEAAAEAPEAXAEAPEAU__POSITION@@@Z @ 4508 NONAME
 ?GetPrev@CPtrList@@QEBAPEBXAEAPEAU__POSITION@@@Z @ 4509 NONAME
 ?GetPrev@CStringList@@QEAAAEAV?$CStringT@_WV?$StrTraitMFC_DLL@_WV?$ChTraitsCRT@_W@ATL@@@@@ATL@@AEAPEAU__POSITION@@@Z @ 4510 NONAME
 ?GetPrev@CStringList@@QEBAAEBV?$CStringT@_WV?$StrTraitMFC_DLL@_WV?$ChTraitsCRT@_W@ATL@@@@@ATL@@AEAPEAU__POSITION@@@Z @ 4511 NONAME
 ?GetPrevDlgGroupItem@CWnd@@QEBAPEAUCOleControlSiteOrWnd@@PEAU2@@Z @ 4512 NONAME
 ?GetPrevSiblingItem@CTreeCtrl@@QEBAPEAU_TREEITEM@@PEAU2@@Z @ 4513 NONAME
 ?GetPrevVisibleItem@CTreeCtrl@@QEBAPEAU_TREEITEM@@PEAU2@@Z @ 4514 NONAME
 ?GetPrimarySelectedItem@COleDocument@@UEAAPEAVCOleClientItem@@PEAVCView@@@Z @ 4515 NONAME
 ?GetPrimarySelectedItem@CRichEditDoc@@UEAAPEAVCOleClientItem@@PEAVCView@@@Z @ 4516 NONAME
 ?GetPrintDeviceInfo@COleClientItem@@IEAAHPEAPEAUIOleCache@@PEAPEAUtagDVTARGETDEVICE@@PEAK@Z @ 4517 NONAME
 ?GetPrinterDC@CPrintDialog@@QEBAPEAUHDC__@@XZ @ 4518 NONAME
 ?GetPrinterDC@CPrintDialogEx@@QEBAPEAUHDC__@@XZ @ 4519 NONAME
 ?GetPrinterDeviceDefaults@CWinApp@@QEAAHPEAUtagPDW@@@Z @ 4520 NONAME
 ?GetPrinterFont@CEditView@@QEBAPEAVCFont@@XZ @ 4521 NONAME
 ?GetPrintRect@CRichEditView@@QEBA?AVCRect@@XZ @ 4522 NONAME
 ?GetPrintWidth@CRichEditView@@QEBAHXZ @ 4523 NONAME
 ?GetPriority@CAsyncMonikerFile@@MEBAJXZ @ 4524 NONAME
 ?GetProc@CThemeHelper@@CAPEAXPEBDPEAX@Z @ 4525 NONAME
 ?GetProfileBinary@CWinApp@@QEAAHPEB_W0PEAPEAEPEAI@Z @ 4526 NONAME
 ?GetProfileIntW@CWinApp@@QEAAIPEB_W0H@Z @ 4527 NONAME
 ?GetProfileStringW@CWinApp@@QEAA?AV?$CStringT@_WV?$StrTraitMFC_DLL@_WV?$ChTraitsCRT@_W@ATL@@@@@ATL@@PEB_W00@Z @ 4528 NONAME
 ?GetPropCheck@COlePropertyPage@@QEAAHPEB_WPEAH@Z @ 4529 NONAME
 ?GetProperty@CHtmlView@@QEAA?AVCOleVariant@@PEB_W@Z @ 4530 NONAME
 ?GetProperty@CHtmlView@@QEAAHPEB_WAEAV?$CStringT@_WV?$StrTraitMFC_DLL@_WV?$ChTraitsCRT@_W@ATL@@@@@ATL@@@Z @ 4531 NONAME
 ?GetProperty@COleControlSite@@UEBAXJGPEAX@Z @ 4532 NONAME
 ?GetProperty@COleDispatchDriver@@QEBAXJGPEAX@Z @ 4533 NONAME
 ?GetProperty@CPropertySection@@QEAAPEAVCProperty@@K@Z @ 4534 NONAME
 ?GetProperty@CPropertySet@@QEAAPEAVCProperty@@U_GUID@@K@Z @ 4535 NONAME
 ?GetProperty@CWnd@@QEBAXJGPEAX@Z @ 4536 NONAME
 ?GetPropIndex@COlePropertyPage@@QEAAHPEB_WPEAH@Z @ 4537 NONAME
 ?GetPropPageIDs@COleControl@@MEAAPEAU_GUID@@AEAK@Z @ 4538 NONAME
 ?GetPropRadio@COlePropertyPage@@QEAAHPEB_WPEAH@Z @ 4539 NONAME
 ?GetPropsetData@COleControl@@IEAAHPEAUtagFORMATETC@@PEAUtagSTGMEDIUM@@AEBU_GUID@@@Z @ 4540 NONAME
 ?GetPropText@COlePropertyPage@@QEAAHPEB_WPEAE@Z @ 4541 NONAME
 ?GetPropText@COlePropertyPage@@QEAAHPEB_WPEAF@Z @ 4542 NONAME
 ?GetPropText@COlePropertyPage@@QEAAHPEB_WPEAH@Z @ 4543 NONAME
 ?GetPropText@COlePropertyPage@@QEAAHPEB_WPEAI@Z @ 4544 NONAME
 ?GetPropText@COlePropertyPage@@QEAAHPEB_WPEAJ@Z @ 4545 NONAME
 ?GetPropText@COlePropertyPage@@QEAAHPEB_WPEAK@Z @ 4546 NONAME
 ?GetPropText@COlePropertyPage@@QEAAHPEB_WPEAM@Z @ 4547 NONAME
 ?GetPropText@COlePropertyPage@@QEAAHPEB_WPEAN@Z @ 4548 NONAME
 ?GetPropText@COlePropertyPage@@QEAAHPEB_WPEAV?$CStringT@_WV?$StrTraitMFC_DLL@_WV?$ChTraitsCRT@_W@ATL@@@@@ATL@@@Z @ 4549 NONAME
 ?GetPSP@CPropertyPage@@QEAAAEAU_PROPSHEETPAGEW@@XZ @ 4550 NONAME
 ?GetPSP@CPropertyPage@@QEBAAEBU_PROPSHEETPAGEW@@XZ @ 4551 NONAME
 ?GetPunctuation@CRichEditCtrl@@QEBAHIPEAU_punctuation@@@Z @ 4552 NONAME
 ?GetRange@CDateTimeCtrl@@QEBAKPEAVCOleDateTime@ATL@@0@Z @ 4553 NONAME
 ?GetRange@CDateTimeCtrl@@QEBAKPEAVCTime@ATL@@0@Z @ 4554 NONAME
 ?GetRange@CMonthCalCtrl@@QEBAKPEAU_SYSTEMTIME@@0@Z @ 4555 NONAME
 ?GetRange@CMonthCalCtrl@@QEBAKPEAVCOleDateTime@ATL@@0@Z @ 4556 NONAME
 ?GetRange@CMonthCalCtrl@@QEBAKPEAVCTime@ATL@@0@Z @ 4557 NONAME
 ?GetRange@CProgressCtrl@@QEBAXAEAH0@Z @ 4558 NONAME
 ?GetRange@CSliderCtrl@@QEBAXAEAH0@Z @ 4559 NONAME
 ?GetRange@CSpinButtonCtrl@@QEBAKXZ @ 4560 NONAME
 ?GetRange@CSpinButtonCtrl@@QEBAXAEAH0@Z @ 4561 NONAME
 ?GetRange32@CSpinButtonCtrl@@QEBAXAEAH0@Z @ 4562 NONAME
 ?GetRangeMax@CSliderCtrl@@QEBAHXZ @ 4563 NONAME
 ?GetRangeMin@CSliderCtrl@@QEBAHXZ @ 4564 NONAME
 ?GetRawValue@CProperty@@QEAAPEAXXZ @ 4565 NONAME
 ?GetReadOnlyPref@CFileDialog@@QEBAHXZ @ 4566 NONAME
 ?GetReadyState@CHtmlView@@QEBA?AW4tagREADYSTATE@@XZ @ 4567 NONAME
 ?GetReadyState@COleControl@@QEAAJXZ @ 4568 NONAME
 ?GetReBarCtrl@CReBar@@QEBAAEAVCReBarCtrl@@XZ @ 4569 NONAME
 ?GetRecordCount@CRecordset@@QEBAJXZ @ 4570 NONAME
 ?GetRect@CEdit@@QEBAXPEAUtagRECT@@@Z @ 4571 NONAME
 ?GetRect@CReBarCtrl@@QEBAHIPEAUtagRECT@@@Z @ 4572 NONAME
 ?GetRect@CRichEditCtrl@@QEBAXPEAUtagRECT@@@Z @ 4573 NONAME
 ?GetRect@CStatusBarCtrl@@QEBAHHPEAUtagRECT@@@Z @ 4574 NONAME
 ?GetRect@CToolBarCtrl@@QEBAHHPEAUtagRECT@@@Z @ 4575 NONAME
 ?GetRect@XOleDocumentView@CDocObjectServer@@UEAAJPEAUtagRECT@@@Z @ 4576 NONAME
 ?GetRect@XViewObject@COleControl@@UEAAJKPEAU_RECTL@@@Z @ 4577 NONAME
 ?GetRectInContainer@COleControl@@QEAAHPEAUtagRECT@@@Z @ 4578 NONAME
 ?GetRedoName@CRichEditCtrl@@QEBA?AW4_undonameid@@XZ @ 4579 NONAME
 ?GetRegionData@CRgn@@QEBAHPEAU_RGNDATA@@H@Z @ 4580 NONAME
 ?GetRegisterAsBrowser@CHtmlView@@QEBAHXZ @ 4581 NONAME
 ?GetRegisterAsDropTarget@CHtmlView@@QEBAHXZ @ 4582 NONAME
 ?GetReplaceString@CFindReplaceDialog@@QEBA?AV?$CStringT@_WV?$StrTraitMFC_DLL@_WV?$ChTraitsCRT@_W@ATL@@@@@ATL@@XZ @ 4583 NONAME
 ?GetRgnBox@CRgn@@QEBAHPEAUtagRECT@@@Z @ 4584 NONAME
 ?GetRichEditCtrl@CRichEditView@@QEBAAEAVCRichEditCtrl@@XZ @ 4585 NONAME
 ?GetRoot@CFileFind@@UEBA?AV?$CStringT@_WV?$StrTraitMFC_DLL@_WV?$ChTraitsCRT@_W@ATL@@@@@ATL@@XZ @ 4586 NONAME
 ?GetRoot@CGopherFileFind@@UEBA?AV?$CStringT@_WV?$StrTraitMFC_DLL@_WV?$ChTraitsCRT@_W@ATL@@@@@ATL@@XZ @ 4587 NONAME
 ?GetRootItem@CTreeCtrl@@QEBAPEAU_TREEITEM@@XZ @ 4588 NONAME
 ?GetROP2@CDC@@QEBAHXZ @ 4589 NONAME
 ?GetRoutingFrame@CCmdTarget@@IEAAPEAVCFrameWnd@@XZ @ 4590 NONAME
 ?GetRoutingFrame_@CCmdTarget@@KAPEAVCFrameWnd@@XZ @ 4591 NONAME
 ?GetRoutingView@CCmdTarget@@IEAAPEAVCView@@XZ @ 4592 NONAME
 ?GetRoutingView_@CCmdTarget@@KAPEAVCView@@XZ @ 4593 NONAME
 ?GetRowCount@CReBarCtrl@@QEBAIXZ @ 4594 NONAME
 ?GetRowCount@CSplitterWnd@@QEBAHXZ @ 4595 NONAME
 ?GetRowCount@CTabCtrl@@QEBAHXZ @ 4596 NONAME
 ?GetRowHeight@CReBarCtrl@@QEBAII@Z @ 4597 NONAME
 ?GetRowInfo@CSplitterWnd@@QEBAXHAEAH0@Z @ 4598 NONAME
 ?GetRows@CToolBarCtrl@@QEBAHXZ @ 4599 NONAME
 ?GetRowsetSize@CRecordset@@QEBAKXZ @ 4600 NONAME
 ?GetRowsFetched@CRecordset@@QEBA_KXZ @ 4601 NONAME
 ?GetRowStatus@CRecordset@@QEBAGG@Z @ 4602 NONAME
 ?GetRuntimeClass@CAnimateCtrl@@UEBAPEAUCRuntimeClass@@XZ @ 4603 NONAME
 ?GetRuntimeClass@CArchiveException@@UEBAPEAUCRuntimeClass@@XZ @ 4604 NONAME
 ?GetRuntimeClass@CAsyncMonikerFile@@UEBAPEAUCRuntimeClass@@XZ @ 4605 NONAME
 ?GetRuntimeClass@CAsyncSocket@@UEBAPEAUCRuntimeClass@@XZ @ 4606 NONAME
 ?GetRuntimeClass@CBitmap@@UEBAPEAUCRuntimeClass@@XZ @ 4607 NONAME
 ?GetRuntimeClass@CBitmapButton@@UEBAPEAUCRuntimeClass@@XZ @ 4608 NONAME
 ?GetRuntimeClass@CBrush@@UEBAPEAUCRuntimeClass@@XZ @ 4609 NONAME
 ?GetRuntimeClass@CButton@@UEBAPEAUCRuntimeClass@@XZ @ 4610 NONAME
 ?GetRuntimeClass@CByteArray@@UEBAPEAUCRuntimeClass@@XZ @ 4611 NONAME
 ?GetRuntimeClass@CCachedDataPathProperty@@UEBAPEAUCRuntimeClass@@XZ @ 4612 NONAME
 ?GetRuntimeClass@CCheckListBox@@UEBAPEAUCRuntimeClass@@XZ @ 4613 NONAME
 ?GetRuntimeClass@CClientDC@@UEBAPEAUCRuntimeClass@@XZ @ 4614 NONAME
 ?GetRuntimeClass@CCmdTarget@@UEBAPEAUCRuntimeClass@@XZ @ 4615 NONAME
 ?GetRuntimeClass@CColorDialog@@UEBAPEAUCRuntimeClass@@XZ @ 4616 NONAME
 ?GetRuntimeClass@CComboBox@@UEBAPEAUCRuntimeClass@@XZ @ 4617 NONAME
 ?GetRuntimeClass@CComboBoxEx@@UEBAPEAUCRuntimeClass@@XZ @ 4618 NONAME
 ?GetRuntimeClass@CCommonDialog@@UEBAPEAUCRuntimeClass@@XZ @ 4619 NONAME
 ?GetRuntimeClass@CControlBar@@UEBAPEAUCRuntimeClass@@XZ @ 4620 NONAME
 ?GetRuntimeClass@CCriticalSection@@UEBAPEAUCRuntimeClass@@XZ @ 4621 NONAME
 ?GetRuntimeClass@CCtrlView@@UEBAPEAUCRuntimeClass@@XZ @ 4622 NONAME
 ?GetRuntimeClass@CDatabase@@UEBAPEAUCRuntimeClass@@XZ @ 4623 NONAME
 ?GetRuntimeClass@CDataPathProperty@@UEBAPEAUCRuntimeClass@@XZ @ 4624 NONAME
 ?GetRuntimeClass@CDateTimeCtrl@@UEBAPEAUCRuntimeClass@@XZ @ 4625 NONAME
 ?GetRuntimeClass@CDBException@@UEBAPEAUCRuntimeClass@@XZ @ 4626 NONAME
 ?GetRuntimeClass@CDC@@UEBAPEAUCRuntimeClass@@XZ @ 4627 NONAME
 ?GetRuntimeClass@CDHtmlDialog@@UEBAPEAUCRuntimeClass@@XZ @ 4628 NONAME
 ?GetRuntimeClass@CDialog@@UEBAPEAUCRuntimeClass@@XZ @ 4629 NONAME
 ?GetRuntimeClass@CDialogBar@@UEBAPEAUCRuntimeClass@@XZ @ 4630 NONAME
 ?GetRuntimeClass@CDocItem@@UEBAPEAUCRuntimeClass@@XZ @ 4631 NONAME
 ?GetRuntimeClass@CDockBar@@UEBAPEAUCRuntimeClass@@XZ @ 4632 NONAME
 ?GetRuntimeClass@CDockState@@UEBAPEAUCRuntimeClass@@XZ @ 4633 NONAME
 ?GetRuntimeClass@CDocManager@@UEBAPEAUCRuntimeClass@@XZ @ 4634 NONAME
 ?GetRuntimeClass@CDocObjectServer@@UEBAPEAUCRuntimeClass@@XZ @ 4635 NONAME
 ?GetRuntimeClass@CDocObjectServerItem@@UEBAPEAUCRuntimeClass@@XZ @ 4636 NONAME
 ?GetRuntimeClass@CDocTemplate@@UEBAPEAUCRuntimeClass@@XZ @ 4637 NONAME
 ?GetRuntimeClass@CDocument@@UEBAPEAUCRuntimeClass@@XZ @ 4638 NONAME
 ?GetRuntimeClass@CDragListBox@@UEBAPEAUCRuntimeClass@@XZ @ 4639 NONAME
 ?GetRuntimeClass@CDWordArray@@UEBAPEAUCRuntimeClass@@XZ @ 4640 NONAME
 ?GetRuntimeClass@CDynLinkLibrary@@UEBAPEAUCRuntimeClass@@XZ @ 4641 NONAME
 ?GetRuntimeClass@CEdit@@UEBAPEAUCRuntimeClass@@XZ @ 4642 NONAME
 ?GetRuntimeClass@CEditView@@UEBAPEAUCRuntimeClass@@XZ @ 4643 NONAME
 ?GetRuntimeClass@CEvent@@UEBAPEAUCRuntimeClass@@XZ @ 4644 NONAME
 ?GetRuntimeClass@CException@@UEBAPEAUCRuntimeClass@@XZ @ 4645 NONAME
 ?GetRuntimeClass@CFile@@UEBAPEAUCRuntimeClass@@XZ @ 4646 NONAME
 ?GetRuntimeClass@CFileDialog@@UEBAPEAUCRuntimeClass@@XZ @ 4647 NONAME
 ?GetRuntimeClass@CFileException@@UEBAPEAUCRuntimeClass@@XZ @ 4648 NONAME
 ?GetRuntimeClass@CFileFind@@UEBAPEAUCRuntimeClass@@XZ @ 4649 NONAME
 ?GetRuntimeClass@CFindReplaceDialog@@UEBAPEAUCRuntimeClass@@XZ @ 4650 NONAME
 ?GetRuntimeClass@CFont@@UEBAPEAUCRuntimeClass@@XZ @ 4651 NONAME
 ?GetRuntimeClass@CFontDialog@@UEBAPEAUCRuntimeClass@@XZ @ 4652 NONAME
 ?GetRuntimeClass@CFormView@@UEBAPEAUCRuntimeClass@@XZ @ 4653 NONAME
 ?GetRuntimeClass@CFrameWnd@@UEBAPEAUCRuntimeClass@@XZ @ 4654 NONAME
 ?GetRuntimeClass@CFtpConnection@@UEBAPEAUCRuntimeClass@@XZ @ 4655 NONAME
 ?GetRuntimeClass@CFtpFileFind@@UEBAPEAUCRuntimeClass@@XZ @ 4656 NONAME
 ?GetRuntimeClass@CGdiObject@@UEBAPEAUCRuntimeClass@@XZ @ 4657 NONAME
 ?GetRuntimeClass@CGopherConnection@@UEBAPEAUCRuntimeClass@@XZ @ 4658 NONAME
 ?GetRuntimeClass@CGopherFile@@UEBAPEAUCRuntimeClass@@XZ @ 4659 NONAME
 ?GetRuntimeClass@CGopherFileFind@@UEBAPEAUCRuntimeClass@@XZ @ 4660 NONAME
 ?GetRuntimeClass@CHeaderCtrl@@UEBAPEAUCRuntimeClass@@XZ @ 4661 NONAME
 ?GetRuntimeClass@CHotKeyCtrl@@UEBAPEAUCRuntimeClass@@XZ @ 4662 NONAME
 ?GetRuntimeClass@CHtmlEditDoc@@UEBAPEAUCRuntimeClass@@XZ @ 4663 NONAME
 ?GetRuntimeClass@CHtmlEditView@@UEBAPEAUCRuntimeClass@@XZ @ 4664 NONAME
 ?GetRuntimeClass@CHtmlView@@UEBAPEAUCRuntimeClass@@XZ @ 4665 NONAME
 ?GetRuntimeClass@CHttpConnection@@UEBAPEAUCRuntimeClass@@XZ @ 4666 NONAME
 ?GetRuntimeClass@CHttpFile@@UEBAPEAUCRuntimeClass@@XZ @ 4667 NONAME
 ?GetRuntimeClass@CImageList@@UEBAPEAUCRuntimeClass@@XZ @ 4668 NONAME
 ?GetRuntimeClass@CInternetConnection@@UEBAPEAUCRuntimeClass@@XZ @ 4669 NONAME
 ?GetRuntimeClass@CInternetException@@UEBAPEAUCRuntimeClass@@XZ @ 4670 NONAME
 ?GetRuntimeClass@CInternetFile@@UEBAPEAUCRuntimeClass@@XZ @ 4671 NONAME
 ?GetRuntimeClass@CInternetSession@@UEBAPEAUCRuntimeClass@@XZ @ 4672 NONAME
 ?GetRuntimeClass@CInvalidArgException@@UEBAPEAUCRuntimeClass@@XZ @ 4673 NONAME
 ?GetRuntimeClass@CIPAddressCtrl@@UEBAPEAUCRuntimeClass@@XZ @ 4674 NONAME
 ?GetRuntimeClass@CLinkCtrl@@UEBAPEAUCRuntimeClass@@XZ @ 4675 NONAME
 ?GetRuntimeClass@CListBox@@UEBAPEAUCRuntimeClass@@XZ @ 4676 NONAME
 ?GetRuntimeClass@CListCtrl@@UEBAPEAUCRuntimeClass@@XZ @ 4677 NONAME
 ?GetRuntimeClass@CListView@@UEBAPEAUCRuntimeClass@@XZ @ 4678 NONAME
 ?GetRuntimeClass@CLongBinary@@UEBAPEAUCRuntimeClass@@XZ @ 4679 NONAME
 ?GetRuntimeClass@CMapPtrToPtr@@UEBAPEAUCRuntimeClass@@XZ @ 4680 NONAME
 ?GetRuntimeClass@CMapPtrToWord@@UEBAPEAUCRuntimeClass@@XZ @ 4681 NONAME
 ?GetRuntimeClass@CMapStringToOb@@UEBAPEAUCRuntimeClass@@XZ @ 4682 NONAME
 ?GetRuntimeClass@CMapStringToPtr@@UEBAPEAUCRuntimeClass@@XZ @ 4683 NONAME
 ?GetRuntimeClass@CMapStringToString@@UEBAPEAUCRuntimeClass@@XZ @ 4684 NONAME
 ?GetRuntimeClass@CMapWordToOb@@UEBAPEAUCRuntimeClass@@XZ @ 4685 NONAME
 ?GetRuntimeClass@CMapWordToPtr@@UEBAPEAUCRuntimeClass@@XZ @ 4686 NONAME
 ?GetRuntimeClass@CMDIChildWnd@@UEBAPEAUCRuntimeClass@@XZ @ 4687 NONAME
 ?GetRuntimeClass@CMDIFrameWnd@@UEBAPEAUCRuntimeClass@@XZ @ 4688 NONAME
 ?GetRuntimeClass@CMemFile@@UEBAPEAUCRuntimeClass@@XZ @ 4689 NONAME
 ?GetRuntimeClass@CMemoryException@@UEBAPEAUCRuntimeClass@@XZ @ 4690 NONAME
 ?GetRuntimeClass@CMenu@@UEBAPEAUCRuntimeClass@@XZ @ 4691 NONAME
 ?GetRuntimeClass@CMetaFileDC@@UEBAPEAUCRuntimeClass@@XZ @ 4692 NONAME
 ?GetRuntimeClass@CMiniDockFrameWnd@@UEBAPEAUCRuntimeClass@@XZ @ 4693 NONAME
 ?GetRuntimeClass@CMiniFrameWnd@@UEBAPEAUCRuntimeClass@@XZ @ 4694 NONAME
 ?GetRuntimeClass@CMonikerFile@@UEBAPEAUCRuntimeClass@@XZ @ 4695 NONAME
 ?GetRuntimeClass@CMonthCalCtrl@@UEBAPEAUCRuntimeClass@@XZ @ 4696 NONAME
 ?GetRuntimeClass@CMultiDocTemplate@@UEBAPEAUCRuntimeClass@@XZ @ 4697 NONAME
 ?GetRuntimeClass@CMultiPageDHtmlDialog@@UEBAPEAUCRuntimeClass@@XZ @ 4698 NONAME
 ?GetRuntimeClass@CMutex@@UEBAPEAUCRuntimeClass@@XZ @ 4699 NONAME
 ?GetRuntimeClass@CNetAddressCtrl@@UEBAPEAUCRuntimeClass@@XZ @ 4700 NONAME
 ?GetRuntimeClass@CNotSupportedException@@UEBAPEAUCRuntimeClass@@XZ @ 4701 NONAME
 ?GetRuntimeClass@CObArray@@UEBAPEAUCRuntimeClass@@XZ @ 4702 NONAME
 ?GetRuntimeClass@CObject@@UEBAPEAUCRuntimeClass@@XZ @ 4703 NONAME
 ?GetRuntimeClass@CObList@@UEBAPEAUCRuntimeClass@@XZ @ 4704 NONAME
 ?GetRuntimeClass@COleBusyDialog@@UEBAPEAUCRuntimeClass@@XZ @ 4705 NONAME
 ?GetRuntimeClass@COleChangeIconDialog@@UEBAPEAUCRuntimeClass@@XZ @ 4706 NONAME
 ?GetRuntimeClass@COleChangeSourceDialog@@UEBAPEAUCRuntimeClass@@XZ @ 4707 NONAME
 ?GetRuntimeClass@COleClientItem@@UEBAPEAUCRuntimeClass@@XZ @ 4708 NONAME
 ?GetRuntimeClass@COleControl@@UEBAPEAUCRuntimeClass@@XZ @ 4709 NONAME
 ?GetRuntimeClass@COleControlModule@@UEBAPEAUCRuntimeClass@@XZ @ 4710 NONAME
 ?GetRuntimeClass@COleConvertDialog@@UEBAPEAUCRuntimeClass@@XZ @ 4711 NONAME
 ?GetRuntimeClass@COleDBRecordView@@UEBAPEAUCRuntimeClass@@XZ @ 4712 NONAME
 ?GetRuntimeClass@COleDialog@@UEBAPEAUCRuntimeClass@@XZ @ 4713 NONAME
 ?GetRuntimeClass@COleDispatchException@@UEBAPEAUCRuntimeClass@@XZ @ 4714 NONAME
 ?GetRuntimeClass@COleDocIPFrameWnd@@UEBAPEAUCRuntimeClass@@XZ @ 4715 NONAME
 ?GetRuntimeClass@COleDocObjectItem@@UEBAPEAUCRuntimeClass@@XZ @ 4716 NONAME
 ?GetRuntimeClass@COleDocument@@UEBAPEAUCRuntimeClass@@XZ @ 4717 NONAME
 ?GetRuntimeClass@COleException@@UEBAPEAUCRuntimeClass@@XZ @ 4718 NONAME
 ?GetRuntimeClass@COleInsertDialog@@UEBAPEAUCRuntimeClass@@XZ @ 4719 NONAME
 ?GetRuntimeClass@COleIPFrameWnd@@UEBAPEAUCRuntimeClass@@XZ @ 4720 NONAME
 ?GetRuntimeClass@COleLinkingDoc@@UEBAPEAUCRuntimeClass@@XZ @ 4721 NONAME
 ?GetRuntimeClass@COleLinksDialog@@UEBAPEAUCRuntimeClass@@XZ @ 4722 NONAME
 ?GetRuntimeClass@COleObjectFactory@@UEBAPEAUCRuntimeClass@@XZ @ 4723 NONAME
 ?GetRuntimeClass@COlePasteSpecialDialog@@UEBAPEAUCRuntimeClass@@XZ @ 4724 NONAME
 ?GetRuntimeClass@COlePropertiesDialog@@UEBAPEAUCRuntimeClass@@XZ @ 4725 NONAME
 ?GetRuntimeClass@COlePropertyPage@@UEBAPEAUCRuntimeClass@@XZ @ 4726 NONAME
 ?GetRuntimeClass@COleResizeBar@@UEBAPEAUCRuntimeClass@@XZ @ 4727 NONAME
 ?GetRuntimeClass@COleServerDoc@@UEBAPEAUCRuntimeClass@@XZ @ 4728 NONAME
 ?GetRuntimeClass@COleServerItem@@UEBAPEAUCRuntimeClass@@XZ @ 4729 NONAME
 ?GetRuntimeClass@COleStreamFile@@UEBAPEAUCRuntimeClass@@XZ @ 4730 NONAME
 ?GetRuntimeClass@COleUpdateDialog@@UEBAPEAUCRuntimeClass@@XZ @ 4731 NONAME
 ?GetRuntimeClass@CPagerCtrl@@UEBAPEAUCRuntimeClass@@XZ @ 4732 NONAME
 ?GetRuntimeClass@CPageSetupDialog@@UEBAPEAUCRuntimeClass@@XZ @ 4733 NONAME
 ?GetRuntimeClass@CPaintDC@@UEBAPEAUCRuntimeClass@@XZ @ 4734 NONAME
 ?GetRuntimeClass@CPalette@@UEBAPEAUCRuntimeClass@@XZ @ 4735 NONAME
 ?GetRuntimeClass@CPen@@UEBAPEAUCRuntimeClass@@XZ @ 4736 NONAME
 ?GetRuntimeClass@CPreviewDC@@UEBAPEAUCRuntimeClass@@XZ @ 4737 NONAME
 ?GetRuntimeClass@CPreviewView@@UEBAPEAUCRuntimeClass@@XZ @ 4738 NONAME
 ?GetRuntimeClass@CPrintDialog@@UEBAPEAUCRuntimeClass@@XZ @ 4739 NONAME
 ?GetRuntimeClass@CPrintDialogEx@@UEBAPEAUCRuntimeClass@@XZ @ 4740 NONAME
 ?GetRuntimeClass@CProgressCtrl@@UEBAPEAUCRuntimeClass@@XZ @ 4741 NONAME
 ?GetRuntimeClass@CPropertyPage@@UEBAPEAUCRuntimeClass@@XZ @ 4742 NONAME
 ?GetRuntimeClass@CPropertySheet@@UEBAPEAUCRuntimeClass@@XZ @ 4743 NONAME
 ?GetRuntimeClass@CPtrArray@@UEBAPEAUCRuntimeClass@@XZ @ 4744 NONAME
 ?GetRuntimeClass@CPtrList@@UEBAPEAUCRuntimeClass@@XZ @ 4745 NONAME
 ?GetRuntimeClass@CReBar@@UEBAPEAUCRuntimeClass@@XZ @ 4746 NONAME
 ?GetRuntimeClass@CReBarCtrl@@UEBAPEAUCRuntimeClass@@XZ @ 4747 NONAME
 ?GetRuntimeClass@CRecordset@@UEBAPEAUCRuntimeClass@@XZ @ 4748 NONAME
 ?GetRuntimeClass@CRecordView@@UEBAPEAUCRuntimeClass@@XZ @ 4749 NONAME
 ?GetRuntimeClass@CResourceException@@UEBAPEAUCRuntimeClass@@XZ @ 4750 NONAME
 ?GetRuntimeClass@CRgn@@UEBAPEAUCRuntimeClass@@XZ @ 4751 NONAME
 ?GetRuntimeClass@CRichEditCntrItem@@UEBAPEAUCRuntimeClass@@XZ @ 4752 NONAME
 ?GetRuntimeClass@CRichEditCtrl@@UEBAPEAUCRuntimeClass@@XZ @ 4753 NONAME
 ?GetRuntimeClass@CRichEditDoc@@UEBAPEAUCRuntimeClass@@XZ @ 4754 NONAME
 ?GetRuntimeClass@CRichEditView@@UEBAPEAUCRuntimeClass@@XZ @ 4755 NONAME
 ?GetRuntimeClass@CScrollBar@@UEBAPEAUCRuntimeClass@@XZ @ 4756 NONAME
 ?GetRuntimeClass@CScrollView@@UEBAPEAUCRuntimeClass@@XZ @ 4757 NONAME
 ?GetRuntimeClass@CSemaphore@@UEBAPEAUCRuntimeClass@@XZ @ 4758 NONAME
 ?GetRuntimeClass@CSharedFile@@UEBAPEAUCRuntimeClass@@XZ @ 4759 NONAME
 ?GetRuntimeClass@CSimpleException@@UEBAPEAUCRuntimeClass@@XZ @ 4760 NONAME
 ?GetRuntimeClass@CSingleDocTemplate@@UEBAPEAUCRuntimeClass@@XZ @ 4761 NONAME
 ?GetRuntimeClass@CSliderCtrl@@UEBAPEAUCRuntimeClass@@XZ @ 4762 NONAME
 ?GetRuntimeClass@CSocket@@UEBAPEAUCRuntimeClass@@XZ @ 4763 NONAME
 ?GetRuntimeClass@CSocketFile@@UEBAPEAUCRuntimeClass@@XZ @ 4764 NONAME
 ?GetRuntimeClass@CSpinButtonCtrl@@UEBAPEAUCRuntimeClass@@XZ @ 4765 NONAME
 ?GetRuntimeClass@CSplitButton@@UEBAPEAUCRuntimeClass@@XZ @ 4766 NONAME
 ?GetRuntimeClass@CSplitterWnd@@UEBAPEAUCRuntimeClass@@XZ @ 4767 NONAME
 ?GetRuntimeClass@CStatic@@UEBAPEAUCRuntimeClass@@XZ @ 4768 NONAME
 ?GetRuntimeClass@CStatusBar@@UEBAPEAUCRuntimeClass@@XZ @ 4769 NONAME
 ?GetRuntimeClass@CStatusBarCtrl@@UEBAPEAUCRuntimeClass@@XZ @ 4770 NONAME
 ?GetRuntimeClass@CStdioFile@@UEBAPEAUCRuntimeClass@@XZ @ 4771 NONAME
 ?GetRuntimeClass@CStringArray@@UEBAPEAUCRuntimeClass@@XZ @ 4772 NONAME
 ?GetRuntimeClass@CStringList@@UEBAPEAUCRuntimeClass@@XZ @ 4773 NONAME
 ?GetRuntimeClass@CSyncObject@@UEBAPEAUCRuntimeClass@@XZ @ 4774 NONAME
 ?GetRuntimeClass@CTabCtrl@@UEBAPEAUCRuntimeClass@@XZ @ 4775 NONAME
 ?GetRuntimeClass@CToolBar@@UEBAPEAUCRuntimeClass@@XZ @ 4776 NONAME
 ?GetRuntimeClass@CToolBarCtrl@@UEBAPEAUCRuntimeClass@@XZ @ 4777 NONAME
 ?GetRuntimeClass@CToolTipCtrl@@UEBAPEAUCRuntimeClass@@XZ @ 4778 NONAME
 ?GetRuntimeClass@CTreeCtrl@@UEBAPEAUCRuntimeClass@@XZ @ 4779 NONAME
 ?GetRuntimeClass@CTreeView@@UEBAPEAUCRuntimeClass@@XZ @ 4780 NONAME
 ?GetRuntimeClass@CUIntArray@@UEBAPEAUCRuntimeClass@@XZ @ 4781 NONAME
 ?GetRuntimeClass@CUserException@@UEBAPEAUCRuntimeClass@@XZ @ 4782 NONAME
 ?GetRuntimeClass@CView@@UEBAPEAUCRuntimeClass@@XZ @ 4783 NONAME
 ?GetRuntimeClass@CWinApp@@UEBAPEAUCRuntimeClass@@XZ @ 4784 NONAME
 ?GetRuntimeClass@CWindowDC@@UEBAPEAUCRuntimeClass@@XZ @ 4785 NONAME
 ?GetRuntimeClass@CWindowlessDC@@UEBAPEAUCRuntimeClass@@XZ @ 4786 NONAME
 ?GetRuntimeClass@CWinThread@@UEBAPEAUCRuntimeClass@@XZ @ 4787 NONAME
 ?GetRuntimeClass@CWnd@@UEBAPEAUCRuntimeClass@@XZ @ 4788 NONAME
 ?GetRuntimeClass@CWordArray@@UEBAPEAUCRuntimeClass@@XZ @ 4789 NONAME
 ?GetSafeHandle@CGdiObject@@QEBAPEAXXZ @ 4790 NONAME
 ?GetSafeHandle@CImageList@@QEBAPEAU_IMAGELIST@@XZ @ 4791 NONAME
 ?GetSafeHdc@CDC@@QEBAPEAUHDC__@@XZ @ 4792 NONAME
 ?GetSafeHmenu@CMenu@@QEBAPEAUHMENU__@@XZ @ 4793 NONAME
 ?GetSafeHwnd@CWnd@@QEBAPEAUHWND__@@XZ @ 4794 NONAME
 ?GetSafeOwner@CWnd@@SAPEAV1@PEAV1@PEAPEAUHWND__@@@Z @ 4795 NONAME
 ?GetSafeOwner_@CWnd@@SAPEAUHWND__@@PEAU2@PEAPEAU2@@Z @ 4796 NONAME
 ?GetSavedCustomColors@CColorDialog@@SAPEAKXZ @ 4797 NONAME
 ?GetScreenName@CGopherFileFind@@QEBA?AV?$CStringT@_WV?$StrTraitMFC_DLL@_WV?$ChTraitsCRT@_W@ATL@@@@@ATL@@XZ @ 4798 NONAME
 ?GetScreenSize@CDockState@@QEAA?AVCSize@@XZ @ 4799 NONAME
 ?GetScrollBarCtrl@CView@@UEBAPEAVCScrollBar@@H@Z @ 4800 NONAME
 ?GetScrollBarCtrl@CWnd@@UEBAPEAVCScrollBar@@H@Z @ 4801 NONAME
 ?GetScrollBarSizes@CScrollView@@IEAAXAEAVCSize@@@Z @ 4802 NONAME
 ?GetScrollBarState@CScrollView@@IEAAXVCSize@@AEAV2@1AEAVCPoint@@H@Z @ 4803 NONAME
 ?GetScrollInfo@CScrollBar@@QEAAHPEAUtagSCROLLINFO@@I@Z @ 4804 NONAME
 ?GetScrollInfo@CWnd@@QEAAHHPEAUtagSCROLLINFO@@I@Z @ 4805 NONAME
 ?GetScrollLimit@CScrollBar@@QEAAHXZ @ 4806 NONAME
 ?GetScrollLimit@CWnd@@QEAAHH@Z @ 4807 NONAME
 ?GetScrollPos@CScrollBar@@QEBAHXZ @ 4808 NONAME
 ?GetScrollPos@CWnd@@QEBAHH@Z @ 4809 NONAME
 ?GetScrollPosition@CScrollView@@QEBA?AVCPoint@@XZ @ 4810 NONAME
 ?GetScrollRange@CScrollBar@@QEBAXPEAH0@Z @ 4811 NONAME
 ?GetScrollRange@CWnd@@QEBAXHPEAH0@Z @ 4812 NONAME
 ?GetScrollStyle@CSplitterWnd@@QEBAKXZ @ 4813 NONAME
 ?GetScrollTime@CTreeCtrl@@QEBAIXZ @ 4814 NONAME
 ?GetSection@CPropertySet@@QEAAPEAVCPropertySection@@U_GUID@@@Z @ 4815 NONAME
 ?GetSectionKey@CWinApp@@QEAAPEAUHKEY__@@PEB_W@Z @ 4816 NONAME
 ?GetSectionName@CPropertySection@@QEAAPEB_WXZ @ 4817 NONAME
 ?GetSel@CEdit@@QEBAKXZ @ 4818 NONAME
 ?GetSel@CEdit@@QEBAXAEAH0@Z @ 4819 NONAME
 ?GetSel@CListBox@@QEBAHH@Z @ 4820 NONAME
 ?GetSel@CRichEditCtrl@@QEBAXAEAJ0@Z @ 4821 NONAME
 ?GetSel@CRichEditCtrl@@QEBAXAEAU_charrange@@@Z @ 4822 NONAME
 ?GetSelCount@CListBox@@QEBAHXZ @ 4823 NONAME
 ?GetSelectedCount@CListCtrl@@QEBAIXZ @ 4824 NONAME
 ?GetSelectedCount@CTreeCtrl@@QEAAIXZ @ 4825 NONAME
 ?GetSelectedItem@CRichEditView@@QEBAPEAVCRichEditCntrItem@@XZ @ 4826 NONAME
 ?GetSelectedItem@CTreeCtrl@@QEBAPEAU_TREEITEM@@XZ @ 4827 NONAME
 ?GetSelectedText@CEditView@@QEBAXAEAV?$CStringT@_WV?$StrTraitMFC_DLL@_WV?$ChTraitsCRT@_W@ATL@@@@@ATL@@@Z @ 4828 NONAME
 ?GetSelection@CSliderCtrl@@QEBAXAEAH0@Z @ 4829 NONAME
 ?GetSelectionCharFormat@CRichEditCtrl@@QEBAKAEAU_charformatw@@@Z @ 4830 NONAME
 ?GetSelectionCharFormat@CRichEditCtrl@@QEBAKAEAUCHARFORMAT2W@@@Z @ 4831 NONAME
 ?GetSelectionMark@CListCtrl@@QEBAHXZ @ 4832 NONAME
 ?GetSelectionType@COleBusyDialog@@QEBAIXZ @ 4833 NONAME
 ?GetSelectionType@COleConvertDialog@@QEBAIXZ @ 4834 NONAME
 ?GetSelectionType@COleInsertDialog@@QEBAIXZ @ 4835 NONAME
 ?GetSelectionType@COlePasteSpecialDialog@@QEBAIXZ @ 4836 NONAME
 ?GetSelectionType@CRichEditCtrl@@QEBAGXZ @ 4837 NONAME
 ?GetSelItems@CListBox@@QEBAHHPEAH@Z @ 4838 NONAME
 ?GetSelRange@CMonthCalCtrl@@QEBAHAEAVCOleDateTime@ATL@@0@Z @ 4839 NONAME
 ?GetSelRange@CMonthCalCtrl@@QEBAHAEAVCTime@ATL@@0@Z @ 4840 NONAME
 ?GetSelRange@CMonthCalCtrl@@QEBAHPEAU_SYSTEMTIME@@0@Z @ 4841 NONAME
 ?GetSelText@CRichEditCtrl@@QEBA?AV?$CStringT@_WV?$StrTraitMFC_DLL@_WV?$ChTraitsCRT@_W@ATL@@@@@ATL@@XZ @ 4842 NONAME
 ?GetSelText@CRichEditCtrl@@QEBAJPEAD@Z @ 4843 NONAME
 ?GetServerName@CInternetConnection@@QEBA?AV?$CStringT@_WV?$StrTraitMFC_DLL@_WV?$ChTraitsCRT@_W@ATL@@@@@ATL@@XZ @ 4844 NONAME
 ?GetSession@CInternetConnection@@QEBAPEAVCInternetSession@@XZ @ 4845 NONAME
 ?GetSilent@CHtmlView@@QEBAHXZ @ 4846 NONAME
 ?GetSite@CPrintDialogEx@@UEAAJAEBU_GUID@@PEAPEAX@Z @ 4847 NONAME
 ?GetSize@CByteArray@@QEBA_JXZ @ 4848 NONAME
 ?GetSize@CDWordArray@@QEBA_JXZ @ 4849 NONAME
 ?GetSize@CFontDialog@@QEBAHXZ @ 4850 NONAME
 ?GetSize@CMapPtrToPtr@@QEBA_JXZ @ 4851 NONAME
 ?GetSize@CMapPtrToWord@@QEBA_JXZ @ 4852 NONAME
 ?GetSize@CMapStringToOb@@QEBA_JXZ @ 4853 NONAME
 ?GetSize@CMapStringToPtr@@QEBA_JXZ @ 4854 NONAME
 ?GetSize@CMapStringToString@@QEBA_JXZ @ 4855 NONAME
 ?GetSize@CMapWordToOb@@QEBA_JXZ @ 4856 NONAME
 ?GetSize@CMapWordToPtr@@QEBA_JXZ @ 4857 NONAME
 ?GetSize@CObArray@@QEBA_JXZ @ 4858 NONAME
 ?GetSize@CObList@@QEBA_JXZ @ 4859 NONAME
 ?GetSize@CPropertySection@@QEAAKXZ @ 4860 NONAME
 ?GetSize@CPtrArray@@QEBA_JXZ @ 4861 NONAME
 ?GetSize@CPtrList@@QEBA_JXZ @ 4862 NONAME
 ?GetSize@CStringArray@@QEBA_JXZ @ 4863 NONAME
 ?GetSize@CStringList@@QEBA_JXZ @ 4864 NONAME
 ?GetSize@CUIntArray@@QEBA_JXZ @ 4865 NONAME
 ?GetSize@CWordArray@@QEBA_JXZ @ 4866 NONAME
 ?GetSizeInDialogUnits@CDialogTemplate@@QEBAXPEAUtagSIZE@@@Z @ 4867 NONAME
 ?GetSizeInPixels@CDialogTemplate@@QEBAXPEAUtagSIZE@@@Z @ 4868 NONAME
 ?GetSizeMax@CBlobProperty@@UEAAJPEAT_ULARGE_INTEGER@@@Z @ 4869 NONAME
 ?GetSizeMax@XPersistMemory@COleControl@@UEAAJPEAK@Z @ 4870 NONAME
 ?GetSizeMax@XPersistStreamInit@COleControl@@UEAAJPEAT_ULARGE_INTEGER@@@Z @ 4871 NONAME
 ?GetSizingParent@CSplitterWnd@@IEAAPEAVCWnd@@XZ @ 4872 NONAME
 ?GetSockName@CAsyncSocket@@QEAAHAEAV?$CStringT@_WV?$StrTraitMFC_DLL@_WV?$ChTraitsCRT@_W@ATL@@@@@ATL@@AEAI@Z @ 4873 NONAME
 ?GetSockName@CAsyncSocket@@QEAAHPEAUsockaddr@@PEAH@Z @ 4874 NONAME
 ?GetSockOpt@CAsyncSocket@@QEAAHHPEAXPEAHH@Z @ 4875 NONAME
 ?GetSource@CHtmlView@@QEAAHAEAV?$CStringT@_WV?$StrTraitMFC_DLL@_WV?$ChTraitsCRT@_W@ATL@@@@@ATL@@@Z @ 4876 NONAME
 ?GetSQL@CRecordset@@QEBAAEBV?$CStringT@_WV?$StrTraitMFC_DLL@_WV?$ChTraitsCRT@_W@ATL@@@@@ATL@@XZ @ 4877 NONAME
 ?GetStackSize@CCmdTarget@@KAIPEBEG@Z @ 4878 NONAME
 ?GetStandardProp@CCmdTarget@@IEAAXPEBUAFX_DISPMAP_ENTRY@@PEAUtagVARIANT@@PEAI@Z @ 4879 NONAME
 ?GetStartDocument@CHtmlEditCtrl@@UEAAPEB_WXZ @ 4880 NONAME
 ?GetStartDocument@CHtmlEditView@@UEAAPEB_WXZ @ 4881 NONAME
 ?GetStartPosition@CConnectionPoint@@QEBAPEAU__POSITION@@XZ @ 4882 NONAME
 ?GetStartPosition@CFileDialog@@QEBAPEAU__POSITION@@XZ @ 4883 NONAME
 ?GetStartPosition@CMapPtrToPtr@@QEBAPEAU__POSITION@@XZ @ 4884 NONAME
 ?GetStartPosition@CMapPtrToWord@@QEBAPEAU__POSITION@@XZ @ 4885 NONAME
 ?GetStartPosition@CMapStringToOb@@QEBAPEAU__POSITION@@XZ @ 4886 NONAME
 ?GetStartPosition@CMapStringToPtr@@QEBAPEAU__POSITION@@XZ @ 4887 NONAME
 ?GetStartPosition@CMapStringToString@@QEBAPEAU__POSITION@@XZ @ 4888 NONAME
 ?GetStartPosition@CMapWordToOb@@QEBAPEAU__POSITION@@XZ @ 4889 NONAME
 ?GetStartPosition@CMapWordToPtr@@QEBAPEAU__POSITION@@XZ @ 4890 NONAME
 ?GetStartPosition@COleDocument@@UEBAPEAU__POSITION@@XZ @ 4891 NONAME
 ?GetStartPosition@CRichEditDoc@@UEBAPEAU__POSITION@@XZ @ 4892 NONAME
 ?GetState@CButton@@QEBAIXZ @ 4893 NONAME
 ?GetState@CProgressCtrl@@QEBAHXZ @ 4894 NONAME
 ?GetState@CToolBarCtrl@@QEBAHH@Z @ 4895 NONAME
 ?GetStatus@CFile@@QEBAHAEAUCFileStatus@@@Z @ 4896 NONAME
 ?GetStatus@CFile@@SAHPEB_WAEAUCFileStatus@@@Z @ 4897 NONAME
 ?GetStatus@CMemFile@@QEBAHAEAUCFileStatus@@@Z @ 4898 NONAME
 ?GetStatus@COleCurrency@@QEBA?AW4CurrencyStatus@1@XZ @ 4899 NONAME
 ?GetStatus@COleStreamFile@@QEBAHAEAUCFileStatus@@@Z @ 4900 NONAME
 ?GetStatus@CRecordset@@QEBAXAEAUCRecordsetStatus@@@Z @ 4901 NONAME
 ?GetStatusBar@CHtmlView@@QEBAHXZ @ 4902 NONAME
 ?GetStatusBarCtrl@CStatusBar@@QEBAAEAVCStatusBarCtrl@@XZ @ 4903 NONAME
 ?GetStep@CProgressCtrl@@QEBAHXZ @ 4904 NONAME
 ?GetStockEventMask@COleControl@@IEBAKXZ @ 4905 NONAME
 ?GetStockPropMask@COleControl@@IEBAKXZ @ 4906 NONAME
 ?GetStockTextMetrics@COleControl@@QEAAXPEAUtagTEXTMETRICW@@@Z @ 4907 NONAME
 ?GetStorageName@COleStreamFile@@UEBA?BV?$CStringT@_WV?$StrTraitMFC_DLL@_WV?$ChTraitsCRT@_W@ATL@@@@@ATL@@XZ @ 4908 NONAME
 ?GetStream@COleStreamFile@@QEBAPEAUIStream@@XZ @ 4909 NONAME
 ?GetStreamFormat@CRichEditDoc@@QEBAHXZ @ 4910 NONAME
 ?GetStretchBltMode@CDC@@QEBAHXZ @ 4911 NONAME
 ?GetString@?$CSimpleStringT@_W$00@ATL@@QEBAPEB_WXZ @ 4912 NONAME
 ?GetString@?$CSimpleStringT@D$00@ATL@@QEBAPEBDXZ @ 4913 NONAME
 ?GetString@CToolBarCtrl@@QEBAHHAEAV?$CStringT@_WV?$StrTraitMFC_DLL@_WV?$ChTraitsCRT@_W@ATL@@@@@ATL@@@Z @ 4914 NONAME
 ?GetString@CToolBarCtrl@@QEBAHHPEA_W_K@Z @ 4915 NONAME
 ?GetStringWidth@CListCtrl@@QEBAHPEB_W@Z @ 4916 NONAME
 ?GetStyle@COleControlSite@@UEBAKXZ @ 4917 NONAME
 ?GetStyle@COleControlSiteOrWnd@@QEBAKXZ @ 4918 NONAME
 ?GetStyle@CToolBarCtrl@@QEBAKXZ @ 4919 NONAME
 ?GetStyle@CWnd@@QEBAKXZ @ 4920 NONAME
 ?GetStyleName@CFontDialog@@QEBA?AV?$CStringT@_WV?$StrTraitMFC_DLL@_WV?$ChTraitsCRT@_W@ATL@@@@@ATL@@XZ @ 4921 NONAME
 ?GetSubItemRect@CListCtrl@@QEBAHHHHAEAVCRect@@@Z @ 4922 NONAME
 ?GetSubMenu@CMenu@@QEBAPEAV1@H@Z @ 4923 NONAME
 ?GetSuperWndProcAddr@CWnd@@MEAAPEAP6A_JPEAUHWND__@@I_K_J@ZXZ @ 4924 NONAME
 ?GetSysPolicyValue@CWinApp@@QEAAHKPEAH@Z @ 4925 NONAME
 ?GetSystemMenu@CWnd@@QEBAPEAVCMenu@@H@Z @ 4926 NONAME
 ?GetTabbedTextExtentW@CDC@@QEBA?AVCSize@@AEBV?$CStringT@_WV?$StrTraitMFC_DLL@_WV?$ChTraitsCRT@_W@ATL@@@@@ATL@@HPEAH@Z @ 4927 NONAME
 ?GetTabbedTextExtentW@CDC@@QEBA?AVCSize@@PEB_WHHPEAH@Z @ 4928 NONAME
 ?GetTabControl@CPropertySheet@@QEBAPEAVCTabCtrl@@XZ @ 4929 NONAME
 ?GetTableName@CRecordset@@QEBAAEBV?$CStringT@_WV?$StrTraitMFC_DLL@_WV?$ChTraitsCRT@_W@ATL@@@@@ATL@@XZ @ 4930 NONAME
 ?GetTail@CObList@@QEAAAEAPEAVCObject@@XZ @ 4931 NONAME
 ?GetTail@CObList@@QEBAPEBVCObject@@XZ @ 4932 NONAME
 ?GetTail@CPtrList@@QEAAAEAPEAXXZ @ 4933 NONAME
 ?GetTail@CPtrList@@QEBAPEBXXZ @ 4934 NONAME
 ?GetTail@CStringList@@QEAAAEAV?$CStringT@_WV?$StrTraitMFC_DLL@_WV?$ChTraitsCRT@_W@ATL@@@@@ATL@@XZ @ 4935 NONAME
 ?GetTail@CStringList@@QEBAAEBV?$CStringT@_WV?$StrTraitMFC_DLL@_WV?$ChTraitsCRT@_W@ATL@@@@@ATL@@XZ @ 4936 NONAME
 ?GetTailPosition@CObList@@QEBAPEAU__POSITION@@XZ @ 4937 NONAME
 ?GetTailPosition@CPtrList@@QEBAPEAU__POSITION@@XZ @ 4938 NONAME
 ?GetTailPosition@CStringList@@QEBAPEAU__POSITION@@XZ @ 4939 NONAME
 ?GetTemplateSize@CDialogTemplate@@KAIPEBUDLGTEMPLATE@@@Z @ 4940 NONAME
 ?GetText@CListBox@@QEBAHHPEA_W@Z @ 4941 NONAME
 ?GetText@CListBox@@QEBAXHAEAV?$CStringT@_WV?$StrTraitMFC_DLL@_WV?$ChTraitsCRT@_W@ATL@@@@@ATL@@@Z @ 4942 NONAME
 ?GetText@COleControl@@QEAAPEA_WXZ @ 4943 NONAME
 ?GetText@CStatusBarCtrl@@QEBA?AV?$CStringT@_WV?$StrTraitMFC_DLL@_WV?$ChTraitsCRT@_W@ATL@@@@@ATL@@HPEAH@Z @ 4944 NONAME
 ?GetText@CStatusBarCtrl@@QEBAHPEA_WHPEAH@Z @ 4945 NONAME
 ?GetText@CToolTipCtrl@@QEBAXAEAV?$CStringT@_WV?$StrTraitMFC_DLL@_WV?$ChTraitsCRT@_W@ATL@@@@@ATL@@PEAVCWnd@@_K@Z @ 4946 NONAME
 ?GetTextAlign@CDC@@QEBAIXZ @ 4947 NONAME
 ?GetTextBkColor@CListCtrl@@QEBAKXZ @ 4948 NONAME
 ?GetTextCharacterExtra@CDC@@QEBAHXZ @ 4949 NONAME
 ?GetTextColor@CDC@@QEBAKXZ @ 4950 NONAME
 ?GetTextColor@CListCtrl@@QEBAKXZ @ 4951 NONAME
 ?GetTextColor@CReBarCtrl@@QEBAKXZ @ 4952 NONAME
 ?GetTextColor@CTreeCtrl@@QEBAKXZ @ 4953 NONAME
 ?GetTextExtent@CDC@@QEBA?AVCSize@@AEBV?$CStringT@_WV?$StrTraitMFC_DLL@_WV?$ChTraitsCRT@_W@ATL@@@@@ATL@@@Z @ 4954 NONAME
 ?GetTextExtent@CDC@@QEBA?AVCSize@@PEB_WH@Z @ 4955 NONAME
 ?GetTextFaceW@CDC@@QEBAHAEAV?$CStringT@_WV?$StrTraitMFC_DLL@_WV?$ChTraitsCRT@_W@ATL@@@@@ATL@@@Z @ 4956 NONAME
 ?GetTextFaceW@CDC@@QEBAHHPEA_W@Z @ 4957 NONAME
 ?GetTextLen@CListBox@@QEBAHH@Z @ 4958 NONAME
 ?GetTextLen@CRecordset@@SA_JF_K@Z @ 4959 NONAME
 ?GetTextLength@CRichEditCtrl@@QEBAJXZ @ 4960 NONAME
 ?GetTextLength@CRichEditView@@QEBAJXZ @ 4961 NONAME
 ?GetTextLength@CStatusBarCtrl@@QEBAHHPEAH@Z @ 4962 NONAME
 ?GetTextLengthEx@CRichEditCtrl@@QEBAJKI@Z @ 4963 NONAME
 ?GetTextLengthEx@CRichEditView@@QEBAJKI@Z @ 4964 NONAME
 ?GetTextMetrics@CDC@@QEBAHPEAUtagTEXTMETRICW@@@Z @ 4965 NONAME
 ?GetTextMetricsW@CDC@@QEBAHPEAUtagTEXTMETRICW@@@Z @ 4966 NONAME
 ?GetTextMode@CRichEditCtrl@@QEBAIXZ @ 4967 NONAME
 ?GetTextRange@CRichEditCtrl@@QEBAHHHAEAV?$CStringT@_WV?$StrTraitMFC_DLL@_WV?$ChTraitsCRT@_W@ATL@@@@@ATL@@@Z @ 4968 NONAME
 ?GetTheaterMode@CHtmlView@@QEBAHXZ @ 4969 NONAME
 ?GetThemePartSize@CThemeHelper@@SAJPEAXPEAUHDC__@@HHPEAUtagRECT@@W4THEMESIZE@@PEAUtagSIZE@@@Z @ 4970 NONAME
 ?GetThemePartSizeFail@CThemeHelper@@CAJPEAXPEAUHDC__@@HHPEAUtagRECT@@W4THEMESIZE@@PEAUtagSIZE@@@Z @ 4971 NONAME
 ?GetThisClass@CAnimateCtrl@@SAPEAUCRuntimeClass@@XZ @ 4972 NONAME
 ?GetThisClass@CArchiveException@@SAPEAUCRuntimeClass@@XZ @ 4973 NONAME
 ?GetThisClass@CAsyncMonikerFile@@SAPEAUCRuntimeClass@@XZ @ 4974 NONAME
 ?GetThisClass@CAsyncSocket@@SAPEAUCRuntimeClass@@XZ @ 4975 NONAME
 ?GetThisClass@CBitmap@@SAPEAUCRuntimeClass@@XZ @ 4976 NONAME
 ?GetThisClass@CBitmapButton@@SAPEAUCRuntimeClass@@XZ @ 4977 NONAME
 ?GetThisClass@CBrush@@SAPEAUCRuntimeClass@@XZ @ 4978 NONAME
 ?GetThisClass@CButton@@SAPEAUCRuntimeClass@@XZ @ 4979 NONAME
 ?GetThisClass@CByteArray@@SAPEAUCRuntimeClass@@XZ @ 4980 NONAME
 ?GetThisClass@CCachedDataPathProperty@@SAPEAUCRuntimeClass@@XZ @ 4981 NONAME
 ?GetThisClass@CCheckListBox@@SAPEAUCRuntimeClass@@XZ @ 4982 NONAME
 ?GetThisClass@CClientDC@@SAPEAUCRuntimeClass@@XZ @ 4983 NONAME
 ?GetThisClass@CCmdTarget@@SAPEAUCRuntimeClass@@XZ @ 4984 NONAME
 ?GetThisClass@CColorDialog@@SAPEAUCRuntimeClass@@XZ @ 4985 NONAME
 ?GetThisClass@CComboBox@@SAPEAUCRuntimeClass@@XZ @ 4986 NONAME
 ?GetThisClass@CComboBoxEx@@SAPEAUCRuntimeClass@@XZ @ 4987 NONAME
 ?GetThisClass@CCommonDialog@@SAPEAUCRuntimeClass@@XZ @ 4988 NONAME
 ?GetThisClass@CControlBar@@SAPEAUCRuntimeClass@@XZ @ 4989 NONAME
 ?GetThisClass@CCriticalSection@@SAPEAUCRuntimeClass@@XZ @ 4990 NONAME
 ?GetThisClass@CCtrlView@@SAPEAUCRuntimeClass@@XZ @ 4991 NONAME
 ?GetThisClass@CDatabase@@SAPEAUCRuntimeClass@@XZ @ 4992 NONAME
 ?GetThisClass@CDataPathProperty@@SAPEAUCRuntimeClass@@XZ @ 4993 NONAME
 ?GetThisClass@CDateTimeCtrl@@SAPEAUCRuntimeClass@@XZ @ 4994 NONAME
 ?GetThisClass@CDBException@@SAPEAUCRuntimeClass@@XZ @ 4995 NONAME
 ?GetThisClass@CDC@@SAPEAUCRuntimeClass@@XZ @ 4996 NONAME
 ?GetThisClass@CDHtmlDialog@@SAPEAUCRuntimeClass@@XZ @ 4997 NONAME
 ?GetThisClass@CDialog@@SAPEAUCRuntimeClass@@XZ @ 4998 NONAME
 ?GetThisClass@CDialogBar@@SAPEAUCRuntimeClass@@XZ @ 4999 NONAME
 ?GetThisClass@CDocItem@@SAPEAUCRuntimeClass@@XZ @ 5000 NONAME
 ?GetThisClass@CDockBar@@SAPEAUCRuntimeClass@@XZ @ 5001 NONAME
 ?GetThisClass@CDockState@@SAPEAUCRuntimeClass@@XZ @ 5002 NONAME
 ?GetThisClass@CDocManager@@SAPEAUCRuntimeClass@@XZ @ 5003 NONAME
 ?GetThisClass@CDocObjectServer@@SAPEAUCRuntimeClass@@XZ @ 5004 NONAME
 ?GetThisClass@CDocObjectServerItem@@SAPEAUCRuntimeClass@@XZ @ 5005 NONAME
 ?GetThisClass@CDocTemplate@@SAPEAUCRuntimeClass@@XZ @ 5006 NONAME
 ?GetThisClass@CDocument@@SAPEAUCRuntimeClass@@XZ @ 5007 NONAME
 ?GetThisClass@CDragListBox@@SAPEAUCRuntimeClass@@XZ @ 5008 NONAME
 ?GetThisClass@CDWordArray@@SAPEAUCRuntimeClass@@XZ @ 5009 NONAME
 ?GetThisClass@CDynLinkLibrary@@SAPEAUCRuntimeClass@@XZ @ 5010 NONAME
 ?GetThisClass@CEdit@@SAPEAUCRuntimeClass@@XZ @ 5011 NONAME
 ?GetThisClass@CEditView@@SAPEAUCRuntimeClass@@XZ @ 5012 NONAME
 ?GetThisClass@CEvent@@SAPEAUCRuntimeClass@@XZ @ 5013 NONAME
 ?GetThisClass@CException@@SAPEAUCRuntimeClass@@XZ @ 5014 NONAME
 ?GetThisClass@CFile@@SAPEAUCRuntimeClass@@XZ @ 5015 NONAME
 ?GetThisClass@CFileDialog@@SAPEAUCRuntimeClass@@XZ @ 5016 NONAME
 ?GetThisClass@CFileException@@SAPEAUCRuntimeClass@@XZ @ 5017 NONAME
 ?GetThisClass@CFileFind@@SAPEAUCRuntimeClass@@XZ @ 5018 NONAME
 ?GetThisClass@CFindReplaceDialog@@SAPEAUCRuntimeClass@@XZ @ 5019 NONAME
 ?GetThisClass@CFont@@SAPEAUCRuntimeClass@@XZ @ 5020 NONAME
 ?GetThisClass@CFontDialog@@SAPEAUCRuntimeClass@@XZ @ 5021 NONAME
 ?GetThisClass@CFormView@@SAPEAUCRuntimeClass@@XZ @ 5022 NONAME
 ?GetThisClass@CFrameWnd@@SAPEAUCRuntimeClass@@XZ @ 5023 NONAME
 ?GetThisClass@CFtpConnection@@SAPEAUCRuntimeClass@@XZ @ 5024 NONAME
 ?GetThisClass@CFtpFileFind@@SAPEAUCRuntimeClass@@XZ @ 5025 NONAME
 ?GetThisClass@CGdiObject@@SAPEAUCRuntimeClass@@XZ @ 5026 NONAME
 ?GetThisClass@CGopherConnection@@SAPEAUCRuntimeClass@@XZ @ 5027 NONAME
 ?GetThisClass@CGopherFile@@SAPEAUCRuntimeClass@@XZ @ 5028 NONAME
 ?GetThisClass@CGopherFileFind@@SAPEAUCRuntimeClass@@XZ @ 5029 NONAME
 ?GetThisClass@CHeaderCtrl@@SAPEAUCRuntimeClass@@XZ @ 5030 NONAME
 ?GetThisClass@CHotKeyCtrl@@SAPEAUCRuntimeClass@@XZ @ 5031 NONAME
 ?GetThisClass@CHtmlEditDoc@@SAPEAUCRuntimeClass@@XZ @ 5032 NONAME
 ?GetThisClass@CHtmlEditView@@SAPEAUCRuntimeClass@@XZ @ 5033 NONAME
 ?GetThisClass@CHtmlView@@SAPEAUCRuntimeClass@@XZ @ 5034 NONAME
 ?GetThisClass@CHttpConnection@@SAPEAUCRuntimeClass@@XZ @ 5035 NONAME
 ?GetThisClass@CHttpFile@@SAPEAUCRuntimeClass@@XZ @ 5036 NONAME
 ?GetThisClass@CImageList@@SAPEAUCRuntimeClass@@XZ @ 5037 NONAME
 ?GetThisClass@CInternetConnection@@SAPEAUCRuntimeClass@@XZ @ 5038 NONAME
 ?GetThisClass@CInternetException@@SAPEAUCRuntimeClass@@XZ @ 5039 NONAME
 ?GetThisClass@CInternetFile@@SAPEAUCRuntimeClass@@XZ @ 5040 NONAME
 ?GetThisClass@CInternetSession@@SAPEAUCRuntimeClass@@XZ @ 5041 NONAME
 ?GetThisClass@CInvalidArgException@@SAPEAUCRuntimeClass@@XZ @ 5042 NONAME
 ?GetThisClass@CIPAddressCtrl@@SAPEAUCRuntimeClass@@XZ @ 5043 NONAME
 ?GetThisClass@CLinkCtrl@@SAPEAUCRuntimeClass@@XZ @ 5044 NONAME
 ?GetThisClass@CListBox@@SAPEAUCRuntimeClass@@XZ @ 5045 NONAME
 ?GetThisClass@CListCtrl@@SAPEAUCRuntimeClass@@XZ @ 5046 NONAME
 ?GetThisClass@CListView@@SAPEAUCRuntimeClass@@XZ @ 5047 NONAME
 ?GetThisClass@CLongBinary@@SAPEAUCRuntimeClass@@XZ @ 5048 NONAME
 ?GetThisClass@CMapPtrToPtr@@SAPEAUCRuntimeClass@@XZ @ 5049 NONAME
 ?GetThisClass@CMapPtrToWord@@SAPEAUCRuntimeClass@@XZ @ 5050 NONAME
 ?GetThisClass@CMapStringToOb@@SAPEAUCRuntimeClass@@XZ @ 5051 NONAME
 ?GetThisClass@CMapStringToPtr@@SAPEAUCRuntimeClass@@XZ @ 5052 NONAME
 ?GetThisClass@CMapStringToString@@SAPEAUCRuntimeClass@@XZ @ 5053 NONAME
 ?GetThisClass@CMapWordToOb@@SAPEAUCRuntimeClass@@XZ @ 5054 NONAME
 ?GetThisClass@CMapWordToPtr@@SAPEAUCRuntimeClass@@XZ @ 5055 NONAME
 ?GetThisClass@CMDIChildWnd@@SAPEAUCRuntimeClass@@XZ @ 5056 NONAME
 ?GetThisClass@CMDIFrameWnd@@SAPEAUCRuntimeClass@@XZ @ 5057 NONAME
 ?GetThisClass@CMemFile@@SAPEAUCRuntimeClass@@XZ @ 5058 NONAME
 ?GetThisClass@CMemoryException@@SAPEAUCRuntimeClass@@XZ @ 5059 NONAME
 ?GetThisClass@CMenu@@SAPEAUCRuntimeClass@@XZ @ 5060 NONAME
 ?GetThisClass@CMetaFileDC@@SAPEAUCRuntimeClass@@XZ @ 5061 NONAME
 ?GetThisClass@CMiniDockFrameWnd@@SAPEAUCRuntimeClass@@XZ @ 5062 NONAME
 ?GetThisClass@CMiniFrameWnd@@SAPEAUCRuntimeClass@@XZ @ 5063 NONAME
 ?GetThisClass@CMonikerFile@@SAPEAUCRuntimeClass@@XZ @ 5064 NONAME
 ?GetThisClass@CMonthCalCtrl@@SAPEAUCRuntimeClass@@XZ @ 5065 NONAME
 ?GetThisClass@CMultiDocTemplate@@SAPEAUCRuntimeClass@@XZ @ 5066 NONAME
 ?GetThisClass@CMultiPageDHtmlDialog@@SAPEAUCRuntimeClass@@XZ @ 5067 NONAME
 ?GetThisClass@CMutex@@SAPEAUCRuntimeClass@@XZ @ 5068 NONAME
 ?GetThisClass@CNetAddressCtrl@@SAPEAUCRuntimeClass@@XZ @ 5069 NONAME
 ?GetThisClass@CNotSupportedException@@SAPEAUCRuntimeClass@@XZ @ 5070 NONAME
 ?GetThisClass@CObArray@@SAPEAUCRuntimeClass@@XZ @ 5071 NONAME
 ?GetThisClass@CObject@@SAPEAUCRuntimeClass@@XZ @ 5072 NONAME
 ?GetThisClass@CObList@@SAPEAUCRuntimeClass@@XZ @ 5073 NONAME
 ?GetThisClass@COleBusyDialog@@SAPEAUCRuntimeClass@@XZ @ 5074 NONAME
 ?GetThisClass@COleChangeIconDialog@@SAPEAUCRuntimeClass@@XZ @ 5075 NONAME
 ?GetThisClass@COleChangeSourceDialog@@SAPEAUCRuntimeClass@@XZ @ 5076 NONAME
 ?GetThisClass@COleClientItem@@SAPEAUCRuntimeClass@@XZ @ 5077 NONAME
 ?GetThisClass@COleControl@@SAPEAUCRuntimeClass@@XZ @ 5078 NONAME
 ?GetThisClass@COleControlModule@@SAPEAUCRuntimeClass@@XZ @ 5079 NONAME
 ?GetThisClass@COleConvertDialog@@SAPEAUCRuntimeClass@@XZ @ 5080 NONAME
 ?GetThisClass@COleDBRecordView@@SAPEAUCRuntimeClass@@XZ @ 5081 NONAME
 ?GetThisClass@COleDialog@@SAPEAUCRuntimeClass@@XZ @ 5082 NONAME
 ?GetThisClass@COleDispatchException@@SAPEAUCRuntimeClass@@XZ @ 5083 NONAME
 ?GetThisClass@COleDocIPFrameWnd@@SAPEAUCRuntimeClass@@XZ @ 5084 NONAME
 ?GetThisClass@COleDocObjectItem@@SAPEAUCRuntimeClass@@XZ @ 5085 NONAME
 ?GetThisClass@COleDocument@@SAPEAUCRuntimeClass@@XZ @ 5086 NONAME
 ?GetThisClass@COleException@@SAPEAUCRuntimeClass@@XZ @ 5087 NONAME
 ?GetThisClass@COleInsertDialog@@SAPEAUCRuntimeClass@@XZ @ 5088 NONAME
 ?GetThisClass@COleIPFrameWnd@@SAPEAUCRuntimeClass@@XZ @ 5089 NONAME
 ?GetThisClass@COleLinkingDoc@@SAPEAUCRuntimeClass@@XZ @ 5090 NONAME
 ?GetThisClass@COleLinksDialog@@SAPEAUCRuntimeClass@@XZ @ 5091 NONAME
 ?GetThisClass@COleObjectFactory@@SAPEAUCRuntimeClass@@XZ @ 5092 NONAME
 ?GetThisClass@COlePasteSpecialDialog@@SAPEAUCRuntimeClass@@XZ @ 5093 NONAME
 ?GetThisClass@COlePropertiesDialog@@SAPEAUCRuntimeClass@@XZ @ 5094 NONAME
 ?GetThisClass@COlePropertyPage@@SAPEAUCRuntimeClass@@XZ @ 5095 NONAME
 ?GetThisClass@COleResizeBar@@SAPEAUCRuntimeClass@@XZ @ 5096 NONAME
 ?GetThisClass@COleServerDoc@@SAPEAUCRuntimeClass@@XZ @ 5097 NONAME
 ?GetThisClass@COleServerItem@@SAPEAUCRuntimeClass@@XZ @ 5098 NONAME
 ?GetThisClass@COleStreamFile@@SAPEAUCRuntimeClass@@XZ @ 5099 NONAME
 ?GetThisClass@COleUpdateDialog@@SAPEAUCRuntimeClass@@XZ @ 5100 NONAME
 ?GetThisClass@CPagerCtrl@@SAPEAUCRuntimeClass@@XZ @ 5101 NONAME
 ?GetThisClass@CPageSetupDialog@@SAPEAUCRuntimeClass@@XZ @ 5102 NONAME
 ?GetThisClass@CPaintDC@@SAPEAUCRuntimeClass@@XZ @ 5103 NONAME
 ?GetThisClass@CPalette@@SAPEAUCRuntimeClass@@XZ @ 5104 NONAME
 ?GetThisClass@CPen@@SAPEAUCRuntimeClass@@XZ @ 5105 NONAME
 ?GetThisClass@CPreviewDC@@SAPEAUCRuntimeClass@@XZ @ 5106 NONAME
 ?GetThisClass@CPreviewView@@SAPEAUCRuntimeClass@@XZ @ 5107 NONAME
 ?GetThisClass@CPrintDialog@@SAPEAUCRuntimeClass@@XZ @ 5108 NONAME
 ?GetThisClass@CPrintDialogEx@@SAPEAUCRuntimeClass@@XZ @ 5109 NONAME
 ?GetThisClass@CProgressCtrl@@SAPEAUCRuntimeClass@@XZ @ 5110 NONAME
 ?GetThisClass@CPropertyPage@@SAPEAUCRuntimeClass@@XZ @ 5111 NONAME
 ?GetThisClass@CPropertySheet@@SAPEAUCRuntimeClass@@XZ @ 5112 NONAME
 ?GetThisClass@CPtrArray@@SAPEAUCRuntimeClass@@XZ @ 5113 NONAME
 ?GetThisClass@CPtrList@@SAPEAUCRuntimeClass@@XZ @ 5114 NONAME
 ?GetThisClass@CReBar@@SAPEAUCRuntimeClass@@XZ @ 5115 NONAME
 ?GetThisClass@CReBarCtrl@@SAPEAUCRuntimeClass@@XZ @ 5116 NONAME
 ?GetThisClass@CRecordset@@SAPEAUCRuntimeClass@@XZ @ 5117 NONAME
 ?GetThisClass@CRecordView@@SAPEAUCRuntimeClass@@XZ @ 5118 NONAME
 ?GetThisClass@CResourceException@@SAPEAUCRuntimeClass@@XZ @ 5119 NONAME
 ?GetThisClass@CRgn@@SAPEAUCRuntimeClass@@XZ @ 5120 NONAME
 ?GetThisClass@CRichEditCntrItem@@SAPEAUCRuntimeClass@@XZ @ 5121 NONAME
 ?GetThisClass@CRichEditCtrl@@SAPEAUCRuntimeClass@@XZ @ 5122 NONAME
 ?GetThisClass@CRichEditDoc@@SAPEAUCRuntimeClass@@XZ @ 5123 NONAME
 ?GetThisClass@CRichEditView@@SAPEAUCRuntimeClass@@XZ @ 5124 NONAME
 ?GetThisClass@CScrollBar@@SAPEAUCRuntimeClass@@XZ @ 5125 NONAME
 ?GetThisClass@CScrollView@@SAPEAUCRuntimeClass@@XZ @ 5126 NONAME
 ?GetThisClass@CSemaphore@@SAPEAUCRuntimeClass@@XZ @ 5127 NONAME
 ?GetThisClass@CSharedFile@@SAPEAUCRuntimeClass@@XZ @ 5128 NONAME
 ?GetThisClass@CSimpleException@@SAPEAUCRuntimeClass@@XZ @ 5129 NONAME
 ?GetThisClass@CSingleDocTemplate@@SAPEAUCRuntimeClass@@XZ @ 5130 NONAME
 ?GetThisClass@CSliderCtrl@@SAPEAUCRuntimeClass@@XZ @ 5131 NONAME
 ?GetThisClass@CSocket@@SAPEAUCRuntimeClass@@XZ @ 5132 NONAME
 ?GetThisClass@CSocketFile@@SAPEAUCRuntimeClass@@XZ @ 5133 NONAME
 ?GetThisClass@CSpinButtonCtrl@@SAPEAUCRuntimeClass@@XZ @ 5134 NONAME
 ?GetThisClass@CSplitButton@@SAPEAUCRuntimeClass@@XZ @ 5135 NONAME
 ?GetThisClass@CSplitterWnd@@SAPEAUCRuntimeClass@@XZ @ 5136 NONAME
 ?GetThisClass@CStatic@@SAPEAUCRuntimeClass@@XZ @ 5137 NONAME
 ?GetThisClass@CStatusBar@@SAPEAUCRuntimeClass@@XZ @ 5138 NONAME
 ?GetThisClass@CStatusBarCtrl@@SAPEAUCRuntimeClass@@XZ @ 5139 NONAME
 ?GetThisClass@CStdioFile@@SAPEAUCRuntimeClass@@XZ @ 5140 NONAME
 ?GetThisClass@CStringArray@@SAPEAUCRuntimeClass@@XZ @ 5141 NONAME
 ?GetThisClass@CStringList@@SAPEAUCRuntimeClass@@XZ @ 5142 NONAME
 ?GetThisClass@CSyncObject@@SAPEAUCRuntimeClass@@XZ @ 5143 NONAME
 ?GetThisClass@CTabCtrl@@SAPEAUCRuntimeClass@@XZ @ 5144 NONAME
 ?GetThisClass@CToolBar@@SAPEAUCRuntimeClass@@XZ @ 5145 NONAME
 ?GetThisClass@CToolBarCtrl@@SAPEAUCRuntimeClass@@XZ @ 5146 NONAME
 ?GetThisClass@CToolTipCtrl@@SAPEAUCRuntimeClass@@XZ @ 5147 NONAME
 ?GetThisClass@CTreeCtrl@@SAPEAUCRuntimeClass@@XZ @ 5148 NONAME
 ?GetThisClass@CTreeView@@SAPEAUCRuntimeClass@@XZ @ 5149 NONAME
 ?GetThisClass@CUIntArray@@SAPEAUCRuntimeClass@@XZ @ 5150 NONAME
 ?GetThisClass@CUserException@@SAPEAUCRuntimeClass@@XZ @ 5151 NONAME
 ?GetThisClass@CView@@SAPEAUCRuntimeClass@@XZ @ 5152 NONAME
 ?GetThisClass@CWinApp@@SAPEAUCRuntimeClass@@XZ @ 5153 NONAME
 ?GetThisClass@CWindowDC@@SAPEAUCRuntimeClass@@XZ @ 5154 NONAME
 ?GetThisClass@CWindowlessDC@@SAPEAUCRuntimeClass@@XZ @ 5155 NONAME
 ?GetThisClass@CWinThread@@SAPEAUCRuntimeClass@@XZ @ 5156 NONAME
 ?GetThisClass@CWnd@@SAPEAUCRuntimeClass@@XZ @ 5157 NONAME
 ?GetThisClass@CWordArray@@SAPEAUCRuntimeClass@@XZ @ 5158 NONAME
 ?GetThisCommandMap@CCmdTarget@@KAPEBUAFX_OLECMDMAP@@XZ @ 5159 NONAME
 ?GetThisCommandMap@COleDocObjectItem@@KAPEBUAFX_OLECMDMAP@@XZ @ 5160 NONAME
 ?GetThisConnectionMap@CCmdTarget@@KAPEBUAFX_CONNECTIONMAP@@XZ @ 5161 NONAME
 ?GetThisConnectionMap@COleControl@@KAPEBUAFX_CONNECTIONMAP@@XZ @ 5162 NONAME
 ?GetThisDispatchMap@CCmdTarget@@KAPEBUAFX_DISPMAP@@XZ @ 5163 NONAME
 ?GetThisDispatchMap@COleControlContainer@@KAPEBUAFX_DISPMAP@@XZ @ 5164 NONAME
 ?GetThisEventMap@COleControl@@KAPEBUAFX_EVENTMAP@@XZ @ 5165 NONAME
 ?GetThisEventSinkMap@CCmdTarget@@KAPEBUAFX_EVENTSINKMAP@@XZ @ 5166 NONAME
 ?GetThisEventSinkMap@CDHtmlDialog@@KAPEBUAFX_EVENTSINKMAP@@XZ @ 5167 NONAME
 ?GetThisEventSinkMap@CHtmlEditCtrl@@KAPEBUAFX_EVENTSINKMAP@@XZ @ 5168 NONAME
 ?GetThisEventSinkMap@CHtmlView@@KAPEBUAFX_EVENTSINKMAP@@XZ @ 5169 NONAME
 ?GetThisInterfaceMap@CCmdTarget@@KAPEBUAFX_INTERFACEMAP@@XZ @ 5170 NONAME
 ?GetThisInterfaceMap@CDocObjectServer@@KAPEBUAFX_INTERFACEMAP@@XZ @ 5171 NONAME
 ?GetThisInterfaceMap@CEnumConnections@@KAPEBUAFX_INTERFACEMAP@@XZ @ 5172 NONAME
 ?GetThisInterfaceMap@CEnumConnPoints@@KAPEBUAFX_INTERFACEMAP@@XZ @ 5173 NONAME
 ?GetThisInterfaceMap@CEnumFormatEtc@@KAPEBUAFX_INTERFACEMAP@@XZ @ 5174 NONAME
 ?GetThisInterfaceMap@CEnumOleVerb@@KAPEBUAFX_INTERFACEMAP@@XZ @ 5175 NONAME
 ?GetThisInterfaceMap@CEnumUnknown@@KAPEBUAFX_INTERFACEMAP@@XZ @ 5176 NONAME
 ?GetThisInterfaceMap@CFileDialog@@KAPEBUAFX_INTERFACEMAP@@XZ @ 5177 NONAME
 ?GetThisInterfaceMap@CHtmlControlSite@@KAPEBUAFX_INTERFACEMAP@@XZ @ 5178 NONAME
 ?GetThisInterfaceMap@COleClientItem@@KAPEBUAFX_INTERFACEMAP@@XZ @ 5179 NONAME
 ?GetThisInterfaceMap@COleControl@@KAPEBUAFX_INTERFACEMAP@@XZ @ 5180 NONAME
 ?GetThisInterfaceMap@COleControlContainer@@KAPEBUAFX_INTERFACEMAP@@XZ @ 5181 NONAME
 ?GetThisInterfaceMap@COleControlSite@@KAPEBUAFX_INTERFACEMAP@@XZ @ 5182 NONAME
 ?GetThisInterfaceMap@COleDataSource@@KAPEBUAFX_INTERFACEMAP@@XZ @ 5183 NONAME
 ?GetThisInterfaceMap@COleDocObjectItem@@KAPEBUAFX_INTERFACEMAP@@XZ @ 5184 NONAME
 ?GetThisInterfaceMap@COleDropSource@@KAPEBUAFX_INTERFACEMAP@@XZ @ 5185 NONAME
 ?GetThisInterfaceMap@COleDropTarget@@KAPEBUAFX_INTERFACEMAP@@XZ @ 5186 NONAME
 ?GetThisInterfaceMap@COleFrameHook@@KAPEBUAFX_INTERFACEMAP@@XZ @ 5187 NONAME
 ?GetThisInterfaceMap@COleLinkingDoc@@KAPEBUAFX_INTERFACEMAP@@XZ @ 5188 NONAME
 ?GetThisInterfaceMap@COleMessageFilter@@KAPEBUAFX_INTERFACEMAP@@XZ @ 5189 NONAME
 ?GetThisInterfaceMap@COleObjectFactory@@KAPEBUAFX_INTERFACEMAP@@XZ @ 5190 NONAME
 ?GetThisInterfaceMap@COlePropertyPage@@KAPEBUAFX_INTERFACEMAP@@XZ @ 5191 NONAME
 ?GetThisInterfaceMap@COleServerDoc@@KAPEBUAFX_INTERFACEMAP@@XZ @ 5192 NONAME
 ?GetThisInterfaceMap@COleServerItem@@KAPEBUAFX_INTERFACEMAP@@XZ @ 5193 NONAME
 ?GetThisInterfaceMap@CRichEditView@@KAPEBUAFX_INTERFACEMAP@@XZ @ 5194 NONAME
 ?GetThisInterfaceMap@CWnd@@KAPEBUAFX_INTERFACEMAP@@XZ @ 5195 NONAME
 ?GetThisMessageMap@CCheckListBox@@KAPEBUAFX_MSGMAP@@XZ @ 5196 NONAME
 ?GetThisMessageMap@CCmdTarget@@KAPEBUAFX_MSGMAP@@XZ @ 5197 NONAME
 ?GetThisMessageMap@CCommonDialog@@KAPEBUAFX_MSGMAP@@XZ @ 5198 NONAME
 ?GetThisMessageMap@CControlBar@@KAPEBUAFX_MSGMAP@@XZ @ 5199 NONAME
 ?GetThisMessageMap@CControlFrameWnd@@KAPEBUAFX_MSGMAP@@XZ @ 5200 NONAME
 ?GetThisMessageMap@CCtrlView@@KAPEBUAFX_MSGMAP@@XZ @ 5201 NONAME
 ?GetThisMessageMap@CDHtmlDialog@@KAPEBUAFX_MSGMAP@@XZ @ 5202 NONAME
 ?GetThisMessageMap@CDialog@@KAPEBUAFX_MSGMAP@@XZ @ 5203 NONAME
 ?GetThisMessageMap@CDialogBar@@KAPEBUAFX_MSGMAP@@XZ @ 5204 NONAME
 ?GetThisMessageMap@CDockBar@@KAPEBUAFX_MSGMAP@@XZ @ 5205 NONAME
 ?GetThisMessageMap@CDocObjectServer@@KAPEBUAFX_MSGMAP@@XZ @ 5206 NONAME
 ?GetThisMessageMap@CDocument@@KAPEBUAFX_MSGMAP@@XZ @ 5207 NONAME
 ?GetThisMessageMap@CEditView@@KAPEBUAFX_MSGMAP@@XZ @ 5208 NONAME
 ?GetThisMessageMap@CFormView@@KAPEBUAFX_MSGMAP@@XZ @ 5209 NONAME
 ?GetThisMessageMap@CFrameWnd@@KAPEBUAFX_MSGMAP@@XZ @ 5210 NONAME
 ?GetThisMessageMap@CHtmlEditView@@KAPEBUAFX_MSGMAP@@XZ @ 5211 NONAME
 ?GetThisMessageMap@CHtmlView@@KAPEBUAFX_MSGMAP@@XZ @ 5212 NONAME
 ?GetThisMessageMap@CListCtrl@@KAPEBUAFX_MSGMAP@@XZ @ 5213 NONAME
 ?GetThisMessageMap@CListView@@KAPEBUAFX_MSGMAP@@XZ @ 5214 NONAME
 ?GetThisMessageMap@CMDIChildWnd@@KAPEBUAFX_MSGMAP@@XZ @ 5215 NONAME
 ?GetThisMessageMap@CMDIFrameWnd@@KAPEBUAFX_MSGMAP@@XZ @ 5216 NONAME
 ?GetThisMessageMap@CMiniDockFrameWnd@@KAPEBUAFX_MSGMAP@@XZ @ 5217 NONAME
 ?GetThisMessageMap@CMiniFrameWnd@@KAPEBUAFX_MSGMAP@@XZ @ 5218 NONAME
 ?GetThisMessageMap@COleControl@@KAPEBUAFX_MSGMAP@@XZ @ 5219 NONAME
 ?GetThisMessageMap@COleDBRecordView@@KAPEBUAFX_MSGMAP@@XZ @ 5220 NONAME
 ?GetThisMessageMap@COleDocIPFrameWnd@@KAPEBUAFX_MSGMAP@@XZ @ 5221 NONAME
 ?GetThisMessageMap@COleIPFrameWnd@@KAPEBUAFX_MSGMAP@@XZ @ 5222 NONAME
 ?GetThisMessageMap@COlePropertyPage@@KAPEBUAFX_MSGMAP@@XZ @ 5223 NONAME
 ?GetThisMessageMap@COleResizeBar@@KAPEBUAFX_MSGMAP@@XZ @ 5224 NONAME
 ?GetThisMessageMap@COleServerDoc@@KAPEBUAFX_MSGMAP@@XZ @ 5225 NONAME
 ?GetThisMessageMap@CPreviewView@@KAPEBUAFX_MSGMAP@@XZ @ 5226 NONAME
 ?GetThisMessageMap@CPrintDialog@@KAPEBUAFX_MSGMAP@@XZ @ 5227 NONAME
 ?GetThisMessageMap@CPrintDialogEx@@KAPEBUAFX_MSGMAP@@XZ @ 5228 NONAME
 ?GetThisMessageMap@CPropertyPage@@KAPEBUAFX_MSGMAP@@XZ @ 5229 NONAME
 ?GetThisMessageMap@CPropertySheet@@KAPEBUAFX_MSGMAP@@XZ @ 5230 NONAME
 ?GetThisMessageMap@CReBar@@KAPEBUAFX_MSGMAP@@XZ @ 5231 NONAME
 ?GetThisMessageMap@CRecordView@@KAPEBUAFX_MSGMAP@@XZ @ 5232 NONAME
 ?GetThisMessageMap@CRichEditView@@KAPEBUAFX_MSGMAP@@XZ @ 5233 NONAME
 ?GetThisMessageMap@CScrollView@@KAPEBUAFX_MSGMAP@@XZ @ 5234 NONAME
 ?GetThisMessageMap@CSocketWnd@@KAPEBUAFX_MSGMAP@@XZ @ 5235 NONAME
 ?GetThisMessageMap@CSplitButton@@KAPEBUAFX_MSGMAP@@XZ @ 5236 NONAME
 ?GetThisMessageMap@CSplitterWnd@@KAPEBUAFX_MSGMAP@@XZ @ 5237 NONAME
 ?GetThisMessageMap@CStatusBar@@KAPEBUAFX_MSGMAP@@XZ @ 5238 NONAME
 ?GetThisMessageMap@CTabCtrl@@KAPEBUAFX_MSGMAP@@XZ @ 5239 NONAME
 ?GetThisMessageMap@CToolBar@@KAPEBUAFX_MSGMAP@@XZ @ 5240 NONAME
 ?GetThisMessageMap@CToolBarCtrl@@KAPEBUAFX_MSGMAP@@XZ @ 5241 NONAME
 ?GetThisMessageMap@CToolTipCtrl@@KAPEBUAFX_MSGMAP@@XZ @ 5242 NONAME
 ?GetThisMessageMap@CTreeCtrl@@KAPEBUAFX_MSGMAP@@XZ @ 5243 NONAME
 ?GetThisMessageMap@CTreeView@@KAPEBUAFX_MSGMAP@@XZ @ 5244 NONAME
 ?GetThisMessageMap@CView@@KAPEBUAFX_MSGMAP@@XZ @ 5245 NONAME
 ?GetThisMessageMap@CWinApp@@KAPEBUAFX_MSGMAP@@XZ @ 5246 NONAME
 ?GetThisMessageMap@CWnd@@KAPEBUAFX_MSGMAP@@XZ @ 5247 NONAME
 ?GetThreadPriority@CWinThread@@QEAAHXZ @ 5248 NONAME
 ?GetThumbLength@CSliderCtrl@@QEBAHXZ @ 5249 NONAME
 ?GetThumbRect@CSliderCtrl@@QEBAXPEAUtagRECT@@@Z @ 5250 NONAME
 ?GetTic@CSliderCtrl@@QEBAHH@Z @ 5251 NONAME
 ?GetTicArray@CSliderCtrl@@QEBAPEAKXZ @ 5252 NONAME
 ?GetTicPos@CSliderCtrl@@QEBAHH@Z @ 5253 NONAME
 ?GetTime@CDateTimeCtrl@@QEBAHAEAVCOleDateTime@ATL@@@Z @ 5254 NONAME
 ?GetTime@CDateTimeCtrl@@QEBAKAEAVCTime@ATL@@@Z @ 5255 NONAME
 ?GetTime@CDateTimeCtrl@@QEBAKPEAU_SYSTEMTIME@@@Z @ 5256 NONAME
 ?GetTipBkColor@CToolTipCtrl@@QEBAKXZ @ 5257 NONAME
 ?GetTipText@CStatusBarCtrl@@QEBA?AV?$CStringT@_WV?$StrTraitMFC_DLL@_WV?$ChTraitsCRT@_W@ATL@@@@@ATL@@H@Z @ 5258 NONAME
 ?GetTipTextColor@CToolTipCtrl@@QEBAKXZ @ 5259 NONAME
 ?GetTitle@CDocument@@QEBAAEBV?$CStringT@_WV?$StrTraitMFC_DLL@_WV?$ChTraitsCRT@_W@ATL@@@@@ATL@@XZ @ 5260 NONAME
 ?GetTitle@CFrameWnd@@QEBA?AV?$CStringT@_WV?$StrTraitMFC_DLL@_WV?$ChTraitsCRT@_W@ATL@@@@@ATL@@XZ @ 5261 NONAME
 ?GetTitle@CToolTipCtrl@@QEBAXPEAU_TTGETTITLE@@@Z @ 5262 NONAME
 ?GetToday@CMonthCalCtrl@@QEBAHAEAVCOleDateTime@ATL@@@Z @ 5263 NONAME
 ?GetToday@CMonthCalCtrl@@QEBAHAEAVCTime@ATL@@@Z @ 5264 NONAME
 ?GetToday@CMonthCalCtrl@@QEBAHPEAU_SYSTEMTIME@@@Z @ 5265 NONAME
 ?GetToolBar@CHtmlView@@QEBAHXZ @ 5266 NONAME
 ?GetToolBarCtrl@CToolBar@@QEBAAEAVCToolBarCtrl@@XZ @ 5267 NONAME
 ?GetToolCount@CToolTipCtrl@@QEBAHXZ @ 5268 NONAME
 ?GetToolInfo@CToolTipCtrl@@QEBAHAEAVCToolInfo@@PEAVCWnd@@_K@Z @ 5269 NONAME
 ?GetToolTips@CListCtrl@@QEBAPEAVCToolTipCtrl@@XZ @ 5270 NONAME
 ?GetToolTips@CReBarCtrl@@QEBAPEAVCToolTipCtrl@@XZ @ 5271 NONAME
 ?GetToolTips@CSliderCtrl@@QEBAPEAVCToolTipCtrl@@XZ @ 5272 NONAME
 ?GetToolTips@CTabCtrl@@QEBAPEAVCToolTipCtrl@@XZ @ 5273 NONAME
 ?GetToolTips@CToolBarCtrl@@QEBAPEAVCToolTipCtrl@@XZ @ 5274 NONAME
 ?GetToolTips@CTreeCtrl@@QEBAPEAVCToolTipCtrl@@XZ @ 5275 NONAME
 ?GetTop@CHtmlView@@QEBAJXZ @ 5276 NONAME
 ?GetToPage@CPrintDialog@@QEBAHXZ @ 5277 NONAME
 ?GetToPage@CPrintInfo@@QEBAIXZ @ 5278 NONAME
 ?GetTopIndex@CComboBox@@QEBAHXZ @ 5279 NONAME
 ?GetTopIndex@CListBox@@QEBAHXZ @ 5280 NONAME
 ?GetTopIndex@CListCtrl@@QEBAHXZ @ 5281 NONAME
 ?GetTopLevelContainer@CHtmlView@@QEBAHXZ @ 5282 NONAME
 ?GetTopLevelFrame@CWnd@@QEBAPEAVCFrameWnd@@XZ @ 5283 NONAME
 ?GetTopLevelOwner@CWnd@@QEBAPEAV1@XZ @ 5284 NONAME
 ?GetTopLevelParent@CWnd@@QEBAPEAV1@XZ @ 5285 NONAME
 ?GetToPrefix@COleChangeSourceDialog@@QEAA?AV?$CStringT@_WV?$StrTraitMFC_DLL@_WV?$ChTraitsCRT@_W@ATL@@@@@ATL@@XZ @ 5286 NONAME
 ?GetTopWindow@CWnd@@QEBAPEAV1@XZ @ 5287 NONAME
 ?GetTotalSize@CScrollView@@QEBA?AVCSize@@XZ @ 5288 NONAME
 ?GetTreeCtrl@CTreeView@@QEBAAEAVCTreeCtrl@@XZ @ 5289 NONAME
 ?GetTrueClientSize@CScrollView@@IEAAHAEAVCSize@@0@Z @ 5290 NONAME
 ?GetTrueRect@CRectTracker@@QEBAXPEAUtagRECT@@@Z @ 5291 NONAME
 ?GetType@CHtmlView@@QEBA?AV?$CStringT@_WV?$StrTraitMFC_DLL@_WV?$ChTraitsCRT@_W@ATL@@@@@ATL@@XZ @ 5292 NONAME
 ?GetType@COleClientItem@@QEBA?AW4OLE_OBJTYPE@@XZ @ 5293 NONAME
 ?GetType@CPictureHolder@@QEAAFXZ @ 5294 NONAME
 ?GetType@CProperty@@QEAAKXZ @ 5295 NONAME
 ?GetTypeInfo@CDHtmlControlSink@@UEAAJIKPEAPEAUITypeInfo@@@Z @ 5296 NONAME
 ?GetTypeInfo@CDHtmlElementEventSink@@UEAAJIKPEAPEAUITypeInfo@@@Z @ 5297 NONAME
 ?GetTypeInfo@CDHtmlEventSink@@UEAAJIKPEAPEAUITypeInfo@@@Z @ 5298 NONAME
 ?GetTypeInfo@COleDispatchImpl@@UEAAJIKPEAPEAUITypeInfo@@@Z @ 5299 NONAME
 ?GetTypeInfo@XAccessible@CWnd@@UEAAJIKPEAPEAUITypeInfo@@@Z @ 5300 NONAME
 ?GetTypeInfo@XAmbientProps@COleControlSite@@UEAAJIKPEAPEAUITypeInfo@@@Z @ 5301 NONAME
 ?GetTypeInfo@XEventSink@COleControlSite@@UEAAJIKPEAPEAUITypeInfo@@@Z @ 5302 NONAME
 ?GetTypeInfoCount@CCmdTarget@@UEAAIXZ @ 5303 NONAME
 ?GetTypeInfoCount@CDHtmlControlSink@@UEAAJPEAI@Z @ 5304 NONAME
 ?GetTypeInfoCount@CDHtmlElementEventSink@@UEAAJPEAI@Z @ 5305 NONAME
 ?GetTypeInfoCount@CDHtmlEventSink@@UEAAJPEAI@Z @ 5306 NONAME
 ?GetTypeInfoCount@COleDispatchImpl@@UEAAJPEAI@Z @ 5307 NONAME
 ?GetTypeInfoCount@XAccessible@CWnd@@UEAAJPEAI@Z @ 5308 NONAME
 ?GetTypeInfoCount@XAmbientProps@COleControlSite@@UEAAJPEAI@Z @ 5309 NONAME
 ?GetTypeInfoCount@XEventSink@COleControlSite@@UEAAJPEAI@Z @ 5310 NONAME
 ?GetTypeInfoOfGuid@CCmdTarget@@QEAAJKAEBU_GUID@@PEAPEAUITypeInfo@@@Z @ 5311 NONAME
 ?GetTypeLib@CCmdTarget@@UEAAJKPEAPEAUITypeLib@@@Z @ 5312 NONAME
 ?GetTypeLibCache@CCmdTarget@@UEAAPEAVCTypeLibCache@@XZ @ 5313 NONAME
 ?GetUBound@COleSafeArray@@QEAAXKPEAJ@Z @ 5314 NONAME
 ?GetUndoName@CRichEditCtrl@@QEBA?AW4_undonameid@@XZ @ 5315 NONAME
 ?GetUpdateRect@CWnd@@QEAAHPEAUtagRECT@@H@Z @ 5316 NONAME
 ?GetUpdateRgn@CWnd@@QEAAHPEAVCRgn@@H@Z @ 5317 NONAME
 ?GetUpperBound@CByteArray@@QEBA_JXZ @ 5318 NONAME
 ?GetUpperBound@CDWordArray@@QEBA_JXZ @ 5319 NONAME
 ?GetUpperBound@CObArray@@QEBA_JXZ @ 5320 NONAME
 ?GetUpperBound@CPtrArray@@QEBA_JXZ @ 5321 NONAME
 ?GetUpperBound@CStringArray@@QEBA_JXZ @ 5322 NONAME
 ?GetUpperBound@CUIntArray@@QEBA_JXZ @ 5323 NONAME
 ?GetUpperBound@CWordArray@@QEBA_JXZ @ 5324 NONAME
 ?GetUserClassID@XOleObject@CDocObjectServer@@UEAAJPEAU_GUID@@@Z @ 5325 NONAME
 ?GetUserClassID@XOleObject@COleControl@@UEAAJPEAU_GUID@@@Z @ 5326 NONAME
 ?GetUserClassID@XOleObject@COleServerDoc@@UEAAJPEAU_GUID@@@Z @ 5327 NONAME
 ?GetUserClassID@XOleObject@COleServerItem@@UEAAJPEAU_GUID@@@Z @ 5328 NONAME
 ?GetUserDefinedType@CDHtmlControlSink@@QEAAGPEAUITypeInfo@@K@Z @ 5329 NONAME
 ?GetUserType@COleClientItem@@QEAAXW4tagUSERCLASSTYPE@@AEAV?$CStringT@_WV?$StrTraitMFC_DLL@_WV?$ChTraitsCRT@_W@ATL@@@@@ATL@@@Z @ 5330 NONAME
 ?GetUserType@COleControl@@IEAAXPEA_W@Z @ 5331 NONAME
 ?GetUserType@XOleObject@CDocObjectServer@@UEAAJKPEAPEA_W@Z @ 5332 NONAME
 ?GetUserType@XOleObject@COleControl@@UEAAJKPEAPEA_W@Z @ 5333 NONAME
 ?GetUserType@XOleObject@COleServerDoc@@UEAAJKPEAPEA_W@Z @ 5334 NONAME
 ?GetUserType@XOleObject@COleServerItem@@UEAAJKPEAPEA_W@Z @ 5335 NONAME
 ?GetValueAt@CMapPtrToPtr@@QEBAPEAXPEAX@Z @ 5336 NONAME
 ?GetVerb@CHttpFile@@QEBA?AV?$CStringT@_WV?$StrTraitMFC_DLL@_WV?$ChTraitsCRT@_W@ATL@@@@@ATL@@XZ @ 5337 NONAME
 ?GetVersion@CDockState@@QEAAKXZ @ 5338 NONAME
 ?GetVersion@CPropExchange@@QEAAKXZ @ 5339 NONAME
 ?GetView@CHtmlEditDoc@@UEBAPEAVCHtmlEditView@@XZ @ 5340 NONAME
 ?GetView@CRichEditDoc@@UEBAPEAVCRichEditView@@XZ @ 5341 NONAME
 ?GetViewInfo@XOleUIObjInfo@COlePropertiesDialog@@UEAAJKPEAPEAXPEAKPEAH@Z @ 5342 NONAME
 ?GetViewportExt@CDC@@QEBA?AVCSize@@XZ @ 5343 NONAME
 ?GetViewportOrg@CDC@@QEBA?AVCPoint@@XZ @ 5344 NONAME
 ?GetViewRect@CListCtrl@@QEBAHPEAUtagRECT@@@Z @ 5345 NONAME
 ?GetViewStatus@XViewObject@COleControl@@UEAAJPEAK@Z @ 5346 NONAME
 ?GetVisible@CHtmlView@@QEBAHXZ @ 5347 NONAME
 ?GetVisibleCount@CTreeCtrl@@QEBAIXZ @ 5348 NONAME
 ?GetWeight@CFontDialog@@QEBAHXZ @ 5349 NONAME
 ?GetWheelScrollDistance@CScrollView@@UEAA?AVCSize@@V2@HH@Z @ 5350 NONAME
 ?GetWidth@CHtmlView@@QEBAJXZ @ 5351 NONAME
 ?GetWindow@CDC@@QEBAPEAVCWnd@@XZ @ 5352 NONAME
 ?GetWindow@CWnd@@QEBAPEAV1@I@Z @ 5353 NONAME
 ?GetWindow@XOleInPlaceActiveObject@COleControl@@UEAAJPEAPEAUHWND__@@@Z @ 5354 NONAME
 ?GetWindow@XOleInPlaceActiveObject@COleServerDoc@@UEAAJPEAPEAUHWND__@@@Z @ 5355 NONAME
 ?GetWindow@XOleInPlaceFrame@COleFrameHook@@UEAAJPEAPEAUHWND__@@@Z @ 5356 NONAME
 ?GetWindow@XOleInPlaceObject@COleControl@@UEAAJPEAPEAUHWND__@@@Z @ 5357 NONAME
 ?GetWindow@XOleInPlaceObject@COleServerDoc@@UEAAJPEAPEAUHWND__@@@Z @ 5358 NONAME
 ?GetWindow@XOleIPFrame@COleControlContainer@@UEAAJPEAPEAUHWND__@@@Z @ 5359 NONAME
 ?GetWindow@XOleIPSite@COleClientItem@@UEAAJPEAPEAUHWND__@@@Z @ 5360 NONAME
 ?GetWindow@XOleIPSite@COleControlSite@@UEAAJPEAPEAUHWND__@@@Z @ 5361 NONAME
 ?GetWindowContext@CRichEditCntrItem@@QEAAJPEAPEAUIOleInPlaceFrame@@PEAPEAUIOleInPlaceUIWindow@@PEAUtagOIFI@@@Z @ 5362 NONAME
 ?GetWindowContext@CRichEditView@@QEAAJPEAPEAUIOleInPlaceFrame@@PEAPEAUIOleInPlaceUIWindow@@PEAUtagOIFI@@@Z @ 5363 NONAME
 ?GetWindowContext@XOleIPSite@COleClientItem@@UEAAJPEAPEAUIOleInPlaceFrame@@PEAPEAUIOleInPlaceUIWindow@@PEAUtagRECT@@2PEAUtagOIFI@@@Z @ 5364 NONAME
 ?GetWindowContext@XOleIPSite@COleControlSite@@UEAAJPEAPEAUIOleInPlaceFrame@@PEAPEAUIOleInPlaceUIWindow@@PEAUtagRECT@@2PEAUtagOIFI@@@Z @ 5365 NONAME
 ?GetWindowContextHelpId@CWnd@@QEBAKXZ @ 5366 NONAME
 ?GetWindowDC@CWnd@@QEAAPEAVCDC@@XZ @ 5367 NONAME
 ?GetWindowedChildCount@CWnd@@QEAAJXZ @ 5368 NONAME
 ?GetWindowExt@CDC@@QEBA?AVCSize@@XZ @ 5369 NONAME
 ?GetWindowLessChildCount@CWnd@@QEAAJXZ @ 5370 NONAME
 ?GetWindowlessDropTarget@COleControl@@UEAAPEAUIDropTarget@@XZ @ 5371 NONAME
 ?GetWindowMenuPopup@CMDIFrameWnd@@UEAAPEAUHMENU__@@PEAU2@@Z @ 5372 NONAME
 ?GetWindowOrg@CDC@@QEBA?AVCPoint@@XZ @ 5373 NONAME
 ?GetWindowPlacement@CWnd@@QEBAHPEAUtagWINDOWPLACEMENT@@@Z @ 5374 NONAME
 ?GetWindowRect@CWnd@@QEBAXPEAUtagRECT@@@Z @ 5375 NONAME
 ?GetWindowRgn@CWnd@@QEBAHPEAUHRGN__@@@Z @ 5376 NONAME
 ?GetWindowTextLengthW@CWnd@@QEBAHXZ @ 5377 NONAME
 ?GetWindowTextW@COleControlSite@@UEBAXAEAV?$CStringT@_WV?$StrTraitMFC_DLL@_WV?$ChTraitsCRT@_W@ATL@@@@@ATL@@@Z @ 5378 NONAME
 ?GetWindowTextW@CWnd@@QEBAHPEA_WH@Z @ 5379 NONAME
 ?GetWindowTextW@CWnd@@QEBAXAEAV?$CStringT@_WV?$StrTraitMFC_DLL@_WV?$ChTraitsCRT@_W@ATL@@@@@ATL@@@Z @ 5380 NONAME
 ?GetWordWrapMode@CRichEditCtrl@@QEBAIXZ @ 5381 NONAME
 ?GetWorkAreas@CListCtrl@@QEBAXHPEAUtagRECT@@@Z @ 5382 NONAME
 ?GetWorldTransform@CDC@@QEBAHPEAUtagXFORM@@@Z @ 5383 NONAME
 ?GetZoomFactor@COleServerDoc@@QEBAHPEAUtagSIZE@@0PEBUtagRECT@@@Z @ 5384 NONAME
 ?GiveFeedback@COleDropSource@@UEAAJK@Z @ 5385 NONAME
 ?GiveFeedback@XDropSource@COleDropSource@@UEAAJK@Z @ 5386 NONAME
 ?GoBack@CHtmlView@@QEAAXXZ @ 5387 NONAME
 ?GoForward@CHtmlView@@QEAAXXZ @ 5388 NONAME
 ?GoHome@CHtmlView@@QEAAXXZ @ 5389 NONAME
 ?GoSearch@CHtmlView@@QEAAXXZ @ 5390 NONAME
 ?GotoDlgCtrl@CDialog@@QEAAXPEAVCWnd@@@Z @ 5391 NONAME
 ?GradientFill@CDC@@QEAAHPEAU_TRIVERTEX@@KPEAXKK@Z @ 5392 NONAME
 ?GrayCtlColor@CWnd@@SAHPEAUHDC__@@PEAUHWND__@@IPEAUHBRUSH__@@K@Z @ 5393 NONAME
 ?GrayStringW@CDC@@UEAAHPEAVCBrush@@P6AHPEAUHDC__@@_JH@Z2HHHHH@Z @ 5394 NONAME
 ?GrayStringW@CPreviewDC@@UEAAHPEAVCBrush@@P6AHPEAUHDC__@@_JH@Z2HHHHH@Z @ 5395 NONAME
 ?GrowFile@CMemFile@@MEAAX_K@Z @ 5396 NONAME
 ?HandleFloatingSysCommand@CWnd@@QEAAHI_J@Z @ 5397 NONAME
 ?HandleInComingCall@XMessageFilter@COleMessageFilter@@UEAAKKPEAUHTASK__@@KPEAUtagINTERFACEINFO@@@Z @ 5398 NONAME
 ?HandleInitDialog@CDialog@@IEAA_J_K_J@Z @ 5399 NONAME
 ?HandleInitDialog@CDialogBar@@IEAA_J_K_J@Z @ 5400 NONAME
 ?HandleInitDialog@CFormView@@IEAA_J_K_J@Z @ 5401 NONAME
 ?HandleInitDialog@CPrintDialogEx@@QEAA_J_K_J@Z @ 5402 NONAME
 ?HandleInitDialog@CPropertySheet@@IEAA_J_K_J@Z @ 5403 NONAME
 ?HandleMButtonDown@CScrollView@@QEAA_J_K_J@Z @ 5404 NONAME
 ?HandleMessage@CPrintDialogEx@@UEAAJPEAUHWND__@@I_K_JPEA_J@Z @ 5405 NONAME
 ?HandleSetFocus@COleControlContainer@@UEAAHXZ @ 5406 NONAME
 ?HandleSetFont@CDialog@@IEAA_J_K_J@Z @ 5407 NONAME
 ?HandleWindowlessMessage@COleControlContainer@@UEAAHI_K_JPEA_J@Z @ 5408 NONAME
 ?HandsOffStorage@XPersistStorage@COleControl@@UEAAJXZ @ 5409 NONAME
 ?HandsOffStorage@XPersistStorage@COleServerDoc@@UEAAJXZ @ 5410 NONAME
 ?HasBlankItems@COleDocument@@QEBAHXZ @ 5411 NONAME
 ?HasEditChanged@CComboBoxEx@@QEAAHXZ @ 5412 NONAME
 ?HasFont@CDialogTemplate@@QEBAHXZ @ 5413 NONAME
 ?Help@XPropertyPage@COlePropertyPage@@UEAAJPEB_W@Z @ 5414 NONAME
 ?HexDump@CDumpContext@@QEAAXPEB_WPEAEHH@Z @ 5415 NONAME
 ?hFileNull@CFile@@2QEAXEA @ 5416 NONAME DATA
 ?HideApplication@CWinApp@@QEAAXXZ @ 5417 NONAME
 ?HideButton@CToolBarCtrl@@QEAAHHH@Z @ 5418 NONAME
 ?HideCaret@CWnd@@QEAAXXZ @ 5419 NONAME
 ?HideControl@CFileDialog@@QEAAXH@Z @ 5420 NONAME
 ?HideSelection@CRichEditCtrl@@QEAAXHH@Z @ 5421 NONAME
 ?HideUI@CBrowserControlSite@@MEAAJXZ @ 5422 NONAME
 ?HideUI@CDHtmlDialog@@UEAAJXZ @ 5423 NONAME
 ?HideUI@XDocHostUIHandler@CHtmlControlSite@@UEAAJXZ @ 5424 NONAME
 ?HighlightItem@CTabCtrl@@QEAAHHH@Z @ 5425 NONAME
 ?HiliteMenuItem@CWnd@@QEAAHPEAVCMenu@@II@Z @ 5426 NONAME
 ?HIMETRICtoDP@CDC@@QEBAXPEAUtagSIZE@@@Z @ 5427 NONAME
 ?HIMETRICtoLP@CDC@@QEBAXPEAUtagSIZE@@@Z @ 5428 NONAME
 ?HitTest@CHeaderCtrl@@QEAAHPEAU_HD_HITTESTINFO@@@Z @ 5429 NONAME
 ?HitTest@CListCtrl@@QEBAHPEAUtagLVHITTESTINFO@@@Z @ 5430 NONAME
 ?HitTest@CListCtrl@@QEBAHVCPoint@@PEAI@Z @ 5431 NONAME
 ?HitTest@CMonthCalCtrl@@QEAAKPEAUMCHITTESTINFO@@@Z @ 5432 NONAME
 ?HitTest@CReBarCtrl@@QEAAHPEAU_RB_HITTESTINFO@@@Z @ 5433 NONAME
 ?HitTest@CRectTracker@@QEBAHVCPoint@@@Z @ 5434 NONAME
 ?HitTest@CSplitterWnd@@MEBAHVCPoint@@@Z @ 5435 NONAME
 ?HitTest@CTabCtrl@@QEBAHPEAUtagTCHITTESTINFO@@@Z @ 5436 NONAME
 ?HitTest@CToolBarCtrl@@QEBAHPEAUtagPOINT@@@Z @ 5437 NONAME
 ?HitTest@CToolTipCtrl@@QEBAHPEAVCWnd@@VCPoint@@PEAUtagTOOLINFOW@@@Z @ 5438 NONAME
 ?HitTest@CTreeCtrl@@QEBAPEAU_TREEITEM@@PEAUtagTVHITTESTINFO@@@Z @ 5439 NONAME
 ?HitTest@CTreeCtrl@@QEBAPEAU_TREEITEM@@VCPoint@@PEAI@Z @ 5440 NONAME
 ?HitTestHandles@CRectTracker@@IEBAHVCPoint@@@Z @ 5441 NONAME
 ?HtmlHelpW@CWinApp@@UEAAX_KI@Z @ 5442 NONAME
 ?HtmlHelpW@CWnd@@UEAAX_KI@Z @ 5443 NONAME
 ?IdFromRowCol@CSplitterWnd@@QEBAHHH@Z @ 5444 NONAME
 ?IDToIndex@CReBarCtrl@@QEBAHI@Z @ 5445 NONAME
 ?IgnoreApply@COlePropertyPage@@QEAAXI@Z @ 5446 NONAME
 ?IgnoreWindowMessage@COleControl@@IEAAHI_K_JPEA_J@Z @ 5447 NONAME
 ?Indeterminate@CToolBarCtrl@@QEAAHHH@Z @ 5448 NONAME
 ?Init@CCriticalSection@@AEAAHXZ @ 5449 NONAME
 ?InitApplication@CWinApp@@UEAAHXZ @ 5450 NONAME
 ?InitCache@XOleCache@COleControl@@UEAAJPEAUIDataObject@@@Z @ 5451 NONAME
 ?InitControlContainer@CWnd@@IEAAHH@Z @ 5452 NONAME
 ?InitDialogInfo@CPropertyPage@@IEAAPEBUDLGTEMPLATE@@PEBU2@@Z @ 5453 NONAME
 ?InitDone@CPrintDialogEx@@UEAAJXZ @ 5454 NONAME
 ?InitFromData@XOleObject@CDocObjectServer@@UEAAJPEAUIDataObject@@HK@Z @ 5455 NONAME
 ?InitFromData@XOleObject@COleControl@@UEAAJPEAUIDataObject@@HK@Z @ 5456 NONAME
 ?InitFromData@XOleObject@COleServerDoc@@UEAAJPEAUIDataObject@@HK@Z @ 5457 NONAME
 ?InitFromData@XOleObject@COleServerItem@@UEAAJPEAUIDataObject@@HK@Z @ 5458 NONAME
 ?InitHashTable@CMapPtrToPtr@@QEAAXIH@Z @ 5459 NONAME
 ?InitHashTable@CMapPtrToWord@@QEAAXIH@Z @ 5460 NONAME
 ?InitHashTable@CMapStringToOb@@QEAAXIH@Z @ 5461 NONAME
 ?InitHashTable@CMapStringToPtr@@QEAAXIH@Z @ 5462 NONAME
 ?InitHashTable@CMapStringToString@@QEAAXIH@Z @ 5463 NONAME
 ?InitHashTable@CMapWordToOb@@QEAAXIH@Z @ 5464 NONAME
 ?InitHashTable@CMapWordToPtr@@QEAAXIH@Z @ 5465 NONAME
 ?Initialize@CDataSourceControl@@QEAAJXZ @ 5466 NONAME
 ?Initialize@CDHtmlDialog@@IEAAXXZ @ 5467 NONAME
 ?InitializeFont@CFontHolder@@QEAAXPEBUtagFONTDESC@@PEAUIDispatch@@@Z @ 5468 NONAME
 ?InitializeIIDs@COleControl@@QEAAXPEBU_GUID@@0@Z @ 5469 NONAME
 ?InitializeReplace@CEditView@@IEAAHXZ @ 5470 NONAME
 ?InitialUpdateFrame@CDocTemplate@@UEAAXPEAVCFrameWnd@@PEAVCDocument@@H@Z @ 5471 NONAME
 ?InitialUpdateFrame@CFrameWnd@@QEAAXPEAVCDocument@@H@Z @ 5472 NONAME
 ?InitInstance@COleControlModule@@UEAAHXZ @ 5473 NONAME
 ?InitInstance@CWinApp@@UEAAHXZ @ 5474 NONAME
 ?InitInstance@CWinThread@@UEAAHXZ @ 5475 NONAME
 ?InitLibId@CWinApp@@UEAAXXZ @ 5476 NONAME
 ?InitLoop@CDockContext@@QEAAXXZ @ 5477 NONAME
 ?InitModalIndirect@CDialog@@QEAAHPEAXPEAVCWnd@@@Z @ 5478 NONAME
 ?InitModalIndirect@CDialog@@QEAAHPEBUDLGTEMPLATE@@PEAVCWnd@@PEAX@Z @ 5479 NONAME
 ?InitNew@XPersistMemory@COleControl@@UEAAJXZ @ 5480 NONAME
 ?InitNew@XPersistPropertyBag@COleControl@@UEAAJXZ @ 5481 NONAME
 ?InitNew@XPersistStorage@COleControl@@UEAAJPEAUIStorage@@@Z @ 5482 NONAME
 ?InitNew@XPersistStorage@COleServerDoc@@UEAAJPEAUIStorage@@@Z @ 5483 NONAME
 ?InitNew@XPersistStreamInit@COleControl@@UEAAJXZ @ 5484 NONAME
 ?InitRecord@CRecordset@@QEAAXXZ @ 5485 NONAME
 ?InitStockEventMask@COleControl@@IEAAXXZ @ 5486 NONAME
 ?InitStockPropMask@COleControl@@IEAAXXZ @ 5487 NONAME
 ?InitStorage@CComboBox@@QEAAHHI@Z @ 5488 NONAME
 ?InitStorage@CListBox@@QEAAHHI@Z @ 5489 NONAME
 ?InitString@CSimpleException@@QEAAXXZ @ 5490 NONAME
 ?InModalState@CFrameWnd@@QEBAHXZ @ 5491 NONAME
 ?InPlaceDeactivate@XOleInPlaceObject@COleControl@@UEAAJXZ @ 5492 NONAME
 ?InPlaceDeactivate@XOleInPlaceObject@COleServerDoc@@UEAAJXZ @ 5493 NONAME
 ?Insert@?$CStringT@_WV?$StrTraitMFC_DLL@_WV?$ChTraitsCRT@_W@ATL@@@@@ATL@@QEAAHH_W@Z @ 5494 NONAME
 ?Insert@?$CStringT@_WV?$StrTraitMFC_DLL@_WV?$ChTraitsCRT@_W@ATL@@@@@ATL@@QEAAHHPEB_W@Z @ 5495 NONAME
 ?Insert@?$CStringT@DV?$StrTraitMFC_DLL@DV?$ChTraitsCRT@D@ATL@@@@@ATL@@QEAAHHD@Z @ 5496 NONAME
 ?Insert@?$CStringT@DV?$StrTraitMFC_DLL@DV?$ChTraitsCRT@D@ATL@@@@@ATL@@QEAAHHPEBD@Z @ 5497 NONAME
 ?Insert@CDockBar@@IEAAHPEAVCControlBar@@VCRect@@VCPoint@@@Z @ 5498 NONAME
 ?InsertAfter@CObList@@QEAAPEAU__POSITION@@PEAU2@PEAVCObject@@@Z @ 5499 NONAME
 ?InsertAfter@CPtrList@@QEAAPEAU__POSITION@@PEAU2@PEAX@Z @ 5500 NONAME
 ?InsertAfter@CStringList@@QEAAPEAU__POSITION@@PEAU2@AEBV?$CStringT@_WV?$StrTraitMFC_DLL@_WV?$ChTraitsCRT@_W@ATL@@@@@ATL@@@Z @ 5501 NONAME
 ?InsertAfter@CStringList@@QEAAPEAU__POSITION@@PEAU2@PEB_W@Z @ 5502 NONAME
 ?InsertAt@CByteArray@@QEAAX_JE0@Z @ 5503 NONAME
 ?InsertAt@CByteArray@@QEAAX_JPEAV1@@Z @ 5504 NONAME
 ?InsertAt@CDWordArray@@QEAAX_JK0@Z @ 5505 NONAME
 ?InsertAt@CDWordArray@@QEAAX_JPEAV1@@Z @ 5506 NONAME
 ?InsertAt@CObArray@@QEAAX_JPEAV1@@Z @ 5507 NONAME
 ?InsertAt@CObArray@@QEAAX_JPEAVCObject@@0@Z @ 5508 NONAME
 ?InsertAt@CPtrArray@@QEAAX_JPEAV1@@Z @ 5509 NONAME
 ?InsertAt@CPtrArray@@QEAAX_JPEAX0@Z @ 5510 NONAME
 ?InsertAt@CStringArray@@QEAAX_JAEBV?$CStringT@_WV?$StrTraitMFC_DLL@_WV?$ChTraitsCRT@_W@ATL@@@@@ATL@@0@Z @ 5511 NONAME
 ?InsertAt@CStringArray@@QEAAX_JPEB_W0@Z @ 5512 NONAME
 ?InsertAt@CStringArray@@QEAAX_JPEBV1@@Z @ 5513 NONAME
 ?InsertAt@CUIntArray@@QEAAX_JI0@Z @ 5514 NONAME
 ?InsertAt@CUIntArray@@QEAAX_JPEAV1@@Z @ 5515 NONAME
 ?InsertAt@CWordArray@@QEAAX_JG0@Z @ 5516 NONAME
 ?InsertAt@CWordArray@@QEAAX_JPEAV1@@Z @ 5517 NONAME
 ?InsertBand@CReBarCtrl@@QEAAHIPEAUtagREBARBANDINFOW@@@Z @ 5518 NONAME
 ?InsertBefore@CObList@@QEAAPEAU__POSITION@@PEAU2@PEAVCObject@@@Z @ 5519 NONAME
 ?InsertBefore@CPtrList@@QEAAPEAU__POSITION@@PEAU2@PEAX@Z @ 5520 NONAME
 ?InsertBefore@CStringList@@QEAAPEAU__POSITION@@PEAU2@AEBV?$CStringT@_WV?$StrTraitMFC_DLL@_WV?$ChTraitsCRT@_W@ATL@@@@@ATL@@@Z @ 5521 NONAME
 ?InsertBefore@CStringList@@QEAAPEAU__POSITION@@PEAU2@PEB_W@Z @ 5522 NONAME
 ?InsertButton@CToolBarCtrl@@QEAAHHPEAU_TBBUTTON@@@Z @ 5523 NONAME
 ?InsertColumn@CListCtrl@@QEAAHHPEB_WHHH@Z @ 5524 NONAME
 ?InsertColumn@CListCtrl@@QEAAHHPEBUtagLVCOLUMNW@@@Z @ 5525 NONAME
 ?InsertEmpty@CStringArray@@IEAAX_J0@Z @ 5526 NONAME
 ?InsertFileAsObject@CRichEditView@@QEAAXPEB_W@Z @ 5527 NONAME
 ?InsertItem@CComboBoxEx@@QEAAHPEBUtagCOMBOBOXEXITEMW@@@Z @ 5528 NONAME
 ?InsertItem@CHeaderCtrl@@QEAAHHPEAU_HD_ITEMW@@@Z @ 5529 NONAME
 ?InsertItem@CListCtrl@@QEAAHHPEB_W@Z @ 5530 NONAME
 ?InsertItem@CListCtrl@@QEAAHHPEB_WH@Z @ 5531 NONAME
 ?InsertItem@CListCtrl@@QEAAHIHPEB_WIIH_J@Z @ 5532 NONAME
 ?InsertItem@CListCtrl@@QEAAHPEBUtagLVITEMW@@@Z @ 5533 NONAME
 ?InsertItem@CRichEditView@@QEAAJPEAVCRichEditCntrItem@@@Z @ 5534 NONAME
 ?InsertItem@CTabCtrl@@QEAAJHPEAUtagTCITEMW@@@Z @ 5535 NONAME
 ?InsertItem@CTabCtrl@@QEAAJHPEB_W@Z @ 5536 NONAME
 ?InsertItem@CTabCtrl@@QEAAJHPEB_WH@Z @ 5537 NONAME
 ?InsertItem@CTabCtrl@@QEAAJIHPEB_WH_J@Z @ 5538 NONAME
 ?InsertItem@CTabCtrl@@QEAAJIHPEB_WH_JKK@Z @ 5539 NONAME
 ?InsertItem@CTreeCtrl@@QEAAPEAU_TREEITEM@@IPEB_WHHII_JPEAU2@2@Z @ 5540 NONAME
 ?InsertItem@CTreeCtrl@@QEAAPEAU_TREEITEM@@PEAUtagTVINSERTSTRUCTW@@@Z @ 5541 NONAME
 ?InsertItem@CTreeCtrl@@QEAAPEAU_TREEITEM@@PEB_WHHPEAU2@1@Z @ 5542 NONAME
 ?InsertItem@CTreeCtrl@@QEAAPEAU_TREEITEM@@PEB_WPEAU2@1@Z @ 5543 NONAME
 ?InsertMarkHitTest@CToolBarCtrl@@QEBAHPEAUtagPOINT@@PEAUTBINSERTMARK@@@Z @ 5544 NONAME
 ?InsertMenuItemW@CMenu@@QEAAHIPEAUtagMENUITEMINFOW@@H@Z @ 5545 NONAME
 ?InsertMenus@XOleInPlaceFrame@COleFrameHook@@UEAAJPEAUHMENU__@@PEAUtagOleMenuGroupWidths@@@Z @ 5546 NONAME
 ?InsertMenus@XOleIPFrame@COleControlContainer@@UEAAJPEAUHMENU__@@PEAUtagOleMenuGroupWidths@@@Z @ 5547 NONAME
 ?InsertMenuW@CMenu@@QEAAHII_KPEB_W@Z @ 5548 NONAME
 ?InsertMenuW@CMenu@@QEAAHII_KPEBVCBitmap@@@Z @ 5549 NONAME
 ?InsertString@CComboBox@@QEAAHHPEB_W@Z @ 5550 NONAME
 ?InsertString@CComboBoxEx@@QEAAHHPEB_W@Z @ 5551 NONAME
 ?InsertString@CListBox@@QEAAHHPEB_W@Z @ 5552 NONAME
 ?InternalAddRef@CCmdTarget@@QEAAKXZ @ 5553 NONAME
 ?InternalGetFont@COleControl@@QEAAAEAVCFontHolder@@XZ @ 5554 NONAME
 ?InternalGetText@COleControl@@QEAAAEBV?$CStringT@_WV?$StrTraitMFC_DLL@_WV?$ChTraitsCRT@_W@ATL@@@@@ATL@@XZ @ 5555 NONAME
 ?InternalQueryInterface@CCmdTarget@@QEAAKPEBXPEAPEAX@Z @ 5556 NONAME
 ?InternalRelease@CCmdTarget@@QEAAKXZ @ 5557 NONAME
 ?InternalSetReadyState@COleControl@@QEAAXJ@Z @ 5558 NONAME
 ?IntersectClipRect@CDC@@QEAAHHHHH@Z @ 5559 NONAME
 ?IntersectClipRect@CDC@@QEAAHPEBUtagRECT@@@Z @ 5560 NONAME
 ?Invalidate@CWnd@@QEAAXH@Z @ 5561 NONAME
 ?InvalidateCheck@CCheckListBox@@IEAAXH@Z @ 5562 NONAME
 ?InvalidateControl@COleControl@@QEAAXPEBUtagRECT@@H@Z @ 5563 NONAME
 ?InvalidateItem@CCheckListBox@@IEAAXH@Z @ 5564 NONAME
 ?InvalidateObjectCache@CRichEditDoc@@QEAAXXZ @ 5565 NONAME
 ?InvalidateRect@CWnd@@QEAAXPEBUtagRECT@@H@Z @ 5566 NONAME
 ?InvalidateRect@XOleIPSite@COleControlSite@@UEAAJPEBUtagRECT@@H@Z @ 5567 NONAME
 ?InvalidateRgn@COleControl@@QEAAXPEAVCRgn@@H@Z @ 5568 NONAME
 ?InvalidateRgn@CWnd@@QEAAXPEAVCRgn@@H@Z @ 5569 NONAME
 ?InvalidateRgn@XOleIPSite@COleControlSite@@UEAAJPEAUHRGN__@@H@Z @ 5570 NONAME
 ?InvertRect@CDC@@QEAAXPEBUtagRECT@@@Z @ 5571 NONAME
 ?InvertRgn@CDC@@QEAAHPEAVCRgn@@@Z @ 5572 NONAME
 ?Invoke@CDHtmlControlSink@@UEAAJJAEBU_GUID@@KGPEAUtagDISPPARAMS@@PEAUtagVARIANT@@PEAUtagEXCEPINFO@@PEAI@Z @ 5573 NONAME
 ?Invoke@CDHtmlElementEventSink@@UEAAJJAEBU_GUID@@KGPEAUtagDISPPARAMS@@PEAUtagVARIANT@@PEAUtagEXCEPINFO@@PEAI@Z @ 5574 NONAME
 ?Invoke@CDHtmlEventSink@@UEAAJJAEBU_GUID@@KGPEAUtagDISPPARAMS@@PEAUtagVARIANT@@PEAUtagEXCEPINFO@@PEAI@Z @ 5575 NONAME
 ?Invoke@COleDispatchImpl@@UEAAJJAEBU_GUID@@KGPEAUtagDISPPARAMS@@PEAUtagVARIANT@@PEAUtagEXCEPINFO@@PEAI@Z @ 5576 NONAME
 ?Invoke@XAccessible@CWnd@@UEAAJJAEBU_GUID@@KGPEAUtagDISPPARAMS@@PEAUtagVARIANT@@PEAUtagEXCEPINFO@@PEAI@Z @ 5577 NONAME
 ?Invoke@XAmbientProps@COleControlSite@@UEAAJJAEBU_GUID@@KGPEAUtagDISPPARAMS@@PEAUtagVARIANT@@PEAUtagEXCEPINFO@@PEAI@Z @ 5578 NONAME
 ?Invoke@XEventSink@COleControlSite@@UEAAJJAEBU_GUID@@KGPEAUtagDISPPARAMS@@PEAUtagVARIANT@@PEAUtagEXCEPINFO@@PEAI@Z @ 5579 NONAME
 ?InvokeFromFuncInfo@CDHtmlControlSink@@QEAAJP8CDHtmlSinkHandler@@EAAXXZAEAU_ATL_FUNC_INFO@ATL@@PEAUtagDISPPARAMS@@PEAUtagVARIANT@@@Z @ 5580 NONAME
 ?InvokeHelper@COleControlSite@@UEAAXJGGPEAXPEBEZZ @ 5581 NONAME
 ?InvokeHelper@COleDispatchDriver@@QEAAXJGGPEAXPEBEZZ @ 5582 NONAME
 ?InvokeHelper@CWnd@@QEAAXJGGPEAXPEBEZZ @ 5583 NONAME
 ?InvokeHelperV@COleControlSite@@UEAAXJGGPEAXPEBEPEAD@Z @ 5584 NONAME
 ?InvokeHelperV@COleDispatchDriver@@QEAAXJGGPEAXPEBEPEAD@Z @ 5585 NONAME
 ?IOCtl@CAsyncSocket@@QEAAHJPEAK@Z @ 5586 NONAME
 ?IsAppThemed@CThemeHelper@@SAHXZ @ 5587 NONAME
 ?IsAppThemedFail@CThemeHelper@@CAHXZ @ 5588 NONAME
 ?IsArchived@CFileFind@@QEBAHXZ @ 5589 NONAME
 ?IsAsynchronous@CPropExchange@@QEAAHXZ @ 5590 NONAME
 ?IsBlank@CDocItem@@UEBAHXZ @ 5591 NONAME
 ?IsBlank@CIPAddressCtrl@@QEBAHXZ @ 5592 NONAME
 ?IsBlank@COleServerItem@@MEBAHXZ @ 5593 NONAME
 ?IsBlocking@CSocket@@QEAAHXZ @ 5594 NONAME
 ?IsBOF@CRecordset@@QEBAHXZ @ 5595 NONAME
 ?IsBold@CFontDialog@@QEBAHXZ @ 5596 NONAME
 ?IsBufferEmpty@CArchive@@QEBAHXZ @ 5597 NONAME
 ?IsButtonChecked@CToolBarCtrl@@QEBAHH@Z @ 5598 NONAME
 ?IsButtonEnabled@CPropertyPage@@IEAAHH@Z @ 5599 NONAME
 ?IsButtonEnabled@CToolBarCtrl@@QEBAHH@Z @ 5600 NONAME
 ?IsButtonHidden@CToolBarCtrl@@QEBAHH@Z @ 5601 NONAME
 ?IsButtonHighlighted@CToolBarCtrl@@QEBAHH@Z @ 5602 NONAME
 ?IsButtonIndeterminate@CToolBarCtrl@@QEBAHH@Z @ 5603 NONAME
 ?IsButtonPressed@CToolBarCtrl@@QEBAHH@Z @ 5604 NONAME
 ?IsByteSwapping@CArchive@@QEBAHXZ @ 5605 NONAME
 ?IsCenturyView@CMonthCalCtrl@@QEBAHXZ @ 5606 NONAME
 ?IsChild@CWnd@@QEBAHPEBV1@@Z @ 5607 NONAME
 ?IsChildPane@CSplitterWnd@@QEAAHPEAVCWnd@@AEAH1@Z @ 5608 NONAME
 ?IsChildPane@CSplitterWnd@@QEAAHPEAVCWnd@@PEAH1@Z @ 5609 NONAME
 ?IsCompressed@CFileFind@@QEBAHXZ @ 5610 NONAME
 ?IsConnected@COleServerItem@@QEBAHXZ @ 5611 NONAME
 ?IsConvertingVBX@COleControl@@QEAAHXZ @ 5612 NONAME
 ?IsDataAvailable@COleDataObject@@QEAAHGPEAUtagFORMATETC@@@Z @ 5613 NONAME
 ?IsDecadeView@CMonthCalCtrl@@QEBAHXZ @ 5614 NONAME
 ?IsDefaultButton@COleControlSite@@QEAAHXZ @ 5615 NONAME
 ?IsDeleted@CRecordset@@QEBAHXZ @ 5616 NONAME
 ?IsDerivedFrom@CRuntimeClass@@QEBAHPEBU1@@Z @ 5617 NONAME
 ?IsDialogMessageW@COccManager@@UEAAHPEAVCWnd@@PEAUtagMSG@@@Z @ 5618 NONAME
 ?IsDialogMessageW@CWnd@@QEAAHPEAUtagMSG@@@Z @ 5619 NONAME
 ?IsDirectory@CFileFind@@QEBAHXZ @ 5620 NONAME
 ?IsDirty@CBlobProperty@@UEAAJXZ @ 5621 NONAME
 ?IsDirty@XPersistFile@COleLinkingDoc@@UEAAJXZ @ 5622 NONAME
 ?IsDirty@XPersistMemory@COleControl@@UEAAJXZ @ 5623 NONAME
 ?IsDirty@XPersistStorage@COleControl@@UEAAJXZ @ 5624 NONAME
 ?IsDirty@XPersistStorage@COleServerDoc@@UEAAJXZ @ 5625 NONAME
 ?IsDirty@XPersistStreamInit@COleControl@@UEAAJXZ @ 5626 NONAME
 ?IsDlgButtonChecked@COleControlContainer@@UEBAIH@Z @ 5627 NONAME
 ?IsDlgButtonChecked@CWnd@@QEBAIH@Z @ 5628 NONAME
 ?IsDockBar@CControlBar@@UEBAHXZ @ 5629 NONAME
 ?IsDockBar@CDockBar@@UEBAHXZ @ 5630 NONAME
 ?IsDocObject@COleServerDoc@@QEBAHXZ @ 5631 NONAME
 ?IsDots@CFileFind@@UEBAHXZ @ 5632 NONAME
 ?IsDots@CGopherFileFind@@UEBAHXZ @ 5633 NONAME
 ?IsEmbedded@COleServerDoc@@QEBAHXZ @ 5634 NONAME
 ?IsEmpty@?$CSimpleStringT@_W$00@ATL@@QEBA_NXZ @ 5635 NONAME
 ?IsEmpty@?$CSimpleStringT@D$00@ATL@@QEBA_NXZ @ 5636 NONAME
 ?IsEmpty@CByteArray@@QEBAHXZ @ 5637 NONAME
 ?IsEmpty@CDWordArray@@QEBAHXZ @ 5638 NONAME
 ?IsEmpty@CMapPtrToPtr@@QEBAHXZ @ 5639 NONAME
 ?IsEmpty@CMapPtrToWord@@QEBAHXZ @ 5640 NONAME
 ?IsEmpty@CMapStringToOb@@QEBAHXZ @ 5641 NONAME
 ?IsEmpty@CMapStringToPtr@@QEBAHXZ @ 5642 NONAME
 ?IsEmpty@CMapStringToString@@QEBAHXZ @ 5643 NONAME
 ?IsEmpty@CMapWordToOb@@QEBAHXZ @ 5644 NONAME
 ?IsEmpty@CMapWordToPtr@@QEBAHXZ @ 5645 NONAME
 ?IsEmpty@CObArray@@QEBAHXZ @ 5646 NONAME
 ?IsEmpty@CObList@@QEBAHXZ @ 5647 NONAME
 ?IsEmpty@CPtrArray@@QEBAHXZ @ 5648 NONAME
 ?IsEmpty@CPtrList@@QEBAHXZ @ 5649 NONAME
 ?IsEmpty@CStringArray@@QEBAHXZ @ 5650 NONAME
 ?IsEmpty@CStringList@@QEBAHXZ @ 5651 NONAME
 ?IsEmpty@CUIntArray@@QEBAHXZ @ 5652 NONAME
 ?IsEmpty@CWordArray@@QEBAHXZ @ 5653 NONAME
 ?IsEnabled@CCheckListBox@@QEAAHH@Z @ 5654 NONAME
 ?IsEOF@CRecordset@@QEBAHXZ @ 5655 NONAME
 ?IsExternalDispatchSafe@CDHtmlDialog@@UEAAHXZ @ 5656 NONAME
 ?IsFieldDirty@CRecordset@@QEAAHPEAX@Z @ 5657 NONAME
 ?IsFieldNull@CRecordset@@QEAAHPEAX@Z @ 5658 NONAME
 ?IsFieldNullable@CRecordset@@QEAAHPEAX@Z @ 5659 NONAME
 ?IsFieldNullable@CRecordset@@QEBAHK@Z @ 5660 NONAME
 ?IsFieldStatusDirty@CRecordset@@QEBAHK@Z @ 5661 NONAME
 ?IsFieldStatusNull@CRecordset@@QEBAHK@Z @ 5662 NONAME
 ?IsFieldType@CFieldExchange@@QEAAHPEAI@Z @ 5663 NONAME
 ?IsFloating@CControlBar@@QEBAHXZ @ 5664 NONAME
 ?IsFrameWnd@CFrameWnd@@UEBAHXZ @ 5665 NONAME
 ?IsFrameWnd@CWnd@@UEBAHXZ @ 5666 NONAME
 ?IsHelpKey@@YAHPEAUtagMSG@@@Z @ 5667 NONAME
 ?IsHidden@CFileFind@@QEBAHXZ @ 5668 NONAME
 ?IsIconic@CWnd@@QEBAHXZ @ 5669 NONAME
 ?IsIdleMessage@CWinThread@@UEAAHPEAUtagMSG@@@Z @ 5670 NONAME
 ?IsInPlaceActive@COleClientItem@@QEBAHXZ @ 5671 NONAME
 ?IsInPlaceActive@COleServerDoc@@QEBAHXZ @ 5672 NONAME
 ?IsInvokeAllowed@CCmdTarget@@UEAAHJ@Z @ 5673 NONAME
 ?IsInvokeAllowed@COleControl@@MEAAHJ@Z @ 5674 NONAME
 ?IsItalic@CFontDialog@@QEBAHXZ @ 5675 NONAME
 ?IsJoin@CRecordset@@SAHPEB_W@Z @ 5676 NONAME
 ?IsKindOf@CObject@@QEBAHPEBUCRuntimeClass@@@Z @ 5677 NONAME
 ?IsLabelControl@COccManager@@SAHPEAUCOleControlSiteOrWnd@@@Z @ 5678 NONAME
 ?IsLabelControl@COccManager@@SAHPEAVCWnd@@@Z @ 5679 NONAME
 ?IsLicenseValid@COleObjectFactory@@QEAAHXZ @ 5680 NONAME
 ?IsLinkedItem@COleServerItem@@QEBAHXZ @ 5681 NONAME
 ?IsLinkUpToDate@COleClientItem@@QEBAHXZ @ 5682 NONAME
 ?IsLoading@CArchive@@QEBAHXZ @ 5683 NONAME
 ?IsLoading@CPropExchange@@QEAAHXZ @ 5684 NONAME
 ?IsLocked@CMultiLock@@QEAAHK@Z @ 5685 NONAME
 ?IsLocked@CSingleLock@@QEAAHXZ @ 5686 NONAME
 ?IsManaged@CControlCreationInfo@@QEBAHXZ @ 5687 NONAME
 ?IsMarked@CRichEditCntrItem@@QEAAHXZ @ 5688 NONAME
 ?IsMatchingMnemonic@COccManager@@SAHPEAUCOleControlSiteOrWnd@@PEAUtagMSG@@@Z @ 5689 NONAME
 ?IsMatchingMnemonic@COccManager@@SAHPEAVCWnd@@PEAUtagMSG@@@Z @ 5690 NONAME
 ?IsMatchingMnemonic@COleControlSite@@QEAAHPEAUtagMSG@@@Z @ 5691 NONAME
 ?IsModeless@CPropertySheet@@QEBAHXZ @ 5692 NONAME
 ?IsModified@CDocument@@UEAAHXZ @ 5693 NONAME
 ?IsModified@CHtmlEditDoc@@UEAAHXZ @ 5694 NONAME
 ?IsModified@COleClientItem@@QEBAHXZ @ 5695 NONAME
 ?IsModified@COleControl@@QEAAHXZ @ 5696 NONAME
 ?IsModified@COlePropertyPage@@QEAAHXZ @ 5697 NONAME
 ?IsModified@CRichEditDoc@@UEAAHXZ @ 5698 NONAME
 ?IsMonthView@CMonthCalCtrl@@QEBAHXZ @ 5699 NONAME
 ?IsNormal@CFileFind@@QEBAHXZ @ 5700 NONAME
 ?IsOnFirstRecord@CRecordView@@QEAAHXZ @ 5701 NONAME
 ?IsOnLastRecord@CRecordView@@QEAAHXZ @ 5702 NONAME
 ?IsOpen@CDatabase@@QEBAHXZ @ 5703 NONAME
 ?IsOpen@COleClientItem@@QEBAHXZ @ 5704 NONAME
 ?IsOpen@CRecordset@@QEBAHXZ @ 5705 NONAME
 ?IsOptimizedDraw@COleControl@@QEAAHXZ @ 5706 NONAME
 ?IsPageDirty@XPropertyPage@COlePropertyPage@@UEAAJXZ @ 5707 NONAME
 ?IsParamStatusNull@CRecordset@@QEBAHK@Z @ 5708 NONAME
 ?IsPlaying@CAnimateCtrl@@QEBAHXZ @ 5709 NONAME
 ?IsPrinting@CDC@@QEBAHXZ @ 5710 NONAME
 ?IsReadOnly@CFileFind@@QEBAHXZ @ 5711 NONAME
 ?IsRecordsetUpdatable@CRecordset@@IEAAHXZ @ 5712 NONAME
 ?IsRegistered@COleObjectFactory@@UEBAHXZ @ 5713 NONAME
 ?IsResultExpected@CCmdTarget@@QEAAHXZ @ 5714 NONAME
 ?IsRichEditFormat@CRichEditView@@SAHG@Z @ 5715 NONAME
 ?IsRunning@COleClientItem@@QEBAHXZ @ 5716 NONAME
 ?IsRunning@XOleItemContainer@COleLinkingDoc@@UEAAJPEA_W@Z @ 5717 NONAME
 ?IsSelected@CRichEditView@@MEBAHPEBVCObject@@@Z @ 5718 NONAME
 ?IsSelected@CView@@UEBAHPEBVCObject@@@Z @ 5719 NONAME
 ?IsSelectQueryUpdatable@CRecordset@@QEAAHPEB_W@Z @ 5720 NONAME
 ?IsSerializable@CObject@@QEBAHXZ @ 5721 NONAME
 ?IsSignificantMessage@COleMessageFilter@@UEAAHPEAUtagMSG@@@Z @ 5722 NONAME
 ?IsSimple@CStatusBarCtrl@@QEBAHXZ @ 5723 NONAME
 ?IsSinkedElement@CDHtmlDialog@@IEAAHPEAUIDispatch@@@Z @ 5724 NONAME
 ?IsSQLUpdatable@CRecordset@@QEAAHPEB_W@Z @ 5725 NONAME
 ?IsStoring@CArchive@@QEBAHXZ @ 5726 NONAME
 ?IsStrikeOut@CFontDialog@@QEBAHXZ @ 5727 NONAME
 ?IsSubclassedControl@COleControl@@UEAAHXZ @ 5728 NONAME
 ?IsSystem@CFileFind@@QEBAHXZ @ 5729 NONAME
 ?IsTemporary@CFileFind@@QEBAHXZ @ 5730 NONAME
 ?IsTerminating@CFindReplaceDialog@@QEBAHXZ @ 5731 NONAME
 ?IsThemeBackgroundPartiallyTransparent@CThemeHelper@@SAHPEAXHH@Z @ 5732 NONAME
 ?IsThemeBackgroundPartiallyTransparentFail@CThemeHelper@@CAHPEAXHH@Z @ 5733 NONAME
 ?IsThemePartDefined@CThemeHelper@@SAHPEAXHH@Z @ 5734 NONAME
 ?IsThemePartDefinedFail@CThemeHelper@@CAHPEAXHH@Z @ 5735 NONAME
 ?IsTopParentActive@CWnd@@QEBAHXZ @ 5736 NONAME
 ?IsTracking@CFrameWnd@@QEBAHXZ @ 5737 NONAME
 ?IsTracking@CSplitterWnd@@QEAAHXZ @ 5738 NONAME
 ?IsUnderline@CFontDialog@@QEBAHXZ @ 5739 NONAME
 ?IsUpToDate@XOleObject@CDocObjectServer@@UEAAJXZ @ 5740 NONAME
 ?IsUpToDate@XOleObject@COleControl@@UEAAJXZ @ 5741 NONAME
 ?IsUpToDate@XOleObject@COleServerDoc@@UEAAJXZ @ 5742 NONAME
 ?IsUpToDate@XOleObject@COleServerItem@@UEAAJXZ @ 5743 NONAME
 ?IsValidSource@COleChangeSourceDialog@@QEAAHXZ @ 5744 NONAME
 ?IsVisible@CControlBar@@UEBAHXZ @ 5745 NONAME
 ?IsWindowEnabled@COleControlSite@@UEBAHXZ @ 5746 NONAME
 ?IsWindowEnabled@CWnd@@QEBAHXZ @ 5747 NONAME
 ?IsWindowVisible@CWnd@@QEBAHXZ @ 5748 NONAME
 ?IsWizard@CPropertySheet@@QEBAHXZ @ 5749 NONAME
 ?IsYearView@CMonthCalCtrl@@QEBAHXZ @ 5750 NONAME
 ?IsZoomed@CWnd@@QEBAHXZ @ 5751 NONAME
 ?ItemFromPoint@CListBox@@QEBAIVCPoint@@AEAH@Z @ 5752 NONAME
 ?ItemFromPt@CDragListBox@@QEBAHVCPoint@@H@Z @ 5753 NONAME
 ?ItemHasChildren@CTreeCtrl@@QEBAHPEAU_TREEITEM@@@Z @ 5754 NONAME
 ?KeyDown@COleControl@@IEAAXPEAG@Z @ 5755 NONAME
 ?KeyUp@COleControl@@IEAAXPEAG@Z @ 5756 NONAME
 ?KillSocket@CAsyncSocket@@SAX_KPEAV1@@Z @ 5757 NONAME
 ?KillTimer@CWnd@@QEAAH_K@Z @ 5758 NONAME
 ?Layout@CHeaderCtrl@@QEAAHPEAU_HD_LAYOUT@@@Z @ 5759 NONAME
 ?Layout@CToolBar@@IEAAXXZ @ 5760 NONAME
 ?Left@?$CStringT@_WV?$StrTraitMFC_DLL@_WV?$ChTraitsCRT@_W@ATL@@@@@ATL@@QEBA?AV12@H@Z @ 5761 NONAME
 ?Left@?$CStringT@DV?$StrTraitMFC_DLL@DV?$ChTraitsCRT@D@ATL@@@@@ATL@@QEBA?AV12@H@Z @ 5762 NONAME
 ?LimitText@CComboBox@@QEAAHH@Z @ 5763 NONAME
 ?LimitText@CEdit@@QEAAXH@Z @ 5764 NONAME
 ?LimitText@CRichEditCtrl@@QEAAXJ@Z @ 5765 NONAME
 ?LineFromChar@CEdit@@QEBAHH@Z @ 5766 NONAME
 ?LineFromChar@CRichEditCtrl@@QEBAJJ@Z @ 5767 NONAME
 ?LineIndex@CEdit@@QEBAHH@Z @ 5768 NONAME
 ?LineIndex@CRichEditCtrl@@QEBAHH@Z @ 5769 NONAME
 ?LineLength@CEdit@@QEBAHH@Z @ 5770 NONAME
 ?LineLength@CRichEditCtrl@@QEBAHH@Z @ 5771 NONAME
 ?LineScroll@CEdit@@QEAAXHH@Z @ 5772 NONAME
 ?LineScroll@CRichEditCtrl@@QEAAXHH@Z @ 5773 NONAME
 ?LineTo@CDC@@QEAAHHH@Z @ 5774 NONAME
 ?LineTo@CDC@@QEAAHUtagPOINT@@@Z @ 5775 NONAME
 ?Listen@CAsyncSocket@@QEAAHH@Z @ 5776 NONAME
 ?lMaxSize@CRichEditView@@2KA @ 5777 NONAME DATA
 ?Load@CBlobProperty@@UEAAJPEAUIStream@@@Z @ 5778 NONAME
 ?Load@CDialogTemplate@@QEAAHPEB_W@Z @ 5779 NONAME
 ?Load@COleControl@@QEAAXPEB_WAEAVCDataPathProperty@@@Z @ 5780 NONAME
 ?Load@CRuntimeClass@@SAPEAU1@AEAVCArchive@@PEAI@Z @ 5781 NONAME
 ?Load@XPersistFile@COleLinkingDoc@@UEAAJPEB_WK@Z @ 5782 NONAME
 ?Load@XPersistMemory@COleControl@@UEAAJPEAXK@Z @ 5783 NONAME
 ?Load@XPersistPropertyBag@COleControl@@UEAAJPEAUIPropertyBag@@PEAUIErrorLog@@@Z @ 5784 NONAME
 ?Load@XPersistStorage@COleControl@@UEAAJPEAUIStorage@@@Z @ 5785 NONAME
 ?Load@XPersistStorage@COleServerDoc@@UEAAJPEAUIStorage@@@Z @ 5786 NONAME
 ?Load@XPersistStreamInit@COleControl@@UEAAJPEAUIStream@@@Z @ 5787 NONAME
 ?LoadAccelTable@CFrameWnd@@QEAAHPEB_W@Z @ 5788 NONAME
 ?LoadAppLangResourceDLL@CWinApp@@UEAAPEAUHINSTANCE__@@XZ @ 5789 NONAME
 ?LoadBarState@CFrameWnd@@QEAAXPEB_W@Z @ 5790 NONAME
 ?LoadBitmaps@CBitmapButton@@QEAAHIIII@Z @ 5791 NONAME
 ?LoadBitmaps@CBitmapButton@@QEAAHPEB_W000@Z @ 5792 NONAME
 ?LoadBitmapW@CBitmap@@QEAAHI@Z @ 5793 NONAME
 ?LoadBitmapW@CBitmap@@QEAAHPEB_W@Z @ 5794 NONAME
 ?LoadBitmapW@CToolBar@@QEAAHI@Z @ 5795 NONAME
 ?LoadBitmapW@CToolBar@@QEAAHPEB_W@Z @ 5796 NONAME
 ?LoadCursorW@CWinApp@@QEBAPEAUHICON__@@I@Z @ 5797 NONAME
 ?LoadCursorW@CWinApp@@QEBAPEAUHICON__@@PEB_W@Z @ 5798 NONAME
 ?LoadFields@CRecordset@@QEAAXXZ @ 5799 NONAME
 ?LoadFrame@CFrameWnd@@UEAAHIKPEAVCWnd@@PEAUCCreateContext@@@Z @ 5800 NONAME
 ?LoadFrame@CMDIChildWnd@@UEAAHIKPEAVCWnd@@PEAUCCreateContext@@@Z @ 5801 NONAME
 ?LoadFrame@CMDIFrameWnd@@UEAAHIKPEAVCWnd@@PEAUCCreateContext@@@Z @ 5802 NONAME
 ?LoadFrame@COleIPFrameWnd@@UEAAHIKPEAVCWnd@@PEAUCCreateContext@@@Z @ 5803 NONAME
 ?LoadFromResource@CDHtmlDialog@@QEAAHI@Z @ 5804 NONAME
 ?LoadFromResource@CDHtmlDialog@@QEAAHPEB_W@Z @ 5805 NONAME
 ?LoadFromResource@CHtmlView@@QEAAHI@Z @ 5806 NONAME
 ?LoadFromResource@CHtmlView@@QEAAHPEB_W@Z @ 5807 NONAME
 ?LoadFromStorage@COleDocument@@MEAAXXZ @ 5808 NONAME
 ?LoadIconW@CWinApp@@QEBAPEAUHICON__@@I@Z @ 5809 NONAME
 ?LoadIconW@CWinApp@@QEBAPEAUHICON__@@PEB_W@Z @ 5810 NONAME
 ?LoadImages@CToolBarCtrl@@QEAAXHPEAUHINSTANCE__@@@Z @ 5811 NONAME
 ?LoadMappedBitmap@CBitmap@@QEAAHIIPEAU_COLORMAP@@H@Z @ 5812 NONAME
 ?LoadMenuIndirectW@CMenu@@QEAAHPEBX@Z @ 5813 NONAME
 ?LoadMenuW@CMenu@@QEAAHI@Z @ 5814 NONAME
 ?LoadMenuW@CMenu@@QEAAHPEB_W@Z @ 5815 NONAME
 ?LoadOEMBitmap@CBitmap@@QEAAHI@Z @ 5816 NONAME
 ?LoadOEMCursor@CWinApp@@QEBAPEAUHICON__@@I@Z @ 5817 NONAME
 ?LoadOEMIcon@CWinApp@@QEBAPEAUHICON__@@I@Z @ 5818 NONAME
 ?LoadStandardCursor@CWinApp@@QEBAPEAUHICON__@@PEB_W@Z @ 5819 NONAME
 ?LoadStandardIcon@CWinApp@@QEBAPEAUHICON__@@PEB_W@Z @ 5820 NONAME
 ?LoadState@CControlBarInfo@@QEAAHPEB_WHPEAVCDockState@@@Z @ 5821 NONAME
 ?LoadState@CDockState@@QEAAXPEB_W@Z @ 5822 NONAME
 ?LoadState@COleControl@@IEAAJPEAUIStream@@@Z @ 5823 NONAME
 ?LoadStdProfileSettings@CWinApp@@IEAAXI@Z @ 5824 NONAME
 ?LoadStringW@?$CStringT@_WV?$StrTraitMFC_DLL@_WV?$ChTraitsCRT@_W@ATL@@@@@ATL@@QEAAHI@Z @ 5825 NONAME
 ?LoadStringW@?$CStringT@_WV?$StrTraitMFC_DLL@_WV?$ChTraitsCRT@_W@ATL@@@@@ATL@@QEAAHPEAUHINSTANCE__@@I@Z @ 5826 NONAME
 ?LoadStringW@?$CStringT@_WV?$StrTraitMFC_DLL@_WV?$ChTraitsCRT@_W@ATL@@@@@ATL@@QEAAHPEAUHINSTANCE__@@IG@Z @ 5827 NONAME
 ?LoadStringW@?$CStringT@DV?$StrTraitMFC_DLL@DV?$ChTraitsCRT@D@ATL@@@@@ATL@@QEAAHI@Z @ 5828 NONAME
 ?LoadStringW@?$CStringT@DV?$StrTraitMFC_DLL@DV?$ChTraitsCRT@D@ATL@@@@@ATL@@QEAAHPEAUHINSTANCE__@@I@Z @ 5829 NONAME
 ?LoadStringW@?$CStringT@DV?$StrTraitMFC_DLL@DV?$ChTraitsCRT@D@ATL@@@@@ATL@@QEAAHPEAUHINSTANCE__@@IG@Z @ 5830 NONAME
 ?LoadSysPolicies@CWinApp@@UEAAHXZ @ 5831 NONAME
 ?LoadTemplate@CDocTemplate@@UEAAXXZ @ 5832 NONAME
 ?LoadTemplate@CMultiDocTemplate@@UEAAXXZ @ 5833 NONAME
 ?LoadToolBar@CToolBar@@QEAAHI@Z @ 5834 NONAME
 ?LoadToolBar@CToolBar@@QEAAHPEB_W@Z @ 5835 NONAME
 ?Lock@CCriticalSection@@QEAAHXZ @ 5836 NONAME
 ?Lock@CCriticalSection@@UEAAHK@Z @ 5837 NONAME
 ?Lock@CMultiLock@@QEAAKKHK@Z @ 5838 NONAME
 ?Lock@COleSafeArray@@QEAAXXZ @ 5839 NONAME
 ?Lock@CSingleLock@@QEAAHK@Z @ 5840 NONAME
 ?Lock@CSyncObject@@UEAAHK@Z @ 5841 NONAME
 ?Lock@CTypeLibCache@@QEAAXXZ @ 5842 NONAME
 ?LockBuffer@?$CSimpleStringT@_W$00@ATL@@QEAAPEA_WXZ @ 5843 NONAME
 ?LockBuffer@?$CSimpleStringT@D$00@ATL@@QEAAPEADXZ @ 5844 NONAME
 ?LockBuffer@CEditView@@QEBAPEB_WXZ @ 5845 NONAME
 ?LockContainer@XOleContainer@COleControlContainer@@UEAAJH@Z @ 5846 NONAME
 ?LockContainer@XOleItemContainer@COleLinkingDoc@@UEAAJH@Z @ 5847 NONAME
 ?LockExternal@COleLinkingDoc@@IEAAXHH@Z @ 5848 NONAME
 ?LockInPlaceActive@COleControl@@QEAAHH@Z @ 5849 NONAME
 ?LockInPlaceActive@XOleControlSite@COleControlSite@@UEAAJH@Z @ 5850 NONAME
 ?LockRange@CFile@@UEAAX_K0@Z @ 5851 NONAME
 ?LockRange@CInternetFile@@UEAAX_K0@Z @ 5852 NONAME
 ?LockRange@CMemFile@@UEAAX_K0@Z @ 5853 NONAME
 ?LockRange@COleStreamFile@@UEAAX_K0@Z @ 5854 NONAME
 ?LockRange@CSocketFile@@UEAAX_K0@Z @ 5855 NONAME
 ?LockRange@CStdioFile@@UEAAX_K0@Z @ 5856 NONAME
 ?LockRegion@CArchiveStream@@UEAAJT_ULARGE_INTEGER@@0K@Z @ 5857 NONAME
 ?LockServer@XClassFactory@COleObjectFactory@@UEAAJH@Z @ 5858 NONAME
 ?LockWindowUpdate@CWnd@@QEAAHXZ @ 5859 NONAME
 ?Lookup@CMapPtrToPtr@@QEBAHPEAXAEAPEAX@Z @ 5860 NONAME
 ?Lookup@CMapPtrToWord@@QEBAHPEAXAEAG@Z @ 5861 NONAME
 ?Lookup@CMapStringToOb@@QEBAHPEB_WAEAPEAVCObject@@@Z @ 5862 NONAME
 ?Lookup@CMapStringToPtr@@QEBAHPEB_WAEAPEAX@Z @ 5863 NONAME
 ?Lookup@CMapStringToString@@QEBAHPEB_WAEAV?$CStringT@_WV?$StrTraitMFC_DLL@_WV?$ChTraitsCRT@_W@ATL@@@@@ATL@@@Z @ 5864 NONAME
 ?Lookup@CMapWordToOb@@QEBAHGAEAPEAVCObject@@@Z @ 5865 NONAME
 ?Lookup@CMapWordToPtr@@QEBAHGAEAPEAX@Z @ 5866 NONAME
 ?Lookup@COleDataSource@@IEBAPEAUAFX_DATACACHE_ENTRY@@PEAUtagFORMATETC@@W4tagDATADIR@@@Z @ 5867 NONAME
 ?Lookup@CTypeLibCache@@QEAAHKPEAPEAUITypeLib@@@Z @ 5868 NONAME
 ?LookupHandle@CAsyncSocket@@SAPEAV1@_KH@Z @ 5869 NONAME
 ?LookupItem@CRichEditDoc@@QEBAPEAVCRichEditCntrItem@@PEAUIOleObject@@@Z @ 5870 NONAME
 ?LookupKey@CMapStringToOb@@QEBAHPEB_WAEAPEB_W@Z @ 5871 NONAME
 ?LookupKey@CMapStringToPtr@@QEBAHPEB_WAEAPEB_W@Z @ 5872 NONAME
 ?LookupKey@CMapStringToString@@QEBAHPEB_WAEAPEB_W@Z @ 5873 NONAME
 ?LookupTypeInfo@CTypeLibCache@@QEAAHKAEBU_GUID@@PEAPEAUITypeInfo@@@Z @ 5874 NONAME
 ?LPtoDP@CDC@@QEBAXPEAUtagPOINT@@H@Z @ 5875 NONAME
 ?LPtoDP@CDC@@QEBAXPEAUtagRECT@@@Z @ 5876 NONAME
 ?LPtoDP@CDC@@QEBAXPEAUtagSIZE@@@Z @ 5877 NONAME
 ?LPtoHIMETRIC@CDC@@QEBAXPEAUtagSIZE@@@Z @ 5878 NONAME
 ?MakeLower@?$CStringT@_WV?$StrTraitMFC_DLL@_WV?$ChTraitsCRT@_W@ATL@@@@@ATL@@QEAAAEAV12@XZ @ 5879 NONAME
 ?MakeLower@?$CStringT@DV?$StrTraitMFC_DLL@DV?$ChTraitsCRT@D@ATL@@@@@ATL@@QEAAAEAV12@XZ @ 5880 NONAME
 ?MakeReverse@?$CStringT@_WV?$StrTraitMFC_DLL@_WV?$ChTraitsCRT@_W@ATL@@@@@ATL@@QEAAAEAV12@XZ @ 5881 NONAME
 ?MakeReverse@?$CStringT@DV?$StrTraitMFC_DLL@DV?$ChTraitsCRT@D@ATL@@@@@ATL@@QEAAAEAV12@XZ @ 5882 NONAME
 ?MakeUpper@?$CStringT@_WV?$StrTraitMFC_DLL@_WV?$ChTraitsCRT@_W@ATL@@@@@ATL@@QEAAAEAV12@XZ @ 5883 NONAME
 ?MakeUpper@?$CStringT@DV?$StrTraitMFC_DLL@DV?$ChTraitsCRT@D@ATL@@@@@ATL@@QEAAAEAV12@XZ @ 5884 NONAME
 ?MapAccelerator@CToolBarCtrl@@QEAAH_WPEAI@Z @ 5885 NONAME
 ?MapAccIdToItem@CTreeCtrl@@QEBAPEAU_TREEITEM@@I@Z @ 5886 NONAME
 ?MapDialogRect@CDialog@@QEBAXPEAUtagRECT@@@Z @ 5887 NONAME
 ?MapDialogRect@CPropertySheet@@QEBAXPEAUtagRECT@@@Z @ 5888 NONAME
 ?MapItemToAccId@CTreeCtrl@@QEBAIPEAU_TREEITEM@@@Z @ 5889 NONAME
 ?MapObject@CArchive@@QEAAXPEBVCObject@@@Z @ 5890 NONAME
 ?MapPropertyToPage@XPerPropertyBrowsing@COleControl@@UEAAJJPEAU_GUID@@@Z @ 5891 NONAME
 ?MapResult@COleDialog@@QEAAHI@Z @ 5892 NONAME
 ?MapWindowPoints@CWnd@@QEBAXPEAV1@PEAUtagPOINT@@I@Z @ 5893 NONAME
 ?MapWindowPoints@CWnd@@QEBAXPEAV1@PEAUtagRECT@@@Z @ 5894 NONAME
 ?MapWizardResult@CPropertyPage@@IEAA_J_J@Z @ 5895 NONAME
 ?Mark@CRichEditCntrItem@@QEAAXH@Z @ 5896 NONAME
 ?MarkButton@CToolBarCtrl@@QEAAHHH@Z @ 5897 NONAME
 ?MarkForAddNew@CRecordset@@QEAAXXZ @ 5898 NONAME
 ?MarkForUpdate@CRecordset@@QEAAXXZ @ 5899 NONAME
 ?MarkItemsClear@CRichEditDoc@@IEBAXXZ @ 5900 NONAME
 ?MaskBlt@CDC@@QEAAHHHHHPEAV1@HHAEAVCBitmap@@HHK@Z @ 5901 NONAME
 ?MatchCase@CFindReplaceDialog@@QEBAHXZ @ 5902 NONAME
 ?MatchDocType@CDocTemplate@@UEAA?AW4Confidence@1@PEB_WAEAPEAVCDocument@@@Z @ 5903 NONAME
 ?MatchesMask@CFileFind@@UEBAHK@Z @ 5904 NONAME
 ?MatchWholeWord@CFindReplaceDialog@@QEBAHXZ @ 5905 NONAME
 ?MaximizeBand@CReBarCtrl@@QEAAXI@Z @ 5906 NONAME
 ?MDIActivate@CMDIChildWnd@@QEAAXXZ @ 5907 NONAME
 ?MDIActivate@CMDIFrameWnd@@QEAAXPEAVCWnd@@@Z @ 5908 NONAME
 ?MDICascade@CMDIFrameWnd@@QEAAXH@Z @ 5909 NONAME
 ?MDICascade@CMDIFrameWnd@@QEAAXXZ @ 5910 NONAME
 ?MDIDestroy@CMDIChildWnd@@QEAAXXZ @ 5911 NONAME
 ?MDIGetActive@CMDIFrameWnd@@QEBAPEAVCMDIChildWnd@@PEAH@Z @ 5912 NONAME
 ?MDIIconArrange@CMDIFrameWnd@@QEAAXXZ @ 5913 NONAME
 ?MDIMaximize@CMDIChildWnd@@QEAAXXZ @ 5914 NONAME
 ?MDIMaximize@CMDIFrameWnd@@QEAAXPEAVCWnd@@@Z @ 5915 NONAME
 ?MDINext@CMDIFrameWnd@@QEAAXXZ @ 5916 NONAME
 ?MDIPrev@CMDIFrameWnd@@QEAAXXZ @ 5917 NONAME
 ?MDIRestore@CMDIChildWnd@@QEAAXXZ @ 5918 NONAME
 ?MDIRestore@CMDIFrameWnd@@QEAAXPEAVCWnd@@@Z @ 5919 NONAME
 ?MDISetMenu@CMDIFrameWnd@@QEAAPEAVCMenu@@PEAV2@0@Z @ 5920 NONAME
 ?MDITile@CMDIFrameWnd@@QEAAXH@Z @ 5921 NONAME
 ?MDITile@CMDIFrameWnd@@QEAAXXZ @ 5922 NONAME
 ?MeasureItem@CCheckListBox@@UEAAXPEAUtagMEASUREITEMSTRUCT@@@Z @ 5923 NONAME
 ?MeasureItem@CChevronOwnerDrawMenu@@UEAAXPEAUtagMEASUREITEMSTRUCT@@@Z @ 5924 NONAME
 ?MeasureItem@CComboBox@@UEAAXPEAUtagMEASUREITEMSTRUCT@@@Z @ 5925 NONAME
 ?MeasureItem@CListBox@@UEAAXPEAUtagMEASUREITEMSTRUCT@@@Z @ 5926 NONAME
 ?MeasureItem@CMenu@@UEAAXPEAUtagMEASUREITEMSTRUCT@@@Z @ 5927 NONAME
 ?MemberIDFromName@CCmdTarget@@KAJPEBUAFX_DISPMAP@@PEB_W@Z @ 5928 NONAME
 ?Memcpy@CMemFile@@MEAAPEAEPEAEPEBE_K@Z @ 5929 NONAME
 ?MessageBox@COlePropertyPage@@QEAAHPEB_W0I@Z @ 5930 NONAME
 ?MessageBox@CWnd@@QEAAHPEB_W0I@Z @ 5931 NONAME
 ?MessageBoxW@COlePropertyPage@@QEAAHPEB_W0I@Z @ 5932 NONAME
 ?MessageBoxW@CWnd@@QEAAHPEB_W0I@Z @ 5933 NONAME
 ?MessagePending@XMessageFilter@COleMessageFilter@@UEAAKPEAUHTASK__@@KK@Z @ 5934 NONAME
 ?Mid@?$CStringT@_WV?$StrTraitMFC_DLL@_WV?$ChTraitsCRT@_W@ATL@@@@@ATL@@QEBA?AV12@H@Z @ 5935 NONAME
 ?Mid@?$CStringT@_WV?$StrTraitMFC_DLL@_WV?$ChTraitsCRT@_W@ATL@@@@@ATL@@QEBA?AV12@HH@Z @ 5936 NONAME
 ?Mid@?$CStringT@DV?$StrTraitMFC_DLL@DV?$ChTraitsCRT@D@ATL@@@@@ATL@@QEBA?AV12@H@Z @ 5937 NONAME
 ?Mid@?$CStringT@DV?$StrTraitMFC_DLL@DV?$ChTraitsCRT@D@ATL@@@@@ATL@@QEBA?AV12@HH@Z @ 5938 NONAME
 ?MinimizeBand@CReBarCtrl@@QEAAXI@Z @ 5939 NONAME
 ?MirrorAttributes@CPreviewDC@@IEAAXXZ @ 5940 NONAME
 ?MirrorFont@CPreviewDC@@IEAAXXZ @ 5941 NONAME
 ?MirrorMappingMode@CPreviewDC@@IEAAXH@Z @ 5942 NONAME
 ?MirrorViewportOrg@CPreviewDC@@IEAAXXZ @ 5943 NONAME
 ?ModifyMenuW@CMenu@@QEAAHII_KPEB_W@Z @ 5944 NONAME
 ?ModifyMenuW@CMenu@@QEAAHII_KPEBVCBitmap@@@Z @ 5945 NONAME
 ?ModifyStyle@COleControlSite@@UEAAHKKI@Z @ 5946 NONAME
 ?ModifyStyle@CWnd@@QEAAHKKI@Z @ 5947 NONAME
 ?ModifyStyle@CWnd@@SAHPEAUHWND__@@KKI@Z @ 5948 NONAME
 ?ModifyStyleEx@COleControlSite@@UEAAHKKI@Z @ 5949 NONAME
 ?ModifyStyleEx@CWnd@@QEAAHKKI@Z @ 5950 NONAME
 ?ModifyStyleEx@CWnd@@SAHPEAUHWND__@@KKI@Z @ 5951 NONAME
 ?ModifyWorldTransform@CDC@@QEAAHPEBUtagXFORM@@K@Z @ 5952 NONAME
 ?Move@CDockContext@@QEAAXVCPoint@@@Z @ 5953 NONAME
 ?Move@CRecordset@@UEAAXJG@Z @ 5954 NONAME
 ?Move@XPropertyPage@COlePropertyPage@@UEAAJPEBUtagRECT@@@Z @ 5955 NONAME
 ?MoveBand@CReBarCtrl@@QEAAHII@Z @ 5956 NONAME
 ?MoveButton@CToolBarCtrl@@QEAAHII@Z @ 5957 NONAME
 ?MoveFirst@CRecordset@@QEAAXXZ @ 5958 NONAME
 ?MoveLast@CRecordset@@QEAAXXZ @ 5959 NONAME
 ?MoveNext@CRecordset@@QEAAXXZ @ 5960 NONAME
 ?MovePrev@CRecordset@@QEAAXXZ @ 5961 NONAME
 ?MoveTo@CDC@@QEAA?AVCPoint@@HH@Z @ 5962 NONAME
 ?MoveTo@CDC@@QEAA?AVCPoint@@UtagPOINT@@@Z @ 5963 NONAME
 ?MoveWindow@COleControlSite@@UEAAXHHHH@Z @ 5964 NONAME
 ?MoveWindow@CWnd@@QEAAXHHHHH@Z @ 5965 NONAME
 ?MoveWindow@CWnd@@QEAAXPEBUtagRECT@@H@Z @ 5966 NONAME
 ?Navigate@CDHtmlDialog@@QEAAXPEB_WK00PEAXK@Z @ 5967 NONAME
 ?Navigate@CHtmlView@@QEAAXPEB_WK00PEAXK@Z @ 5968 NONAME
 ?Navigate2@CHtmlView@@QEAAXPEB_WK00PEAXK@Z @ 5969 NONAME
 ?Navigate2@CHtmlView@@QEAAXPEB_WKAEAVCByteArray@@00@Z @ 5970 NONAME
 ?Navigate2@CHtmlView@@QEAAXPEFAU_ITEMIDLIST@@KPEB_W@Z @ 5971 NONAME
 ?NavigateComplete2@CHtmlView@@MEAAXPEAUIDispatch@@PEAUtagVARIANT@@@Z @ 5972 NONAME
 ?NavigateError@CHtmlView@@MEAAXPEAUIDispatch@@PEAUtagVARIANT@@11PEAF@Z @ 5973 NONAME
 ?nDragDelay@COleDropSource@@1IA @ 5974 NONAME DATA
 ?nDragMinDist@COleDropSource@@1IA @ 5975 NONAME DATA
 ?NegotiateBorderSpace@CFrameWnd@@UEAAHIPEAUtagRECT@@@Z @ 5976 NONAME
 ?NewAssoc@CMapPtrToPtr@@IEAAPEAUCAssoc@1@XZ @ 5977 NONAME
 ?NewAssoc@CMapPtrToWord@@IEAAPEAUCAssoc@1@XZ @ 5978 NONAME
 ?NewAssoc@CMapStringToOb@@IEAAPEAUCAssoc@1@XZ @ 5979 NONAME
 ?NewAssoc@CMapStringToPtr@@IEAAPEAUCAssoc@1@XZ @ 5980 NONAME
 ?NewAssoc@CMapStringToString@@IEAAPEAVCAssoc@1@PEB_W@Z @ 5981 NONAME
 ?NewAssoc@CMapWordToOb@@IEAAPEAUCAssoc@1@XZ @ 5982 NONAME
 ?NewAssoc@CMapWordToPtr@@IEAAPEAUCAssoc@1@XZ @ 5983 NONAME
 ?NewNode@CObList@@IEAAPEAUCNode@1@PEAU21@0@Z @ 5984 NONAME
 ?NewNode@CPtrList@@IEAAPEAUCNode@1@PEAU21@0@Z @ 5985 NONAME
 ?NewNode@CStringList@@IEAAPEAUCNode@1@PEAU21@0@Z @ 5986 NONAME
 ?Next@XEnumVOID@CEnumArray@@UEAAJKPEAXPEAK@Z @ 5987 NONAME
 ?NextDlgCtrl@CDialog@@QEBAXXZ @ 5988 NONAME
 ?nMaxSize@CEditView@@2IB @ 5989 NONAME DATA
 ?NormalizeHit@CRectTracker@@QEBAHH@Z @ 5990 NONAME
 ?Notify@CDataBoundProperty@@QEAAXXZ @ 5991 NONAME
 ?NotifyAllInPlace@COleFrameHook@@QEAAHHP81@EAAHH@Z@Z @ 5992 NONAME
 ?NotifyAllItems@COleServerDoc@@IEAAXW4OLE_NOTIFICATION@@_K@Z @ 5993 NONAME
 ?NotifyChanged@COleServerDoc@@QEAAXXZ @ 5994 NONAME
 ?NotifyChanged@COleServerItem@@QEAAXW4tagDVASPECT@@@Z @ 5995 NONAME
 ?NotifyClient@COleServerItem@@QEAAXW4OLE_NOTIFICATION@@_K@Z @ 5996 NONAME
 ?NotifyClosed@COleServerDoc@@QEAAXXZ @ 5997 NONAME
 ?NotifyFloatingWindows@CFrameWnd@@QEAAXK@Z @ 5998 NONAME
 ?NotifyRename@COleServerDoc@@QEAAXPEB_W@Z @ 5999 NONAME
 ?NotifySaved@COleServerDoc@@QEAAXXZ @ 6000 NONAME
 ?NotifyWinEvent@CWnd@@QEAAXKJJ@Z @ 6001 NONAME
 ?nScrollDelay@COleDropTarget@@1IA @ 6002 NONAME DATA
 ?nScrollInset@COleDropTarget@@1HA @ 6003 NONAME DATA
 ?nScrollInterval@COleDropTarget@@1IA @ 6004 NONAME DATA
 ?OemToCharA@?$CStringT@_WV?$StrTraitMFC_DLL@_WV?$ChTraitsCRT@_W@ATL@@@@@ATL@@QEAAXXZ @ 6005 NONAME
 ?OemToCharA@?$CStringT@DV?$StrTraitMFC_DLL@DV?$ChTraitsCRT@D@ATL@@@@@ATL@@QEAAXXZ @ 6006 NONAME
 ?OffsetClipRgn@CDC@@QEAAHHH@Z @ 6007 NONAME
 ?OffsetClipRgn@CDC@@QEAAHUtagSIZE@@@Z @ 6008 NONAME
 ?OffsetPos@CProgressCtrl@@QEAAHH@Z @ 6009 NONAME
 ?OffsetRgn@CRgn@@QEAAHHH@Z @ 6010 NONAME
 ?OffsetRgn@CRgn@@QEAAHUtagPOINT@@@Z @ 6011 NONAME
 ?OffsetViewportOrg@CDC@@UEAA?AVCPoint@@HH@Z @ 6012 NONAME
 ?OffsetViewportOrg@CMetaFileDC@@UEAA?AVCPoint@@HH@Z @ 6013 NONAME
 ?OffsetViewportOrg@CPreviewDC@@UEAA?AVCPoint@@HH@Z @ 6014 NONAME
 ?OffsetWindowOrg@CDC@@QEAA?AVCPoint@@HH@Z @ 6015 NONAME
 ?OKToDo@XNotifyDBEvents@COleControlSite@@UEAAJKKQEAUtagDBNOTIFYREASON@@@Z @ 6016 NONAME
 ?OnAccept@CAsyncSocket@@MEAAXH@Z @ 6017 NONAME
 ?OnActivate@CControlFrameWnd@@IEAAXIPEAVCWnd@@H@Z @ 6018 NONAME
 ?OnActivate@CFrameWnd@@IEAAXIPEAVCWnd@@H@Z @ 6019 NONAME
 ?OnActivate@COleClientItem@@UEAAXXZ @ 6020 NONAME
 ?OnActivate@COleFrameHook@@UEAAXH@Z @ 6021 NONAME
 ?OnActivate@CWnd@@IEAAXIPEAV1@H@Z @ 6022 NONAME
 ?OnActivateApp@CWnd@@IEAAXHK@Z @ 6023 NONAME
 ?OnActivateFrame@CFormView@@MEAAXIPEAVCFrameWnd@@@Z @ 6024 NONAME
 ?OnActivateFrame@CView@@MEAAXIPEAVCFrameWnd@@@Z @ 6025 NONAME
 ?OnActivateInPlace@COleControl@@MEAAJHPEAUtagMSG@@@Z @ 6026 NONAME
 ?OnActivateTopLevel@CFrameWnd@@IEAA_J_K_J@Z @ 6027 NONAME
 ?OnActivateTopLevel@CWnd@@IEAA_J_K_J@Z @ 6028 NONAME
 ?OnActivateUI@COleClientItem@@UEAAXXZ @ 6029 NONAME
 ?OnActivateView@CDocObjectServer@@MEAAJXZ @ 6030 NONAME
 ?OnActivateView@CFormView@@MEAAXHPEAVCView@@0@Z @ 6031 NONAME
 ?OnActivateView@CPreviewView@@MEAAXHPEAVCView@@0@Z @ 6032 NONAME
 ?OnActivateView@CRichEditView@@MEAAXHPEAVCView@@0@Z @ 6033 NONAME
 ?OnActivateView@CView@@MEAAXHPEAV1@0@Z @ 6034 NONAME
 ?OnAddTool@CToolTipCtrl@@IEAA_J_K_J@Z @ 6035 NONAME
 ?OnAdvise@CConnectionPoint@@UEAAXH@Z @ 6036 NONAME
 ?OnAdvise@XEventConnPt@COleControl@@UEAAXH@Z @ 6037 NONAME
 ?OnAmbientProperty@CWnd@@UEAAHPEAVCOleControlSite@@JPEAUtagVARIANT@@@Z @ 6038 NONAME
 ?OnAmbientPropertyChange@COleControl@@UEAAXJ@Z @ 6039 NONAME
 ?OnAmbientPropertyChange@XOleControl@COleControl@@UEAAJJ@Z @ 6040 NONAME
 ?OnAppCommand@CWnd@@IEAAHPEAV1@III@Z @ 6041 NONAME
 ?OnAppearanceChanged@COleControl@@UEAAXXZ @ 6042 NONAME
 ?OnAppExit@CWinApp@@IEAAXXZ @ 6043 NONAME
 ?OnApply@CPropertyPage@@UEAAHXZ @ 6044 NONAME
 ?OnApplyScale@COlePropertiesDialog@@UEAAHPEAVCOleClientItem@@HH@Z @ 6045 NONAME
 ?OnApplyViewState@CDocObjectServer@@MEAAXAEAVCArchive@@@Z @ 6046 NONAME
 ?OnAskCbFormatName@CWnd@@IEAAXIPEA_W@Z @ 6047 NONAME
 ?OnBackColorChanged@COleControl@@UEAAXXZ @ 6048 NONAME
 ?OnBarCheck@CFrameWnd@@QEAAHI@Z @ 6049 NONAME
 ?OnBarCheck@COleIPFrameWnd@@IEAAHI@Z @ 6050 NONAME
 ?OnBarStyleChange@CControlBar@@UEAAXKK@Z @ 6051 NONAME
 ?OnBarStyleChange@CStatusBar@@UEAAXKK@Z @ 6052 NONAME
 ?OnBarStyleChange@CToolBar@@UEAAXKK@Z @ 6053 NONAME
 ?OnBeforeNavigate@CDHtmlDialog@@UEAAXPEAUIDispatch@@PEB_W@Z @ 6054 NONAME
 ?OnBeforeNavigate2@CHtmlView@@UEAAXPEB_WK0AEAVCByteArray@@0PEAH@Z @ 6055 NONAME
 ?OnBeginDrag@COleDropSource@@UEAAHPEAVCWnd@@@Z @ 6056 NONAME
 ?OnBeginPrinting@CEditView@@MEAAXPEAVCDC@@PEAUCPrintInfo@@@Z @ 6057 NONAME
 ?OnBeginPrinting@CRichEditView@@MEAAXPEAVCDC@@PEAUCPrintInfo@@@Z @ 6058 NONAME
 ?OnBeginPrinting@CView@@MEAAXPEAVCDC@@PEAUCPrintInfo@@@Z @ 6059 NONAME
 ?OnBorderStyleChanged@COleControl@@UEAAXXZ @ 6060 NONAME
 ?OnBullet@CRichEditView@@IEAAXXZ @ 6061 NONAME
 ?OnBusyDialog@COleMessageFilter@@UEAAHPEAUHTASK__@@@Z @ 6062 NONAME
 ?OnButtonClicked@XFileDialogControlEvents@CFileDialog@@UEAAJPEAUIFileDialogCustomize@@K@Z @ 6063 NONAME
 ?OnButtonDblClk@COleControl@@IEAAXGIVCPoint@@@Z @ 6064 NONAME
 ?OnButtonDown@COleControl@@IEAAXGIVCPoint@@@Z @ 6065 NONAME
 ?OnButtonUp@COleControl@@IEAAXGIVCPoint@@@Z @ 6066 NONAME
 ?OnCancel@CCommonDialog@@MEAAXXZ @ 6067 NONAME
 ?OnCancel@CDialog@@MEAAXXZ @ 6068 NONAME
 ?OnCancel@CPropertyPage@@UEAAXXZ @ 6069 NONAME
 ?OnCancelEditCntr@CRichEditView@@IEAAXXZ @ 6070 NONAME
 ?OnCancelMode@COleControl@@IEAAXXZ @ 6071 NONAME
 ?OnCancelMode@CSplitterWnd@@IEAAXXZ @ 6072 NONAME
 ?OnCancelMode@CWnd@@IEAAXXZ @ 6073 NONAME
 ?OnCaptureChanged@CWnd@@IEAAXPEAV1@@Z @ 6074 NONAME
 ?OnChange@COleClientItem@@UEAAXW4OLE_NOTIFICATION@@K@Z @ 6075 NONAME
 ?OnChangeCbChain@CWnd@@IEAAXPEAUHWND__@@0@Z @ 6076 NONAME
 ?OnChanged@XFontNotification@COleControl@@UEAAJJ@Z @ 6077 NONAME
 ?OnChanged@XPropertyNotifySink@COleControlSite@@UEAAJJ@Z @ 6078 NONAME
 ?OnChanged@XPropNotifySink@COlePropertyPage@@UEAAJJ@Z @ 6079 NONAME
 ?OnChangedRect@CRectTracker@@UEAAXAEBVCRect@@@Z @ 6080 NONAME
 ?OnChangedViewList@CDocument@@UEAAXXZ @ 6081 NONAME
 ?OnChangeItemPosition@COleClientItem@@MEAAHAEBVCRect@@@Z @ 6082 NONAME
 ?OnChangeItemPosition@CRichEditCntrItem@@MEAAHAEBVCRect@@@Z @ 6083 NONAME
 ?OnChangeUIState@CWnd@@IEAAXII@Z @ 6084 NONAME
 ?OnChar@COleControl@@IEAAXIII@Z @ 6085 NONAME
 ?OnChar@CWnd@@IEAAXIII@Z @ 6086 NONAME
 ?OnCharBold@CRichEditView@@IEAAXXZ @ 6087 NONAME
 ?OnCharEffect@CRichEditView@@QEAAXKK@Z @ 6088 NONAME
 ?OnCharItalic@CRichEditView@@IEAAXXZ @ 6089 NONAME
 ?OnCharToItem@CWnd@@IEAAHIPEAVCListBox@@I@Z @ 6090 NONAME
 ?OnCharUnderline@CRichEditView@@IEAAXXZ @ 6091 NONAME
 ?OnCheckButtonToggled@XFileDialogControlEvents@CFileDialog@@UEAAJPEAUIFileDialogCustomize@@KH@Z @ 6092 NONAME
 ?OnChevronPushed@CFrameWnd@@IEAAHIPEAUtagNMHDR@@PEA_J@Z @ 6093 NONAME
 ?OnChildActivate@CWnd@@IEAAXXZ @ 6094 NONAME
 ?OnChildNotify@CButton@@MEAAHI_K_JPEA_J@Z @ 6095 NONAME
 ?OnChildNotify@CCheckListBox@@MEAAHI_K_JPEA_J@Z @ 6096 NONAME
 ?OnChildNotify@CComboBox@@MEAAHI_K_JPEA_J@Z @ 6097 NONAME
 ?OnChildNotify@CDragListBox@@MEAAHI_K_JPEA_J@Z @ 6098 NONAME
 ?OnChildNotify@CHeaderCtrl@@MEAAHI_K_JPEA_J@Z @ 6099 NONAME
 ?OnChildNotify@CListBox@@MEAAHI_K_JPEA_J@Z @ 6100 NONAME
 ?OnChildNotify@CListCtrl@@MEAAHI_K_JPEA_J@Z @ 6101 NONAME
 ?OnChildNotify@CListView@@MEAAHI_K_JPEA_J@Z @ 6102 NONAME
 ?OnChildNotify@CStatic@@MEAAHI_K_JPEA_J@Z @ 6103 NONAME
 ?OnChildNotify@CStatusBar@@MEAAHI_K_JPEA_J@Z @ 6104 NONAME
 ?OnChildNotify@CStatusBarCtrl@@MEAAHI_K_JPEA_J@Z @ 6105 NONAME
 ?OnChildNotify@CTabCtrl@@MEAAHI_K_JPEA_J@Z @ 6106 NONAME
 ?OnChildNotify@CWnd@@MEAAHI_K_JPEA_J@Z @ 6107 NONAME
 ?OnClick@COleControl@@UEAAXG@Z @ 6108 NONAME
 ?OnClipboardUpdate@CWnd@@IEAAXXZ @ 6109 NONAME
 ?OnClone@CEnumArray@@MEAAPEAV1@XZ @ 6110 NONAME
 ?OnClone@CEnumConnections@@MEAAPEAVCEnumArray@@XZ @ 6111 NONAME
 ?OnClose@CAsyncSocket@@MEAAXH@Z @ 6112 NONAME
 ?OnClose@CControlFrameWnd@@IEAAXXZ @ 6113 NONAME
 ?OnClose@CFrameWnd@@IEAAXXZ @ 6114 NONAME
 ?OnClose@CMiniDockFrameWnd@@QEAAXXZ @ 6115 NONAME
 ?OnClose@COleControl@@UEAAXK@Z @ 6116 NONAME
 ?OnClose@COleServerDoc@@MEAAXW4tagOLECLOSE@@@Z @ 6117 NONAME
 ?OnClose@CPropertySheet@@IEAAXXZ @ 6118 NONAME
 ?OnClose@CWnd@@IEAAXXZ @ 6119 NONAME
 ?OnClose@XAdviseSink@COleClientItem@@UEAAXXZ @ 6120 NONAME
 ?OnCloseDocument@CDocObjectServer@@UEAAXXZ @ 6121 NONAME
 ?OnCloseDocument@CDocument@@UEAAXXZ @ 6122 NONAME
 ?OnCloseDocument@COleDocument@@UEAAXXZ @ 6123 NONAME
 ?OnCloseDocument@COleLinkingDoc@@UEAAXXZ @ 6124 NONAME
 ?OnCloseDocument@COleServerDoc@@UEAAXXZ @ 6125 NONAME
 ?OnCmdMsg@CCmdTarget@@UEAAHIHPEAXPEAUAFX_CMDHANDLERINFO@@@Z @ 6126 NONAME
 ?OnCmdMsg@CDialog@@UEAAHIHPEAXPEAUAFX_CMDHANDLERINFO@@@Z @ 6127 NONAME
 ?OnCmdMsg@CDocTemplate@@UEAAHIHPEAXPEAUAFX_CMDHANDLERINFO@@@Z @ 6128 NONAME
 ?OnCmdMsg@CDocument@@UEAAHIHPEAXPEAUAFX_CMDHANDLERINFO@@@Z @ 6129 NONAME
 ?OnCmdMsg@CFrameWnd@@UEAAHIHPEAXPEAUAFX_CMDHANDLERINFO@@@Z @ 6130 NONAME
 ?OnCmdMsg@CHtmlEditView@@UEAAHIHPEAXPEAUAFX_CMDHANDLERINFO@@@Z @ 6131 NONAME
 ?OnCmdMsg@CMDIFrameWnd@@UEAAHIHPEAXPEAUAFX_CMDHANDLERINFO@@@Z @ 6132 NONAME
 ?OnCmdMsg@COleCntrFrameWnd@@UEAAHIHPEAXPEAUAFX_CMDHANDLERINFO@@@Z @ 6133 NONAME
 ?OnCmdMsg@COleDocObjectItem@@MEAAHIHPEAXPEAUAFX_CMDHANDLERINFO@@@Z @ 6134 NONAME
 ?OnCmdMsg@COleDocument@@UEAAHIHPEAXPEAUAFX_CMDHANDLERINFO@@@Z @ 6135 NONAME
 ?OnCmdMsg@COleTemplateServer@@MEAAHIHPEAXPEAUAFX_CMDHANDLERINFO@@@Z @ 6136 NONAME
 ?OnCmdMsg@CPropertySheet@@UEAAHIHPEAXPEAUAFX_CMDHANDLERINFO@@@Z @ 6137 NONAME
 ?OnCmdMsg@CView@@UEAAHIHPEAXPEAUAFX_CMDHANDLERINFO@@@Z @ 6138 NONAME
 ?OnColorDefault@CRichEditView@@IEAAXXZ @ 6139 NONAME
 ?OnColorizationColorChanged@CWnd@@IEAAXKH@Z @ 6140 NONAME
 ?OnColorOK@CColorDialog@@MEAAHXZ @ 6141 NONAME
 ?OnColorPick@CRichEditView@@IEAAXK@Z @ 6142 NONAME
 ?OnCommand@CFrameWnd@@MEAAH_K_J@Z @ 6143 NONAME
 ?OnCommand@CMDIFrameWnd@@MEAAH_K_J@Z @ 6144 NONAME
 ?OnCommand@COlePropertyPage@@MEAAH_K_J@Z @ 6145 NONAME
 ?OnCommand@CPropertySheet@@UEAAH_K_J@Z @ 6146 NONAME
 ?OnCommand@CSplitterWnd@@MEAAH_K_J@Z @ 6147 NONAME
 ?OnCommand@CWnd@@MEAAH_K_J@Z @ 6148 NONAME
 ?OnCommandHelp@CDialog@@IEAA_J_K_J@Z @ 6149 NONAME
 ?OnCommandHelp@CFrameWnd@@IEAA_J_K_J@Z @ 6150 NONAME
 ?OnCommandHelp@CMDIFrameWnd@@IEAA_J_K_J@Z @ 6151 NONAME
 ?OnCommandHelp@CPropertySheet@@IEAA_J_K_J@Z @ 6152 NONAME
 ?OnCommandStateChange@CHtmlView@@UEAAXJH@Z @ 6153 NONAME
 ?OnCompacting@CWnd@@IEAAXI@Z @ 6154 NONAME
 ?OnCompareItem@CWnd@@IEAAHHPEAUtagCOMPAREITEMSTRUCT@@@Z @ 6155 NONAME
 ?OnCompositionChanged@CWnd@@IEAAXXZ @ 6156 NONAME
 ?OnConnect@CAsyncSocket@@MEAAXH@Z @ 6157 NONAME
 ?OnContextHelp@CFrameWnd@@QEAAXXZ @ 6158 NONAME
 ?OnContextHelp@COleFrameHook@@UEAAHH@Z @ 6159 NONAME
 ?OnContextHelp@COleIPFrameWnd@@IEAAXXZ @ 6160 NONAME
 ?OnContextHelp@CWinApp@@IEAAXXZ @ 6161 NONAME
 ?OnContextMenu@CWnd@@IEAAXPEAV1@VCPoint@@@Z @ 6162 NONAME
 ?OnControlActivating@XFileDialogControlEvents@CFileDialog@@UEAAJPEAUIFileDialogCustomize@@K@Z @ 6163 NONAME
 ?OnControlInfoChanged@XOleControlSite@COleControlSite@@UEAAJXZ @ 6164 NONAME
 ?OnCopyData@CWnd@@IEAAHPEAV1@PEAUtagCOPYDATASTRUCT@@@Z @ 6165 NONAME
 ?OnCreate@CCheckListBox@@IEAAHPEAUtagCREATESTRUCTW@@@Z @ 6166 NONAME
 ?OnCreate@CControlBar@@QEAAHPEAUtagCREATESTRUCTW@@@Z @ 6167 NONAME
 ?OnCreate@CEditView@@IEAAHPEAUtagCREATESTRUCTW@@@Z @ 6168 NONAME
 ?OnCreate@CFormView@@IEAAHPEAUtagCREATESTRUCTW@@@Z @ 6169 NONAME
 ?OnCreate@CFrameWnd@@IEAAHPEAUtagCREATESTRUCTW@@@Z @ 6170 NONAME
 ?OnCreate@CMDIChildWnd@@IEAAHPEAUtagCREATESTRUCTW@@@Z @ 6171 NONAME
 ?OnCreate@COleControl@@IEAAHPEAUtagCREATESTRUCTW@@@Z @ 6172 NONAME
 ?OnCreate@COleIPFrameWnd@@IEAAHPEAUtagCREATESTRUCTW@@@Z @ 6173 NONAME
 ?OnCreate@CPreviewView@@IEAAHPEAUtagCREATESTRUCTW@@@Z @ 6174 NONAME
 ?OnCreate@CRichEditView@@IEAAHPEAUtagCREATESTRUCTW@@@Z @ 6175 NONAME
 ?OnCreate@CToolBarCtrl@@IEAAHPEAUtagCREATESTRUCTW@@@Z @ 6176 NONAME
 ?OnCreate@CView@@IEAAHPEAUtagCREATESTRUCTW@@@Z @ 6177 NONAME
 ?OnCreate@CWnd@@IEAAHPEAUtagCREATESTRUCTW@@@Z @ 6178 NONAME
 ?OnCreateAggregates@CCmdTarget@@UEAAHXZ @ 6179 NONAME
 ?OnCreateAggregates@COleControl@@MEAAHXZ @ 6180 NONAME
 ?OnCreateClient@CFrameWnd@@MEAAHPEAUtagCREATESTRUCTW@@PEAUCCreateContext@@@Z @ 6181 NONAME
 ?OnCreateClient@CMDIFrameWnd@@UEAAHPEAUtagCREATESTRUCTW@@PEAUCCreateContext@@@Z @ 6182 NONAME
 ?OnCreateControlBars@COleIPFrameWnd@@UEAAHPEAVCFrameWnd@@0@Z @ 6183 NONAME
 ?OnCreateControlBars@COleIPFrameWnd@@UEAAHPEAVCWnd@@0@Z @ 6184 NONAME
 ?OnCreateHelper@CFrameWnd@@IEAAHPEAUtagCREATESTRUCTW@@PEAUCCreateContext@@@Z @ 6185 NONAME
 ?OnCreateObject@COleObjectFactory@@MEAAPEAVCCmdTarget@@XZ @ 6186 NONAME
 ?OnCreateObject@COleTemplateServer@@MEAAPEAVCCmdTarget@@XZ @ 6187 NONAME
 ?OnCtlColor@CControlBar@@QEAAPEAUHBRUSH__@@PEAVCDC@@PEAVCWnd@@I@Z @ 6188 NONAME
 ?OnCtlColor@COlePropertyPage@@IEAAPEAUHBRUSH__@@PEAVCDC@@PEAVCWnd@@I@Z @ 6189 NONAME
 ?OnCtlColor@CPropertyPage@@IEAAPEAUHBRUSH__@@PEAVCDC@@PEAVCWnd@@I@Z @ 6190 NONAME
 ?OnCtlColor@CPropertySheet@@IEAAPEAUHBRUSH__@@PEAVCDC@@PEAVCWnd@@I@Z @ 6191 NONAME
 ?OnCtlColor@CWnd@@IEAAPEAUHBRUSH__@@PEAVCDC@@PEAV1@I@Z @ 6192 NONAME
 ?OnDataAvailable@CAsyncMonikerFile@@MEAAXKK@Z @ 6193 NONAME
 ?OnDataAvailable@CCachedDataPathProperty@@UEAAXKK@Z @ 6194 NONAME
 ?OnDataChange@COleClientItem@@MEAAXPEAUtagFORMATETC@@PEAUtagSTGMEDIUM@@@Z @ 6195 NONAME
 ?OnDataChange@XAdviseSink@COleClientItem@@UEAAXPEAUtagFORMATETC@@PEAUtagSTGMEDIUM@@@Z @ 6196 NONAME
 ?OnDDECommand@CDocManager@@UEAAHPEA_W@Z @ 6197 NONAME
 ?OnDDECommand@CWinApp@@UEAAHPEA_W@Z @ 6198 NONAME
 ?OnDDEExecute@CFrameWnd@@IEAA_J_K_J@Z @ 6199 NONAME
 ?OnDDEInitiate@CFrameWnd@@IEAA_J_K_J@Z @ 6200 NONAME
 ?OnDDETerminate@CFrameWnd@@IEAA_J_K_J@Z @ 6201 NONAME
 ?OnDDXError@CDHtmlDialog@@IEAAXPEB_WIH@Z @ 6202 NONAME
 ?OnDeactivate@COleClientItem@@UEAAXXZ @ 6203 NONAME
 ?OnDeactivate@COleServerDoc@@UEAAXXZ @ 6204 NONAME
 ?OnDeactivateAndUndo@COleClientItem@@MEAAXXZ @ 6205 NONAME
 ?OnDeactivateUI@COleClientItem@@UEAAXH@Z @ 6206 NONAME
 ?OnDeactivateUI@COleServerDoc@@UEAAXH@Z @ 6207 NONAME
 ?OnDeactivateUI@CRichEditCntrItem@@UEAAXH@Z @ 6208 NONAME
 ?OnDeadChar@CWnd@@IEAAXIII@Z @ 6209 NONAME
 ?OnDefWindowMessage@XOleIPSite@COleControlSite@@UEAAJI_K_JPEA_J@Z @ 6210 NONAME
 ?OnDeleteItem@CWnd@@IEAAXHPEAUtagDELETEITEMSTRUCT@@@Z @ 6211 NONAME
 ?OnDestroy@CControlBar@@QEAAXXZ @ 6212 NONAME
 ?OnDestroy@CDHtmlDialog@@IEAAXXZ @ 6213 NONAME
 ?OnDestroy@CEditView@@IEAAXXZ @ 6214 NONAME
 ?OnDestroy@CFrameWnd@@IEAAXXZ @ 6215 NONAME
 ?OnDestroy@CHtmlView@@IEAAXXZ @ 6216 NONAME
 ?OnDestroy@CMDIChildWnd@@IEAAXXZ @ 6217 NONAME
 ?OnDestroy@CMDIFrameWnd@@IEAAXXZ @ 6218 NONAME
 ?OnDestroy@COleControl@@IEAAXXZ @ 6219 NONAME
 ?OnDestroy@COleIPFrameWnd@@IEAAXXZ @ 6220 NONAME
 ?OnDestroy@CRichEditView@@IEAAXXZ @ 6221 NONAME
 ?OnDestroy@CTabCtrl@@IEAAXXZ @ 6222 NONAME
 ?OnDestroy@CTreeCtrl@@QEAAXXZ @ 6223 NONAME
 ?OnDestroy@CTreeView@@QEAAXXZ @ 6224 NONAME
 ?OnDestroy@CView@@IEAAXXZ @ 6225 NONAME
 ?OnDestroy@CWnd@@IEAAXXZ @ 6226 NONAME
 ?OnDestroyClipboard@CWnd@@IEAAXXZ @ 6227 NONAME
 ?OnDestroyModeless@CDHtmlDialog@@IEAA_J_K_J@Z @ 6228 NONAME
 ?OnDeviceChange@CWnd@@IEAAHI_K@Z @ 6229 NONAME
 ?OnDevModeChange@CRichEditView@@IEAAXPEA_W@Z @ 6230 NONAME
 ?OnDevModeChange@CWnd@@IEAAXPEA_W@Z @ 6231 NONAME
 ?OnDisableModal@CToolTipCtrl@@IEAA_J_K_J@Z @ 6232 NONAME
 ?OnDiscardUndoState@COleClientItem@@MEAAXXZ @ 6233 NONAME
 ?OnDisplayChange@CSplitterWnd@@IEAAXXZ @ 6234 NONAME
 ?OnDisplayChange@CWnd@@IEAA_J_K_J@Z @ 6235 NONAME
 ?OnDisplayPageNumber@CPreviewView@@MEAAXII@Z @ 6236 NONAME
 ?OnDocActivate@COleFrameHook@@UEAAHH@Z @ 6237 NONAME
 ?OnDocumentComplete@CDHtmlDialog@@UEAAXPEAUIDispatch@@PEB_W@Z @ 6238 NONAME
 ?OnDocumentComplete@CHtmlView@@UEAAXPEB_W@Z @ 6239 NONAME
 ?OnDocumentReadyStateChange@CDHtmlDialog@@QEAAJPEAUIHTMLElement@@@Z @ 6240 NONAME
 ?OnDocWindowActivate@CBrowserControlSite@@MEAAJH@Z @ 6241 NONAME
 ?OnDocWindowActivate@CDHtmlDialog@@UEAAJH@Z @ 6242 NONAME
 ?OnDocWindowActivate@CHtmlView@@UEAAJH@Z @ 6243 NONAME
 ?OnDocWindowActivate@COleServerDoc@@UEAAXH@Z @ 6244 NONAME
 ?OnDocWindowActivate@XDocHostUIHandler@CHtmlControlSite@@UEAAJH@Z @ 6245 NONAME
 ?OnDocWindowActivate@XOleInPlaceActiveObject@COleControl@@UEAAJH@Z @ 6246 NONAME
 ?OnDocWindowActivate@XOleInPlaceActiveObject@COleServerDoc@@UEAAJH@Z @ 6247 NONAME
 ?OnDoVerb@CDocObjectServerItem@@MEAAXJ@Z @ 6248 NONAME
 ?OnDoVerb@COleControl@@UEAAHJPEAUtagMSG@@PEAUHWND__@@PEBUtagRECT@@@Z @ 6249 NONAME
 ?OnDoVerb@COleServerItem@@UEAAXJ@Z @ 6250 NONAME
 ?OnDownloadBegin@CHtmlView@@UEAAXXZ @ 6251 NONAME
 ?OnDownloadComplete@CHtmlView@@UEAAXXZ @ 6252 NONAME
 ?OnDragEnter@COleDropTarget@@UEAAKPEAVCWnd@@PEAVCOleDataObject@@KVCPoint@@@Z @ 6253 NONAME
 ?OnDragEnter@CView@@UEAAKPEAVCOleDataObject@@KVCPoint@@@Z @ 6254 NONAME
 ?OnDragLeave@COleDropTarget@@UEAAXPEAVCWnd@@@Z @ 6255 NONAME
 ?OnDragLeave@CView@@UEAAXXZ @ 6256 NONAME
 ?OnDragList@CWnd@@IEAA_J_K_J@Z @ 6257 NONAME
 ?OnDragOver@COleDropTarget@@UEAAKPEAVCWnd@@PEAVCOleDataObject@@KVCPoint@@@Z @ 6258 NONAME
 ?OnDragOver@CView@@UEAAKPEAVCOleDataObject@@KVCPoint@@@Z @ 6259 NONAME
 ?OnDragScroll@COleDropTarget@@UEAAKPEAVCWnd@@KVCPoint@@@Z @ 6260 NONAME
 ?OnDragScroll@CView@@UEAAKKVCPoint@@@Z @ 6261 NONAME
 ?OnDraw@CCtrlView@@MEAAXPEAVCDC@@@Z @ 6262 NONAME
 ?OnDraw@CFormView@@MEAAXPEAVCDC@@@Z @ 6263 NONAME
 ?OnDraw@CHtmlView@@UEAAXPEAVCDC@@@Z @ 6264 NONAME
 ?OnDraw@COleControl@@UEAAXPEAVCDC@@AEBVCRect@@1@Z @ 6265 NONAME
 ?OnDraw@CPreviewView@@MEAAXPEAVCDC@@@Z @ 6266 NONAME
 ?OnDraw@CView@@MEAAXPEAVCDC@@@Z @ 6267 NONAME
 ?OnDrawClipboard@CWnd@@IEAAXXZ @ 6268 NONAME
 ?OnDrawEx@COleServerItem@@UEAAHPEAVCDC@@W4tagDVASPECT@@AEAVCSize@@@Z @ 6269 NONAME
 ?OnDrawItem@CWnd@@IEAAXHPEAUtagDRAWITEMSTRUCT@@@Z @ 6270 NONAME
 ?OnDrawMetafile@COleControl@@UEAAXPEAVCDC@@AEBVCRect@@@Z @ 6271 NONAME
 ?OnDrawPage@CPageSetupDialog@@UEAAIPEAVCDC@@IPEAUtagRECT@@@Z @ 6272 NONAME
 ?OnDrawSplitter@CSplitterWnd@@MEAAXPEAVCDC@@W4ESplitType@1@AEBVCRect@@@Z @ 6273 NONAME
 ?OnDrop@COleDropTarget@@UEAAHPEAVCWnd@@PEAVCOleDataObject@@KVCPoint@@@Z @ 6274 NONAME
 ?OnDrop@CView@@UEAAHPEAVCOleDataObject@@KVCPoint@@@Z @ 6275 NONAME
 ?OnDropDown@CSplitButton@@IEAAXPEAUtagNMHDR@@PEA_J@Z @ 6276 NONAME
 ?OnDropEx@COleDropTarget@@UEAAKPEAVCWnd@@PEAVCOleDataObject@@KKVCPoint@@@Z @ 6277 NONAME
 ?OnDropEx@CView@@UEAAKPEAVCOleDataObject@@KKVCPoint@@@Z @ 6278 NONAME
 ?OnDropFiles@CFrameWnd@@IEAAXPEAUHDROP__@@@Z @ 6279 NONAME
 ?OnDropFiles@CRichEditView@@IEAAXPEAUHDROP__@@@Z @ 6280 NONAME
 ?OnDropFiles@CWnd@@IEAAXPEAUHDROP__@@@Z @ 6281 NONAME
 ?OnEdit@COleControl@@UEAAHPEAUtagMSG@@PEAUHWND__@@PEBUtagRECT@@@Z @ 6282 NONAME
 ?OnEditChange@CEditView@@IEAAHXZ @ 6283 NONAME
 ?OnEditChangeIcon@COleDocument@@IEAAXXZ @ 6284 NONAME
 ?OnEditClear@CEditView@@IEAAXXZ @ 6285 NONAME
 ?OnEditClear@CRichEditView@@IEAAXXZ @ 6286 NONAME
 ?OnEditConvert@COleDocument@@IEAAXXZ @ 6287 NONAME
 ?OnEditCopy@CEditView@@IEAAXXZ @ 6288 NONAME
 ?OnEditCopy@CHtmlView@@IEAAXXZ @ 6289 NONAME
 ?OnEditCopy@CRichEditView@@IEAAXXZ @ 6290 NONAME
 ?OnEditCut@CEditView@@IEAAXXZ @ 6291 NONAME
 ?OnEditCut@CHtmlView@@IEAAXXZ @ 6292 NONAME
 ?OnEditCut@CRichEditView@@IEAAXXZ @ 6293 NONAME
 ?OnEditFind@CEditView@@IEAAXXZ @ 6294 NONAME
 ?OnEditFind@CRichEditView@@IEAAXXZ @ 6295 NONAME
 ?OnEditFindReplace@CEditView@@IEAAXH@Z @ 6296 NONAME
 ?OnEditFindReplace@CRichEditView@@IEAAXH@Z @ 6297 NONAME
 ?OnEditLinks@COleDocument@@IEAAXXZ @ 6298 NONAME
 ?OnEditPaste@CEditView@@IEAAXXZ @ 6299 NONAME
 ?OnEditPaste@CHtmlView@@IEAAXXZ @ 6300 NONAME
 ?OnEditPaste@CRichEditView@@IEAAXXZ @ 6301 NONAME
 ?OnEditPasteSpecial@CRichEditView@@IEAAXXZ @ 6302 NONAME
 ?OnEditProperties@CRichEditView@@IEAAXXZ @ 6303 NONAME
 ?OnEditProperty@COlePropertyPage@@UEAAHJ@Z @ 6304 NONAME
 ?OnEditRedo@CRichEditView@@IEAAXXZ @ 6305 NONAME
 ?OnEditRepeat@CEditView@@IEAAXXZ @ 6306 NONAME
 ?OnEditRepeat@CRichEditView@@IEAAXXZ @ 6307 NONAME
 ?OnEditReplace@CEditView@@IEAAXXZ @ 6308 NONAME
 ?OnEditReplace@CRichEditView@@IEAAXXZ @ 6309 NONAME
 ?OnEditSelectAll@CEditView@@IEAAXXZ @ 6310 NONAME
 ?OnEditSelectAll@CRichEditView@@IEAAXXZ @ 6311 NONAME
 ?OnEditUndo@CEditView@@IEAAXXZ @ 6312 NONAME
 ?OnEditUndo@CRichEditView@@IEAAXXZ @ 6313 NONAME
 ?OnEnable@CFrameWnd@@IEAAXH@Z @ 6314 NONAME
 ?OnEnable@CToolTipCtrl@@IEAAXH@Z @ 6315 NONAME
 ?OnEnable@CWnd@@IEAAXH@Z @ 6316 NONAME
 ?OnEnabledChanged@COleControl@@UEAAXXZ @ 6317 NONAME
 ?OnEnableModeless@CHtmlView@@UEAAJH@Z @ 6318 NONAME
 ?OnEnableModeless@COleFrameHook@@UEAAXH@Z @ 6319 NONAME
 ?OnEndPrinting@CEditView@@MEAAXPEAVCDC@@PEAUCPrintInfo@@@Z @ 6320 NONAME
 ?OnEndPrinting@CRichEditView@@MEAAXPEAVCDC@@PEAUCPrintInfo@@@Z @ 6321 NONAME
 ?OnEndPrinting@CView@@MEAAXPEAVCDC@@PEAUCPrintInfo@@@Z @ 6322 NONAME
 ?OnEndPrintPreview@CView@@MEAAXPEAVCDC@@PEAUCPrintInfo@@UtagPOINT@@PEAVCPreviewView@@@Z @ 6323 NONAME
 ?OnEndSession@CFrameWnd@@IEAAXH@Z @ 6324 NONAME
 ?OnEndSession@CWnd@@IEAAXH@Z @ 6325 NONAME
 ?OnEnterIdle@CFrameWnd@@IEAAXIPEAVCWnd@@@Z @ 6326 NONAME
 ?OnEnterIdle@COleControl@@IEAAXIPEAVCWnd@@@Z @ 6327 NONAME
 ?OnEnterIdle@CWnd@@IEAAXIPEAV1@@Z @ 6328 NONAME
 ?OnEnterMenuLoop@CWnd@@IEAAXH@Z @ 6329 NONAME
 ?OnEnterSizeMove@CWnd@@IEAAXXZ @ 6330 NONAME
 ?OnEnumVerbs@COleControl@@UEAAHPEAPEAUIEnumOLEVERB@@@Z @ 6331 NONAME
 ?OnEraseBkgnd@CDockBar@@IEAAHPEAVCDC@@@Z @ 6332 NONAME
 ?OnEraseBkgnd@CFrameWnd@@IEAAHPEAVCDC@@@Z @ 6333 NONAME
 ?OnEraseBkgnd@COleControl@@IEAAHPEAVCDC@@@Z @ 6334 NONAME
 ?OnEraseBkgnd@COleResizeBar@@IEAAHPEAVCDC@@@Z @ 6335 NONAME
 ?OnEraseBkgnd@CPreviewView@@IEAAHPEAVCDC@@@Z @ 6336 NONAME
 ?OnEraseBkgnd@CReBar@@IEAAHPEAVCDC@@@Z @ 6337 NONAME
 ?OnEraseBkgnd@CToolBar@@IEAAHPEAVCDC@@@Z @ 6338 NONAME
 ?OnEraseBkgnd@CWnd@@IEAAHPEAVCDC@@@Z @ 6339 NONAME
 ?OnEvent@CCmdTarget@@QEAAHIPEAUAFX_EVENT@@PEAUAFX_CMDHANDLERINFO@@@Z @ 6340 NONAME
 ?OnEvent@COccManager@@UEAAHPEAVCCmdTarget@@IPEAUAFX_EVENT@@PEAUAFX_CMDHANDLERINFO@@@Z @ 6341 NONAME
 ?OnEvent@COleControlSite@@IEAAHPEAUAFX_EVENT@@@Z @ 6342 NONAME
 ?OnEventAdvise@COleControl@@UEAAXH@Z @ 6343 NONAME
 ?OnExecOleCmd@CDocObjectServer@@IEAAJPEBU_GUID@@KKPEAUtagVARIANT@@1@Z @ 6344 NONAME
 ?OnExecOleCmd@COleServerDoc@@MEAAJPEBU_GUID@@KKPEAUtagVARIANT@@1@Z @ 6345 NONAME
 ?OnExitMenuLoop@CWnd@@IEAAXH@Z @ 6346 NONAME
 ?OnExitSizeMove@CWnd@@IEAAXXZ @ 6347 NONAME
 ?OnFieldChange@XRowsetNotify@COleControlSite@@UEAAJPEAUIRowset@@_K1QEA_KKKH@Z @ 6348 NONAME
 ?OnFileClose@CDocument@@IEAAXXZ @ 6349 NONAME
 ?OnFileNameChange@CFileDialog@@MEAAXXZ @ 6350 NONAME
 ?OnFileNameOK@CFileDialog@@MEAAHXZ @ 6351 NONAME
 ?OnFileNew@CDocManager@@UEAAXXZ @ 6352 NONAME
 ?OnFileNew@CWinApp@@IEAAXXZ @ 6353 NONAME
 ?OnFileOk@XFileDialogEvents@CFileDialog@@UEAAJPEAUIFileDialog@@@Z @ 6354 NONAME
 ?OnFileOpen@CDocManager@@UEAAXXZ @ 6355 NONAME
 ?OnFileOpen@CWinApp@@IEAAXXZ @ 6356 NONAME
 ?OnFilePrint@CHtmlView@@QEAAXXZ @ 6357 NONAME
 ?OnFilePrint@CView@@IEAAXXZ @ 6358 NONAME
 ?OnFilePrintPreview@CView@@IEAAXXZ @ 6359 NONAME
 ?OnFilePrintSetup@CWinApp@@IEAAXXZ @ 6360 NONAME
 ?OnFileSave@CDocument@@IEAAXXZ @ 6361 NONAME
 ?OnFileSaveAs@CDocument@@IEAAXXZ @ 6362 NONAME
 ?OnFileSaveCopyAs@COleServerDoc@@IEAAXXZ @ 6363 NONAME
 ?OnFileSendMail@CDocument@@IEAAXXZ @ 6364 NONAME
 ?OnFileSendMail@COleDocument@@IEAAXXZ @ 6365 NONAME
 ?OnFileUpdate@COleServerDoc@@IEAAXXZ @ 6366 NONAME
 ?OnFilterDataObject@CHtmlView@@UEAAJPEAUIDataObject@@PEAPEAU2@@Z @ 6367 NONAME
 ?OnFinalRelease@CCmdTarget@@UEAAXXZ @ 6368 NONAME
 ?OnFinalRelease@CDocument@@UEAAXXZ @ 6369 NONAME
 ?OnFinalRelease@COleControl@@MEAAXXZ @ 6370 NONAME
 ?OnFinalRelease@COlePropertyPage@@MEAAXXZ @ 6371 NONAME
 ?OnFinalRelease@COleServerItem@@UEAAXXZ @ 6372 NONAME
 ?OnFinalRelease@CWnd@@UEAAXXZ @ 6373 NONAME
 ?OnFindEmbeddedItem@COleLinkingDoc@@MEAAPEAVCOleClientItem@@PEB_W@Z @ 6374 NONAME
 ?OnFindNext@CEditView@@MEAAXPEB_WHH@Z @ 6375 NONAME
 ?OnFindNext@CRichEditView@@MEAAXPEB_WHHH@Z @ 6376 NONAME
 ?OnFindReplaceCmd@CEditView@@IEAA_J_K_J@Z @ 6377 NONAME
 ?OnFindReplaceCmd@CRichEditView@@IEAA_J_K_J@Z @ 6378 NONAME
 ?OnFloatStatus@CMiniFrameWnd@@QEAA_J_K_J@Z @ 6379 NONAME
 ?OnFocus@XOleControlSite@COleControlSite@@UEAAJH@Z @ 6380 NONAME
 ?OnFolderChange@CFileDialog@@MEAAXXZ @ 6381 NONAME
 ?OnFolderChange@XFileDialogEvents@CFileDialog@@UEAAJPEAUIFileDialog@@@Z @ 6382 NONAME
 ?OnFolderChanging@XFileDialogEvents@CFileDialog@@UEAAJPEAUIFileDialog@@PEAUIShellItem@@@Z @ 6383 NONAME
 ?OnFontChange@CWnd@@IEAAXXZ @ 6384 NONAME
 ?OnFontChanged@COleControl@@UEAAXXZ @ 6385 NONAME
 ?OnForeColorChanged@COleControl@@UEAAXXZ @ 6386 NONAME
 ?OnFormatFont@CRichEditView@@IEAAXXZ @ 6387 NONAME
 ?OnFrameClose@COleControl@@MEAAXXZ @ 6388 NONAME
 ?OnFrameWindowActivate@CBrowserControlSite@@MEAAJH@Z @ 6389 NONAME
 ?OnFrameWindowActivate@CDHtmlDialog@@UEAAJH@Z @ 6390 NONAME
 ?OnFrameWindowActivate@CHtmlView@@UEAAJH@Z @ 6391 NONAME
 ?OnFrameWindowActivate@COleServerDoc@@MEAAXH@Z @ 6392 NONAME
 ?OnFrameWindowActivate@XDocHostUIHandler@CHtmlControlSite@@UEAAJH@Z @ 6393 NONAME
 ?OnFrameWindowActivate@XOleInPlaceActiveObject@COleControl@@UEAAJH@Z @ 6394 NONAME
 ?OnFrameWindowActivate@XOleInPlaceActiveObject@COleServerDoc@@UEAAJH@Z @ 6395 NONAME
 ?OnFreezeEvents@COleControl@@UEAAXH@Z @ 6396 NONAME
 ?OnFullScreen@CHtmlView@@UEAAXH@Z @ 6397 NONAME
 ?OnGetCheckPosition@CCheckListBox@@UEAA?AVCRect@@V2@0@Z @ 6398 NONAME
 ?OnGetClipboardData@COleClientItem@@UEAAPEAVCOleDataSource@@HPEAUtagPOINT@@PEAUtagSIZE@@@Z @ 6399 NONAME
 ?OnGetClipboardData@COleServerItem@@UEAAPEAVCOleDataSource@@HPEAUtagPOINT@@PEAUtagSIZE@@@Z @ 6400 NONAME
 ?OnGetClipRect@COleClientItem@@MEAAXAEAVCRect@@@Z @ 6401 NONAME
 ?OnGetColorSet@COleControl@@UEAAHPEAUtagDVTARGETDEVICE@@PEAUHDC__@@PEAPEAUtagLOGPALETTE@@@Z @ 6402 NONAME
 ?OnGetControlInfo@COleControl@@UEAAXPEAUtagCONTROLINFO@@@Z @ 6403 NONAME
 ?OnGetDisplayString@COleControl@@UEAAHJAEAV?$CStringT@_WV?$StrTraitMFC_DLL@_WV?$ChTraitsCRT@_W@ATL@@@@@ATL@@@Z @ 6404 NONAME
 ?OnGetDlgCode@COleControl@@IEAAIXZ @ 6405 NONAME
 ?OnGetDlgCode@CWnd@@IEAAIXZ @ 6406 NONAME
 ?OnGetDropTarget@CHtmlView@@UEAAJPEAUIDropTarget@@PEAPEAU2@@Z @ 6407 NONAME
 ?OnGetEmbeddedItem@CRichEditDoc@@MEAAPEAVCOleServerItem@@XZ @ 6408 NONAME
 ?OnGetExtent@COleServerItem@@UEAAHW4tagDVASPECT@@AEAVCSize@@@Z @ 6409 NONAME
 ?OnGetExternal@CHtmlView@@UEAAJPEAPEAUIDispatch@@@Z @ 6410 NONAME
 ?OnGetHostInfo@CHtmlView@@UEAAJPEAU_DOCHOSTUIINFO@@@Z @ 6411 NONAME
 ?OnGetInPlaceMenu@COleControl@@UEAAPEAUHMENU__@@XZ @ 6412 NONAME
 ?OnGetItemPosition@COleClientItem@@MEAAXAEAVCRect@@@Z @ 6413 NONAME
 ?OnGetItemPosition@COleDocObjectItem@@MEAAXAEAVCRect@@@Z @ 6414 NONAME
 ?OnGetLinkedItem@COleLinkingDoc@@MEAAPEAVCOleServerItem@@PEB_W@Z @ 6415 NONAME
 ?OnGetLinkedItem@COleServerDoc@@UEAAPEAVCOleServerItem@@PEB_W@Z @ 6416 NONAME
 ?OnGetMinMaxInfo@CMiniFrameWnd@@QEAAXPEAUtagMINMAXINFO@@@Z @ 6417 NONAME
 ?OnGetMinMaxInfo@CWnd@@IEAAXPEAUtagMINMAXINFO@@@Z @ 6418 NONAME
 ?OnGetNaturalExtent@COleControl@@UEAAHKJPEAUtagDVTARGETDEVICE@@PEAUHDC__@@PEAUtagExtentInfo@@PEAUtagSIZE@@@Z @ 6419 NONAME
 ?OnGetObject@CWnd@@IEAA_J_K_J@Z @ 6420 NONAME
 ?OnGetOptionKeyPath@CHtmlView@@UEAAJPEAPEA_WK@Z @ 6421 NONAME
 ?OnGetPredefinedStrings@COleControl@@UEAAHJPEAVCStringArray@@PEAVCDWordArray@@@Z @ 6422 NONAME
 ?OnGetPredefinedValue@COleControl@@UEAAHJKPEAUtagVARIANT@@@Z @ 6423 NONAME
 ?OnGetText@CStatusBar@@IEAA_J_K_J@Z @ 6424 NONAME
 ?OnGetTextLength@CStatusBar@@IEAA_J_K_J@Z @ 6425 NONAME
 ?OnGetViewExtent@COleControl@@UEAAHKJPEAUtagDVTARGETDEVICE@@PEAUtagSIZE@@@Z @ 6426 NONAME
 ?OnGetViewRect@COleControl@@UEAAHKPEAU_RECTL@@@Z @ 6427 NONAME
 ?OnGetViewStatus@COleControl@@UEAAKXZ @ 6428 NONAME
 ?OnGetWindowContext@COleClientItem@@MEAAHPEAPEAVCFrameWnd@@0PEAUtagOIFI@@@Z @ 6429 NONAME
 ?OnHeightChange@CReBar@@IEAAXPEAUtagNMHDR@@PEA_J@Z @ 6430 NONAME
 ?OnHelp@CFrameWnd@@IEAAXXZ @ 6431 NONAME
 ?OnHelp@COlePropertyPage@@UEAAHPEB_W@Z @ 6432 NONAME
 ?OnHelp@CWinApp@@IEAAXXZ @ 6433 NONAME
 ?OnHelp@CWnd@@QEAAXXZ @ 6434 NONAME
 ?OnHelp@XFileDialogEvents@CFileDialog@@UEAAJPEAUIFileDialog@@@Z @ 6435 NONAME
 ?OnHelpFinder@CWinApp@@IEAAXXZ @ 6436 NONAME
 ?OnHelpFinder@CWnd@@QEAAXXZ @ 6437 NONAME
 ?OnHelpHitTest@CControlBar@@QEAA_J_K_J@Z @ 6438 NONAME
 ?OnHelpHitTest@CDialog@@IEAA_J_K_J@Z @ 6439 NONAME
 ?OnHelpHitTest@CFrameWnd@@IEAA_J_K_J@Z @ 6440 NONAME
 ?OnHelpIndex@CWinApp@@IEAAXXZ @ 6441 NONAME
 ?OnHelpIndex@CWnd@@QEAAXXZ @ 6442 NONAME
 ?OnHelpInfo@CCommonDialog@@IEAAHPEAUtagHELPINFO@@@Z @ 6443 NONAME
 ?OnHelpInfo@CWnd@@IEAAHPEAUtagHELPINFO@@@Z @ 6444 NONAME
 ?OnHelpPromptAddr@CFrameWnd@@IEAA_J_K_J@Z @ 6445 NONAME
 ?OnHelpUsing@CWinApp@@IEAAXXZ @ 6446 NONAME
 ?OnHelpUsing@CWnd@@QEAAXXZ @ 6447 NONAME
 ?OnHide@CDocObjectServerItem@@MEAAXXZ @ 6448 NONAME
 ?OnHide@COleControl@@MEAAJXZ @ 6449 NONAME
 ?OnHide@COleServerItem@@MEAAXXZ @ 6450 NONAME
 ?OnHideMenuBar@CFrameWnd@@MEAAXXZ @ 6451 NONAME
 ?OnHideToolBars@COleControl@@UEAAXXZ @ 6452 NONAME
 ?OnHideUI@CHtmlView@@UEAAJXZ @ 6453 NONAME
 ?OnHotKey@CWnd@@IEAAXIII@Z @ 6454 NONAME
 ?OnHScroll@CFrameWnd@@IEAAXIIPEAVCScrollBar@@@Z @ 6455 NONAME
 ?OnHScroll@CPreviewView@@IEAAXIIPEAVCScrollBar@@@Z @ 6456 NONAME
 ?OnHScroll@CScrollView@@QEAAXIIPEAVCScrollBar@@@Z @ 6457 NONAME
 ?OnHScroll@CSplitterWnd@@IEAAXIIPEAVCScrollBar@@@Z @ 6458 NONAME
 ?OnHScroll@CWnd@@IEAAXIIPEAVCScrollBar@@@Z @ 6459 NONAME
 ?OnHScrollClipboard@CWnd@@IEAAXPEAV1@II@Z @ 6460 NONAME
 ?OnIconEraseBkgnd@CWnd@@IEAAXPEAVCDC@@@Z @ 6461 NONAME
 ?OnIdle@CDocTemplate@@UEAAXXZ @ 6462 NONAME
 ?OnIdle@CDocument@@UEAAXXZ @ 6463 NONAME
 ?OnIdle@COleDocument@@UEAAXXZ @ 6464 NONAME
 ?OnIdle@CWinApp@@UEAAHJ@Z @ 6465 NONAME
 ?OnIdle@CWinThread@@UEAAHJ@Z @ 6466 NONAME
 ?OnIdleUpdateCmdUI@CControlBar@@QEAA_J_K_J@Z @ 6467 NONAME
 ?OnIdleUpdateCmdUI@CFrameWnd@@IEAAXXZ @ 6468 NONAME
 ?OnIdleUpdateCmdUI@CMDIFrameWnd@@IEAAXXZ @ 6469 NONAME
 ?OnIdleUpdateCmdUI@COleCntrFrameWnd@@QEAAXXZ @ 6470 NONAME
 ?OnIdleUpdateCmdUI@COleIPFrameWnd@@IEAAXXZ @ 6471 NONAME
 ?OnInactiveMouseMove@COleControl@@UEAAXPEBUtagRECT@@JJK@Z @ 6472 NONAME
 ?OnInactiveMouseMove@XPointerInactive@COleControl@@UEAAJPEBUtagRECT@@JJK@Z @ 6473 NONAME
 ?OnInactiveSetCursor@COleControl@@UEAAHPEBUtagRECT@@JJKH@Z @ 6474 NONAME
 ?OnInactiveSetCursor@XPointerInactive@COleControl@@UEAAJPEBUtagRECT@@JJKH@Z @ 6475 NONAME
 ?OnInitDialog@CDHtmlDialog@@UEAAHXZ @ 6476 NONAME
 ?OnInitDialog@CDialog@@UEAAHXZ @ 6477 NONAME
 ?OnInitDialog@COlePropertiesDialog@@UEAAHXZ @ 6478 NONAME
 ?OnInitDialog@COlePropertyPage@@UEAAHXZ @ 6479 NONAME
 ?OnInitDialog@CPropertySheet@@UEAAHXZ @ 6480 NONAME
 ?OnInitDone@CFileDialog@@MEAAXXZ @ 6481 NONAME
 ?OnInitFromData@COleServerItem@@UEAAHPEAVCOleDataObject@@H@Z @ 6482 NONAME
 ?OnInitialUpdate@CControlBar@@QEAAXXZ @ 6483 NONAME
 ?OnInitialUpdate@CFormView@@UEAAXXZ @ 6484 NONAME
 ?OnInitialUpdate@COleDBRecordView@@UEAAXXZ @ 6485 NONAME
 ?OnInitialUpdate@CRecordView@@UEAAXXZ @ 6486 NONAME
 ?OnInitialUpdate@CRichEditView@@MEAAXXZ @ 6487 NONAME
 ?OnInitialUpdate@CView@@UEAAXXZ @ 6488 NONAME
 ?OnInitMenu@CFrameWnd@@IEAAXPEAVCMenu@@@Z @ 6489 NONAME
 ?OnInitMenu@COleFrameHook@@UEAAXPEAVCMenu@@@Z @ 6490 NONAME
 ?OnInitMenu@CWnd@@IEAAXPEAVCMenu@@@Z @ 6491 NONAME
 ?OnInitMenuPopup@CFrameWnd@@IEAAXPEAVCMenu@@IH@Z @ 6492 NONAME
 ?OnInitMenuPopup@COleControl@@IEAAXPEAVCMenu@@IH@Z @ 6493 NONAME
 ?OnInitMenuPopup@COleFrameHook@@UEAAHPEAVCMenu@@HH@Z @ 6494 NONAME
 ?OnInitMenuPopup@CWnd@@IEAAXPEAVCMenu@@IH@Z @ 6495 NONAME
 ?OnInPlaceActivate@XOleIPSite@COleClientItem@@UEAAJXZ @ 6496 NONAME
 ?OnInPlaceActivate@XOleIPSite@COleControlSite@@UEAAJXZ @ 6497 NONAME
 ?OnInPlaceActivateEx@XOleIPSite@COleControlSite@@UEAAJPEAHK@Z @ 6498 NONAME
 ?OnInPlaceDeactivate@XOleIPSite@COleClientItem@@UEAAJXZ @ 6499 NONAME
 ?OnInPlaceDeactivate@XOleIPSite@COleControlSite@@UEAAJXZ @ 6500 NONAME
 ?OnInPlaceDeactivateEx@XOleIPSite@COleControlSite@@UEAAJH@Z @ 6501 NONAME
 ?OnInputDeviceChange@CWnd@@IEAAXG@Z @ 6502 NONAME
 ?OnInputLangChange@CWnd@@IEAAXII@Z @ 6503 NONAME
 ?OnInputLangChangeRequest@CWnd@@IEAAXII@Z @ 6504 NONAME
 ?OnInsertMenus@COleClientItem@@UEAAXPEAVCMenu@@PEAUtagOleMenuGroupWidths@@@Z @ 6505 NONAME
 ?OnInsertMenus@COleDocObjectItem@@UEAAXPEAVCMenu@@PEAUtagOleMenuGroupWidths@@@Z @ 6506 NONAME
 ?OnInsertObject@CRichEditView@@IEAAXXZ @ 6507 NONAME
 ?OnInvertTracker@CSplitterWnd@@MEAAXAEBVCRect@@@Z @ 6508 NONAME
 ?OnItemSelected@XFileDialogControlEvents@CFileDialog@@UEAAJPEAUIFileDialogCustomize@@KK@Z @ 6509 NONAME
 ?OnKey@CDockContext@@QEAAXHH@Z @ 6510 NONAME
 ?OnKeyDown@CCheckListBox@@IEAAXIII@Z @ 6511 NONAME
 ?OnKeyDown@COleControl@@IEAAXIII@Z @ 6512 NONAME
 ?OnKeyDown@CRichEditView@@IEAAXIII@Z @ 6513 NONAME
 ?OnKeyDown@CSplitterWnd@@IEAAXIII@Z @ 6514 NONAME
 ?OnKeyDown@CWnd@@IEAAXIII@Z @ 6515 NONAME
 ?OnKeyDownEvent@COleControl@@UEAAXGG@Z @ 6516 NONAME
 ?OnKeyPressEvent@COleControl@@UEAAXG@Z @ 6517 NONAME
 ?OnKeyUp@COleControl@@IEAAXIII@Z @ 6518 NONAME
 ?OnKeyUp@CWnd@@IEAAXIII@Z @ 6519 NONAME
 ?OnKeyUpEvent@COleControl@@UEAAXGG@Z @ 6520 NONAME
 ?OnKickIdle@CPropertySheet@@IEAA_J_K_J@Z @ 6521 NONAME
 ?OnKillActive@CPropertyPage@@UEAAHXZ @ 6522 NONAME
 ?OnKillFocus@COleControl@@IEAAXPEAVCWnd@@@Z @ 6523 NONAME
 ?OnKillFocus@CWnd@@IEAAXPEAV1@@Z @ 6524 NONAME
 ?OnLBAddString@CCheckListBox@@IEAA_J_K_J@Z @ 6525 NONAME
 ?OnLBFindString@CCheckListBox@@IEAA_J_K_J@Z @ 6526 NONAME
 ?OnLBFindStringExact@CCheckListBox@@IEAA_J_K_J@Z @ 6527 NONAME
 ?OnLBGetItemData@CCheckListBox@@IEAA_J_K_J@Z @ 6528 NONAME
 ?OnLBGetText@CCheckListBox@@IEAA_J_K_J@Z @ 6529 NONAME
 ?OnLBInsertString@CCheckListBox@@IEAA_J_K_J@Z @ 6530 NONAME
 ?OnLBSelChangedNotify@CFileDialog@@MEAAXIII@Z @ 6531 NONAME
 ?OnLBSelectString@CCheckListBox@@IEAA_J_K_J@Z @ 6532 NONAME
 ?OnLBSetItemData@CCheckListBox@@IEAA_J_K_J@Z @ 6533 NONAME
 ?OnLBSetItemHeight@CCheckListBox@@IEAA_J_K_J@Z @ 6534 NONAME
 ?OnLButtonDblClk@CCheckListBox@@IEAAXIVCPoint@@@Z @ 6535 NONAME
 ?OnLButtonDblClk@CControlBar@@QEAAXIVCPoint@@@Z @ 6536 NONAME
 ?OnLButtonDblClk@COleControl@@IEAAXIVCPoint@@@Z @ 6537 NONAME
 ?OnLButtonDblClk@CSplitterWnd@@IEAAXIVCPoint@@@Z @ 6538 NONAME
 ?OnLButtonDblClk@CWnd@@IEAAXIVCPoint@@@Z @ 6539 NONAME
 ?OnLButtonDown@CCheckListBox@@IEAAXIVCPoint@@@Z @ 6540 NONAME
 ?OnLButtonDown@CControlBar@@QEAAXIVCPoint@@@Z @ 6541 NONAME
 ?OnLButtonDown@COleControl@@IEAAXIVCPoint@@@Z @ 6542 NONAME
 ?OnLButtonDown@COleResizeBar@@IEAAXIVCPoint@@@Z @ 6543 NONAME
 ?OnLButtonDown@CPreviewView@@IEAAXIVCPoint@@@Z @ 6544 NONAME
 ?OnLButtonDown@CSplitterWnd@@IEAAXIVCPoint@@@Z @ 6545 NONAME
 ?OnLButtonDown@CWnd@@IEAAXIVCPoint@@@Z @ 6546 NONAME
 ?OnLButtonUp@COleControl@@IEAAXIVCPoint@@@Z @ 6547 NONAME
 ?OnLButtonUp@CSplitterWnd@@IEAAXIVCPoint@@@Z @ 6548 NONAME
 ?OnLButtonUp@CWnd@@IEAAXIVCPoint@@@Z @ 6549 NONAME
 ?OnLowResource@CAsyncMonikerFile@@MEAAXXZ @ 6550 NONAME
 ?OnMapPropertyToPage@COleControl@@UEAAHJPEAU_GUID@@PEAH@Z @ 6551 NONAME
 ?OnMButtonDblClk@COleControl@@IEAAXIVCPoint@@@Z @ 6552 NONAME
 ?OnMButtonDblClk@CWnd@@IEAAXIVCPoint@@@Z @ 6553 NONAME
 ?OnMButtonDown@COleControl@@IEAAXIVCPoint@@@Z @ 6554 NONAME
 ?OnMButtonDown@CWnd@@IEAAXIVCPoint@@@Z @ 6555 NONAME
 ?OnMButtonUp@COleControl@@IEAAXIVCPoint@@@Z @ 6556 NONAME
 ?OnMButtonUp@CWnd@@IEAAXIVCPoint@@@Z @ 6557 NONAME
 ?OnMDIActivate@CMDIChildWnd@@IEAAXHPEAVCWnd@@0@Z @ 6558 NONAME
 ?OnMDIActivate@CWnd@@IEAAXHPEAV1@0@Z @ 6559 NONAME
 ?OnMDIWindowCmd@CMDIFrameWnd@@IEAAHI@Z @ 6560 NONAME
 ?OnMeasureItem@CWnd@@IEAAXHPEAUtagMEASUREITEMSTRUCT@@@Z @ 6561 NONAME
 ?OnMenuBar@CHtmlView@@UEAAXH@Z @ 6562 NONAME
 ?OnMenuChar@CFrameWnd@@IEAA_JIIPEAVCMenu@@@Z @ 6563 NONAME
 ?OnMenuChar@CMDIFrameWnd@@IEAA_JIIPEAVCMenu@@@Z @ 6564 NONAME
 ?OnMenuChar@CWnd@@IEAA_JIIPEAVCMenu@@@Z @ 6565 NONAME
 ?OnMenuCommand@CWnd@@IEAAXIPEAVCMenu@@@Z @ 6566 NONAME
 ?OnMenuDrag@CWnd@@IEAAIIPEAVCMenu@@@Z @ 6567 NONAME
 ?OnMenuGetObject@CWnd@@IEAAIPEAUtagMENUGETOBJECTINFO@@@Z @ 6568 NONAME
 ?OnMenuRButtonUp@CWnd@@IEAAXIPEAVCMenu@@@Z @ 6569 NONAME
 ?OnMenuSelect@CFrameWnd@@IEAAXIIPEAUHMENU__@@@Z @ 6570 NONAME
 ?OnMenuSelect@COleControl@@IEAAXIIPEAUHMENU__@@@Z @ 6571 NONAME
 ?OnMenuSelect@COleFrameHook@@UEAAHIIPEAUHMENU__@@@Z @ 6572 NONAME
 ?OnMenuSelect@CWnd@@IEAAXIIPEAUHMENU__@@@Z @ 6573 NONAME
 ?OnMessagePending@COleMessageFilter@@UEAAHPEBUtagMSG@@@Z @ 6574 NONAME
 ?OnMessagePending@CSocket@@MEAAHXZ @ 6575 NONAME
 ?OnMnemonic@COleControl@@UEAAXPEAUtagMSG@@@Z @ 6576 NONAME
 ?OnMnemonic@XOleControl@COleControl@@UEAAJPEAUtagMSG@@@Z @ 6577 NONAME
 ?OnMouseActivate@CControlBar@@QEAAHPEAVCWnd@@II@Z @ 6578 NONAME
 ?OnMouseActivate@CMDIChildWnd@@IEAAHPEAVCWnd@@II@Z @ 6579 NONAME
 ?OnMouseActivate@CMiniDockFrameWnd@@QEAAHPEAVCWnd@@II@Z @ 6580 NONAME
 ?OnMouseActivate@COleControl@@IEAAHPEAVCWnd@@II@Z @ 6581 NONAME
 ?OnMouseActivate@CView@@IEAAHPEAVCWnd@@II@Z @ 6582 NONAME
 ?OnMouseActivate@CWnd@@IEAAHPEAV1@II@Z @ 6583 NONAME
 ?OnMouseHover@CWnd@@IEAAXIVCPoint@@@Z @ 6584 NONAME
 ?OnMouseHWheel@CWnd@@IEAAXIFVCPoint@@@Z @ 6585 NONAME
 ?OnMouseLeave@CWnd@@IEAAXXZ @ 6586 NONAME
 ?OnMouseMove@COleControl@@IEAAXIVCPoint@@@Z @ 6587 NONAME
 ?OnMouseMove@CSplitterWnd@@IEAAXIVCPoint@@@Z @ 6588 NONAME
 ?OnMouseMove@CWnd@@IEAAXIVCPoint@@@Z @ 6589 NONAME
 ?OnMouseWheel@CScrollView@@QEAAHIFVCPoint@@@Z @ 6590 NONAME
 ?OnMouseWheel@CSplitterWnd@@IEAAHIFVCPoint@@@Z @ 6591 NONAME
 ?OnMouseWheel@CWnd@@IEAAHIFVCPoint@@@Z @ 6592 NONAME
 ?OnMove@COleControl@@IEAAXHH@Z @ 6593 NONAME
 ?OnMove@COleDBRecordView@@UEAAHI@Z @ 6594 NONAME
 ?OnMove@CRecordView@@IEAAXHH@Z @ 6595 NONAME
 ?OnMove@CRecordView@@UEAAHI@Z @ 6596 NONAME
 ?OnMove@CWnd@@IEAAXHH@Z @ 6597 NONAME
 ?OnMoving@CWnd@@IEAAXIPEAUtagRECT@@@Z @ 6598 NONAME
 ?OnNavigateComplete@CDHtmlDialog@@UEAAXPEAUIDispatch@@PEB_W@Z @ 6599 NONAME
 ?OnNavigateComplete@CMultiPageDHtmlDialog@@MEAAXPEAUIDispatch@@PEB_W@Z @ 6600 NONAME
 ?OnNavigateComplete2@CHtmlEditView@@UEAAXPEB_W@Z @ 6601 NONAME
 ?OnNavigateComplete2@CHtmlView@@UEAAXPEB_W@Z @ 6602 NONAME
 ?OnNavigateError@CHtmlView@@UEAAXPEB_W0KPEAH@Z @ 6603 NONAME
 ?OnNcActivate@CFrameWnd@@IEAAHH@Z @ 6604 NONAME
 ?OnNcActivate@CMDIChildWnd@@IEAAHH@Z @ 6605 NONAME
 ?OnNcActivate@CMiniFrameWnd@@QEAAHH@Z @ 6606 NONAME
 ?OnNcActivate@CWnd@@IEAAHH@Z @ 6607 NONAME
 ?OnNcCalcSize@CDockBar@@IEAAXHPEAUtagNCCALCSIZE_PARAMS@@@Z @ 6608 NONAME
 ?OnNcCalcSize@COleControl@@IEAAXHPEAUtagNCCALCSIZE_PARAMS@@@Z @ 6609 NONAME
 ?OnNcCalcSize@CReBar@@IEAAXHPEAUtagNCCALCSIZE_PARAMS@@@Z @ 6610 NONAME
 ?OnNcCalcSize@CStatusBar@@IEAAXHPEAUtagNCCALCSIZE_PARAMS@@@Z @ 6611 NONAME
 ?OnNcCalcSize@CToolBar@@IEAAXHPEAUtagNCCALCSIZE_PARAMS@@@Z @ 6612 NONAME
 ?OnNcCalcSize@CWnd@@IEAAXHPEAUtagNCCALCSIZE_PARAMS@@@Z @ 6613 NONAME
 ?OnNcCreate@CMDIChildWnd@@IEAAHPEAUtagCREATESTRUCTW@@@Z @ 6614 NONAME
 ?OnNcCreate@CMiniFrameWnd@@QEAAHPEAUtagCREATESTRUCTW@@@Z @ 6615 NONAME
 ?OnNcCreate@COleControl@@IEAAHPEAUtagCREATESTRUCTW@@@Z @ 6616 NONAME
 ?OnNcCreate@CPropertySheet@@IEAAHPEAUtagCREATESTRUCTW@@@Z @ 6617 NONAME
 ?OnNcCreate@CReBar@@IEAAHPEAUtagCREATESTRUCTW@@@Z @ 6618 NONAME
 ?OnNcCreate@CSplitterWnd@@IEAAHPEAUtagCREATESTRUCTW@@@Z @ 6619 NONAME
 ?OnNcCreate@CToolBar@@IEAAHPEAUtagCREATESTRUCTW@@@Z @ 6620 NONAME
 ?OnNcCreate@CWnd@@IEAAHPEAUtagCREATESTRUCTW@@@Z @ 6621 NONAME
 ?OnNcDestroy@CListCtrl@@IEAAXXZ @ 6622 NONAME
 ?OnNcDestroy@CListView@@QEAAXXZ @ 6623 NONAME
 ?OnNcDestroy@CWnd@@IEAAXXZ @ 6624 NONAME
 ?OnNcHitTest@CMiniFrameWnd@@QEAA_JVCPoint@@@Z @ 6625 NONAME
 ?OnNcHitTest@COleControl@@IEAA_JVCPoint@@@Z @ 6626 NONAME
 ?OnNcHitTest@CStatusBar@@IEAA_JVCPoint@@@Z @ 6627 NONAME
 ?OnNcHitTest@CToolBar@@IEAA_JVCPoint@@@Z @ 6628 NONAME
 ?OnNcHitTest@CWnd@@IEAA_JVCPoint@@@Z @ 6629 NONAME
 ?OnNcLButtonDblClk@CMiniDockFrameWnd@@QEAAXIVCPoint@@@Z @ 6630 NONAME
 ?OnNcLButtonDblClk@CWnd@@IEAAXIVCPoint@@@Z @ 6631 NONAME
 ?OnNcLButtonDown@CMiniDockFrameWnd@@QEAAXIVCPoint@@@Z @ 6632 NONAME
 ?OnNcLButtonDown@COleControl@@IEAAXIVCPoint@@@Z @ 6633 NONAME
 ?OnNcLButtonDown@CWnd@@IEAAXIVCPoint@@@Z @ 6634 NONAME
 ?OnNcLButtonUp@CWnd@@IEAAXIVCPoint@@@Z @ 6635 NONAME
 ?OnNcMButtonDblClk@CWnd@@IEAAXIVCPoint@@@Z @ 6636 NONAME
 ?OnNcMButtonDown@CWnd@@IEAAXIVCPoint@@@Z @ 6637 NONAME
 ?OnNcMButtonUp@CWnd@@IEAAXIVCPoint@@@Z @ 6638 NONAME
 ?OnNcMouseHover@CWnd@@IEAAXIVCPoint@@@Z @ 6639 NONAME
 ?OnNcMouseLeave@CWnd@@IEAAXXZ @ 6640 NONAME
 ?OnNcMouseMove@CWnd@@IEAAXIVCPoint@@@Z @ 6641 NONAME
 ?OnNcPaint@CDockBar@@IEAAXXZ @ 6642 NONAME
 ?OnNcPaint@COleControl@@IEAAXXZ @ 6643 NONAME
 ?OnNcPaint@CReBar@@IEAAXXZ @ 6644 NONAME
 ?OnNcPaint@CStatusBar@@IEAAXXZ @ 6645 NONAME
 ?OnNcPaint@CToolBar@@IEAAXXZ @ 6646 NONAME
 ?OnNcPaint@CWnd@@IEAAXXZ @ 6647 NONAME
 ?OnNcRButtonDblClk@CWnd@@IEAAXIVCPoint@@@Z @ 6648 NONAME
 ?OnNcRButtonDown@CWnd@@IEAAXIVCPoint@@@Z @ 6649 NONAME
 ?OnNcRButtonUp@CWnd@@IEAAXIVCPoint@@@Z @ 6650 NONAME
 ?OnNcRenderingChanged@CWnd@@IEAAXH@Z @ 6651 NONAME
 ?OnNcXButtonDblClk@CWnd@@IEAAXFIVCPoint@@@Z @ 6652 NONAME
 ?OnNcXButtonDown@CWnd@@IEAAXFIVCPoint@@@Z @ 6653 NONAME
 ?OnNcXButtonUp@CWnd@@IEAAXFIVCPoint@@@Z @ 6654 NONAME
 ?OnNewDocument@CDocument@@UEAAHXZ @ 6655 NONAME
 ?OnNewDocument@CHtmlEditDoc@@UEAAHXZ @ 6656 NONAME
 ?OnNewDocument@COleDocument@@UEAAHXZ @ 6657 NONAME
 ?OnNewDocument@COleLinkingDoc@@UEAAHXZ @ 6658 NONAME
 ?OnNewEmbedding@COleServerDoc@@MEAAXPEAUIStorage@@@Z @ 6659 NONAME
 ?OnNewWindow2@CHtmlView@@UEAAXPEAPEAUIDispatch@@PEAH@Z @ 6660 NONAME
 ?OnNext@CEnumArray@@MEAAHPEAX@Z @ 6661 NONAME
 ?OnNext@CEnumConnections@@MEAAHPEAX@Z @ 6662 NONAME
 ?OnNext@CEnumConnPoints@@MEAAHPEAX@Z @ 6663 NONAME
 ?OnNext@CEnumFormatEtc@@MEAAHPEAX@Z @ 6664 NONAME
 ?OnNext@CEnumOleVerb@@MEAAHPEAX@Z @ 6665 NONAME
 ?OnNext@CEnumUnknown@@MEAAHPEAX@Z @ 6666 NONAME
 ?OnNextMenu@CWnd@@IEAAXIPEAUtagMDINEXTMENU@@@Z @ 6667 NONAME
 ?OnNextPage@CPreviewView@@IEAAXXZ @ 6668 NONAME
 ?OnNextPaneCmd@CView@@IEAAHI@Z @ 6669 NONAME
 ?OnNotify@CFileDialog@@MEAAH_K_JPEA_J@Z @ 6670 NONAME
 ?OnNotify@CPropertyPage@@MEAAH_K_JPEA_J@Z @ 6671 NONAME
 ?OnNotify@CSplitterWnd@@MEAAH_K_JPEA_J@Z @ 6672 NONAME
 ?OnNotify@CWnd@@MEAAH_K_JPEA_J@Z @ 6673 NONAME
 ?OnNotifyFormat@CWnd@@IEAAIPEAV1@I@Z @ 6674 NONAME
 ?OnNotRespondingDialog@COleMessageFilter@@UEAAHPEAUHTASK__@@@Z @ 6675 NONAME
 ?OnNTCtlColor@CWnd@@IEAA_J_K_J@Z @ 6676 NONAME
 ?OnNumPageChange@CPreviewView@@IEAAXXZ @ 6677 NONAME
 ?OnObjectsChanged@COlePropertyPage@@UEAAXXZ @ 6678 NONAME
 ?OnOcmCtlColorBtn@COleControl@@IEAA_J_K_J@Z @ 6679 NONAME
 ?OnOcmCtlColorDlg@COleControl@@IEAA_J_K_J@Z @ 6680 NONAME
 ?OnOcmCtlColorEdit@COleControl@@IEAA_J_K_J@Z @ 6681 NONAME
 ?OnOcmCtlColorListBox@COleControl@@IEAA_J_K_J@Z @ 6682 NONAME
 ?OnOcmCtlColorMsgBox@COleControl@@IEAA_J_K_J@Z @ 6683 NONAME
 ?OnOcmCtlColorScrollBar@COleControl@@IEAA_J_K_J@Z @ 6684 NONAME
 ?OnOcmCtlColorStatic@COleControl@@IEAA_J_K_J@Z @ 6685 NONAME
 ?OnOK@CCommonDialog@@MEAAXXZ @ 6686 NONAME
 ?OnOK@CDialog@@MEAAXXZ @ 6687 NONAME
 ?OnOK@CPropertyPage@@UEAAXXZ @ 6688 NONAME
 ?OnOpen@COleControl@@MEAAJHPEAUtagMSG@@@Z @ 6689 NONAME
 ?OnOpen@COleServerItem@@MEAAXXZ @ 6690 NONAME
 ?OnOpenDocument@CDocument@@UEAAHPEB_W@Z @ 6691 NONAME
 ?OnOpenDocument@CHtmlEditDoc@@UEAAHPEB_W@Z @ 6692 NONAME
 ?OnOpenDocument@COleDocument@@UEAAHPEB_W@Z @ 6693 NONAME
 ?OnOpenDocument@COleLinkingDoc@@UEAAHPEB_W@Z @ 6694 NONAME
 ?OnOpenEmbedding@COleServerDoc@@MEAAXPEAUIStorage@@@Z @ 6695 NONAME
 ?OnOpenRecentFile@CWinApp@@IEAAHI@Z @ 6696 NONAME
 ?OnOutOfBandData@CAsyncSocket@@MEAAXH@Z @ 6697 NONAME
 ?OnOverwrite@XFileDialogEvents@CFileDialog@@UEAAJPEAUIFileDialog@@PEAUIShellItem@@PEAW4tagFDE_OVERWRITE_RESPONSE@@@Z @ 6698 NONAME
 ?OnPaint@CCommonDialog@@IEAAXXZ @ 6699 NONAME
 ?OnPaint@CControlBar@@QEAAXXZ @ 6700 NONAME
 ?OnPaint@CCtrlView@@IEAAXXZ @ 6701 NONAME
 ?OnPaint@CDialog@@IEAAXXZ @ 6702 NONAME
 ?OnPaint@CDockBar@@IEAAXXZ @ 6703 NONAME
 ?OnPaint@CHtmlEditView@@QEAAXXZ @ 6704 NONAME
 ?OnPaint@CHtmlView@@IEAAXXZ @ 6705 NONAME
 ?OnPaint@COleControl@@IEAAXPEAVCDC@@@Z @ 6706 NONAME
 ?OnPaint@COleControlContainer@@UEAAHPEAVCDC@@@Z @ 6707 NONAME
 ?OnPaint@COleResizeBar@@IEAAXXZ @ 6708 NONAME
 ?OnPaint@CReBar@@IEAAXXZ @ 6709 NONAME
 ?OnPaint@CSplitterWnd@@IEAAXXZ @ 6710 NONAME
 ?OnPaint@CStatusBar@@IEAAXXZ @ 6711 NONAME
 ?OnPaint@CToolBar@@IEAAXXZ @ 6712 NONAME
 ?OnPaint@CView@@IEAAXXZ @ 6713 NONAME
 ?OnPaint@CWnd@@IEAAXXZ @ 6714 NONAME
 ?OnPaintClipboard@CWnd@@IEAAXPEAV1@PEAX@Z @ 6715 NONAME
 ?OnPaletteChanged@CFrameWnd@@IEAAXPEAVCWnd@@@Z @ 6716 NONAME
 ?OnPaletteChanged@COleFrameHook@@UEAAXPEAVCWnd@@@Z @ 6717 NONAME
 ?OnPaletteChanged@CWnd@@IEAAXPEAV1@@Z @ 6718 NONAME
 ?OnPaletteIsChanging@CWnd@@IEAAXPEAV1@@Z @ 6719 NONAME
 ?OnParaAlign@CRichEditView@@QEAAXG@Z @ 6720 NONAME
 ?OnParaCenter@CRichEditView@@IEAAXXZ @ 6721 NONAME
 ?OnParaLeft@CRichEditView@@IEAAXXZ @ 6722 NONAME
 ?OnParaRight@CRichEditView@@IEAAXXZ @ 6723 NONAME
 ?OnParentNotify@CWnd@@IEAAXI_J@Z @ 6724 NONAME
 ?OnPasteNativeObject@CRichEditView@@MEAAHPEAUIStorage@@@Z @ 6725 NONAME
 ?OnPopMessageString@CFrameWnd@@IEAA_J_K_J@Z @ 6726 NONAME
 ?OnPosRectChange@XOleIPSite@COleClientItem@@UEAAJPEBUtagRECT@@@Z @ 6727 NONAME
 ?OnPosRectChange@XOleIPSite@COleControlSite@@UEAAJPEBUtagRECT@@@Z @ 6728 NONAME
 ?OnPowerBroadcast@CWnd@@IEAAIII@Z @ 6729 NONAME
 ?OnPrepareDC@CEditView@@UEAAXPEAVCDC@@PEAUCPrintInfo@@@Z @ 6730 NONAME
 ?OnPrepareDC@CPreviewView@@UEAAXPEAVCDC@@PEAUCPrintInfo@@@Z @ 6731 NONAME
 ?OnPrepareDC@CRichEditView@@UEAAXPEAVCDC@@PEAUCPrintInfo@@@Z @ 6732 NONAME
 ?OnPrepareDC@CScrollView@@UEAAXPEAVCDC@@PEAUCPrintInfo@@@Z @ 6733 NONAME
 ?OnPrepareDC@CView@@UEAAXPEAVCDC@@PEAUCPrintInfo@@@Z @ 6734 NONAME
 ?OnPreparePrinting@CEditView@@MEAAHPEAUCPrintInfo@@@Z @ 6735 NONAME
 ?OnPreparePrinting@CHtmlEditView@@UEAAHPEAUCPrintInfo@@@Z @ 6736 NONAME
 ?OnPreparePrinting@COleDocObjectItem@@SAHPEAVCView@@PEAUCPrintInfo@@H@Z @ 6737 NONAME
 ?OnPreparePrinting@CView@@MEAAHPEAUCPrintInfo@@@Z @ 6738 NONAME
 ?OnPreserveSizingPolicyHelper@CToolBar@@IEAA_J_K_J@Z @ 6739 NONAME
 ?OnPreserveZeroBorderHelper@CToolBar@@IEAA_J_K_J@Z @ 6740 NONAME
 ?OnPreTranslateMessage@COleFrameHook@@UEAAHPEAUtagMSG@@@Z @ 6741 NONAME
 ?OnPreviewClose@CPreviewView@@IEAAXXZ @ 6742 NONAME
 ?OnPreviewPrint@CPreviewView@@IEAAXXZ @ 6743 NONAME
 ?OnPrevPage@CPreviewView@@IEAAXXZ @ 6744 NONAME
 ?OnPrint@CEditView@@MEAAXPEAVCDC@@PEAUCPrintInfo@@@Z @ 6745 NONAME
 ?OnPrint@COleDocObjectItem@@SAXPEAVCView@@PEAUCPrintInfo@@H@Z @ 6746 NONAME
 ?OnPrint@CRichEditView@@MEAAXPEAVCDC@@PEAUCPrintInfo@@@Z @ 6747 NONAME
 ?OnPrint@CView@@MEAAXPEAVCDC@@PEAUCPrintInfo@@@Z @ 6748 NONAME
 ?OnPrinterChanged@CRichEditView@@MEAAXAEBVCDC@@@Z @ 6749 NONAME
 ?OnPrintSetup@CPrintDialog@@IEAAXXZ @ 6750 NONAME
 ?OnProgress@CAsyncMonikerFile@@MEAAXKKKPEB_W@Z @ 6751 NONAME
 ?OnProgressChange@CHtmlView@@UEAAXJJ@Z @ 6752 NONAME
 ?OnProperties@COleControl@@UEAAHPEAUtagMSG@@PEAUHWND__@@PEBUtagRECT@@@Z @ 6753 NONAME
 ?OnPropertyChange@CHtmlView@@UEAAXPEB_W@Z @ 6754 NONAME
 ?OnQueryCancel@CPropertyPage@@UEAAHXZ @ 6755 NONAME
 ?OnQueryCenterWnd@CMiniFrameWnd@@QEAA_J_K_J@Z @ 6756 NONAME
 ?OnQueryDragIcon@CWnd@@IEAAPEAUHICON__@@XZ @ 6757 NONAME
 ?OnQueryEndSession@CFrameWnd@@IEAAHXZ @ 6758 NONAME
 ?OnQueryEndSession@CWnd@@IEAAHXZ @ 6759 NONAME
 ?OnQueryHitPoint@COleControl@@UEAAHKPEBUtagRECT@@UtagPOINT@@JPEAK@Z @ 6760 NONAME
 ?OnQueryHitRect@COleControl@@UEAAHKPEBUtagRECT@@0JPEAK@Z @ 6761 NONAME
 ?OnQueryNewPalette@CFrameWnd@@IEAAHXZ @ 6762 NONAME
 ?OnQueryNewPalette@COleFrameHook@@UEAAHXZ @ 6763 NONAME
 ?OnQueryNewPalette@CWnd@@IEAAHXZ @ 6764 NONAME
 ?OnQueryOpen@CWnd@@IEAAHXZ @ 6765 NONAME
 ?OnQueryUIState@CWnd@@IEAAIXZ @ 6766 NONAME
 ?OnQueryUpdateItems@COleServerItem@@UEAAHXZ @ 6767 NONAME
 ?OnQuit@CHtmlView@@UEAAXXZ @ 6768 NONAME
 ?OnRawInput@CWnd@@IEAAXIPEAUHRAWINPUT__@@@Z @ 6769 NONAME
 ?OnRButtonDblClk@COleControl@@IEAAXIVCPoint@@@Z @ 6770 NONAME
 ?OnRButtonDblClk@CWnd@@IEAAXIVCPoint@@@Z @ 6771 NONAME
 ?OnRButtonDown@COleControl@@IEAAXIVCPoint@@@Z @ 6772 NONAME
 ?OnRButtonDown@CWnd@@IEAAXIVCPoint@@@Z @ 6773 NONAME
 ?OnRButtonUp@COleControl@@IEAAXIVCPoint@@@Z @ 6774 NONAME
 ?OnRButtonUp@CWnd@@IEAAXIVCPoint@@@Z @ 6775 NONAME
 ?OnReactivateAndUndo@COleServerDoc@@MEAAHXZ @ 6776 NONAME
 ?OnRecalcLayout@COleFrameHook@@UEAAXXZ @ 6777 NONAME
 ?OnRecalcParent@COleIPFrameWnd@@IEAA_J_K_J@Z @ 6778 NONAME
 ?OnRecalcParent@CReBar@@IEAAXXZ @ 6779 NONAME
 ?OnReceive@CAsyncSocket@@MEAAXH@Z @ 6780 NONAME
 ?OnReflectorDestroyed@COleControl@@MEAAXXZ @ 6781 NONAME
 ?OnRemoveMenus@COleClientItem@@UEAAXPEAVCMenu@@@Z @ 6782 NONAME
 ?OnRemoveMenus@COleDocObjectItem@@UEAAXPEAVCMenu@@@Z @ 6783 NONAME
 ?OnRename@XAdviseSink@COleClientItem@@UEAAXPEAUIMoniker@@@Z @ 6784 NONAME
 ?OnRenderAllFormats@CWnd@@IEAAXXZ @ 6785 NONAME
 ?OnRenderData@CControlDataSource@COleControl@@MEAAHPEAUtagFORMATETC@@PEAUtagSTGMEDIUM@@@Z @ 6786 NONAME
 ?OnRenderData@CItemDataSource@COleServerItem@@MEAAHPEAUtagFORMATETC@@PEAUtagSTGMEDIUM@@@Z @ 6787 NONAME
 ?OnRenderData@COleControl@@UEAAHPEAUtagFORMATETC@@PEAUtagSTGMEDIUM@@@Z @ 6788 NONAME
 ?OnRenderData@COleDataSource@@UEAAHPEAUtagFORMATETC@@PEAUtagSTGMEDIUM@@@Z @ 6789 NONAME
 ?OnRenderData@COleServerItem@@UEAAHPEAUtagFORMATETC@@PEAUtagSTGMEDIUM@@@Z @ 6790 NONAME
 ?OnRenderFileData@CControlDataSource@COleControl@@MEAAHPEAUtagFORMATETC@@PEAVCFile@@@Z @ 6791 NONAME
 ?OnRenderFileData@CItemDataSource@COleServerItem@@MEAAHPEAUtagFORMATETC@@PEAVCFile@@@Z @ 6792 NONAME
 ?OnRenderFileData@COleControl@@UEAAHPEAUtagFORMATETC@@PEAVCFile@@@Z @ 6793 NONAME
 ?OnRenderFileData@COleDataSource@@UEAAHPEAUtagFORMATETC@@PEAVCFile@@@Z @ 6794 NONAME
 ?OnRenderFileData@COleServerItem@@UEAAHPEAUtagFORMATETC@@PEAVCFile@@@Z @ 6795 NONAME
 ?OnRenderFormat@CWnd@@IEAAXI@Z @ 6796 NONAME
 ?OnRenderGlobalData@CControlDataSource@COleControl@@MEAAHPEAUtagFORMATETC@@PEAPEAX@Z @ 6797 NONAME
 ?OnRenderGlobalData@CItemDataSource@COleServerItem@@MEAAHPEAUtagFORMATETC@@PEAPEAX@Z @ 6798 NONAME
 ?OnRenderGlobalData@COleControl@@UEAAHPEAUtagFORMATETC@@PEAPEAX@Z @ 6799 NONAME
 ?OnRenderGlobalData@COleDataSource@@UEAAHPEAUtagFORMATETC@@PEAPEAX@Z @ 6800 NONAME
 ?OnRenderGlobalData@COleServerItem@@UEAAHPEAUtagFORMATETC@@PEAPEAX@Z @ 6801 NONAME
 ?OnReplaceAll@CEditView@@MEAAXPEB_W0H@Z @ 6802 NONAME
 ?OnReplaceAll@CRichEditView@@MEAAXPEB_W0HH@Z @ 6803 NONAME
 ?OnReplaceSel@CEditView@@MEAAXPEB_WHH0@Z @ 6804 NONAME
 ?OnReplaceSel@CRichEditView@@MEAAXPEB_WHHH0@Z @ 6805 NONAME
 ?OnRequestEdit@XFontNotification@COleControl@@UEAAJJ@Z @ 6806 NONAME
 ?OnRequestEdit@XPropertyNotifySink@COleControlSite@@UEAAJJ@Z @ 6807 NONAME
 ?OnRequestEdit@XPropNotifySink@COlePropertyPage@@UEAAJJ@Z @ 6808 NONAME
 ?OnRequestPositionChange@COleDocIPFrameWnd@@MEAAXPEBUtagRECT@@@Z @ 6809 NONAME
 ?OnRequestPositionChange@COleIPFrameWnd@@MEAAXPEBUtagRECT@@@Z @ 6810 NONAME
 ?OnReset@CEnumArray@@MEAAXXZ @ 6811 NONAME
 ?OnReset@CPropertyPage@@UEAAXXZ @ 6812 NONAME
 ?OnResetState@COleControl@@UEAAXXZ @ 6813 NONAME
 ?OnResizeBorder@CHtmlView@@UEAAJPEBUtagRECT@@PEAUIOleInPlaceUIWindow@@H@Z @ 6814 NONAME
 ?OnResizeBorder@COleServerDoc@@UEAAXPEBUtagRECT@@PEAUIOleInPlaceUIWindow@@H@Z @ 6815 NONAME
 ?OnResizeChild@COleIPFrameWnd@@IEAA_J_K_J@Z @ 6816 NONAME
 ?OnRowChange@XRowsetNotify@COleControlSite@@UEAAJPEAUIRowset@@_KQEB_KKKH@Z @ 6817 NONAME
 ?OnRowsetChange@XRowsetNotify@COleControlSite@@UEAAJPEAUIRowset@@KKH@Z @ 6818 NONAME
 ?OnSave@XAdviseSink@COleClientItem@@UEAAXXZ @ 6819 NONAME
 ?OnSaveDocument@CDocument@@UEAAHPEB_W@Z @ 6820 NONAME
 ?OnSaveDocument@CHtmlEditDoc@@UEAAHPEB_W@Z @ 6821 NONAME
 ?OnSaveDocument@COleDocument@@UEAAHPEB_W@Z @ 6822 NONAME
 ?OnSaveDocument@COleLinkingDoc@@UEAAHPEB_W@Z @ 6823 NONAME
 ?OnSaveDocument@COleServerDoc@@UEAAHPEB_W@Z @ 6824 NONAME
 ?OnSaveEmbedding@COleServerDoc@@MEAAXPEAUIStorage@@@Z @ 6825 NONAME
 ?OnSaveEmbedding@COleServerItem@@MEAAXPEAUIStorage@@@Z @ 6826 NONAME
 ?OnSaveViewState@CDocObjectServer@@MEAAXAEAVCArchive@@@Z @ 6827 NONAME
 ?OnScroll@CScrollView@@UEAAHIIH@Z @ 6828 NONAME
 ?OnScroll@CView@@UEAAHIIH@Z @ 6829 NONAME
 ?OnScrollBy@COleClientItem@@MEAAHVCSize@@@Z @ 6830 NONAME
 ?OnScrollBy@CScrollView@@UEAAHVCSize@@H@Z @ 6831 NONAME
 ?OnScrollBy@CView@@UEAAHVCSize@@H@Z @ 6832 NONAME
 ?OnSelChange@CRichEditView@@IEAAXPEAUtagNMHDR@@PEA_J@Z @ 6833 NONAME
 ?OnSelectionChange@XFileDialogEvents@CFileDialog@@UEAAJPEAUIFileDialog@@@Z @ 6834 NONAME
 ?OnSend@CAsyncSocket@@MEAAXH@Z @ 6835 NONAME
 ?OnSessionChange@CWnd@@IEAAXII@Z @ 6836 NONAME
 ?OnSetActive@CPropertyPage@@UEAAHXZ @ 6837 NONAME
 ?OnSetBitmapSize@CToolBar@@IEAA_J_K_J@Z @ 6838 NONAME
 ?OnSetButtonSize@CToolBar@@IEAA_J_K_J@Z @ 6839 NONAME
 ?OnSetClientSite@COleControl@@UEAAXXZ @ 6840 NONAME
 ?OnSetColorScheme@COleServerItem@@UEAAHPEBUtagLOGPALETTE@@@Z @ 6841 NONAME
 ?OnSetCursor@CFrameWnd@@IEAAHPEAVCWnd@@II@Z @ 6842 NONAME
 ?OnSetCursor@COleControl@@IEAAHPEAVCWnd@@II@Z @ 6843 NONAME
 ?OnSetCursor@COleResizeBar@@IEAAHPEAVCWnd@@II@Z @ 6844 NONAME
 ?OnSetCursor@CPreviewView@@IEAAHPEAVCWnd@@II@Z @ 6845 NONAME
 ?OnSetCursor@CSplitterWnd@@IEAAHPEAVCWnd@@II@Z @ 6846 NONAME
 ?OnSetCursor@CWnd@@IEAAHPEAV1@II@Z @ 6847 NONAME
 ?OnSetData@CControlDataSource@COleControl@@MEAAHPEAUtagFORMATETC@@PEAUtagSTGMEDIUM@@H@Z @ 6848 NONAME
 ?OnSetData@CItemDataSource@COleServerItem@@MEAAHPEAUtagFORMATETC@@PEAUtagSTGMEDIUM@@H@Z @ 6849 NONAME
 ?OnSetData@COleControl@@UEAAHPEAUtagFORMATETC@@PEAUtagSTGMEDIUM@@H@Z @ 6850 NONAME
 ?OnSetData@COleDataSource@@UEAAHPEAUtagFORMATETC@@PEAUtagSTGMEDIUM@@H@Z @ 6851 NONAME
 ?OnSetData@COleServerItem@@UEAAHPEAUtagFORMATETC@@PEAUtagSTGMEDIUM@@H@Z @ 6852 NONAME
 ?OnSetDefID@CPropertySheet@@IEAA_J_K_J@Z @ 6853 NONAME
 ?OnSetExtent@COleControl@@UEAAHPEAUtagSIZE@@@Z @ 6854 NONAME
 ?OnSetExtent@COleServerItem@@UEAAHW4tagDVASPECT@@AEBVCSize@@@Z @ 6855 NONAME
 ?OnSetFocus@CFormView@@IEAAXPEAVCWnd@@@Z @ 6856 NONAME
 ?OnSetFocus@CFrameWnd@@IEAAXPEAVCWnd@@@Z @ 6857 NONAME
 ?OnSetFocus@COleControl@@IEAAXPEAVCWnd@@@Z @ 6858 NONAME
 ?OnSetFocus@CWnd@@IEAAXPEAV1@@Z @ 6859 NONAME
 ?OnSetFont@CCheckListBox@@IEAA_J_K_J@Z @ 6860 NONAME
 ?OnSetFont@CDialog@@UEAAXPEAVCFont@@@Z @ 6861 NONAME
 ?OnSetFont@CEditView@@IEAA_J_K_J@Z @ 6862 NONAME
 ?OnSetHostNames@COleServerDoc@@MEAAXPEB_W0@Z @ 6863 NONAME
 ?OnSetItemRects@CDocObjectServer@@IEAAXPEAUtagRECT@@0@Z @ 6864 NONAME
 ?OnSetItemRects@COleServerDoc@@MEAAXPEBUtagRECT@@0@Z @ 6865 NONAME
 ?OnSetMenu@COleClientItem@@UEAAXPEAVCMenu@@PEAXPEAUHWND__@@@Z @ 6866 NONAME
 ?OnSetMessageString@CFrameWnd@@IEAA_J_K_J@Z @ 6867 NONAME
 ?OnSetMessageString@COleControl@@IEAA_J_K_J@Z @ 6868 NONAME
 ?OnSetMessageString@COleIPFrameWnd@@UEAA_J_K_J@Z @ 6869 NONAME
 ?OnSetMinHeight@CStatusBar@@IEAA_J_K_J@Z @ 6870 NONAME
 ?OnSetObjectRects@COleControl@@UEAAHPEBUtagRECT@@0@Z @ 6871 NONAME
 ?OnSetOptions@CDatabase@@UEAAXPEAX@Z @ 6872 NONAME
 ?OnSetOptions@CRecordset@@UEAAXPEAX@Z @ 6873 NONAME
 ?OnSetPageSite@COlePropertyPage@@UEAAXXZ @ 6874 NONAME
 ?OnSetPreviewMode@CFrameWnd@@UEAAXHPEAUCPrintPreviewState@@@Z @ 6875 NONAME
 ?OnSetSizeHelper@CToolBar@@IEAA_JAEAVCSize@@_J@Z @ 6876 NONAME
 ?OnSetText@COleControl@@IEAA_J_K_J@Z @ 6877 NONAME
 ?OnSetText@CStatusBar@@IEAA_J_K_J@Z @ 6878 NONAME
 ?OnSettingChange@CWnd@@IEAAXIPEB_W@Z @ 6879 NONAME
 ?OnSetUpdateOptions@CRecordset@@UEAAXPEAX@Z @ 6880 NONAME
 ?OnShareViolation@CFileDialog@@MEAAIPEB_W@Z @ 6881 NONAME
 ?OnShareViolation@XFileDialogEvents@CFileDialog@@UEAAJPEAUIFileDialog@@PEAUIShellItem@@PEAW4tagFDE_SHAREVIOLATION_RESPONSE@@@Z @ 6882 NONAME
 ?OnShow@CDocObjectServerItem@@MEAAXXZ @ 6883 NONAME
 ?OnShow@COleServerItem@@MEAAXXZ @ 6884 NONAME
 ?OnShowBand@CReBar@@IEAA_J_K_J@Z @ 6885 NONAME
 ?OnShowContextMenu@CHtmlView@@UEAAJKPEAUtagPOINT@@PEAUIUnknown@@PEAUIDispatch@@@Z @ 6886 NONAME
 ?OnShowControlBars@COleClientItem@@UEAAHPEAVCFrameWnd@@H@Z @ 6887 NONAME
 ?OnShowControlBars@COleServerDoc@@UEAAXPEAVCFrameWnd@@H@Z @ 6888 NONAME
 ?OnShowDocument@COleServerDoc@@MEAAXH@Z @ 6889 NONAME
 ?OnShowItem@COleClientItem@@MEAAXXZ @ 6890 NONAME
 ?OnShowMenuBar@CFrameWnd@@MEAAXXZ @ 6891 NONAME
 ?OnShowToolBars@COleControl@@UEAAXXZ @ 6892 NONAME
 ?OnShowUI@CHtmlView@@UEAAJKPEAUIOleInPlaceActiveObject@@PEAUIOleCommandTarget@@PEAUIOleInPlaceFrame@@PEAUIOleInPlaceUIWindow@@@Z @ 6893 NONAME
 ?OnShowViews@COleDocument@@UEAAXH@Z @ 6894 NONAME
 ?OnShowViews@COleLinkingDoc@@MEAAXH@Z @ 6895 NONAME
 ?OnShowWindow@COleControl@@IEAAXHI@Z @ 6896 NONAME
 ?OnShowWindow@CWnd@@IEAAXHI@Z @ 6897 NONAME
 ?OnShowWindow@XOleClientSite@COleClientItem@@UEAAJH@Z @ 6898 NONAME
 ?OnShowWindow@XOleClientSite@COleControlSite@@UEAAJH@Z @ 6899 NONAME
 ?OnSize@CDHtmlDialog@@IEAAXIHH@Z @ 6900 NONAME
 ?OnSize@CFrameWnd@@IEAAXIHH@Z @ 6901 NONAME
 ?OnSize@CHtmlView@@IEAAXIHH@Z @ 6902 NONAME
 ?OnSize@CMDIChildWnd@@IEAAXIHH@Z @ 6903 NONAME
 ?OnSize@CMDIFrameWnd@@IEAAXIHH@Z @ 6904 NONAME
 ?OnSize@COleControl@@IEAAXIHH@Z @ 6905 NONAME
 ?OnSize@COleIPFrameWnd@@IEAAXIHH@Z @ 6906 NONAME
 ?OnSize@COleResizeBar@@IEAAXIHH@Z @ 6907 NONAME
 ?OnSize@CPreviewView@@IEAAXIHH@Z @ 6908 NONAME
 ?OnSize@CScrollView@@QEAAXIHH@Z @ 6909 NONAME
 ?OnSize@CSplitterWnd@@IEAAXIHH@Z @ 6910 NONAME
 ?OnSize@CStatusBar@@IEAAXIHH@Z @ 6911 NONAME
 ?OnSize@CWnd@@IEAAXIHH@Z @ 6912 NONAME
 ?OnSizeClipboard@CWnd@@IEAAXPEAV1@PEAX@Z @ 6913 NONAME
 ?OnSizeParent@CControlBar@@QEAA_J_K_J@Z @ 6914 NONAME
 ?OnSizeParent@CDockBar@@IEAA_J_K_J@Z @ 6915 NONAME
 ?OnSizeParent@COleResizeBar@@IEAA_J_K_J@Z @ 6916 NONAME
 ?OnSizing@CWnd@@IEAAXIPEAUtagRECT@@@Z @ 6917 NONAME
 ?OnSkip@CEnumArray@@MEAAHXZ @ 6918 NONAME
 ?OnSocketDead@CSocketWnd@@IEAA_J_K_J@Z @ 6919 NONAME
 ?OnSocketNotify@CSocketWnd@@IEAA_J_K_J@Z @ 6920 NONAME
 ?OnSplitCmd@CView@@IEAAHI@Z @ 6921 NONAME
 ?OnSpoolerStatus@CWnd@@IEAAXII@Z @ 6922 NONAME
 ?OnStartBinding@CAsyncMonikerFile@@MEAAXXZ @ 6923 NONAME
 ?OnStatusBar@CHtmlView@@UEAAXH@Z @ 6924 NONAME
 ?OnStatusCallback@CInternetSession@@UEAAX_KKPEAXK@Z @ 6925 NONAME
 ?OnStatusTextChange@CHtmlView@@UEAAXPEB_W@Z @ 6926 NONAME
 ?OnStopBinding@CAsyncMonikerFile@@MEAAXJPEB_W@Z @ 6927 NONAME
 ?OnStyleChanged@CWnd@@IEAAXHPEAUtagSTYLESTRUCT@@@Z @ 6928 NONAME
 ?OnStyleChanging@CWnd@@IEAAXHPEAUtagSTYLESTRUCT@@@Z @ 6929 NONAME
 ?OnSyncPaint@CWnd@@IEAAXXZ @ 6930 NONAME
 ?OnSysChar@CWnd@@IEAAXIII@Z @ 6931 NONAME
 ?OnSysColorChange@CToolBar@@IEAAXXZ @ 6932 NONAME
 ?OnSysColorChange@CWnd@@IEAAXXZ @ 6933 NONAME
 ?OnSysCommand@CFrameWnd@@IEAAXI_J@Z @ 6934 NONAME
 ?OnSysCommand@CMiniFrameWnd@@QEAAXI_J@Z @ 6935 NONAME
 ?OnSysCommand@CPropertySheet@@IEAAXI_J@Z @ 6936 NONAME
 ?OnSysCommand@CSplitterWnd@@IEAAXI_J@Z @ 6937 NONAME
 ?OnSysCommand@CWnd@@IEAAXI_J@Z @ 6938 NONAME
 ?OnSysDeadChar@CWnd@@IEAAXIII@Z @ 6939 NONAME
 ?OnSysKeyDown@COleControl@@IEAAXIII@Z @ 6940 NONAME
 ?OnSysKeyDown@CWnd@@IEAAXIII@Z @ 6941 NONAME
 ?OnSysKeyUp@COleControl@@IEAAXIII@Z @ 6942 NONAME
 ?OnSysKeyUp@CWnd@@IEAAXIII@Z @ 6943 NONAME
 ?OnTCard@CWnd@@IEAAXIK@Z @ 6944 NONAME
 ?OnTextChanged@COleControl@@UEAAXXZ @ 6945 NONAME
 ?OnTextNotFound@CEditView@@MEAAXPEB_W@Z @ 6946 NONAME
 ?OnTextNotFound@CRichEditView@@MEAAXPEB_W@Z @ 6947 NONAME
 ?OnTheaterMode@CHtmlView@@UEAAXH@Z @ 6948 NONAME
 ?OnThemeChanged@CControlBar@@QEAA_JXZ @ 6949 NONAME
 ?OnTimeChange@CWnd@@IEAAXXZ @ 6950 NONAME
 ?OnTimer@CControlBar@@QEAAX_K@Z @ 6951 NONAME
 ?OnTimer@CWnd@@IEAAX_K@Z @ 6952 NONAME
 ?OnTitleChange@CHtmlView@@UEAAXPEB_W@Z @ 6953 NONAME
 ?OnToolBar@CHtmlView@@UEAAXH@Z @ 6954 NONAME
 ?OnToolHitTest@CReBar@@UEBA_JVCPoint@@PEAUtagTOOLINFOW@@@Z @ 6955 NONAME
 ?OnToolHitTest@CToolBar@@UEBA_JVCPoint@@PEAUtagTOOLINFOW@@@Z @ 6956 NONAME
 ?OnToolHitTest@CWnd@@UEBA_JVCPoint@@PEAUtagTOOLINFOW@@@Z @ 6957 NONAME
 ?OnToolTipText@CFrameWnd@@IEAAHIPEAUtagNMHDR@@PEA_J@Z @ 6958 NONAME
 ?OnToolTipText@CMDIChildWnd@@IEAAHIPEAUtagNMHDR@@PEA_J@Z @ 6959 NONAME
 ?OnTranslateAccelerator@CHtmlView@@UEAAJPEAUtagMSG@@PEBU_GUID@@K@Z @ 6960 NONAME
 ?OnTranslateUrl@CHtmlView@@UEAAJKPEA_WPEAPEA_W@Z @ 6961 NONAME
 ?OnTypeChange@CFileDialog@@MEAAXXZ @ 6962 NONAME
 ?OnTypeChange@XFileDialogEvents@CFileDialog@@UEAAJPEAUIFileDialog@@@Z @ 6963 NONAME
 ?OnUIActivate@COleControlContainer@@UEAAXPEAVCOleControlSite@@@Z @ 6964 NONAME
 ?OnUIActivate@XOleIPSite@COleClientItem@@UEAAJXZ @ 6965 NONAME
 ?OnUIActivate@XOleIPSite@COleControlSite@@UEAAJXZ @ 6966 NONAME
 ?OnUIDeactivate@COleControlContainer@@UEAAXPEAVCOleControlSite@@@Z @ 6967 NONAME
 ?OnUIDeactivate@XOleIPSite@COleClientItem@@UEAAJH@Z @ 6968 NONAME
 ?OnUIDeactivate@XOleIPSite@COleControlSite@@UEAAJH@Z @ 6969 NONAME
 ?OnUniChar@CWnd@@IEAAXIII@Z @ 6970 NONAME
 ?OnUnInitMenuPopup@CWnd@@IEAAXPEAVCMenu@@I@Z @ 6971 NONAME
 ?OnUpdate@COleServerItem@@UEAAXPEAV1@_JPEAVCObject@@W4tagDVASPECT@@@Z @ 6972 NONAME
 ?OnUpdate@CView@@MEAAXPEAV1@_JPEAVCObject@@@Z @ 6973 NONAME
 ?OnUpdateBullet@CRichEditView@@IEAAXPEAVCCmdUI@@@Z @ 6974 NONAME
 ?OnUpdateCharBold@CRichEditView@@IEAAXPEAVCCmdUI@@@Z @ 6975 NONAME
 ?OnUpdateCharEffect@CRichEditView@@QEAAXPEAVCCmdUI@@KK@Z @ 6976 NONAME
 ?OnUpdateCharItalic@CRichEditView@@IEAAXPEAVCCmdUI@@@Z @ 6977 NONAME
 ?OnUpdateCharUnderline@CRichEditView@@IEAAXPEAVCCmdUI@@@Z @ 6978 NONAME
 ?OnUpdateCmdUI@CDialogBar@@UEAAXPEAVCFrameWnd@@H@Z @ 6979 NONAME
 ?OnUpdateCmdUI@CDockBar@@MEAAXPEAVCFrameWnd@@H@Z @ 6980 NONAME
 ?OnUpdateCmdUI@COleResizeBar@@UEAAXPEAVCFrameWnd@@H@Z @ 6981 NONAME
 ?OnUpdateCmdUI@CReBar@@UEAAXPEAVCFrameWnd@@H@Z @ 6982 NONAME
 ?OnUpdateCmdUI@CStatusBar@@UEAAXPEAVCFrameWnd@@H@Z @ 6983 NONAME
 ?OnUpdateCmdUI@CToolBar@@UEAAXPEAVCFrameWnd@@H@Z @ 6984 NONAME
 ?OnUpdateContextHelp@CFrameWnd@@IEAAXPEAVCCmdUI@@@Z @ 6985 NONAME
 ?OnUpdateControlBarMenu@CFrameWnd@@QEAAXPEAVCCmdUI@@@Z @ 6986 NONAME
 ?OnUpdateControlBarMenu@COleIPFrameWnd@@IEAAXPEAVCCmdUI@@@Z @ 6987 NONAME
 ?OnUpdateDocument@COleServerDoc@@UEAAHXZ @ 6988 NONAME
 ?OnUpdateEditChangeIcon@COleDocument@@IEAAXPEAVCCmdUI@@@Z @ 6989 NONAME
 ?OnUpdateEditCopy@CHtmlView@@IEAAXPEAVCCmdUI@@@Z @ 6990 NONAME
 ?OnUpdateEditCut@CHtmlView@@IEAAXPEAVCCmdUI@@@Z @ 6991 NONAME
 ?OnUpdateEditLinksMenu@COleDocument@@IEAAXPEAVCCmdUI@@@Z @ 6992 NONAME
 ?OnUpdateEditPaste@CHtmlView@@IEAAXPEAVCCmdUI@@@Z @ 6993 NONAME
 ?OnUpdateEditPasteSpecial@CRichEditView@@IEAAXPEAVCCmdUI@@@Z @ 6994 NONAME
 ?OnUpdateEditProperties@CRichEditView@@IEAAXPEAVCCmdUI@@@Z @ 6995 NONAME
 ?OnUpdateEditRedo@CRichEditView@@IEAAXPEAVCCmdUI@@@Z @ 6996 NONAME
 ?OnUpdateEditUndo@CEditView@@IEAAXPEAVCCmdUI@@@Z @ 6997 NONAME
 ?OnUpdateEditUndo@CRichEditView@@IEAAXPEAVCCmdUI@@@Z @ 6998 NONAME
 ?OnUpdateFileExit@COleServerDoc@@IEAAXPEAVCCmdUI@@@Z @ 6999 NONAME
 ?OnUpdateFileSendMail@CDocument@@IEAAXPEAVCCmdUI@@@Z @ 7000 NONAME
 ?OnUpdateFileUpdate@COleServerDoc@@IEAAXPEAVCCmdUI@@@Z @ 7001 NONAME
 ?OnUpdateFrameMenu@CFrameWnd@@UEAAXPEAUHMENU__@@@Z @ 7002 NONAME
 ?OnUpdateFrameMenu@CMDIChildWnd@@UEAAXHPEAVCWnd@@PEAUHMENU__@@@Z @ 7003 NONAME
 ?OnUpdateFrameMenu@CMDIFrameWnd@@UEAAXPEAUHMENU__@@@Z @ 7004 NONAME
 ?OnUpdateFrameTitle@CFrameWnd@@UEAAXH@Z @ 7005 NONAME
 ?OnUpdateFrameTitle@CMDIChildWnd@@MEAAXH@Z @ 7006 NONAME
 ?OnUpdateFrameTitle@CMDIFrameWnd@@UEAAXH@Z @ 7007 NONAME
 ?OnUpdateFrameTitle@COleClientItem@@UEAAHXZ @ 7008 NONAME
 ?OnUpdateFrameTitle@COleFrameHook@@UEAAHXZ @ 7009 NONAME
 ?OnUpdateItems@COleServerItem@@UEAAXXZ @ 7010 NONAME
 ?OnUpdateKeyIndicator@CFrameWnd@@IEAAXPEAVCCmdUI@@@Z @ 7011 NONAME
 ?OnUpdateMDIWindowCmd@CMDIFrameWnd@@IEAAXPEAVCCmdUI@@@Z @ 7012 NONAME
 ?OnUpdateNeedClip@CEditView@@IEAAXPEAVCCmdUI@@@Z @ 7013 NONAME
 ?OnUpdateNeedClip@CRichEditView@@IEAAXPEAVCCmdUI@@@Z @ 7014 NONAME
 ?OnUpdateNeedFind@CEditView@@IEAAXPEAVCCmdUI@@@Z @ 7015 NONAME
 ?OnUpdateNeedFind@CRichEditView@@IEAAXPEAVCCmdUI@@@Z @ 7016 NONAME
 ?OnUpdateNeedSel@CEditView@@IEAAXPEAVCCmdUI@@@Z @ 7017 NONAME
 ?OnUpdateNeedSel@CRichEditView@@IEAAXPEAVCCmdUI@@@Z @ 7018 NONAME
 ?OnUpdateNeedText@CEditView@@IEAAXPEAVCCmdUI@@@Z @ 7019 NONAME
 ?OnUpdateNeedText@CRichEditView@@IEAAXPEAVCCmdUI@@@Z @ 7020 NONAME
 ?OnUpdateNextPage@CPreviewView@@IEAAXPEAVCCmdUI@@@Z @ 7021 NONAME
 ?OnUpdateNextPaneMenu@CView@@IEAAXPEAVCCmdUI@@@Z @ 7022 NONAME
 ?OnUpdateNumPageChange@CPreviewView@@IEAAXPEAVCCmdUI@@@Z @ 7023 NONAME
 ?OnUpdateObjectVerbMenu@COleDocument@@IEAAXPEAVCCmdUI@@@Z @ 7024 NONAME
 ?OnUpdateParaAlign@CRichEditView@@QEAAXPEAVCCmdUI@@G@Z @ 7025 NONAME
 ?OnUpdateParaCenter@CRichEditView@@IEAAXPEAVCCmdUI@@@Z @ 7026 NONAME
 ?OnUpdateParaLeft@CRichEditView@@IEAAXPEAVCCmdUI@@@Z @ 7027 NONAME
 ?OnUpdateParaRight@CRichEditView@@IEAAXPEAVCCmdUI@@@Z @ 7028 NONAME
 ?OnUpdatePasteLinkMenu@COleDocument@@IEAAXPEAVCCmdUI@@@Z @ 7029 NONAME
 ?OnUpdatePasteMenu@COleDocument@@IEAAXPEAVCCmdUI@@@Z @ 7030 NONAME
 ?OnUpdatePrevPage@CPreviewView@@IEAAXPEAVCCmdUI@@@Z @ 7031 NONAME
 ?OnUpdateRecentFileMenu@CWinApp@@IEAAXPEAVCCmdUI@@@Z @ 7032 NONAME
 ?OnUpdateRecordFirst@COleDBRecordView@@IEAAXPEAVCCmdUI@@@Z @ 7033 NONAME
 ?OnUpdateRecordFirst@CRecordView@@IEAAXPEAVCCmdUI@@@Z @ 7034 NONAME
 ?OnUpdateRecordLast@COleDBRecordView@@IEAAXPEAVCCmdUI@@@Z @ 7035 NONAME
 ?OnUpdateRecordLast@CRecordView@@IEAAXPEAVCCmdUI@@@Z @ 7036 NONAME
 ?OnUpdateRecordNext@COleDBRecordView@@IEAAXPEAVCCmdUI@@@Z @ 7037 NONAME
 ?OnUpdateRecordNext@CRecordView@@IEAAXPEAVCCmdUI@@@Z @ 7038 NONAME
 ?OnUpdateRecordPrev@COleDBRecordView@@IEAAXPEAVCCmdUI@@@Z @ 7039 NONAME
 ?OnUpdateRecordPrev@CRecordView@@IEAAXPEAVCCmdUI@@@Z @ 7040 NONAME
 ?OnUpdateSplitCmd@CView@@IEAAXPEAVCCmdUI@@@Z @ 7041 NONAME
 ?OnUpdateUI@CHtmlView@@UEAAJXZ @ 7042 NONAME
 ?OnUpdateUIState@CWnd@@IEAAXII@Z @ 7043 NONAME
 ?OnUpdateZoomIn@CPreviewView@@IEAAXPEAVCCmdUI@@@Z @ 7044 NONAME
 ?OnUpdateZoomOut@CPreviewView@@IEAAXPEAVCCmdUI@@@Z @ 7045 NONAME
 ?OnUserChanged@CWnd@@IEAAXXZ @ 7046 NONAME
 ?OnViewChange@XAdviseSink@COleClientItem@@UEAAXKJ@Z @ 7047 NONAME
 ?OnVisible@CHtmlView@@UEAAXH@Z @ 7048 NONAME
 ?OnVKeyToItem@CWnd@@IEAAHIPEAVCListBox@@I@Z @ 7049 NONAME
 ?OnVScroll@CFrameWnd@@IEAAXIIPEAVCScrollBar@@@Z @ 7050 NONAME
 ?OnVScroll@CPreviewView@@IEAAXIIPEAVCScrollBar@@@Z @ 7051 NONAME
 ?OnVScroll@CScrollView@@QEAAXIIPEAVCScrollBar@@@Z @ 7052 NONAME
 ?OnVScroll@CSplitterWnd@@IEAAXIIPEAVCScrollBar@@@Z @ 7053 NONAME
 ?OnVScroll@CWnd@@IEAAXIIPEAVCScrollBar@@@Z @ 7054 NONAME
 ?OnVScrollClipboard@CWnd@@IEAAXPEAV1@II@Z @ 7055 NONAME
 ?OnWindowFromPoint@CToolTipCtrl@@IEAA_J_K_J@Z @ 7056 NONAME
 ?OnWindowlessMessage@COleControl@@UEAAHI_K_JPEA_J@Z @ 7057 NONAME
 ?OnWindowMaximizedChange@CWnd@@IEAAXH@Z @ 7058 NONAME
 ?OnWindowMessage@XOleInPlaceObject@COleControl@@UEAAJI_K_JPEA_J@Z @ 7059 NONAME
 ?OnWindowNew@CMDIFrameWnd@@IEAAXXZ @ 7060 NONAME
 ?OnWindowPosChanged@CWnd@@IEAAXPEAUtagWINDOWPOS@@@Z @ 7061 NONAME
 ?OnWindowPosChanging@CControlBar@@QEAAXPEAUtagWINDOWPOS@@@Z @ 7062 NONAME
 ?OnWindowPosChanging@CDockBar@@IEAAXPEAUtagWINDOWPOS@@@Z @ 7063 NONAME
 ?OnWindowPosChanging@CMDIChildWnd@@IEAAXPEAUtagWINDOWPOS@@@Z @ 7064 NONAME
 ?OnWindowPosChanging@COleIPFrameWnd@@IEAAXPEAUtagWINDOWPOS@@@Z @ 7065 NONAME
 ?OnWindowPosChanging@CStatusBar@@IEAAXPEAUtagWINDOWPOS@@@Z @ 7066 NONAME
 ?OnWindowPosChanging@CToolBar@@IEAAXPEAUtagWINDOWPOS@@@Z @ 7067 NONAME
 ?OnWindowPosChanging@CWnd@@IEAAXPEAUtagWINDOWPOS@@@Z @ 7068 NONAME
 ?OnWinIniChange@CWnd@@IEAAXPEB_W@Z @ 7069 NONAME
 ?OnWizardBack@CPropertyPage@@UEAA_JXZ @ 7070 NONAME
 ?OnWizardFinish@CPropertyPage@@UEAAHXZ @ 7071 NONAME
 ?OnWizardFinishEx@CPropertyPage@@UEAAPEAUHWND__@@XZ @ 7072 NONAME
 ?OnWizardNext@CPropertyPage@@UEAA_JXZ @ 7073 NONAME
 ?OnWndMsg@CWnd@@MEAAHI_K_JPEA_J@Z @ 7074 NONAME
 ?OnXButtonDblClk@CWnd@@IEAAXIIVCPoint@@@Z @ 7075 NONAME
 ?OnXButtonDown@CWnd@@IEAAXIIVCPoint@@@Z @ 7076 NONAME
 ?OnXButtonUp@CWnd@@IEAAXIIVCPoint@@@Z @ 7077 NONAME
 ?OnZoomIn@CPreviewView@@IEAAXXZ @ 7078 NONAME
 ?OnZoomOut@CPreviewView@@IEAAXXZ @ 7079 NONAME
 ?Open@CAnimateCtrl@@QEAAHI@Z @ 7080 NONAME
 ?Open@CAnimateCtrl@@QEAAHPEB_W@Z @ 7081 NONAME
 ?Open@CAsyncMonikerFile@@UEAAHPEAUIMoniker@@PEAUIBindHost@@PEAVCFileException@@@Z @ 7082 NONAME
 ?Open@CAsyncMonikerFile@@UEAAHPEAUIMoniker@@PEAUIServiceProvider@@PEAVCFileException@@@Z @ 7083 NONAME
 ?Open@CAsyncMonikerFile@@UEAAHPEAUIMoniker@@PEAUIUnknown@@PEAVCFileException@@@Z @ 7084 NONAME
 ?Open@CAsyncMonikerFile@@UEAAHPEAUIMoniker@@PEAVCFileException@@@Z @ 7085 NONAME
 ?Open@CAsyncMonikerFile@@UEAAHPEB_WPEAUIBindHost@@PEAVCFileException@@@Z @ 7086 NONAME
 ?Open@CAsyncMonikerFile@@UEAAHPEB_WPEAUIServiceProvider@@PEAVCFileException@@@Z @ 7087 NONAME
 ?Open@CAsyncMonikerFile@@UEAAHPEB_WPEAUIUnknown@@PEAVCFileException@@@Z @ 7088 NONAME
 ?Open@CAsyncMonikerFile@@UEAAHPEB_WPEAVCFileException@@@Z @ 7089 NONAME
 ?Open@CDatabase@@UEAAHPEB_WHH0H@Z @ 7090 NONAME
 ?Open@CDataPathProperty@@UEAAHPEAVCFileException@@@Z @ 7091 NONAME
 ?Open@CDataPathProperty@@UEAAHPEAVCOleControl@@PEAVCFileException@@@Z @ 7092 NONAME
 ?Open@CDataPathProperty@@UEAAHPEB_WPEAVCFileException@@@Z @ 7093 NONAME
 ?Open@CDataPathProperty@@UEAAHPEB_WPEAVCOleControl@@PEAVCFileException@@@Z @ 7094 NONAME
 ?Open@CFile@@UEAAHPEB_WIPEAVCFileException@@@Z @ 7095 NONAME
 ?Open@CMirrorFile@@UEAAHPEB_WIPEAVCFileException@@@Z @ 7096 NONAME
 ?Open@CMonikerFile@@MEAAHPEAUIMoniker@@PEAUIBindHost@@PEAUIBindStatusCallback@@PEAUIBindCtx@@PEAVCFileException@@@Z @ 7097 NONAME
 ?Open@CMonikerFile@@MEAAHPEB_WPEAUIBindHost@@PEAUIBindStatusCallback@@PEAUIBindCtx@@PEAVCFileException@@@Z @ 7098 NONAME
 ?Open@CMonikerFile@@UEAAHPEAUIMoniker@@PEAVCFileException@@@Z @ 7099 NONAME
 ?Open@CMonikerFile@@UEAAHPEB_WPEAVCFileException@@@Z @ 7100 NONAME
 ?Open@CRecordset@@UEAAHIPEB_WK@Z @ 7101 NONAME
 ?Open@CSocketFile@@UEAAHPEB_WIPEAVCFileException@@@Z @ 7102 NONAME
 ?Open@CStdioFile@@UEAAHPEB_WIPEAVCFileException@@@Z @ 7103 NONAME
 ?Open@XOleDocumentView@CDocObjectServer@@UEAAJXZ @ 7104 NONAME
 ?OpenClipboard@CWnd@@QEAAHXZ @ 7105 NONAME
 ?OpenDocumentFile@CDocManager@@UEAAPEAVCDocument@@PEB_W@Z @ 7106 NONAME
 ?OpenDocumentFile@CMultiDocTemplate@@UEAAPEAVCDocument@@PEB_WH@Z @ 7107 NONAME
 ?OpenDocumentFile@CSingleDocTemplate@@UEAAPEAVCDocument@@PEB_WH@Z @ 7108 NONAME
 ?OpenDocumentFile@CWinApp@@UEAAPEAVCDocument@@PEB_W@Z @ 7109 NONAME
 ?OpenEx@CDatabase@@UEAAHPEB_WK@Z @ 7110 NONAME
 ?OpenFile@CFtpConnection@@QEAAPEAVCInternetFile@@PEB_WKK_K@Z @ 7111 NONAME
 ?OpenFile@CGopherConnection@@QEAAPEAVCGopherFile@@AEAVCGopherLocator@@KPEB_W_K@Z @ 7112 NONAME
 ?OpenIcon@CWnd@@QEAAHXZ @ 7113 NONAME
 ?OpenLinkSource@COleUILinkInfo@@UEAAJK@Z @ 7114 NONAME
 ?OpenRequest@CHttpConnection@@QEAAPEAVCHttpFile@@HPEB_W0_KPEAPEB_W0K@Z @ 7115 NONAME
 ?OpenRequest@CHttpConnection@@QEAAPEAVCHttpFile@@PEB_W00_KPEAPEB_W0K@Z @ 7116 NONAME
 ?OpenStream@COleStreamFile@@QEAAHPEAUIStorage@@PEB_WKPEAVCFileException@@@Z @ 7117 NONAME
 ?OpenThemeData@CThemeHelper@@SAPEAXPEAUHWND__@@PEB_W@Z @ 7118 NONAME
 ?OpenThemeDataFail@CThemeHelper@@CAPEAXPEAUHWND__@@PEB_W@Z @ 7119 NONAME
 ?OpenURL@CHtmlEditDoc@@UEAAHPEB_W@Z @ 7120 NONAME
 ?OpenURL@CInternetSession@@QEAAPEAVCStdioFile@@PEB_W_KK0K@Z @ 7121 NONAME
 ?OrderToIndex@CHeaderCtrl@@QEBAHH@Z @ 7122 NONAME
 ?OsErrorToException@CFileException@@SAHJ@Z @ 7123 NONAME
 ?OutputString@CDumpContext@@IEAAXPEB_W@Z @ 7124 NONAME
 ?PaginateTo@CEditView@@IEAAHPEAVCDC@@PEAUCPrintInfo@@@Z @ 7125 NONAME
 ?PaginateTo@CRichEditView@@IEAAHPEAVCDC@@PEAUCPrintInfo@@@Z @ 7126 NONAME
 ?PaintHookProc@CPageSetupDialog@@KAIPEAUHWND__@@I_K_J@Z @ 7127 NONAME
 ?PaintRgn@CDC@@QEAAHPEAVCRgn@@@Z @ 7128 NONAME
 ?PaintWindowlessControls@CWnd@@QEAAHPEAVCDC@@@Z @ 7129 NONAME
 ?ParentToClient@COleControl@@UEBAIPEBUtagRECT@@PEAUtagPOINT@@H@Z @ 7130 NONAME
 ?ParseCommandLine@CWinApp@@QEAAXAEAVCCommandLineInfo@@@Z @ 7131 NONAME
 ?ParseCurrency@COleCurrency@@QEAAHPEB_WKK@Z @ 7132 NONAME
 ?ParseDisplayName@XOleContainer@COleControlContainer@@UEAAJPEAUIBindCtx@@PEA_WPEAKPEAPEAUIMoniker@@@Z @ 7133 NONAME
 ?ParseDisplayName@XOleItemContainer@COleLinkingDoc@@UEAAJPEAUIBindCtx@@PEA_WPEAKPEAPEAUIMoniker@@@Z @ 7134 NONAME
 ?ParseLast@CCommandLineInfo@@IEAAXH@Z @ 7135 NONAME
 ?ParseParam@CCommandLineInfo@@UEAAXPEB_WHH@Z @ 7136 NONAME
 ?ParseParam@CCommandLineInfo@@UEAAXPEBDHH@Z @ 7137 NONAME
 ?ParseParamFlag@CCommandLineInfo@@IEAAXPEBD@Z @ 7138 NONAME
 ?ParseParamNotFlag@CCommandLineInfo@@IEAAXPEB_W@Z @ 7139 NONAME
 ?ParseParamNotFlag@CCommandLineInfo@@IEAAXPEBD@Z @ 7140 NONAME
 ?Paste@CComboBox@@QEAAXXZ @ 7141 NONAME
 ?Paste@CEdit@@QEAAXXZ @ 7142 NONAME
 ?Paste@CRichEditCtrl@@QEAAXXZ @ 7143 NONAME
 ?PasteSpecial@CRichEditCtrl@@QEAAXIKPEAUHMETAFILE__@@@Z @ 7144 NONAME
 ?PatBlt@CDC@@QEAAHHHHHK@Z @ 7145 NONAME
 ?PGetFirstAssoc@CMapStringToString@@QEAAPEAUCPair@1@XZ @ 7146 NONAME
 ?PGetFirstAssoc@CMapStringToString@@QEBAPEBUCPair@1@XZ @ 7147 NONAME
 ?PGetNextAssoc@CMapStringToString@@QEAAPEAUCPair@1@PEBU21@@Z @ 7148 NONAME
 ?PGetNextAssoc@CMapStringToString@@QEBAPEBUCPair@1@PEBU21@@Z @ 7149 NONAME
 ?Pie@CDC@@QEAAHHHHHHHHH@Z @ 7150 NONAME
 ?Pie@CDC@@QEAAHPEBUtagRECT@@UtagPOINT@@1@Z @ 7151 NONAME
 ?Play@CAnimateCtrl@@QEAAHIII@Z @ 7152 NONAME
 ?PlayMetaFile@CDC@@QEAAHPEAUHENHMETAFILE__@@PEBUtagRECT@@@Z @ 7153 NONAME
 ?PlayMetaFile@CDC@@QEAAHPEAUHMETAFILE__@@@Z @ 7154 NONAME
 ?PlgBlt@CDC@@QEAAHPEAUtagPOINT@@PEAV1@HHHHAEAVCBitmap@@HH@Z @ 7155 NONAME
 ?PLookup@CMapStringToString@@QEAAPEAUCPair@1@PEB_W@Z @ 7156 NONAME
 ?PLookup@CMapStringToString@@QEBAPEBUCPair@1@PEB_W@Z @ 7157 NONAME
 ?PolyBezier@CDC@@QEAAHPEBUtagPOINT@@H@Z @ 7158 NONAME
 ?PolyBezierTo@CDC@@QEAAHPEBUtagPOINT@@H@Z @ 7159 NONAME
 ?PolyDraw@CDC@@QEAAHPEBUtagPOINT@@PEBEH@Z @ 7160 NONAME
 ?Polygon@CDC@@QEAAHPEBUtagPOINT@@H@Z @ 7161 NONAME
 ?Polyline@CDC@@QEAAHPEBUtagPOINT@@H@Z @ 7162 NONAME
 ?PolylineTo@CDC@@QEAAHPEBUtagPOINT@@H@Z @ 7163 NONAME
 ?PolyPolygon@CDC@@QEAAHPEBUtagPOINT@@PEBHH@Z @ 7164 NONAME
 ?PolyPolyline@CDC@@QEAAHPEBUtagPOINT@@PEBKH@Z @ 7165 NONAME
 ?Pop@CToolTipCtrl@@QEAAXXZ @ 7166 NONAME
 ?Popup@CToolTipCtrl@@QEAAXXZ @ 7167 NONAME
 ?PosFromChar@CEdit@@QEBA?AVCPoint@@I@Z @ 7168 NONAME
 ?PosFromChar@CRichEditCtrl@@QEBA?AVCPoint@@I@Z @ 7169 NONAME
 ?PositionPage@CPreviewView@@MEAAXI@Z @ 7170 NONAME
 ?PostBindToStream@CAsyncMonikerFile@@MEAAHPEAVCFileException@@@Z @ 7171 NONAME
 ?PostBindToStream@CMonikerFile@@MEAAHPEAVCFileException@@@Z @ 7172 NONAME
 ?PostCreateDialog@COccManager@@UEAAXPEAU_AFX_OCC_DIALOG_INFO@@@Z @ 7173 NONAME
 ?PostMessageW@CWnd@@QEAAHI_K_J@Z @ 7174 NONAME
 ?PostModal@CDialog@@IEAAXXZ @ 7175 NONAME
 ?PostModal@CPrintDialogEx@@QEAAXXZ @ 7176 NONAME
 ?PostModalDialog@COleControl@@QEAAXPEAUHWND__@@@Z @ 7177 NONAME
 ?PostNcDestroy@CControlBar@@UEAAXXZ @ 7178 NONAME
 ?PostNcDestroy@CControlFrameWnd@@MEAAXXZ @ 7179 NONAME
 ?PostNcDestroy@CFindReplaceDialog@@MEAAXXZ @ 7180 NONAME
 ?PostNcDestroy@CFrameWnd@@MEAAXXZ @ 7181 NONAME
 ?PostNcDestroy@COleCntrFrameWnd@@MEAAXXZ @ 7182 NONAME
 ?PostNcDestroy@CReflectorWnd@@MEAAXXZ @ 7183 NONAME
 ?PostNcDestroy@CView@@MEAAXXZ @ 7184 NONAME
 ?PostNcDestroy@CWnd@@MEAAXXZ @ 7185 NONAME
 ?PostThreadMessageW@CWinThread@@QEAAHI_K_J@Z @ 7186 NONAME
 ?Preallocate@?$CSimpleStringT@_W$00@ATL@@QEAAXH@Z @ 7187 NONAME
 ?Preallocate@?$CSimpleStringT@D$00@ATL@@QEAAXH@Z @ 7188 NONAME
 ?PreBindFields@CRecordset@@UEAAXXZ @ 7189 NONAME
 ?PreCloseFrame@CDocument@@UEAAXPEAVCFrameWnd@@@Z @ 7190 NONAME
 ?PreCloseFrame@COleDocument@@UEAAXPEAVCFrameWnd@@@Z @ 7191 NONAME
 ?PreCloseFrame@CRichEditDoc@@UEAAXPEAVCFrameWnd@@@Z @ 7192 NONAME
 ?PreCompareItem@CCheckListBox@@IEAAHPEAUtagCOMPAREITEMSTRUCT@@@Z @ 7193 NONAME
 ?PreCreateDialog@COccManager@@UEAAPEBUDLGTEMPLATE@@PEAU_AFX_OCC_DIALOG_INFO@@PEBU2@@Z @ 7194 NONAME
 ?PreCreateWindow@CControlBar@@UEAAHAEAUtagCREATESTRUCTW@@@Z @ 7195 NONAME
 ?PreCreateWindow@CControlFrameWnd@@UEAAHAEAUtagCREATESTRUCTW@@@Z @ 7196 NONAME
 ?PreCreateWindow@CCtrlView@@MEAAHAEAUtagCREATESTRUCTW@@@Z @ 7197 NONAME
 ?PreCreateWindow@CEditView@@MEAAHAEAUtagCREATESTRUCTW@@@Z @ 7198 NONAME
 ?PreCreateWindow@CFrameWnd@@MEAAHAEAUtagCREATESTRUCTW@@@Z @ 7199 NONAME
 ?PreCreateWindow@CHtmlView@@UEAAHAEAUtagCREATESTRUCTW@@@Z @ 7200 NONAME
 ?PreCreateWindow@CListView@@UEAAHAEAUtagCREATESTRUCTW@@@Z @ 7201 NONAME
 ?PreCreateWindow@CMDIChildWnd@@UEAAHAEAUtagCREATESTRUCTW@@@Z @ 7202 NONAME
 ?PreCreateWindow@CMDIFrameWnd@@UEAAHAEAUtagCREATESTRUCTW@@@Z @ 7203 NONAME
 ?PreCreateWindow@CMiniFrameWnd@@MEAAHAEAUtagCREATESTRUCTW@@@Z @ 7204 NONAME
 ?PreCreateWindow@CRichEditView@@MEAAHAEAUtagCREATESTRUCTW@@@Z @ 7205 NONAME
 ?PreCreateWindow@CStatusBar@@UEAAHAEAUtagCREATESTRUCTW@@@Z @ 7206 NONAME
 ?PreCreateWindow@CTreeView@@UEAAHAEAUtagCREATESTRUCTW@@@Z @ 7207 NONAME
 ?PreCreateWindow@CView@@MEAAHAEAUtagCREATESTRUCTW@@@Z @ 7208 NONAME
 ?PreCreateWindow@CWnd@@UEAAHAEAUtagCREATESTRUCTW@@@Z @ 7209 NONAME
 ?PreDeleteItem@CCheckListBox@@IEAAXPEAUtagDELETEITEMSTRUCT@@@Z @ 7210 NONAME
 ?PreDrawItem@CCheckListBox@@IEAAXPEAUtagDRAWITEMSTRUCT@@@Z @ 7211 NONAME
 ?PreDrawItemHelper@CCheckListBox@@IEAAXPEAUtagDRAWITEMSTRUCT@@@Z @ 7212 NONAME
 ?PreDrawItemNonThemed@CCheckListBox@@IEAAXPEAVCDC@@AEAUtagDRAWITEMSTRUCT@@HH@Z @ 7213 NONAME
 ?PreDrawItemThemed@CCheckListBox@@IEAA_NPEAVCDC@@AEAUtagDRAWITEMSTRUCT@@HH@Z @ 7214 NONAME
 ?PreDrawPage@CPageSetupDialog@@UEAAIGGPEAUtagPSDW@@@Z @ 7215 NONAME
 ?PreInitDialog@CDialog@@MEAAXXZ @ 7216 NONAME
 ?PreInitDialog@COleChangeSourceDialog@@UEAAXXZ @ 7217 NONAME
 ?PreMeasureItem@CCheckListBox@@IEAAXPEAUtagMEASUREITEMSTRUCT@@@Z @ 7218 NONAME
 ?PreModal@CDialog@@IEAAPEAUHWND__@@XZ @ 7219 NONAME
 ?PreModal@CPrintDialogEx@@QEAAPEAUHWND__@@XZ @ 7220 NONAME
 ?PreModalDialog@COleControl@@QEAAXPEAUHWND__@@@Z @ 7221 NONAME
 ?PrepareAndExecute@CRecordset@@IEAAXXZ @ 7222 NONAME
 ?PrepareCtrl@CDataExchange@@QEAAPEAUHWND__@@H@Z @ 7223 NONAME
 ?PrepareEditCtrl@CDataExchange@@QEAAPEAUHWND__@@H@Z @ 7224 NONAME
 ?PrepareForHelp@CWnd@@QEAAXXZ @ 7225 NONAME
 ?PrepareOleCtrl@CDataExchange@@QEAAPEAVCOleControlSite@@H@Z @ 7226 NONAME
 ?PrepareUpdateHstmt@CRecordset@@IEAAXXZ @ 7227 NONAME
 ?PrepareWrite@?$CSimpleStringT@_W$00@ATL@@AEAAPEA_WH@Z @ 7228 NONAME
 ?PrepareWrite@?$CSimpleStringT@D$00@ATL@@AEAAPEADH@Z @ 7229 NONAME
 ?PrepareWrite2@?$CSimpleStringT@_W$00@ATL@@AEAAXH@Z @ 7230 NONAME
 ?PrepareWrite2@?$CSimpleStringT@D$00@ATL@@AEAAXH@Z @ 7231 NONAME
 ?PreProcessPageTemplate@CPropertyPage@@IEAAXAEAU_PROPSHEETPAGEW@@H@Z @ 7232 NONAME
 ?PressButton@CPropertySheet@@QEAAXH@Z @ 7233 NONAME
 ?PressButton@CToolBarCtrl@@QEAAHHH@Z @ 7234 NONAME
 ?PreSubclassWindow@CCheckListBox@@MEAAXXZ @ 7235 NONAME
 ?PreSubclassWindow@CDragListBox@@UEAAXXZ @ 7236 NONAME
 ?PreSubclassWindow@CWnd@@UEAAXXZ @ 7237 NONAME
 ?PreTranslateInput@CWnd@@QEAAHPEAUtagMSG@@@Z @ 7238 NONAME
 ?PreTranslateMessage@CControlBar@@UEAAHPEAUtagMSG@@@Z @ 7239 NONAME
 ?PreTranslateMessage@CDialog@@UEAAHPEAUtagMSG@@@Z @ 7240 NONAME
 ?PreTranslateMessage@CFormView@@MEAAHPEAUtagMSG@@@Z @ 7241 NONAME
 ?PreTranslateMessage@CFrameWnd@@UEAAHPEAUtagMSG@@@Z @ 7242 NONAME
 ?PreTranslateMessage@CHtmlView@@UEAAHPEAUtagMSG@@@Z @ 7243 NONAME
 ?PreTranslateMessage@CMDIChildWnd@@UEAAHPEAUtagMSG@@@Z @ 7244 NONAME
 ?PreTranslateMessage@CMDIFrameWnd@@UEAAHPEAUtagMSG@@@Z @ 7245 NONAME
 ?PreTranslateMessage@COleIPFrameWnd@@UEAAHPEAUtagMSG@@@Z @ 7246 NONAME
 ?PreTranslateMessage@COlePropertyPage@@MEAAHPEAUtagMSG@@@Z @ 7247 NONAME
 ?PreTranslateMessage@CPropertyPage@@MEAAHPEAUtagMSG@@@Z @ 7248 NONAME
 ?PreTranslateMessage@CPropertySheet@@UEAAHPEAUtagMSG@@@Z @ 7249 NONAME
 ?PreTranslateMessage@CWinThread@@UEAAHPEAUtagMSG@@@Z @ 7250 NONAME
 ?PreTranslateMessage@CWnd@@UEAAHPEAUtagMSG@@@Z @ 7251 NONAME
 ?PrevDlgCtrl@CDialog@@QEBAXXZ @ 7252 NONAME
 ?Print@CWnd@@QEBAXPEAVCDC@@K@Z @ 7253 NONAME
 ?Print@XPrint@CDocObjectServer@@UEAAJKPEAPEAUtagDVTARGETDEVICE@@PEAPEAUtagPAGESET@@PEAUtagSTGMEDIUM@@PEAUIContinueCallback@@JPEAJ4@Z @ 7254 NONAME
 ?PrintAll@CPrintDialog@@QEBAHXZ @ 7255 NONAME
 ?PrintAll@CPrintDialogEx@@QEBAHXZ @ 7256 NONAME
 ?PrintClient@CWnd@@QEBAXPEAVCDC@@K@Z @ 7257 NONAME
 ?PrintCollate@CPrintDialog@@QEBAHXZ @ 7258 NONAME
 ?PrintCollate@CPrintDialogEx@@QEBAHXZ @ 7259 NONAME
 ?PrintCurrentPage@CPrintDialogEx@@QEBAHXZ @ 7260 NONAME
 ?PrinterDPtoScreenDP@CPreviewDC@@QEBAXPEAUtagPOINT@@@Z @ 7261 NONAME
 ?PrintInsideRect@CEditView@@QEAAIPEAVCDC@@AEAUtagRECT@@II@Z @ 7262 NONAME
 ?PrintInsideRect@CRichEditView@@QEAAJPEAVCDC@@AEAUtagRECT@@JJH@Z @ 7263 NONAME
 ?PrintPage@CRichEditView@@QEAAJPEAVCDC@@JJ@Z @ 7264 NONAME
 ?PrintRange@CPrintDialog@@QEBAHXZ @ 7265 NONAME
 ?PrintRange@CPrintDialogEx@@QEBAHXZ @ 7266 NONAME
 ?PrintSelection@CPrintDialog@@QEBAHXZ @ 7267 NONAME
 ?PrintSelection@CPrintDialogEx@@QEBAHXZ @ 7268 NONAME
 ?Process@COleDispatchException@@SAXPEAUtagEXCEPINFO@@PEBVCException@@@Z @ 7269 NONAME
 ?Process@COleException@@SAJPEBVCException@@@Z @ 7270 NONAME
 ?ProcessAuxQueue@CSocket@@SAHXZ @ 7271 NONAME
 ?ProcessHelpMsg@CFrameWnd@@IEAAHAEAUtagMSG@@PEAK@Z @ 7272 NONAME
 ?ProcessMessageFilter@CWinThread@@UEAAHHPEAUtagMSG@@@Z @ 7273 NONAME
 ?ProcessShellCommand@CWinApp@@QEAAHAEAVCCommandLineInfo@@@Z @ 7274 NONAME
 ?ProcessWndProcException@CWinApp@@UEAA_JPEAVCException@@PEBUtagMSG@@@Z @ 7275 NONAME
 ?ProcessWndProcException@CWinThread@@UEAA_JPEAVCException@@PEBUtagMSG@@@Z @ 7276 NONAME
 ?PtInRegion@CRgn@@QEBAHHH@Z @ 7277 NONAME
 ?PtInRegion@CRgn@@QEBAHUtagPOINT@@@Z @ 7278 NONAME
 ?PtrOfIndex@COleSafeArray@@QEAAXPEAJPEAPEAX@Z @ 7279 NONAME
 ?PtVisible@CDC@@QEBAHUtagPOINT@@@Z @ 7280 NONAME
 ?PtVisible@CDC@@UEBAHHH@Z @ 7281 NONAME
 ?PtVisible@CMetaFileDC@@QEBAHUtagPOINT@@@Z @ 7282 NONAME
 ?PtVisible@CMetaFileDC@@UEBAHHH@Z @ 7283 NONAME
 ?PulseEvent@CEvent@@QEAAHXZ @ 7284 NONAME
 ?PumpMessage@CWinThread@@UEAAHXZ @ 7285 NONAME
 ?PumpMessages@CSocket@@MEAAHI@Z @ 7286 NONAME
 ?PushChevron@CReBarCtrl@@QEAAXI_J@Z @ 7287 NONAME
 ?PushStackArgs@CCmdTarget@@IEAAJPEAEPEBEPEAXGPEAUtagDISPPARAMS@@PEAIPEAUtagVARIANT@@PEAVCVariantBoolConverter@@@Z @ 7288 NONAME
 ?put_accName@CWnd@@UEAAJUtagVARIANT@@PEA_W@Z @ 7289 NONAME
 ?put_accName@XAccessible@CWnd@@UEAAJUtagVARIANT@@PEA_W@Z @ 7290 NONAME
 ?put_accValue@CWnd@@UEAAJUtagVARIANT@@PEA_W@Z @ 7291 NONAME
 ?put_accValue@XAccessible@CWnd@@UEAAJUtagVARIANT@@PEA_W@Z @ 7292 NONAME
 ?PutElement@COleSafeArray@@QEAAXPEAJPEAX@Z @ 7293 NONAME
 ?PutFile@CFtpConnection@@QEAAHPEB_W0K_K@Z @ 7294 NONAME
 ?PutProperty@CHtmlView@@QEAAXPEB_W0@Z @ 7295 NONAME
 ?PutProperty@CHtmlView@@QEAAXPEB_WAEBUtagVARIANT@@@Z @ 7296 NONAME
 ?PutProperty@CHtmlView@@QEAAXPEB_WF@Z @ 7297 NONAME
 ?PutProperty@CHtmlView@@QEAAXPEB_WJ@Z @ 7298 NONAME
 ?PutProperty@CHtmlView@@QEAAXPEB_WN@Z @ 7299 NONAME
 ?PX_Blob@@YAHPEAVCPropExchange@@PEB_WAEAPEAXPEAX@Z @ 7300 NONAME
 ?PX_Bool@@YAHPEAVCPropExchange@@PEB_WAEAH@Z @ 7301 NONAME
 ?PX_Bool@@YAHPEAVCPropExchange@@PEB_WAEAHH@Z @ 7302 NONAME
 ?PX_Color@@YAHPEAVCPropExchange@@PEB_WAEAK@Z @ 7303 NONAME
 ?PX_Color@@YAHPEAVCPropExchange@@PEB_WAEAKK@Z @ 7304 NONAME
 ?PX_Currency@@YAHPEAVCPropExchange@@PEB_WAEATtagCY@@@Z @ 7305 NONAME
 ?PX_Currency@@YAHPEAVCPropExchange@@PEB_WAEATtagCY@@T2@@Z @ 7306 NONAME
 ?PX_DataPath@@YAHPEAVCPropExchange@@PEB_WAEAVCDataPathProperty@@1@Z @ 7307 NONAME
 ?PX_DataPath@@YAHPEAVCPropExchange@@PEB_WAEAVCDataPathProperty@@AEBV?$CStringT@_WV?$StrTraitMFC_DLL@_WV?$ChTraitsCRT@_W@ATL@@@@@ATL@@@Z @ 7308 NONAME
 ?PX_Double@@YAHPEAVCPropExchange@@PEB_WAEAN@Z @ 7309 NONAME
 ?PX_Double@@YAHPEAVCPropExchange@@PEB_WAEANN@Z @ 7310 NONAME
 ?PX_Float@@YAHPEAVCPropExchange@@PEB_WAEAM@Z @ 7311 NONAME
 ?PX_Float@@YAHPEAVCPropExchange@@PEB_WAEAMM@Z @ 7312 NONAME
 ?PX_Font@@YAHPEAVCPropExchange@@PEB_WAEAVCFontHolder@@PEBUtagFONTDESC@@PEAUIFontDisp@@@Z @ 7313 NONAME
 ?PX_IUnknown@@YAHPEAVCPropExchange@@PEB_WAEAPEAUIUnknown@@AEBU_GUID@@PEAU2@@Z @ 7314 NONAME
 ?PX_Long@@YAHPEAVCPropExchange@@PEB_WAEAJ@Z @ 7315 NONAME
 ?PX_Long@@YAHPEAVCPropExchange@@PEB_WAEAJJ@Z @ 7316 NONAME
 ?PX_Picture@@YAHPEAVCPropExchange@@PEB_WAEAVCPictureHolder@@@Z @ 7317 NONAME
 ?PX_Picture@@YAHPEAVCPropExchange@@PEB_WAEAVCPictureHolder@@2@Z @ 7318 NONAME
 ?PX_Short@@YAHPEAVCPropExchange@@PEB_WAEAF@Z @ 7319 NONAME
 ?PX_Short@@YAHPEAVCPropExchange@@PEB_WAEAFF@Z @ 7320 NONAME
 ?PX_String@@YAHPEAVCPropExchange@@PEB_WAEAV?$CStringT@_WV?$StrTraitMFC_DLL@_WV?$ChTraitsCRT@_W@ATL@@@@@ATL@@@Z @ 7321 NONAME
 ?PX_String@@YAHPEAVCPropExchange@@PEB_WAEAV?$CStringT@_WV?$StrTraitMFC_DLL@_WV?$ChTraitsCRT@_W@ATL@@@@@ATL@@1@Z @ 7322 NONAME
 ?PX_String@@YAHPEAVCPropExchange@@PEB_WAEAV?$CStringT@_WV?$StrTraitMFC_DLL@_WV?$ChTraitsCRT@_W@ATL@@@@@ATL@@AEBV23@@Z @ 7323 NONAME
 ?PX_ULong@@YAHPEAVCPropExchange@@PEB_WAEAK@Z @ 7324 NONAME
 ?PX_ULong@@YAHPEAVCPropExchange@@PEB_WAEAKK@Z @ 7325 NONAME
 ?PX_UShort@@YAHPEAVCPropExchange@@PEB_WAEAG@Z @ 7326 NONAME
 ?PX_UShort@@YAHPEAVCPropExchange@@PEB_WAEAGG@Z @ 7327 NONAME
 ?PX_VBXFontConvert@@YAHPEAVCPropExchange@@AEAVCFontHolder@@@Z @ 7328 NONAME
 ?QueryAcceptData@CRichEditView@@MEAAJPEAUIDataObject@@PEAGKHPEAX@Z @ 7329 NONAME
 ?QueryAcceptData@XRichEditOleCallback@CRichEditView@@UEAAJPEAUIDataObject@@PEAGKHPEAX@Z @ 7330 NONAME
 ?QueryAggregates@CCmdTarget@@QEAAPEAUIUnknown@@PEBX@Z @ 7331 NONAME
 ?QueryCommand@COleDocObjectItem@@QEAAJKPEAKPEAU_tagOLECMDTEXT@@PEBU_GUID@@@Z @ 7332 NONAME
 ?QueryContinueDrag@COleDropSource@@UEAAJHK@Z @ 7333 NONAME
 ?QueryContinueDrag@XDropSource@COleDropSource@@UEAAJHK@Z @ 7334 NONAME
 ?QueryDefHandler@COleControl@@IEAAPEAXAEBU_GUID@@@Z @ 7335 NONAME
 ?QueryFormsCommand@CHtmlView@@QEAAJKPEAH00@Z @ 7336 NONAME
 ?QueryGetData@XDataObject@COleControl@@UEAAJPEAUtagFORMATETC@@@Z @ 7337 NONAME
 ?QueryGetData@XDataObject@COleDataSource@@UEAAJPEAUtagFORMATETC@@@Z @ 7338 NONAME
 ?QueryGetData@XDataObject@COleServerDoc@@UEAAJPEAUtagFORMATETC@@@Z @ 7339 NONAME
 ?QueryGetData@XDataObject@COleServerItem@@UEAAJPEAUtagFORMATETC@@@Z @ 7340 NONAME
 ?QueryHitPoint@XViewObject@COleControl@@UEAAJKPEBUtagRECT@@UtagPOINT@@JPEAK@Z @ 7341 NONAME
 ?QueryHitRect@XViewObject@COleControl@@UEAAJKPEBUtagRECT@@0JPEAK@Z @ 7342 NONAME
 ?QueryInfo@CHttpFile@@QEBAHKAEAKPEAK@Z @ 7343 NONAME
 ?QueryInfo@CHttpFile@@QEBAHKAEAV?$CStringT@_WV?$StrTraitMFC_DLL@_WV?$ChTraitsCRT@_W@ATL@@@@@ATL@@PEAK@Z @ 7344 NONAME
 ?QueryInfo@CHttpFile@@QEBAHKPEAU_SYSTEMTIME@@PEAK@Z @ 7345 NONAME
 ?QueryInfo@CHttpFile@@QEBAHKPEAXPEAK1@Z @ 7346 NONAME
 ?QueryInfoStatusCode@CHttpFile@@QEBAHAEAK@Z @ 7347 NONAME
 ?QueryInsertObject@XRichEditOleCallback@CRichEditView@@UEAAJPEAU_GUID@@PEAUIStorage@@J@Z @ 7348 NONAME
 ?QueryInterface@CArchiveStream@@UEAAJAEBU_GUID@@PEAPEAX@Z @ 7349 NONAME
 ?QueryInterface@CBlobProperty@@UEAAJAEBU_GUID@@PEAPEAX@Z @ 7350 NONAME
 ?QueryInterface@CBrowserControlSite@@MEAAJAEBU_GUID@@PEAPEAX@Z @ 7351 NONAME
 ?QueryInterface@CDHtmlControlSink@@UEAAJAEBU_GUID@@PEAPEAX@Z @ 7352 NONAME
 ?QueryInterface@CDHtmlElementEventSink@@UEAAJAEBU_GUID@@PEAPEAX@Z @ 7353 NONAME
 ?QueryInterface@CInnerUnknown@@UEAAJAEBU_GUID@@PEAPEAX@Z @ 7354 NONAME
 ?QueryInterface@COleConnPtContainer@@UEAAJAEBU_GUID@@PEAPEAX@Z @ 7355 NONAME
 ?QueryInterface@COleDispatchImpl@@UEAAJAEBU_GUID@@PEAPEAX@Z @ 7356 NONAME
 ?QueryInterface@COleUILinkInfo@@UEAAJAEBU_GUID@@PEAPEAX@Z @ 7357 NONAME
 ?QueryInterface@CPrintDialogEx@@UEAAJAEBU_GUID@@PEAPEAX@Z @ 7358 NONAME
 ?QueryInterface@XAccessible@CWnd@@UEAAJAEBU_GUID@@PEAPEAX@Z @ 7359 NONAME
 ?QueryInterface@XAccessibleServer@CWnd@@UEAAJAEBU_GUID@@PEAPEAX@Z @ 7360 NONAME
 ?QueryInterface@XAdviseSink@COleClientItem@@UEAAJAEBU_GUID@@PEAPEAX@Z @ 7361 NONAME
 ?QueryInterface@XAmbientProps@COleControlSite@@UEAAJAEBU_GUID@@PEAPEAX@Z @ 7362 NONAME
 ?QueryInterface@XBoundObjectSite@COleControlSite@@UEAAJAEBU_GUID@@PEAPEAX@Z @ 7363 NONAME
 ?QueryInterface@XClassFactory@COleObjectFactory@@UEAAJAEBU_GUID@@PEAPEAX@Z @ 7364 NONAME
 ?QueryInterface@XConnPt@CConnectionPoint@@UEAAJAEBU_GUID@@PEAPEAX@Z @ 7365 NONAME
 ?QueryInterface@XDataObject@COleControl@@UEAAJAEBU_GUID@@PEAPEAX@Z @ 7366 NONAME
 ?QueryInterface@XDataObject@COleDataSource@@UEAAJAEBU_GUID@@PEAPEAX@Z @ 7367 NONAME
 ?QueryInterface@XDataObject@COleServerDoc@@UEAAJAEBU_GUID@@PEAPEAX@Z @ 7368 NONAME
 ?QueryInterface@XDataObject@COleServerItem@@UEAAJAEBU_GUID@@PEAPEAX@Z @ 7369 NONAME
 ?QueryInterface@XDocHostUIHandler@CHtmlControlSite@@UEAAJAEBU_GUID@@PEAPEAX@Z @ 7370 NONAME
 ?QueryInterface@XDropSource@COleDropSource@@UEAAJAEBU_GUID@@PEAPEAX@Z @ 7371 NONAME
 ?QueryInterface@XDropTarget@COleDropTarget@@UEAAJAEBU_GUID@@PEAPEAX@Z @ 7372 NONAME
 ?QueryInterface@XEnumVOID@CEnumArray@@UEAAJAEBU_GUID@@PEAPEAX@Z @ 7373 NONAME
 ?QueryInterface@XEventSink@COleControlSite@@UEAAJAEBU_GUID@@PEAPEAX@Z @ 7374 NONAME
 ?QueryInterface@XFileDialogControlEvents@CFileDialog@@UEAAJAEBU_GUID@@PEAPEAX@Z @ 7375 NONAME
 ?QueryInterface@XFileDialogEvents@CFileDialog@@UEAAJAEBU_GUID@@PEAPEAX@Z @ 7376 NONAME
 ?QueryInterface@XFontNotification@COleControl@@UEAAJAEBU_GUID@@PEAPEAX@Z @ 7377 NONAME
 ?QueryInterface@XMessageFilter@COleMessageFilter@@UEAAJAEBU_GUID@@PEAPEAX@Z @ 7378 NONAME
 ?QueryInterface@XNotifyDBEvents@COleControlSite@@UEAAJAEBU_GUID@@PEAPEAX@Z @ 7379 NONAME
 ?QueryInterface@XOleCache@COleControl@@UEAAJAEBU_GUID@@PEAPEAX@Z @ 7380 NONAME
 ?QueryInterface@XOleClientSite@COleClientItem@@UEAAJAEBU_GUID@@PEAPEAX@Z @ 7381 NONAME
 ?QueryInterface@XOleClientSite@COleControlSite@@UEAAJAEBU_GUID@@PEAPEAX@Z @ 7382 NONAME
 ?QueryInterface@XOleCommandTarget@CDocObjectServer@@UEAAJAEBU_GUID@@PEAPEAX@Z @ 7383 NONAME
 ?QueryInterface@XOleCommandTarget@COleFrameHook@@UEAAJAEBU_GUID@@PEAPEAX@Z @ 7384 NONAME
 ?QueryInterface@XOleContainer@COleControlContainer@@UEAAJAEBU_GUID@@PEAPEAX@Z @ 7385 NONAME
 ?QueryInterface@XOleControl@COleControl@@UEAAJAEBU_GUID@@PEAPEAX@Z @ 7386 NONAME
 ?QueryInterface@XOleControlSite@COleControlSite@@UEAAJAEBU_GUID@@PEAPEAX@Z @ 7387 NONAME
 ?QueryInterface@XOleDocument@CDocObjectServer@@UEAAJAEBU_GUID@@PEAPEAX@Z @ 7388 NONAME
 ?QueryInterface@XOleDocumentSite@COleDocObjectItem@@UEAAJAEBU_GUID@@PEAPEAX@Z @ 7389 NONAME
 ?QueryInterface@XOleDocumentView@CDocObjectServer@@UEAAJAEBU_GUID@@PEAPEAX@Z @ 7390 NONAME
 ?QueryInterface@XOleInPlaceActiveObject@COleControl@@UEAAJAEBU_GUID@@PEAPEAX@Z @ 7391 NONAME
 ?QueryInterface@XOleInPlaceActiveObject@COleServerDoc@@UEAAJAEBU_GUID@@PEAPEAX@Z @ 7392 NONAME
 ?QueryInterface@XOleInPlaceFrame@COleFrameHook@@UEAAJAEBU_GUID@@PEAPEAX@Z @ 7393 NONAME
 ?QueryInterface@XOleInPlaceObject@COleControl@@UEAAJAEBU_GUID@@PEAPEAX@Z @ 7394 NONAME
 ?QueryInterface@XOleInPlaceObject@COleServerDoc@@UEAAJAEBU_GUID@@PEAPEAX@Z @ 7395 NONAME
 ?QueryInterface@XOleIPFrame@COleControlContainer@@UEAAJAEBU_GUID@@PEAPEAX@Z @ 7396 NONAME
 ?QueryInterface@XOleIPSite@COleClientItem@@UEAAJAEBU_GUID@@PEAPEAX@Z @ 7397 NONAME
 ?QueryInterface@XOleIPSite@COleControlSite@@UEAAJAEBU_GUID@@PEAPEAX@Z @ 7398 NONAME
 ?QueryInterface@XOleItemContainer@COleLinkingDoc@@UEAAJAEBU_GUID@@PEAPEAX@Z @ 7399 NONAME
 ?QueryInterface@XOleObject@CDocObjectServer@@UEAAJAEBU_GUID@@PEAPEAX@Z @ 7400 NONAME
 ?QueryInterface@XOleObject@COleControl@@UEAAJAEBU_GUID@@PEAPEAX@Z @ 7401 NONAME
 ?QueryInterface@XOleObject@COleServerDoc@@UEAAJAEBU_GUID@@PEAPEAX@Z @ 7402 NONAME
 ?QueryInterface@XOleObject@COleServerItem@@UEAAJAEBU_GUID@@PEAPEAX@Z @ 7403 NONAME
 ?QueryInterface@XOleUIObjInfo@COlePropertiesDialog@@UEAAJAEBU_GUID@@PEAPEAX@Z @ 7404 NONAME
 ?QueryInterface@XPerPropertyBrowsing@COleControl@@UEAAJAEBU_GUID@@PEAPEAX@Z @ 7405 NONAME
 ?QueryInterface@XPersistFile@COleLinkingDoc@@UEAAJAEBU_GUID@@PEAPEAX@Z @ 7406 NONAME
 ?QueryInterface@XPersistMemory@COleControl@@UEAAJAEBU_GUID@@PEAPEAX@Z @ 7407 NONAME
 ?QueryInterface@XPersistPropertyBag@COleControl@@UEAAJAEBU_GUID@@PEAPEAX@Z @ 7408 NONAME
 ?QueryInterface@XPersistStorage@COleControl@@UEAAJAEBU_GUID@@PEAPEAX@Z @ 7409 NONAME
 ?QueryInterface@XPersistStorage@COleServerDoc@@UEAAJAEBU_GUID@@PEAPEAX@Z @ 7410 NONAME
 ?QueryInterface@XPersistStreamInit@COleControl@@UEAAJAEBU_GUID@@PEAPEAX@Z @ 7411 NONAME
 ?QueryInterface@XPointerInactive@COleControl@@UEAAJAEBU_GUID@@PEAPEAX@Z @ 7412 NONAME
 ?QueryInterface@XPrint@CDocObjectServer@@UEAAJAEBU_GUID@@PEAPEAX@Z @ 7413 NONAME
 ?QueryInterface@XPropertyNotifySink@COleControlSite@@UEAAJAEBU_GUID@@PEAPEAX@Z @ 7414 NONAME
 ?QueryInterface@XPropertyPage@COlePropertyPage@@UEAAJAEBU_GUID@@PEAPEAX@Z @ 7415 NONAME
 ?QueryInterface@XPropNotifySink@COlePropertyPage@@UEAAJAEBU_GUID@@PEAPEAX@Z @ 7416 NONAME
 ?QueryInterface@XProvideClassInfo@COleControl@@UEAAJAEBU_GUID@@PEAPEAX@Z @ 7417 NONAME
 ?QueryInterface@XQuickActivate@COleControl@@UEAAJAEBU_GUID@@PEAPEAX@Z @ 7418 NONAME
 ?QueryInterface@XRichEditOleCallback@CRichEditView@@UEAAJAEBU_GUID@@PEAPEAX@Z @ 7419 NONAME
 ?QueryInterface@XRowsetNotify@COleControlSite@@UEAAJAEBU_GUID@@PEAPEAX@Z @ 7420 NONAME
 ?QueryInterface@XSpecifyPropertyPages@COleControl@@UEAAJAEBU_GUID@@PEAPEAX@Z @ 7421 NONAME
 ?QueryInterface@XViewObject@COleControl@@UEAAJAEBU_GUID@@PEAPEAX@Z @ 7422 NONAME
 ?QueryOption@CInternetConnection@@QEBAHKAEAK@Z @ 7423 NONAME
 ?QueryOption@CInternetConnection@@QEBAHKPEAXPEAK@Z @ 7424 NONAME
 ?QueryOption@CInternetFile@@QEBAHKAEAK@Z @ 7425 NONAME
 ?QueryOption@CInternetFile@@QEBAHKPEAXPEAK@Z @ 7426 NONAME
 ?QueryOption@CInternetSession@@QEBAHKAEAK@Z @ 7427 NONAME
 ?QueryOption@CInternetSession@@QEBAHKPEAXPEAK@Z @ 7428 NONAME
 ?QuerySiblings@CPropertyPage@@QEAA_J_K_J@Z @ 7429 NONAME
 ?QuerySinkInterface@CConnectionPoint@@UEAAJPEAUIUnknown@@PEAPEAX@Z @ 7430 NONAME
 ?QuerySinkInterface@XEventConnPt@COleControl@@UEAAJPEAUIUnknown@@PEAPEAX@Z @ 7431 NONAME
 ?QueryStatus@XOleCommandTarget@CDocObjectServer@@UEAAJPEBU_GUID@@KQEAU_tagOLECMD@@PEAU_tagOLECMDTEXT@@@Z @ 7432 NONAME
 ?QueryStatus@XOleCommandTarget@COleFrameHook@@UEAAJPEBU_GUID@@KQEAU_tagOLECMD@@PEAU_tagOLECMDTEXT@@@Z @ 7433 NONAME
 ?QueryStatusWB@CHtmlView@@QEBA?AW4OLECMDF@@W4OLECMDID@@@Z @ 7434 NONAME
 ?QueryTextMetrics@CFontHolder@@QEAAXPEAUtagTEXTMETRICW@@@Z @ 7435 NONAME
 ?QuickActivate@COleControlSite@@UEAAHXZ @ 7436 NONAME
 ?QuickActivate@XQuickActivate@COleControl@@UEAAJPEAUtagQACONTAINER@@PEAUtagQACONTROL@@@Z @ 7437 NONAME
 ?ReactivateAndUndo@COleClientItem@@QEAAHXZ @ 7438 NONAME
 ?ReactivateAndUndo@XOleInPlaceObject@COleControl@@UEAAJXZ @ 7439 NONAME
 ?ReactivateAndUndo@XOleInPlaceObject@COleServerDoc@@UEAAJXZ @ 7440 NONAME
 ?Read@CArchive@@QEAAIPEAXI@Z @ 7441 NONAME
 ?Read@CArchiveStream@@UEAAJPEAXKPEAK@Z @ 7442 NONAME
 ?Read@CAsyncMonikerFile@@UEAAIPEAXI@Z @ 7443 NONAME
 ?Read@CFile@@UEAAIPEAXI@Z @ 7444 NONAME
 ?Read@CImageList@@QEAAHPEAVCArchive@@@Z @ 7445 NONAME
 ?Read@CInternetFile@@UEAAIPEAXI@Z @ 7446 NONAME
 ?Read@CMemFile@@UEAAIPEAXI@Z @ 7447 NONAME
 ?Read@COleStreamFile@@UEAAIPEAXI@Z @ 7448 NONAME
 ?Read@CSocketFile@@UEAAIPEAXI@Z @ 7449 NONAME
 ?Read@CStdioFile@@UEAAIPEAXI@Z @ 7450 NONAME
 ?ReadClass@CArchive@@QEAAPEAUCRuntimeClass@@PEBU2@PEAIPEAK@Z @ 7451 NONAME
 ?ReadCount@CArchive@@QEAA_KXZ @ 7452 NONAME
 ?ReadFromArchive@CEditView@@QEAAXAEAVCArchive@@I@Z @ 7453 NONAME
 ?ReadFromStream@CProperty@@QEAAHPEAUIStream@@@Z @ 7454 NONAME
 ?ReadFromStream@CPropertySection@@QEAAHPEAUIStream@@T_LARGE_INTEGER@@@Z @ 7455 NONAME
 ?ReadFromStream@CPropertySet@@QEAAHPEAUIStream@@@Z @ 7456 NONAME
 ?ReadItem@COleClientItem@@UEAAXAEAVCArchive@@@Z @ 7457 NONAME
 ?ReadItemCompound@COleClientItem@@QEAAXAEAVCArchive@@@Z @ 7458 NONAME
 ?ReadItemFlat@COleClientItem@@QEAAXAEAVCArchive@@@Z @ 7459 NONAME
 ?ReadList@CRecentFileList@@UEAAXXZ @ 7460 NONAME
 ?ReadNameDictFromStream@CPropertySection@@QEAAHPEAUIStream@@@Z @ 7461 NONAME
 ?ReadObject@CArchive@@QEAAPEAVCObject@@PEBUCRuntimeClass@@@Z @ 7462 NONAME
 ?ReadString@CArchive@@QEAAHAEAV?$CStringT@_WV?$StrTraitMFC_DLL@_WV?$ChTraitsCRT@_W@ATL@@@@@ATL@@@Z @ 7463 NONAME
 ?ReadString@CArchive@@QEAAPEA_WPEA_WI@Z @ 7464 NONAME
 ?ReadString@CInternetFile@@UEAAHAEAV?$CStringT@_WV?$StrTraitMFC_DLL@_WV?$ChTraitsCRT@_W@ATL@@@@@ATL@@@Z @ 7465 NONAME
 ?ReadString@CInternetFile@@UEAAPEA_WPEA_WI@Z @ 7466 NONAME
 ?ReadString@CStdioFile@@UEAAHAEAV?$CStringT@_WV?$StrTraitMFC_DLL@_WV?$ChTraitsCRT@_W@ATL@@@@@ATL@@@Z @ 7467 NONAME
 ?ReadString@CStdioFile@@UEAAPEA_WPEA_WI@Z @ 7468 NONAME
 ?RealizePalette@CDC@@QEAAIXZ @ 7469 NONAME
 ?Realloc@CMemFile@@MEAAPEAEPEAE_K@Z @ 7470 NONAME
 ?Realloc@CSharedFile@@MEAAPEAEPEAE_K@Z @ 7471 NONAME
 ?Reallocate@?$CSimpleStringT@_W$00@ATL@@AEAAXH@Z @ 7472 NONAME
 ?Reallocate@?$CSimpleStringT@D$00@ATL@@AEAAXH@Z @ 7473 NONAME
 ?Reallocate@CAfxStringMgr@@UEAAPEAUCStringData@ATL@@PEAU23@HH@Z @ 7474 NONAME
 ?ReallocLongBinary@CFieldExchange@@QEAAPEAEAEAVCLongBinary@@_J1@Z @ 7475 NONAME
 ?RebindParams@CRecordset@@QEAAXPEAX@Z @ 7476 NONAME
 ?RecalcDelayShow@CControlBar@@UEAAKPEAUAFX_SIZEPARENTPARAMS@@@Z @ 7477 NONAME
 ?RecalcLayout@CFrameWnd@@UEAAXH@Z @ 7478 NONAME
 ?RecalcLayout@CMiniDockFrameWnd@@UEAAXH@Z @ 7479 NONAME
 ?RecalcLayout@COleCntrFrameWnd@@UEAAXH@Z @ 7480 NONAME
 ?RecalcLayout@COleDocIPFrameWnd@@MEAAXH@Z @ 7481 NONAME
 ?RecalcLayout@COleIPFrameWnd@@UEAAXH@Z @ 7482 NONAME
 ?RecalcLayout@CSplitterWnd@@UEAAXXZ @ 7483 NONAME
 ?Receive@CAsyncSocket@@UEAAHPEAXHH@Z @ 7484 NONAME
 ?Receive@CSocket@@UEAAHPEAXHH@Z @ 7485 NONAME
 ?ReceiveFrom@CAsyncSocket@@QEAAHPEAXHAEAV?$CStringT@_WV?$StrTraitMFC_DLL@_WV?$ChTraitsCRT@_W@ATL@@@@@ATL@@AEAIH@Z @ 7486 NONAME
 ?ReceiveFrom@CAsyncSocket@@QEAAHPEAXHPEAUsockaddr@@PEAHH@Z @ 7487 NONAME
 ?ReceiveFromHelper@CAsyncSocket@@MEAAHPEAXHPEAUsockaddr@@PEAHH@Z @ 7488 NONAME
 ?ReceiveFromHelper@CSocket@@MEAAHPEAXHPEAUsockaddr@@PEAHH@Z @ 7489 NONAME
 ?RecreateControlWindow@COleControl@@QEAAXXZ @ 7490 NONAME
 ?Rectangle@CDC@@QEAAHHHHH@Z @ 7491 NONAME
 ?Rectangle@CDC@@QEAAHPEBUtagRECT@@@Z @ 7492 NONAME
 ?rectDefault@CFrameWnd@@2VCRect@@B @ 7493 NONAME DATA
 ?RectInRegion@CRgn@@QEBAHPEBUtagRECT@@@Z @ 7494 NONAME
 ?RectVisible@CDC@@UEBAHPEBUtagRECT@@@Z @ 7495 NONAME
 ?RectVisible@CMetaFileDC@@UEBAHPEBUtagRECT@@@Z @ 7496 NONAME
 ?Redim@COleSafeArray@@QEAAXPEAUtagSAFEARRAYBOUND@@@Z @ 7497 NONAME
 ?Redo@CRichEditCtrl@@QEAAHXZ @ 7498 NONAME
 ?ReDockControlBar@CDockBar@@QEAAXPEAVCControlBar@@PEBUtagRECT@@@Z @ 7499 NONAME
 ?ReDockControlBar@CFrameWnd@@QEAAXPEAVCControlBar@@PEAVCDockBar@@PEBUtagRECT@@@Z @ 7500 NONAME
 ?RedrawItems@CListCtrl@@QEAAHHH@Z @ 7501 NONAME
 ?RedrawWindow@CWnd@@QEAAHPEBUtagRECT@@PEAVCRgn@@I@Z @ 7502 NONAME
 ?ReflectChildNotify@CWnd@@IEAAHI_K_JPEA_J@Z @ 7503 NONAME
 ?ReflectLastMsg@CWnd@@KAHPEAUHWND__@@PEA_J@Z @ 7504 NONAME
 ?Refresh@CHtmlView@@QEAAXXZ @ 7505 NONAME
 ?Refresh@COleControl@@QEAAXXZ @ 7506 NONAME
 ?Refresh2@CHtmlView@@QEAAXH@Z @ 7507 NONAME
 ?RefreshRowset@CRecordset@@QEAAXGG@Z @ 7508 NONAME
 ?Register@COleDropTarget@@QEAAHPEAVCWnd@@@Z @ 7509 NONAME
 ?Register@COleLinkingDoc@@QEAAHPEAVCOleObjectFactory@@PEB_W@Z @ 7510 NONAME
 ?Register@COleMessageFilter@@QEAAHXZ @ 7511 NONAME
 ?Register@COleObjectFactory@@UEAAHXZ @ 7512 NONAME
 ?Register@COleTemplateServer@@UEAAHXZ @ 7513 NONAME
 ?Register@CWinApp@@UEAAHXZ @ 7514 NONAME
 ?RegisterAll@COleObjectFactory@@SAHXZ @ 7515 NONAME
 ?RegisterIfServerAttached@COleLinkingDoc@@MEAAHPEB_WH@Z @ 7516 NONAME
 ?RegisterShellFileTypes@CDocManager@@UEAAXH@Z @ 7517 NONAME
 ?RegisterShellFileTypes@CWinApp@@IEAAXH@Z @ 7518 NONAME
 ?RegisterSiteFactory@CControlSiteFactoryMgr@@QEAAHPEAVIControlSiteFactory@@@Z @ 7519 NONAME
 ?RelayEvent@CToolTipCtrl@@QEAAXPEAUtagMSG@@@Z @ 7520 NONAME
 ?Release@CArchiveStream@@UEAAKXZ @ 7521 NONAME
 ?Release@CBlobProperty@@UEAAKXZ @ 7522 NONAME
 ?Release@CBrowserControlSite@@MEAAKXZ @ 7523 NONAME
 ?Release@CDHtmlControlSink@@UEAAKXZ @ 7524 NONAME
 ?Release@CDHtmlElementEventSink@@UEAAKXZ @ 7525 NONAME
 ?Release@CDHtmlEventSink@@UEAAKXZ @ 7526 NONAME
 ?Release@CInnerUnknown@@UEAAKXZ @ 7527 NONAME
 ?Release@COleClientItem@@UEAAXW4tagOLECLOSE@@@Z @ 7528 NONAME
 ?Release@COleConnPtContainer@@UEAAKXZ @ 7529 NONAME
 ?Release@COleDataObject@@QEAAXXZ @ 7530 NONAME
 ?Release@COleDispatchImpl@@UEAAKXZ @ 7531 NONAME
 ?Release@COleDocObjectItem@@UEAAXW4tagOLECLOSE@@@Z @ 7532 NONAME
 ?Release@COleUILinkInfo@@UEAAKXZ @ 7533 NONAME
 ?Release@CPrintDialogEx@@UEAAKXZ @ 7534 NONAME
 ?Release@XAccessible@CWnd@@UEAAKXZ @ 7535 NONAME
 ?Release@XAccessibleServer@CWnd@@UEAAKXZ @ 7536 NONAME
 ?Release@XAdviseSink@COleClientItem@@UEAAKXZ @ 7537 NONAME
 ?Release@XAmbientProps@COleControlSite@@UEAAKXZ @ 7538 NONAME
 ?Release@XBoundObjectSite@COleControlSite@@UEAAKXZ @ 7539 NONAME
 ?Release@XClassFactory@COleObjectFactory@@UEAAKXZ @ 7540 NONAME
 ?Release@XConnPt@CConnectionPoint@@UEAAKXZ @ 7541 NONAME
 ?Release@XDataObject@COleControl@@UEAAKXZ @ 7542 NONAME
 ?Release@XDataObject@COleDataSource@@UEAAKXZ @ 7543 NONAME
 ?Release@XDataObject@COleServerDoc@@UEAAKXZ @ 7544 NONAME
 ?Release@XDataObject@COleServerItem@@UEAAKXZ @ 7545 NONAME
 ?Release@XDocHostUIHandler@CHtmlControlSite@@UEAAKXZ @ 7546 NONAME
 ?Release@XDropSource@COleDropSource@@UEAAKXZ @ 7547 NONAME
 ?Release@XDropTarget@COleDropTarget@@UEAAKXZ @ 7548 NONAME
 ?Release@XEnumVOID@CEnumArray@@UEAAKXZ @ 7549 NONAME
 ?Release@XEventSink@COleControlSite@@UEAAKXZ @ 7550 NONAME
 ?Release@XFileDialogControlEvents@CFileDialog@@UEAAKXZ @ 7551 NONAME
 ?Release@XFileDialogEvents@CFileDialog@@UEAAKXZ @ 7552 NONAME
 ?Release@XFontNotification@COleControl@@UEAAKXZ @ 7553 NONAME
 ?Release@XMessageFilter@COleMessageFilter@@UEAAKXZ @ 7554 NONAME
 ?Release@XNotifyDBEvents@COleControlSite@@UEAAKXZ @ 7555 NONAME
 ?Release@XOleCache@COleControl@@UEAAKXZ @ 7556 NONAME
 ?Release@XOleClientSite@COleClientItem@@UEAAKXZ @ 7557 NONAME
 ?Release@XOleClientSite@COleControlSite@@UEAAKXZ @ 7558 NONAME
 ?Release@XOleCommandTarget@CDocObjectServer@@UEAAKXZ @ 7559 NONAME
 ?Release@XOleCommandTarget@COleFrameHook@@UEAAKXZ @ 7560 NONAME
 ?Release@XOleContainer@COleControlContainer@@UEAAKXZ @ 7561 NONAME
 ?Release@XOleControl@COleControl@@UEAAKXZ @ 7562 NONAME
 ?Release@XOleControlSite@COleControlSite@@UEAAKXZ @ 7563 NONAME
 ?Release@XOleDocument@CDocObjectServer@@UEAAKXZ @ 7564 NONAME
 ?Release@XOleDocumentSite@COleDocObjectItem@@UEAAKXZ @ 7565 NONAME
 ?Release@XOleDocumentView@CDocObjectServer@@UEAAKXZ @ 7566 NONAME
 ?Release@XOleInPlaceActiveObject@COleControl@@UEAAKXZ @ 7567 NONAME
 ?Release@XOleInPlaceActiveObject@COleServerDoc@@UEAAKXZ @ 7568 NONAME
 ?Release@XOleInPlaceFrame@COleFrameHook@@UEAAKXZ @ 7569 NONAME
 ?Release@XOleInPlaceObject@COleControl@@UEAAKXZ @ 7570 NONAME
 ?Release@XOleInPlaceObject@COleServerDoc@@UEAAKXZ @ 7571 NONAME
 ?Release@XOleIPFrame@COleControlContainer@@UEAAKXZ @ 7572 NONAME
 ?Release@XOleIPSite@COleClientItem@@UEAAKXZ @ 7573 NONAME
 ?Release@XOleIPSite@COleControlSite@@UEAAKXZ @ 7574 NONAME
 ?Release@XOleItemContainer@COleLinkingDoc@@UEAAKXZ @ 7575 NONAME
 ?Release@XOleObject@CDocObjectServer@@UEAAKXZ @ 7576 NONAME
 ?Release@XOleObject@COleControl@@UEAAKXZ @ 7577 NONAME
 ?Release@XOleObject@COleServerDoc@@UEAAKXZ @ 7578 NONAME
 ?Release@XOleObject@COleServerItem@@UEAAKXZ @ 7579 NONAME
 ?Release@XOleUIObjInfo@COlePropertiesDialog@@UEAAKXZ @ 7580 NONAME
 ?Release@XPerPropertyBrowsing@COleControl@@UEAAKXZ @ 7581 NONAME
 ?Release@XPersistFile@COleLinkingDoc@@UEAAKXZ @ 7582 NONAME
 ?Release@XPersistMemory@COleControl@@UEAAKXZ @ 7583 NONAME
 ?Release@XPersistPropertyBag@COleControl@@UEAAKXZ @ 7584 NONAME
 ?Release@XPersistStorage@COleControl@@UEAAKXZ @ 7585 NONAME
 ?Release@XPersistStorage@COleServerDoc@@UEAAKXZ @ 7586 NONAME
 ?Release@XPersistStreamInit@COleControl@@UEAAKXZ @ 7587 NONAME
 ?Release@XPointerInactive@COleControl@@UEAAKXZ @ 7588 NONAME
 ?Release@XPrint@CDocObjectServer@@UEAAKXZ @ 7589 NONAME
 ?Release@XPropertyNotifySink@COleControlSite@@UEAAKXZ @ 7590 NONAME
 ?Release@XPropertyPage@COlePropertyPage@@UEAAKXZ @ 7591 NONAME
 ?Release@XPropNotifySink@COlePropertyPage@@UEAAKXZ @ 7592 NONAME
 ?Release@XProvideClassInfo@COleControl@@UEAAKXZ @ 7593 NONAME
 ?Release@XQuickActivate@COleControl@@UEAAKXZ @ 7594 NONAME
 ?Release@XRichEditOleCallback@CRichEditView@@UEAAKXZ @ 7595 NONAME
 ?Release@XRowsetNotify@COleControlSite@@UEAAKXZ @ 7596 NONAME
 ?Release@XSpecifyPropertyPages@COleControl@@UEAAKXZ @ 7597 NONAME
 ?Release@XViewObject@COleControl@@UEAAKXZ @ 7598 NONAME
 ?ReleaseAttribDC@CDC@@UEAAXXZ @ 7599 NONAME
 ?ReleaseBuffer@?$CSimpleStringT@_W$00@ATL@@QEAAXH@Z @ 7600 NONAME
 ?ReleaseBuffer@?$CSimpleStringT@D$00@ATL@@QEAAXH@Z @ 7601 NONAME
 ?ReleaseBufferSetLength@?$CSimpleStringT@_W$00@ATL@@QEAAXH@Z @ 7602 NONAME
 ?ReleaseBufferSetLength@?$CSimpleStringT@D$00@ATL@@QEAAXH@Z @ 7603 NONAME
 ?ReleaseCaches@COleControl@@IEAAXXZ @ 7604 NONAME
 ?ReleaseCapture@COleControl@@QEAAHXZ @ 7605 NONAME
 ?ReleaseDC@COleControl@@QEAAHPEAVCDC@@@Z @ 7606 NONAME
 ?ReleaseDC@CWnd@@QEAAHPEAVCDC@@@Z @ 7607 NONAME
 ?ReleaseDC@XOleIPSite@COleControlSite@@UEAAJPEAUHDC__@@@Z @ 7608 NONAME
 ?ReleaseDispatch@COleDispatchDriver@@QEAAXXZ @ 7609 NONAME
 ?ReleaseDocSite@CDocObjectServer@@QEAAXXZ @ 7610 NONAME
 ?ReleaseFile@CDocument@@UEAAXPEAVCFile@@H@Z @ 7611 NONAME
 ?ReleaseFont@CFontHolder@@QEAAXXZ @ 7612 NONAME
 ?ReleaseOutputDC@CDC@@UEAAXXZ @ 7613 NONAME
 ?ReleaseOutputDC@CMetaFileDC@@MEAAXXZ @ 7614 NONAME
 ?ReleaseOutputDC@CPreviewDC@@UEAAXXZ @ 7615 NONAME
 ?Reload@COleClientItem@@QEAAHXZ @ 7616 NONAME
 ?Remove@?$CStringT@_WV?$StrTraitMFC_DLL@_WV?$ChTraitsCRT@_W@ATL@@@@@ATL@@QEAAH_W@Z @ 7617 NONAME
 ?Remove@?$CStringT@DV?$StrTraitMFC_DLL@DV?$ChTraitsCRT@D@ATL@@@@@ATL@@QEAAHD@Z @ 7618 NONAME
 ?Remove@CFile@@SAXPEB_W@Z @ 7619 NONAME
 ?Remove@CFtpConnection@@QEAAHPEB_W@Z @ 7620 NONAME
 ?Remove@CImageList@@QEAAHH@Z @ 7621 NONAME
 ?Remove@CPropertySection@@QEAAXK@Z @ 7622 NONAME
 ?Remove@CPropertySet@@QEAAXU_GUID@@@Z @ 7623 NONAME
 ?Remove@CPropertySet@@QEAAXU_GUID@@K@Z @ 7624 NONAME
 ?Remove@CRecentFileList@@UEAAXH@Z @ 7625 NONAME
 ?Remove@CSimpleList@@QEAAHPEAX@Z @ 7626 NONAME
 ?RemoveAll@CByteArray@@QEAAXXZ @ 7627 NONAME
 ?RemoveAll@CDWordArray@@QEAAXXZ @ 7628 NONAME
 ?RemoveAll@CMapPtrToPtr@@QEAAXXZ @ 7629 NONAME
 ?RemoveAll@CMapPtrToWord@@QEAAXXZ @ 7630 NONAME
 ?RemoveAll@CMapStringToOb@@QEAAXXZ @ 7631 NONAME
 ?RemoveAll@CMapStringToPtr@@QEAAXXZ @ 7632 NONAME
 ?RemoveAll@CMapStringToString@@QEAAXXZ @ 7633 NONAME
 ?RemoveAll@CMapWordToOb@@QEAAXXZ @ 7634 NONAME
 ?RemoveAll@CMapWordToPtr@@QEAAXXZ @ 7635 NONAME
 ?RemoveAll@CObArray@@QEAAXXZ @ 7636 NONAME
 ?RemoveAll@CObList@@QEAAXXZ @ 7637 NONAME
 ?RemoveAll@CPropertySection@@QEAAXXZ @ 7638 NONAME
 ?RemoveAll@CPropertySet@@QEAAXXZ @ 7639 NONAME
 ?RemoveAll@CPtrArray@@QEAAXXZ @ 7640 NONAME
 ?RemoveAll@CPtrList@@QEAAXXZ @ 7641 NONAME
 ?RemoveAll@CStringArray@@QEAAXXZ @ 7642 NONAME
 ?RemoveAll@CStringList@@QEAAXXZ @ 7643 NONAME
 ?RemoveAll@CTypeLibCacheMap@@UEAAXPEAX@Z @ 7644 NONAME
 ?RemoveAll@CUIntArray@@QEAAXXZ @ 7645 NONAME
 ?RemoveAll@CWordArray@@QEAAXXZ @ 7646 NONAME
 ?RemoveAt@CByteArray@@QEAAX_J0@Z @ 7647 NONAME
 ?RemoveAt@CDWordArray@@QEAAX_J0@Z @ 7648 NONAME
 ?RemoveAt@CObArray@@QEAAX_J0@Z @ 7649 NONAME
 ?RemoveAt@CObList@@QEAAXPEAU__POSITION@@@Z @ 7650 NONAME
 ?RemoveAt@CPtrArray@@QEAAX_J0@Z @ 7651 NONAME
 ?RemoveAt@CPtrList@@QEAAXPEAU__POSITION@@@Z @ 7652 NONAME
 ?RemoveAt@CStringArray@@QEAAX_J0@Z @ 7653 NONAME
 ?RemoveAt@CStringList@@QEAAXPEAU__POSITION@@@Z @ 7654 NONAME
 ?RemoveAt@CUIntArray@@QEAAX_J0@Z @ 7655 NONAME
 ?RemoveAt@CWordArray@@QEAAX_J0@Z @ 7656 NONAME
 ?RemoveControlBar@CDockBar@@QEAAHPEAVCControlBar@@HH@Z @ 7657 NONAME
 ?RemoveControlBar@CFrameWnd@@QEAAXPEAVCControlBar@@@Z @ 7658 NONAME
 ?RemoveDirectoryW@CFtpConnection@@QEAAHPEB_W@Z @ 7659 NONAME
 ?RemoveDocument@CDocTemplate@@UEAAXPEAVCDocument@@@Z @ 7660 NONAME
 ?RemoveDocument@CMultiDocTemplate@@UEAAXPEAVCDocument@@@Z @ 7661 NONAME
 ?RemoveDocument@CSingleDocTemplate@@UEAAXPEAVCDocument@@@Z @ 7662 NONAME
 ?RemoveFrameLevelUI@COleControl@@MEAAXXZ @ 7663 NONAME
 ?RemoveFrameWnd@CFrameWnd@@IEAAXXZ @ 7664 NONAME
 ?RemoveHandle@CHandleMap@@QEAAXPEAX@Z @ 7665 NONAME
 ?RemoveHead@CObList@@QEAAPEAVCObject@@XZ @ 7666 NONAME
 ?RemoveHead@CPtrList@@QEAAPEAXXZ @ 7667 NONAME
 ?RemoveHead@CStringList@@QEAA?AV?$CStringT@_WV?$StrTraitMFC_DLL@_WV?$ChTraitsCRT@_W@ATL@@@@@ATL@@XZ @ 7668 NONAME
 ?RemoveImage@CTabCtrl@@QEAAXH@Z @ 7669 NONAME
 ?RemoveImageList@CListCtrl@@IEAAXH@Z @ 7670 NONAME
 ?RemoveImageList@CListView@@IEAAXH@Z @ 7671 NONAME
 ?RemoveImageList@CTreeCtrl@@IEAAXH@Z @ 7672 NONAME
 ?RemoveImageList@CTreeView@@IEAAXH@Z @ 7673 NONAME
 ?RemoveItem@COleDocument@@UEAAXPEAVCDocItem@@@Z @ 7674 NONAME
 ?RemoveKey@CMapPtrToPtr@@QEAAHPEAX@Z @ 7675 NONAME
 ?RemoveKey@CMapPtrToWord@@QEAAHPEAX@Z @ 7676 NONAME
 ?RemoveKey@CMapStringToOb@@QEAAHPEB_W@Z @ 7677 NONAME
 ?RemoveKey@CMapStringToPtr@@QEAAHPEB_W@Z @ 7678 NONAME
 ?RemoveKey@CMapStringToString@@QEAAHPEB_W@Z @ 7679 NONAME
 ?RemoveKey@CMapWordToOb@@QEAAHG@Z @ 7680 NONAME
 ?RemoveKey@CMapWordToPtr@@QEAAHG@Z @ 7681 NONAME
 ?RemoveMenu@CMenu@@QEAAHII@Z @ 7682 NONAME
 ?RemoveMenus@XOleInPlaceFrame@COleFrameHook@@UEAAJPEAUHMENU__@@@Z @ 7683 NONAME
 ?RemoveMenus@XOleIPFrame@COleControlContainer@@UEAAJPEAUHMENU__@@@Z @ 7684 NONAME
 ?RemovePage@CPropertySheet@@QEAAXH@Z @ 7685 NONAME
 ?RemovePage@CPropertySheet@@QEAAXPEAVCPropertyPage@@@Z @ 7686 NONAME
 ?RemovePlaceHolder@CDockBar@@QEAAXPEAVCControlBar@@@Z @ 7687 NONAME
 ?RemoveRadioCheckFromGroup@CWnd@@QEBAXPEBUCOleControlSiteOrWnd@@@Z @ 7688 NONAME
 ?RemoveSource@CDataBoundProperty@@QEAAXXZ @ 7689 NONAME
 ?RemoveTail@CObList@@QEAAPEAVCObject@@XZ @ 7690 NONAME
 ?RemoveTail@CPtrList@@QEAAPEAXXZ @ 7691 NONAME
 ?RemoveTail@CStringList@@QEAA?AV?$CStringT@_WV?$StrTraitMFC_DLL@_WV?$ChTraitsCRT@_W@ATL@@@@@ATL@@XZ @ 7692 NONAME
 ?RemoveView@CDocument@@QEAAXPEAVCView@@@Z @ 7693 NONAME
 ?Rename@CFile@@SAXPEB_W0@Z @ 7694 NONAME
 ?Rename@CFtpConnection@@QEAAHPEB_W0@Z @ 7695 NONAME
 ?Render@CPictureHolder@@QEAAXPEAVCDC@@AEBVCRect@@1@Z @ 7696 NONAME
 ?ReparentControlWindow@COleControl@@UEAAXPEAUHWND__@@0@Z @ 7697 NONAME
 ?Replace@?$CStringT@_WV?$StrTraitMFC_DLL@_WV?$ChTraitsCRT@_W@ATL@@@@@ATL@@QEAAH_W0@Z @ 7698 NONAME
 ?Replace@?$CStringT@_WV?$StrTraitMFC_DLL@_WV?$ChTraitsCRT@_W@ATL@@@@@ATL@@QEAAHPEB_W0@Z @ 7699 NONAME
 ?Replace@?$CStringT@DV?$StrTraitMFC_DLL@DV?$ChTraitsCRT@D@ATL@@@@@ATL@@QEAAHDD@Z @ 7700 NONAME
 ?Replace@?$CStringT@DV?$StrTraitMFC_DLL@DV?$ChTraitsCRT@D@ATL@@@@@ATL@@QEAAHPEBD0@Z @ 7701 NONAME
 ?Replace@CImageList@@QEAAHHPEAUHICON__@@@Z @ 7702 NONAME
 ?Replace@CImageList@@QEAAHHPEAVCBitmap@@0@Z @ 7703 NONAME
 ?ReplaceAll@CFindReplaceDialog@@QEBAHXZ @ 7704 NONAME
 ?ReplaceBitmap@CToolBarCtrl@@QEAAHPEAUTBREPLACEBITMAP@@@Z @ 7705 NONAME
 ?ReplaceBrackets@CDatabase@@QEAAXPEA_W@Z @ 7706 NONAME
 ?ReplaceCurrent@CFindReplaceDialog@@QEBAHXZ @ 7707 NONAME
 ?ReplaceSel@CEdit@@QEAAXPEB_WH@Z @ 7708 NONAME
 ?ReplaceSel@CRichEditCtrl@@QEAAXPEB_WH@Z @ 7709 NONAME
 ?ReportError@CException@@UEAAHII@Z @ 7710 NONAME
 ?ReportError@COleClientItem@@UEBAHJ@Z @ 7711 NONAME
 ?ReportSaveLoadException@CDocument@@UEAAXPEB_WPEAVCException@@HI@Z @ 7712 NONAME
 ?ReportSaveLoadException@COleLinkingDoc@@UEAAXPEB_WPEAVCException@@HI@Z @ 7713 NONAME
 ?RepositionBars@CWnd@@QEAAXIIIIPEAUtagRECT@@PEBU2@H@Z @ 7714 NONAME
 ?RepositionFrame@COleIPFrameWnd@@UEAAXPEBUtagRECT@@0@Z @ 7715 NONAME
 ?Requery@CRecordset@@UEAAHXZ @ 7716 NONAME
 ?RequestAsynchronousExchange@COleControl@@QEAAXK@Z @ 7717 NONAME
 ?RequestBorderSpace@XOleInPlaceFrame@COleFrameHook@@UEAAJPEBUtagRECT@@@Z @ 7718 NONAME
 ?RequestBorderSpace@XOleIPFrame@COleControlContainer@@UEAAJPEBUtagRECT@@@Z @ 7719 NONAME
 ?RequestLicKey@XClassFactory@COleObjectFactory@@UEAAJKPEAPEA_W@Z @ 7720 NONAME
 ?RequestNewObjectLayout@XOleClientSite@COleClientItem@@UEAAJXZ @ 7721 NONAME
 ?RequestNewObjectLayout@XOleClientSite@COleControlSite@@UEAAJXZ @ 7722 NONAME
 ?RequestPositionChange@COleServerDoc@@QEAAXPEBUtagRECT@@@Z @ 7723 NONAME
 ?RequestResize@CRichEditCtrl@@QEAAXXZ @ 7724 NONAME
 ?RequestUIActivate@XOleIPSite@COleControlSite@@UEAAJXZ @ 7725 NONAME
 ?Reset@XEnumVOID@CEnumArray@@UEAAJXZ @ 7726 NONAME
 ?ResetContent@CComboBox@@QEAAXXZ @ 7727 NONAME
 ?ResetContent@CListBox@@QEAAXXZ @ 7728 NONAME
 ?ResetCursor@CRecordset@@QEAAXXZ @ 7729 NONAME
 ?ResetData@CCachedDataPathProperty@@UEAAXXZ @ 7730 NONAME
 ?ResetData@CDataPathProperty@@UEAAXXZ @ 7731 NONAME
 ?ResetDCW@CDC@@QEAAHPEBU_devicemodeW@@@Z @ 7732 NONAME
 ?ResetEvent@CEvent@@QEAAHXZ @ 7733 NONAME
 ?ResetStockProps@COleControl@@QEAAXXZ @ 7734 NONAME
 ?ResetTimer@CControlBar@@QEAAX_KI@Z @ 7735 NONAME
 ?ResetVersion@COleControl@@QEAAXK@Z @ 7736 NONAME
 ?ResizeBorder@CBrowserControlSite@@MEAAJPEBUtagRECT@@PEAUIOleInPlaceUIWindow@@H@Z @ 7737 NONAME
 ?ResizeBorder@CDHtmlDialog@@UEAAJPEBUtagRECT@@PEAUIOleInPlaceUIWindow@@H@Z @ 7738 NONAME
 ?ResizeBorder@XDocHostUIHandler@CHtmlControlSite@@UEAAJPEBUtagRECT@@PEAUIOleInPlaceUIWindow@@H@Z @ 7739 NONAME
 ?ResizeBorder@XOleInPlaceActiveObject@COleControl@@UEAAJPEBUtagRECT@@PEAUIOleInPlaceUIWindow@@H@Z @ 7740 NONAME
 ?ResizeBorder@XOleInPlaceActiveObject@COleServerDoc@@UEAAJPEBUtagRECT@@PEAUIOleInPlaceUIWindow@@H@Z @ 7741 NONAME
 ?ResizeFrameWindow@COleControl@@MEAAXHH@Z @ 7742 NONAME
 ?ResizeOneDim@COleSafeArray@@QEAAXK@Z @ 7743 NONAME
 ?ResizeOpenControl@COleControl@@IEAAXHH@Z @ 7744 NONAME
 ?ResizePalette@CPalette@@QEAAHI@Z @ 7745 NONAME
 ?ResizeParentToFit@CScrollView@@QEAAXH@Z @ 7746 NONAME
 ?Restore@CWaitCursor@@QEAAXXZ @ 7747 NONAME
 ?RestoreBand@CReBarCtrl@@QEAAXI@Z @ 7748 NONAME
 ?RestoreDC@CDC@@UEAAHH@Z @ 7749 NONAME
 ?RestoreDC@CPreviewDC@@UEAAHH@Z @ 7750 NONAME
 ?RestoreState@CToolBarCtrl@@QEAAXPEAUHKEY__@@PEB_W1@Z @ 7751 NONAME
 ?RestoreWaitCursor@CCmdTarget@@QEAAXXZ @ 7752 NONAME
 ?ResumeThread@CWinThread@@QEAAKXZ @ 7753 NONAME
 ?RetryRejectedCall@XMessageFilter@COleMessageFilter@@UEAAKPEAUHTASK__@@KK@Z @ 7754 NONAME
 ?ReverseFind@?$CStringT@_WV?$StrTraitMFC_DLL@_WV?$ChTraitsCRT@_W@ATL@@@@@ATL@@QEBAH_W@Z @ 7755 NONAME
 ?ReverseFind@?$CStringT@DV?$StrTraitMFC_DLL@DV?$ChTraitsCRT@D@ATL@@@@@ATL@@QEBAHD@Z @ 7756 NONAME
 ?Revert@CArchiveStream@@UEAAJXZ @ 7757 NONAME
 ?Revoke@COleDropTarget@@UEAAXXZ @ 7758 NONAME
 ?Revoke@COleLinkingDoc@@QEAAXXZ @ 7759 NONAME
 ?Revoke@COleMessageFilter@@QEAAXXZ @ 7760 NONAME
 ?Revoke@COleObjectFactory@@QEAAXXZ @ 7761 NONAME
 ?RevokeAll@COleObjectFactory@@SAXXZ @ 7762 NONAME
 ?RFX_BigInt@@YAXPEAVCFieldExchange@@PEB_WAEA_J@Z @ 7763 NONAME
 ?RFX_Binary@@YAXPEAVCFieldExchange@@PEB_WAEAVCByteArray@@_J@Z @ 7764 NONAME
 ?RFX_Binary_Bulk@@YAXPEAVCFieldExchange@@PEB_WPEAPEAEPEAPEA_JH@Z @ 7765 NONAME
 ?RFX_Bool@@YAXPEAVCFieldExchange@@PEB_WAEAH@Z @ 7766 NONAME
 ?RFX_Bool_Bulk@@YAXPEAVCFieldExchange@@PEB_WPEAPEAHPEAPEA_J@Z @ 7767 NONAME
 ?RFX_Byte@@YAXPEAVCFieldExchange@@PEB_WAEAE@Z @ 7768 NONAME
 ?RFX_Byte_Bulk@@YAXPEAVCFieldExchange@@PEB_WPEAPEAEPEAPEA_J@Z @ 7769 NONAME
 ?RFX_Date@@YAXPEAVCFieldExchange@@PEB_WAEAUtagTIMESTAMP_STRUCT@@@Z @ 7770 NONAME
 ?RFX_Date@@YAXPEAVCFieldExchange@@PEB_WAEAVCOleDateTime@ATL@@@Z @ 7771 NONAME
 ?RFX_Date@@YAXPEAVCFieldExchange@@PEB_WAEAVCTime@ATL@@@Z @ 7772 NONAME
 ?RFX_Date_Bulk@@YAXPEAVCFieldExchange@@PEB_WPEAPEAUtagTIMESTAMP_STRUCT@@PEAPEA_J@Z @ 7773 NONAME
 ?RFX_Double@@YAXPEAVCFieldExchange@@PEB_WAEAN@Z @ 7774 NONAME
 ?RFX_Double_Bulk@@YAXPEAVCFieldExchange@@PEB_WPEAPEANPEAPEA_J@Z @ 7775 NONAME
 ?RFX_Int@@YAXPEAVCFieldExchange@@PEB_WAEAH@Z @ 7776 NONAME
 ?RFX_Int_Bulk@@YAXPEAVCFieldExchange@@PEB_WPEAPEAHPEAPEA_J@Z @ 7777 NONAME
 ?RFX_Long@@YAXPEAVCFieldExchange@@PEB_WAEAJ@Z @ 7778 NONAME
 ?RFX_Long_Bulk@@YAXPEAVCFieldExchange@@PEB_WPEAPEAJPEAPEA_J@Z @ 7779 NONAME
 ?RFX_LongBinary@@YAXPEAVCFieldExchange@@PEB_WAEAVCLongBinary@@@Z @ 7780 NONAME
 ?RFX_Single@@YAXPEAVCFieldExchange@@PEB_WAEAM@Z @ 7781 NONAME
 ?RFX_Single_Bulk@@YAXPEAVCFieldExchange@@PEB_WPEAPEAMPEAPEA_J@Z @ 7782 NONAME
 ?RFX_Text@@YAXPEAVCFieldExchange@@PEB_WAEAV?$CStringT@_WV?$StrTraitMFC_DLL@_WV?$ChTraitsCRT@_W@ATL@@@@@ATL@@HHF@Z @ 7783 NONAME
 ?RFX_Text@@YAXPEAVCFieldExchange@@PEB_WAEAV?$CStringT@DV?$StrTraitMFC_DLL@DV?$ChTraitsCRT@D@ATL@@@@@ATL@@HHF@Z @ 7784 NONAME
 ?RFX_Text@@YAXPEAVCFieldExchange@@PEB_WPEA_WHHF@Z @ 7785 NONAME
 ?RFX_Text@@YAXPEAVCFieldExchange@@PEB_WPEADHHF@Z @ 7786 NONAME
 ?RFX_Text_Bulk@@YAXPEAVCFieldExchange@@PEB_WPEAPEA_WPEAPEA_JH@Z @ 7787 NONAME
 ?RFX_Text_Bulk@@YAXPEAVCFieldExchange@@PEB_WPEAPEADPEAPEA_JH@Z @ 7788 NONAME
 ?Right@?$CStringT@_WV?$StrTraitMFC_DLL@_WV?$ChTraitsCRT@_W@ATL@@@@@ATL@@QEBA?AV12@H@Z @ 7789 NONAME
 ?Right@?$CStringT@DV?$StrTraitMFC_DLL@DV?$ChTraitsCRT@D@ATL@@@@@ATL@@QEBA?AV12@H@Z @ 7790 NONAME
 ?Rollback@CDatabase@@QEAAHXZ @ 7791 NONAME
 ?RoundRect@CDC@@QEAAHHHHHHH@Z @ 7792 NONAME
 ?RoundRect@CDC@@QEAAHPEBUtagRECT@@UtagPOINT@@@Z @ 7793 NONAME
 ?Run@COleClientItem@@QEAAXXZ @ 7794 NONAME
 ?Run@CWinApp@@UEAAHXZ @ 7795 NONAME
 ?Run@CWinThread@@UEAAHXZ @ 7796 NONAME
 ?RunAutomated@CWinApp@@QEAAHXZ @ 7797 NONAME
 ?RunEmbedded@CWinApp@@QEAAHXZ @ 7798 NONAME
 ?RunModalLoop@CWnd@@QEAAHK@Z @ 7799 NONAME
 ?SafeSetProperty@COleControlSite@@UEAAHJGZZ @ 7800 NONAME
 ?SameAsSelected@CEditView@@IEAAHPEB_WH@Z @ 7801 NONAME
 ?SameAsSelected@CRichEditView@@IEAAHPEB_WHH@Z @ 7802 NONAME
 ?Save@CBlobProperty@@UEAAJPEAUIStream@@H@Z @ 7803 NONAME
 ?Save@XPersistFile@COleLinkingDoc@@UEAAJPEB_WH@Z @ 7804 NONAME
 ?Save@XPersistMemory@COleControl@@UEAAJPEAXHK@Z @ 7805 NONAME
 ?Save@XPersistPropertyBag@COleControl@@UEAAJPEAUIPropertyBag@@HH@Z @ 7806 NONAME
 ?Save@XPersistStorage@COleControl@@UEAAJPEAUIStorage@@H@Z @ 7807 NONAME
 ?Save@XPersistStorage@COleServerDoc@@UEAAJPEAUIStorage@@H@Z @ 7808 NONAME
 ?Save@XPersistStreamInit@COleControl@@UEAAJPEAUIStream@@H@Z @ 7809 NONAME
 ?SaveAllModified@CDocManager@@UEAAHXZ @ 7810 NONAME
 ?SaveAllModified@CDocTemplate@@UEAAHXZ @ 7811 NONAME
 ?SaveAllModified@CWinApp@@UEAAHXZ @ 7812 NONAME
 ?SaveBarState@CFrameWnd@@QEBAXPEB_W@Z @ 7813 NONAME
 ?SaveCompleted@XPersistFile@COleLinkingDoc@@UEAAJPEB_W@Z @ 7814 NONAME
 ?SaveCompleted@XPersistStorage@COleControl@@UEAAJPEAUIStorage@@@Z @ 7815 NONAME
 ?SaveCompleted@XPersistStorage@COleServerDoc@@UEAAJPEAUIStorage@@@Z @ 7816 NONAME
 ?SaveDC@CDC@@UEAAHXZ @ 7817 NONAME
 ?SaveDC@CPreviewDC@@UEAAHXZ @ 7818 NONAME
 ?SaveEmbedding@COleServerDoc@@QEAAXXZ @ 7819 NONAME
 ?SaveFocusControl@CFormView@@IEAAHXZ @ 7820 NONAME
 ?SaveModified@CDocument@@UEAAHXZ @ 7821 NONAME
 ?SaveModified@COleDocument@@UEAAHXZ @ 7822 NONAME
 ?SaveModified@COleServerDoc@@MEAAHXZ @ 7823 NONAME
 ?SaveModifiedPrompt@COleServerDoc@@IEAAHXZ @ 7824 NONAME
 ?SaveObject@XOleClientSite@COleClientItem@@UEAAJXZ @ 7825 NONAME
 ?SaveObject@XOleClientSite@COleControlSite@@UEAAJXZ @ 7826 NONAME
 ?SaveState@CControlBarInfo@@QEAAHPEB_WH@Z @ 7827 NONAME
 ?SaveState@CDockState@@QEAAXPEB_W@Z @ 7828 NONAME
 ?SaveState@COleControl@@IEAAJPEAUIStream@@@Z @ 7829 NONAME
 ?SaveState@CToolBarCtrl@@QEAAXPEAUHKEY__@@PEB_W1@Z @ 7830 NONAME
 ?SaveStdProfileSettings@CWinApp@@IEAAXXZ @ 7831 NONAME
 ?SaveToStorage@COleDocument@@MEAAXPEAVCObject@@@Z @ 7832 NONAME
 ?SaveToStorage@COleLinkingDoc@@MEAAXPEAVCObject@@@Z @ 7833 NONAME
 ?SaveViewState@XOleDocumentView@CDocObjectServer@@UEAAJPEAUIStream@@@Z @ 7834 NONAME
 ?ScalePoint@CDockState@@QEAAXAEAVCPoint@@@Z @ 7835 NONAME
 ?ScaleRectPos@CDockState@@QEAAXAEAVCRect@@@Z @ 7836 NONAME
 ?ScaleViewportExt@CDC@@UEAA?AVCSize@@HHHH@Z @ 7837 NONAME
 ?ScaleViewportExt@CMetaFileDC@@UEAA?AVCSize@@HHHH@Z @ 7838 NONAME
 ?ScaleViewportExt@CPreviewDC@@UEAA?AVCSize@@HHHH@Z @ 7839 NONAME
 ?ScaleWindowExt@CDC@@UEAA?AVCSize@@HHHH@Z @ 7840 NONAME
 ?ScaleWindowExt@CPreviewDC@@UEAA?AVCSize@@HHHH@Z @ 7841 NONAME
 ?ScreenToClient@CWnd@@QEBAXPEAUtagPOINT@@@Z @ 7842 NONAME
 ?ScreenToClient@CWnd@@QEBAXPEAUtagRECT@@@Z @ 7843 NONAME
 ?Scroll@CListCtrl@@QEAAHVCSize@@@Z @ 7844 NONAME
 ?Scroll@XOleIPSite@COleClientItem@@UEAAJUtagSIZE@@@Z @ 7845 NONAME
 ?Scroll@XOleIPSite@COleControlSite@@UEAAJUtagSIZE@@@Z @ 7846 NONAME
 ?ScrollChildren@COleControlContainer@@UEAAXHH@Z @ 7847 NONAME
 ?ScrollContainerBy@COleServerDoc@@QEAAHVCSize@@@Z @ 7848 NONAME
 ?ScrollDC@CDC@@QEAAHHHPEBUtagRECT@@0PEAVCRgn@@PEAU2@@Z @ 7849 NONAME
 ?ScrollRect@XOleIPSite@COleControlSite@@UEAAJHHPEBUtagRECT@@0@Z @ 7850 NONAME
 ?ScrollToDevicePosition@CScrollView@@IEAAXUtagPOINT@@@Z @ 7851 NONAME
 ?ScrollToPosition@CScrollView@@QEAAXUtagPOINT@@@Z @ 7852 NONAME
 ?ScrollWindow@COleControl@@QEAAXHHPEBUtagRECT@@0@Z @ 7853 NONAME
 ?ScrollWindow@CWnd@@QEAAXHHPEBUtagRECT@@0@Z @ 7854 NONAME
 ?ScrollWindowEx@CWnd@@QEAAHHHPEBUtagRECT@@0PEAVCRgn@@PEAU2@I@Z @ 7855 NONAME
 ?SearchDown@CFindReplaceDialog@@QEBAHXZ @ 7856 NONAME
 ?Seek@CAnimateCtrl@@QEAAHI@Z @ 7857 NONAME
 ?Seek@CArchiveStream@@UEAAJT_LARGE_INTEGER@@KPEAT_ULARGE_INTEGER@@@Z @ 7858 NONAME
 ?Seek@CFile@@UEAA_K_JI@Z @ 7859 NONAME
 ?Seek@CInternetFile@@UEAA_K_JI@Z @ 7860 NONAME
 ?Seek@CMemFile@@UEAA_K_JI@Z @ 7861 NONAME
 ?Seek@COleStreamFile@@UEAA_K_JI@Z @ 7862 NONAME
 ?Seek@CSocketFile@@UEAA_K_JI@Z @ 7863 NONAME
 ?Seek@CStdioFile@@UEAA_K_JI@Z @ 7864 NONAME
 ?SeekToBegin@CFile@@QEAAXXZ @ 7865 NONAME
 ?SeekToEnd@CFile@@QEAA_KXZ @ 7866 NONAME
 ?Select@CFontHolder@@QEAAPEAVCFont@@PEAVCDC@@JJ@Z @ 7867 NONAME
 ?Select@CTreeCtrl@@QEAAHPEAU_TREEITEM@@I@Z @ 7868 NONAME
 ?Select_FindString@CDHtmlDialog@@IEAAJPEAUIHTMLSelectElement@@PEA_WH@Z @ 7869 NONAME
 ?SelectClipPath@CDC@@QEAAHH@Z @ 7870 NONAME
 ?SelectClipRgn@CDC@@QEAAHPEAVCRgn@@@Z @ 7871 NONAME
 ?SelectClipRgn@CDC@@QEAAHPEAVCRgn@@H@Z @ 7872 NONAME
 ?SelectDropTarget@CTreeCtrl@@QEAAHPEAU_TREEITEM@@@Z @ 7873 NONAME
 ?SelectFontObject@COleControl@@QEAAPEAVCFont@@PEAVCDC@@AEAVCFontHolder@@@Z @ 7874 NONAME
 ?SelectGdiObject@CDC@@KAPEAVCGdiObject@@PEAUHDC__@@PEAX@Z @ 7875 NONAME
 ?SelectionChange@CPrintDialogEx@@UEAAJXZ @ 7876 NONAME
 ?SelectItem@CTreeCtrl@@QEAAHPEAU_TREEITEM@@@Z @ 7877 NONAME
 ?SelectObject@CDC@@QEAAHPEAVCRgn@@@Z @ 7878 NONAME
 ?SelectObject@CDC@@QEAAPEAVCBitmap@@PEAV2@@Z @ 7879 NONAME
 ?SelectObject@CDC@@QEAAPEAVCBrush@@PEAV2@@Z @ 7880 NONAME
 ?SelectObject@CDC@@QEAAPEAVCGdiObject@@PEAV2@@Z @ 7881 NONAME
 ?SelectObject@CDC@@QEAAPEAVCPen@@PEAV2@@Z @ 7882 NONAME
 ?SelectObject@CDC@@QEAAPEAXPEAX@Z @ 7883 NONAME
 ?SelectObject@CDC@@UEAAPEAVCFont@@PEAV2@@Z @ 7884 NONAME
 ?SelectObject@CPreviewDC@@UEAAPEAVCFont@@PEAV2@@Z @ 7885 NONAME
 ?SelectPalette@CDC@@QEAAPEAVCPalette@@PEAV2@H@Z @ 7886 NONAME
 ?SelectPrinter@CWinApp@@QEAAXPEAX0H@Z @ 7887 NONAME
 ?SelectSetFirstVisible@CTreeCtrl@@QEAAHPEAU_TREEITEM@@@Z @ 7888 NONAME
 ?SelectStockFont@COleControl@@QEAAPEAVCFont@@PEAVCDC@@@Z @ 7889 NONAME
 ?SelectStockObject@CDC@@UEAAPEAVCGdiObject@@H@Z @ 7890 NONAME
 ?SelectStockObject@CPreviewDC@@UEAAPEAVCGdiObject@@H@Z @ 7891 NONAME
 ?SelectString@CComboBox@@QEAAHHPEB_W@Z @ 7892 NONAME
 ?SelectString@CListBox@@QEAAHHPEB_W@Z @ 7893 NONAME
 ?SelItemRange@CListBox@@QEAAHHHH@Z @ 7894 NONAME
 ?Send@CAsyncSocket@@UEAAHPEBXHH@Z @ 7895 NONAME
 ?Send@CSocket@@UEAAHPEBXHH@Z @ 7896 NONAME
 ?SendAdvise@COleControl@@IEAAXI@Z @ 7897 NONAME
 ?SendChildNotifyLastMsg@CWnd@@QEAAHPEA_J@Z @ 7898 NONAME
 ?SendChunk@CSocket@@QEAAHPEBXHH@Z @ 7899 NONAME
 ?SendDlgItemMessageW@COleControlContainer@@UEAA_JHI_K_J@Z @ 7900 NONAME
 ?SendDlgItemMessageW@CWnd@@QEAA_JHI_K_J@Z @ 7901 NONAME
 ?SendInitialUpdate@CDocument@@QEAAXXZ @ 7902 NONAME
 ?SendLongBinaryData@CRecordset@@IEAAXPEAX@Z @ 7903 NONAME
 ?SendMessage@CWnd@@QEBA_JI_K_J@Z @ 7904 NONAME
 ?SendMessageToDescendants@CWnd@@QEAAXI_K_JHH@Z @ 7905 NONAME
 ?SendMessageToDescendants@CWnd@@SAXPEAUHWND__@@I_K_JHH@Z @ 7906 NONAME
 ?SendMessageW@CWnd@@QEBA_JI_K_J@Z @ 7907 NONAME
 ?SendMnemonic@COleControlSite@@QEAAXPEAUtagMSG@@@Z @ 7908 NONAME
 ?SendNotifyMessageW@CWnd@@QEAAHI_K_J@Z @ 7909 NONAME
 ?SendRequest@CHttpFile@@QEAAHAEAV?$CStringT@_WV?$StrTraitMFC_DLL@_WV?$ChTraitsCRT@_W@ATL@@@@@ATL@@PEAXK@Z @ 7910 NONAME
 ?SendRequest@CHttpFile@@QEAAHPEB_WKPEAXK@Z @ 7911 NONAME
 ?SendRequestEx@CHttpFile@@QEAAHKK_K@Z @ 7912 NONAME
 ?SendRequestEx@CHttpFile@@QEAAHPEAU_INTERNET_BUFFERSW@@0K_K@Z @ 7913 NONAME
 ?SendTo@CAsyncSocket@@QEAAHPEBXHIPEB_WH@Z @ 7914 NONAME
 ?SendTo@CAsyncSocket@@QEAAHPEBXHPEBUsockaddr@@HH@Z @ 7915 NONAME
 ?SendToHelper@CAsyncSocket@@MEAAHPEBXHPEBUsockaddr@@HH@Z @ 7916 NONAME
 ?SendToHelper@CSocket@@MEAAHPEBXHPEBUsockaddr@@HH@Z @ 7917 NONAME
 ?Serialize@CByteArray@@UEAAXAEAVCArchive@@@Z @ 7918 NONAME
 ?Serialize@CControlBarInfo@@QEAAXAEAVCArchive@@PEAVCDockState@@@Z @ 7919 NONAME
 ?Serialize@CDocItem@@UEAAXAEAVCArchive@@@Z @ 7920 NONAME
 ?Serialize@CDockState@@UEAAXAEAVCArchive@@@Z @ 7921 NONAME
 ?Serialize@CDWordArray@@UEAAXAEAVCArchive@@@Z @ 7922 NONAME
 ?Serialize@CEditView@@UEAAXAEAVCArchive@@@Z @ 7923 NONAME
 ?Serialize@CMapStringToOb@@UEAAXAEAVCArchive@@@Z @ 7924 NONAME
 ?Serialize@CMapStringToString@@UEAAXAEAVCArchive@@@Z @ 7925 NONAME
 ?Serialize@CMapWordToOb@@UEAAXAEAVCArchive@@@Z @ 7926 NONAME
 ?Serialize@CObArray@@UEAAXAEAVCArchive@@@Z @ 7927 NONAME
 ?Serialize@CObject@@UEAAXAEAVCArchive@@@Z @ 7928 NONAME
 ?Serialize@CObList@@UEAAXAEAVCArchive@@@Z @ 7929 NONAME
 ?Serialize@COleClientItem@@UEAAXAEAVCArchive@@@Z @ 7930 NONAME
 ?Serialize@COleControl@@MEAAXAEAVCArchive@@@Z @ 7931 NONAME
 ?Serialize@COleDocument@@UEAAXAEAVCArchive@@@Z @ 7932 NONAME
 ?Serialize@CRichEditDoc@@UEAAXAEAVCArchive@@@Z @ 7933 NONAME
 ?Serialize@CRichEditView@@UEAAXAEAVCArchive@@@Z @ 7934 NONAME
 ?Serialize@CStringArray@@UEAAXAEAVCArchive@@@Z @ 7935 NONAME
 ?Serialize@CStringList@@UEAAXAEAVCArchive@@@Z @ 7936 NONAME
 ?Serialize@CWordArray@@UEAAXAEAVCArchive@@@Z @ 7937 NONAME
 ?Serialize64@CTime@ATL@@QEAAAEAVCArchive@@AEAV3@@Z @ 7938 NONAME
 ?Serialize64@CTimeSpan@ATL@@QEAAAEAVCArchive@@AEAV3@@Z @ 7939 NONAME
 ?SerializeClass@CArchive@@QEAAXPEBUCRuntimeClass@@@Z @ 7940 NONAME
 ?SerializeExtent@COleControl@@QEAAXAEAVCArchive@@@Z @ 7941 NONAME
 ?SerializeRaw@CEditView@@QEAAXAEAVCArchive@@@Z @ 7942 NONAME
 ?SerializeStockProps@COleControl@@QEAAXAEAVCArchive@@@Z @ 7943 NONAME
 ?SerializeVersion@COleControl@@QEAAKAEAVCArchive@@KH@Z @ 7944 NONAME
 ?Set@CProperty@@QEAAHKQEAXK@Z @ 7945 NONAME
 ?Set@CProperty@@QEAAHQEAX@Z @ 7946 NONAME
 ?Set@CProperty@@QEAAHQEAXK@Z @ 7947 NONAME
 ?Set@CPropertySection@@QEAAHKPEAX@Z @ 7948 NONAME
 ?Set@CPropertySection@@QEAAHKPEAXK@Z @ 7949 NONAME
 ?Set@CPropertySet@@QEAAHU_GUID@@KPEAX@Z @ 7950 NONAME
 ?Set@CPropertySet@@QEAAHU_GUID@@KPEAXK@Z @ 7951 NONAME
 ?SetAbortProc@CDC@@QEAAHP6AHPEAUHDC__@@H@Z@Z @ 7952 NONAME
 ?SetAbsolutePosition@CRecordset@@QEAAXJ@Z @ 7953 NONAME
 ?SetAccel@CSpinButtonCtrl@@QEAAHHPEAU_UDACCEL@@@Z @ 7954 NONAME
 ?SetActiveObject@XOleInPlaceFrame@COleFrameHook@@UEAAJPEAUIOleInPlaceActiveObject@@PEB_W@Z @ 7955 NONAME
 ?SetActiveObject@XOleIPFrame@COleControlContainer@@UEAAJPEAUIOleInPlaceActiveObject@@PEB_W@Z @ 7956 NONAME
 ?SetActivePage@CPropertySheet@@QEAAHH@Z @ 7957 NONAME
 ?SetActivePage@CPropertySheet@@QEAAHPEAVCPropertyPage@@@Z @ 7958 NONAME
 ?SetActivePane@CSplitterWnd@@UEAAXHHPEAVCWnd@@@Z @ 7959 NONAME
 ?SetActiveView@CFrameWnd@@QEAAXPEAVCView@@H@Z @ 7960 NONAME
 ?SetActiveWindow@CWnd@@QEAAPEAV1@XZ @ 7961 NONAME
 ?SetAddress@CIPAddressCtrl@@QEAAXEEEE@Z @ 7962 NONAME
 ?SetAddress@CIPAddressCtrl@@QEAAXK@Z @ 7963 NONAME
 ?SetAddressBar@CHtmlView@@QEAAXH@Z @ 7964 NONAME
 ?SetAdvise@XViewObject@COleControl@@UEAAJKKPEAUIAdviseSink@@@Z @ 7965 NONAME
 ?SetAnchorHighlight@CToolBarCtrl@@QEAAHH@Z @ 7966 NONAME
 ?SetAnchorIndex@CListBox@@QEAAXH@Z @ 7967 NONAME
 ?SetAppearance@COleControl@@QEAAXF@Z @ 7968 NONAME
 ?SetArcDirection@CDC@@QEAAHH@Z @ 7969 NONAME
 ?SetAt@?$CSimpleStringT@_W$00@ATL@@QEAAXH_W@Z @ 7970 NONAME
 ?SetAt@?$CSimpleStringT@D$00@ATL@@QEAAXHD@Z @ 7971 NONAME
 ?SetAt@CByteArray@@QEAAX_JE@Z @ 7972 NONAME
 ?SetAt@CDWordArray@@QEAAX_JK@Z @ 7973 NONAME
 ?SetAt@CMapPtrToPtr@@QEAAXPEAX0@Z @ 7974 NONAME
 ?SetAt@CMapPtrToWord@@QEAAXPEAXG@Z @ 7975 NONAME
 ?SetAt@CMapStringToOb@@QEAAXPEB_WPEAVCObject@@@Z @ 7976 NONAME
 ?SetAt@CMapStringToPtr@@QEAAXPEB_WPEAX@Z @ 7977 NONAME
 ?SetAt@CMapStringToString@@QEAAXPEB_W0@Z @ 7978 NONAME
 ?SetAt@CMapWordToOb@@QEAAXGPEAVCObject@@@Z @ 7979 NONAME
 ?SetAt@CMapWordToPtr@@QEAAXGPEAX@Z @ 7980 NONAME
 ?SetAt@CObArray@@QEAAX_JPEAVCObject@@@Z @ 7981 NONAME
 ?SetAt@CObList@@QEAAXPEAU__POSITION@@PEAVCObject@@@Z @ 7982 NONAME
 ?SetAt@CPtrArray@@QEAAX_JPEAX@Z @ 7983 NONAME
 ?SetAt@CPtrList@@QEAAXPEAU__POSITION@@PEAX@Z @ 7984 NONAME
 ?SetAt@CStringArray@@QEAAX_JAEBV?$CStringT@_WV?$StrTraitMFC_DLL@_WV?$ChTraitsCRT@_W@ATL@@@@@ATL@@@Z @ 7985 NONAME
 ?SetAt@CStringArray@@QEAAX_JPEB_W@Z @ 7986 NONAME
 ?SetAt@CStringList@@QEAAXPEAU__POSITION@@AEBV?$CStringT@_WV?$StrTraitMFC_DLL@_WV?$ChTraitsCRT@_W@ATL@@@@@ATL@@@Z @ 7987 NONAME
 ?SetAt@CStringList@@QEAAXPEAU__POSITION@@PEB_W@Z @ 7988 NONAME
 ?SetAt@CUIntArray@@QEAAX_JI@Z @ 7989 NONAME
 ?SetAt@CWordArray@@QEAAX_JG@Z @ 7990 NONAME
 ?SetAtGrow@CByteArray@@QEAAX_JE@Z @ 7991 NONAME
 ?SetAtGrow@CDWordArray@@QEAAX_JK@Z @ 7992 NONAME
 ?SetAtGrow@CObArray@@QEAAX_JPEAVCObject@@@Z @ 7993 NONAME
 ?SetAtGrow@CPtrArray@@QEAAX_JPEAX@Z @ 7994 NONAME
 ?SetAtGrow@CStringArray@@QEAAX_JAEBV?$CStringT@_WV?$StrTraitMFC_DLL@_WV?$ChTraitsCRT@_W@ATL@@@@@ATL@@@Z @ 7995 NONAME
 ?SetAtGrow@CStringArray@@QEAAX_JPEB_W@Z @ 7996 NONAME
 ?SetAtGrow@CUIntArray@@QEAAX_JI@Z @ 7997 NONAME
 ?SetAtGrow@CWordArray@@QEAAX_JG@Z @ 7998 NONAME
 ?SetAttribDC@CDC@@UEAAXPEAUHDC__@@@Z @ 7999 NONAME
 ?SetAttribDC@CMetaFileDC@@UEAAXPEAUHDC__@@@Z @ 8000 NONAME
 ?SetAttribDC@CPreviewDC@@UEAAXPEAUHDC__@@@Z @ 8001 NONAME
 ?SetAutoscrollInfo@CTreeCtrl@@QEAAHII@Z @ 8002 NONAME
 ?SetAutoURLDetect@CRichEditCtrl@@QEAAHH@Z @ 8003 NONAME
 ?SetBackColor@COleControl@@QEAAXK@Z @ 8004 NONAME
 ?SetBackgroundColor@CRichEditCtrl@@QEAAKHK@Z @ 8005 NONAME
 ?SetBandInfo@CReBarCtrl@@QEAAHIPEAUtagREBARBANDINFOW@@@Z @ 8006 NONAME
 ?SetBandWidth@CReBarCtrl@@QEAAHIH@Z @ 8007 NONAME
 ?SetBarColor@CProgressCtrl@@QEAAKK@Z @ 8008 NONAME
 ?SetBarInfo@CControlBar@@QEAAXPEAVCControlBarInfo@@PEAVCFrameWnd@@@Z @ 8009 NONAME
 ?SetBarInfo@CDockBar@@QEAAXPEAVCControlBarInfo@@PEAVCFrameWnd@@@Z @ 8010 NONAME
 ?SetBarInfo@CReBarCtrl@@QEAAHPEAUtagREBARINFO@@@Z @ 8011 NONAME
 ?SetBarStyle@CControlBar@@QEAAXK@Z @ 8012 NONAME
 ?SetBase@CSpinButtonCtrl@@QEAAHH@Z @ 8013 NONAME
 ?SetBinding@CAsyncMonikerFile@@IEAAXPEAUIBinding@@@Z @ 8014 NONAME
 ?SetBitmap@CButton@@QEAAPEAUHBITMAP__@@PEAU2@@Z @ 8015 NONAME
 ?SetBitmap@CStatic@@QEAAPEAUHBITMAP__@@PEAU2@@Z @ 8016 NONAME
 ?SetBitmap@CToolBar@@QEAAHPEAUHBITMAP__@@@Z @ 8017 NONAME
 ?SetBitmapBits@CBitmap@@QEAAKKPEBX@Z @ 8018 NONAME
 ?SetBitmapDimension@CBitmap@@QEAA?AVCSize@@HH@Z @ 8019 NONAME
 ?SetBitmapMargin@CHeaderCtrl@@QEAAHH@Z @ 8020 NONAME
 ?SetBitmapSize@CToolBarCtrl@@QEAAHVCSize@@@Z @ 8021 NONAME
 ?SetBkColor@CDC@@UEAAKK@Z @ 8022 NONAME
 ?SetBkColor@CImageList@@QEAAKK@Z @ 8023 NONAME
 ?SetBkColor@CListCtrl@@QEAAHK@Z @ 8024 NONAME
 ?SetBkColor@CPreviewDC@@UEAAKK@Z @ 8025 NONAME
 ?SetBkColor@CProgressCtrl@@QEAAKK@Z @ 8026 NONAME
 ?SetBkColor@CReBarCtrl@@QEAAKK@Z @ 8027 NONAME
 ?SetBkColor@CStatusBarCtrl@@QEAAKK@Z @ 8028 NONAME
 ?SetBkColor@CTreeCtrl@@QEAAKK@Z @ 8029 NONAME
 ?SetBkImage@CListCtrl@@QEAAHPEA_WHHH@Z @ 8030 NONAME
 ?SetBkImage@CListCtrl@@QEAAHPEAUHBITMAP__@@HHH@Z @ 8031 NONAME
 ?SetBkImage@CListCtrl@@QEAAHPEAUtagLVBKIMAGEW@@@Z @ 8032 NONAME
 ?SetBkMode@CDC@@QEAAHH@Z @ 8033 NONAME
 ?SetBookmark@CRecordset@@QEAAXAEBVCDBVariant@@@Z @ 8034 NONAME
 ?SetBorders@CControlBar@@QEAAXHHHH@Z @ 8035 NONAME
 ?SetBorders@CControlBar@@QEAAXPEBUtagRECT@@@Z @ 8036 NONAME
 ?SetBorders@CStatusBar@@QEAAXHHHH@Z @ 8037 NONAME
 ?SetBorders@CStatusBar@@QEAAXPEBUtagRECT@@@Z @ 8038 NONAME
 ?SetBorderSpace@XOleInPlaceFrame@COleFrameHook@@UEAAJPEBUtagRECT@@@Z @ 8039 NONAME
 ?SetBorderSpace@XOleIPFrame@COleControlContainer@@UEAAJPEBUtagRECT@@@Z @ 8040 NONAME
 ?SetBorderStyle@COleControl@@QEAAXF@Z @ 8041 NONAME
 ?SetBoundsRect@CDC@@QEAAIPEBUtagRECT@@I@Z @ 8042 NONAME
 ?SetBrushOrg@CDC@@QEAA?AVCPoint@@HH@Z @ 8043 NONAME
 ?SetBrushOrg@CDC@@QEAA?AVCPoint@@UtagPOINT@@@Z @ 8044 NONAME
 ?SetBuddy@CSliderCtrl@@QEAAPEAVCWnd@@PEAV2@H@Z @ 8045 NONAME
 ?SetBuddy@CSpinButtonCtrl@@QEAAPEAVCWnd@@PEAV2@@Z @ 8046 NONAME
 ?SetBusyReply@COleMessageFilter@@QEAAXW4tagSERVERCALL@@@Z @ 8047 NONAME
 ?SetButtonInfo@CToolBar@@QEAAXHIIH@Z @ 8048 NONAME
 ?SetButtonInfo@CToolBarCtrl@@QEAAHHPEAUTBBUTTONINFOW@@@Z @ 8049 NONAME
 ?SetButtons@CToolBar@@QEAAHPEBIH@Z @ 8050 NONAME
 ?SetButtonSize@CToolBarCtrl@@QEAAHVCSize@@@Z @ 8051 NONAME
 ?SetButtonStructSize@CToolBarCtrl@@QEAAXH@Z @ 8052 NONAME
 ?SetButtonStyle@CButton@@QEAAXIH@Z @ 8053 NONAME
 ?SetButtonStyle@CToolBar@@QEAAXHI@Z @ 8054 NONAME
 ?SetButtonText@CToolBar@@QEAAHHPEB_W@Z @ 8055 NONAME
 ?SetButtonWidth@CToolBarCtrl@@QEAAHHH@Z @ 8056 NONAME
 ?SetCalendarBorder@CMonthCalCtrl@@QEAAXH@Z @ 8057 NONAME
 ?SetCalendarBorderDefault@CMonthCalCtrl@@QEAAXXZ @ 8058 NONAME
 ?SetCalID@CMonthCalCtrl@@QEAAHK@Z @ 8059 NONAME
 ?SetCallbackMask@CListCtrl@@QEAAHI@Z @ 8060 NONAME
 ?SetCapture@COleControl@@QEAAPEAVCWnd@@XZ @ 8061 NONAME
 ?SetCapture@CWnd@@QEAAPEAV1@XZ @ 8062 NONAME
 ?SetCapture@XOleIPSite@COleControlSite@@UEAAJH@Z @ 8063 NONAME
 ?SetCaretIndex@CListBox@@QEAAHHH@Z @ 8064 NONAME
 ?SetCaretPos@CWnd@@SAXUtagPOINT@@@Z @ 8065 NONAME
 ?SetCenturyView@CMonthCalCtrl@@QEAAHXZ @ 8066 NONAME
 ?SetCharFormat@CRichEditView@@QEAAXUCHARFORMAT2W@@@Z @ 8067 NONAME
 ?SetCheck@CButton@@QEAAXH@Z @ 8068 NONAME
 ?SetCheck@CCheckListBox@@QEAAXHH@Z @ 8069 NONAME
 ?SetCheck@CCmdUI@@UEAAXH@Z @ 8070 NONAME
 ?SetCheck@CListCtrl@@QEAAHHH@Z @ 8071 NONAME
 ?SetCheck@COleCmdUI@@UEAAXH@Z @ 8072 NONAME
 ?SetCheck@CStatusCmdUI@@UEAAXH@Z @ 8073 NONAME
 ?SetCheck@CTestCmdUI@@UEAAXH@Z @ 8074 NONAME
 ?SetCheck@CToolCmdUI@@UEAAXH@Z @ 8075 NONAME
 ?SetCheck@CTreeCtrl@@QEAAHPEAU_TREEITEM@@H@Z @ 8076 NONAME
 ?SetCheckStyle@CCheckListBox@@QEAAXI@Z @ 8077 NONAME
 ?SetClassID@CPropertySet@@QEAAXU_GUID@@@Z @ 8078 NONAME
 ?SetClientSite@CDataBoundProperty@@QEAAXPEAVCOleControlSite@@@Z @ 8079 NONAME
 ?SetClientSite@XOleObject@CDocObjectServer@@UEAAJPEAUIOleClientSite@@@Z @ 8080 NONAME
 ?SetClientSite@XOleObject@COleControl@@UEAAJPEAUIOleClientSite@@@Z @ 8081 NONAME
 ?SetClientSite@XOleObject@COleServerDoc@@UEAAJPEAUIOleClientSite@@@Z @ 8082 NONAME
 ?SetClientSite@XOleObject@COleServerItem@@UEAAJPEAUIOleClientSite@@@Z @ 8083 NONAME
 ?SetClipboard@COleDataSource@@QEAAXXZ @ 8084 NONAME
 ?SetClipboardViewer@CWnd@@QEAAPEAUHWND__@@XZ @ 8085 NONAME
 ?SetCmdID@CToolBarCtrl@@QEAAHHI@Z @ 8086 NONAME
 ?SetColor@CMonthCalCtrl@@QEAAKHK@Z @ 8087 NONAME
 ?SetColorAdjustment@CDC@@QEAAHPEBUtagCOLORADJUSTMENT@@@Z @ 8088 NONAME
 ?SetColorScheme@CReBarCtrl@@QEAAXPEBUtagCOLORSCHEME@@@Z @ 8089 NONAME
 ?SetColorScheme@CToolBarCtrl@@QEAAXPEBUtagCOLORSCHEME@@@Z @ 8090 NONAME
 ?SetColorScheme@XOleObject@CDocObjectServer@@UEAAJPEAUtagLOGPALETTE@@@Z @ 8091 NONAME
 ?SetColorScheme@XOleObject@COleControl@@UEAAJPEAUtagLOGPALETTE@@@Z @ 8092 NONAME
 ?SetColorScheme@XOleObject@COleServerDoc@@UEAAJPEAUtagLOGPALETTE@@@Z @ 8093 NONAME
 ?SetColorScheme@XOleObject@COleServerItem@@UEAAJPEAUtagLOGPALETTE@@@Z @ 8094 NONAME
 ?SetColumn@CListCtrl@@QEAAHHPEBUtagLVCOLUMNW@@@Z @ 8095 NONAME
 ?SetColumnInfo@CSplitterWnd@@QEAAXHHH@Z @ 8096 NONAME
 ?SetColumnOrderArray@CListCtrl@@QEAAHHPEAH@Z @ 8097 NONAME
 ?SetColumnWidth@CListBox@@QEAAXH@Z @ 8098 NONAME
 ?SetColumnWidth@CListCtrl@@QEAAHHH@Z @ 8099 NONAME
 ?SetConcurrencyAndCursorType@CRecordset@@IEAAXPEAXK@Z @ 8100 NONAME
 ?SetContainerInfo@CDocTemplate@@QEAAXI@Z @ 8101 NONAME
 ?SetContentExtent@XQuickActivate@COleControl@@UEAAJPEAUtagSIZE@@@Z @ 8102 NONAME
