; This is a part of the Microsoft Foundation Classes C++ library.
; Copyright (C) 1992-2001 Microsoft Corporation 
; All rights reserved.
;
; This source code is only intended as a supplement to the
; Microsoft Foundation Classes Reference and related
; electronic documentation provided with the library.
; See these sources for detailed information regarding the
; Microsoft Foundation Classes product.
 
LIBRARY mfc90u.dll 
; For Win32 DLLs, only EXPORTs really required.

EXPORTS
 ??$CopyElements@VCOleVariant@@@@YAXPEAVCOleVariant@@PEBV0@_J@Z @ 256 NONAME
 ??$HashKey@AEBUtagVARIANT@@@@YAIAEBUtagVARIANT@@@Z @ 257 NONAME
 ??$HashKey@PEB_W@@YAIPEB_W@Z @ 258 NONAME
 ??$HashKey@PEBD@@YAIPEBD@Z @ 259 NONAME
 ??$HashKey@VCComBSTR@ATL@@@@YAIVCComBSTR@ATL@@@Z @ 260 NONAME
 ??$SerializeElements@V?$CStringT@_WV?$StrTraitMFC_DLL@_WV?$ChTraitsCRT@_W@ATL@@@@@ATL@@@@YAXAEAVCArchive@@PEAV?$CStringT@_WV?$StrTraitMFC_DLL@_WV?$ChTraitsCRT@_W@ATL@@@@@ATL@@_J@Z @ 261 NONAME
 ??$SerializeElements@V?$CStringT@DV?$StrTraitMFC_DLL@DV?$ChTraitsCRT@D@ATL@@@@@ATL@@@@YAXAEAVCArchive@@PEAV?$CStringT@DV?$StrTraitMFC_DLL@DV?$ChTraitsCRT@D@ATL@@@@@ATL@@_J@Z @ 262 NONAME
 ??$SerializeElements@VCComBSTR@ATL@@@@YAXAEAVCArchive@@PEAVCComBSTR@ATL@@_J@Z @ 263 NONAME
 ??$SerializeElements@VCOleVariant@@@@YAXAEAVCArchive@@PEAVCOleVariant@@_J@Z @ 264 NONAME
 ??_U@YAPEAX_K@Z @ 265 NONAME
 ??_V@YAXPEAX@Z @ 266 NONAME
 ??0?$CSimpleStringT@_W$00@ATL@@QEAA@AEBV?$CSimpleStringT@_W$0A@@1@@Z @ 267 NONAME
 ??0?$CSimpleStringT@_W$00@ATL@@QEAA@AEBV01@@Z @ 268 NONAME
 ??0?$CSimpleStringT@_W$00@ATL@@QEAA@PEAUIAtlStringMgr@1@@Z @ 269 NONAME
 ??0?$CSimpleStringT@_W$00@ATL@@QEAA@PEB_WHPEAUIAtlStringMgr@1@@Z @ 270 NONAME
 ??0?$CSimpleStringT@_W$00@ATL@@QEAA@PEB_WPEAUIAtlStringMgr@1@@Z @ 271 NONAME
 ??0?$CSimpleStringT@D$00@ATL@@QEAA@AEBV?$CSimpleStringT@D$0A@@1@@Z @ 272 NONAME
 ??0?$CSimpleStringT@D$00@ATL@@QEAA@AEBV01@@Z @ 273 NONAME
 ??0?$CSimpleStringT@D$00@ATL@@QEAA@PEAUIAtlStringMgr@1@@Z @ 274 NONAME
 ??0?$CSimpleStringT@D$00@ATL@@QEAA@PEBDHPEAUIAtlStringMgr@1@@Z @ 275 NONAME
 ??0?$CSimpleStringT@D$00@ATL@@QEAA@PEBDPEAUIAtlStringMgr@1@@Z @ 276 NONAME
 ??0?$CStringT@_WV?$StrTraitMFC_DLL@_WV?$ChTraitsCRT@_W@ATL@@@@@ATL@@QEAA@_WH@Z @ 277 NONAME
 ??0?$CStringT@_WV?$StrTraitMFC_DLL@_WV?$ChTraitsCRT@_W@ATL@@@@@ATL@@QEAA@AEBUtagVARIANT@@@Z @ 278 NONAME
 ??0?$CStringT@_WV?$StrTraitMFC_DLL@_WV?$ChTraitsCRT@_W@ATL@@@@@ATL@@QEAA@AEBUtagVARIANT@@PEAUIAtlStringMgr@1@@Z @ 279 NONAME
 ??0?$CStringT@_WV?$StrTraitMFC_DLL@_WV?$ChTraitsCRT@_W@ATL@@@@@ATL@@QEAA@AEBV01@@Z @ 280 NONAME
 ??0?$CStringT@_WV?$StrTraitMFC_DLL@_WV?$ChTraitsCRT@_W@ATL@@@@@ATL@@QEAA@DH@Z @ 281 NONAME
 ??0?$CStringT@_WV?$StrTraitMFC_DLL@_WV?$ChTraitsCRT@_W@ATL@@@@@ATL@@QEAA@PEA_W@Z @ 282 NONAME
 ??0?$CStringT@_WV?$StrTraitMFC_DLL@_WV?$ChTraitsCRT@_W@ATL@@@@@ATL@@QEAA@PEAD@Z @ 283 NONAME
 ??0?$CStringT@_WV?$StrTraitMFC_DLL@_WV?$ChTraitsCRT@_W@ATL@@@@@ATL@@QEAA@PEAE@Z @ 284 NONAME
 ??0?$CStringT@_WV?$StrTraitMFC_DLL@_WV?$ChTraitsCRT@_W@ATL@@@@@ATL@@QEAA@PEAUIAtlStringMgr@1@@Z @ 285 NONAME
 ??0?$CStringT@_WV?$StrTraitMFC_DLL@_WV?$ChTraitsCRT@_W@ATL@@@@@ATL@@QEAA@PEB_W@Z @ 286 NONAME
 ??0?$CStringT@_WV?$StrTraitMFC_DLL@_WV?$ChTraitsCRT@_W@ATL@@@@@ATL@@QEAA@PEB_WH@Z @ 287 NONAME
 ??0?$CStringT@_WV?$StrTraitMFC_DLL@_WV?$ChTraitsCRT@_W@ATL@@@@@ATL@@QEAA@PEB_WHPEAUIAtlStringMgr@1@@Z @ 288 NONAME
 ??0?$CStringT@_WV?$StrTraitMFC_DLL@_WV?$ChTraitsCRT@_W@ATL@@@@@ATL@@QEAA@PEB_WPEAUIAtlStringMgr@1@@Z @ 289 NONAME
 ??0?$CStringT@_WV?$StrTraitMFC_DLL@_WV?$ChTraitsCRT@_W@ATL@@@@@ATL@@QEAA@PEBD@Z @ 290 NONAME
 ??0?$CStringT@_WV?$StrTraitMFC_DLL@_WV?$ChTraitsCRT@_W@ATL@@@@@ATL@@QEAA@PEBDH@Z @ 291 NONAME
 ??0?$CStringT@_WV?$StrTraitMFC_DLL@_WV?$ChTraitsCRT@_W@ATL@@@@@ATL@@QEAA@PEBDHPEAUIAtlStringMgr@1@@Z @ 292 NONAME
 ??0?$CStringT@_WV?$StrTraitMFC_DLL@_WV?$ChTraitsCRT@_W@ATL@@@@@ATL@@QEAA@PEBDPEAUIAtlStringMgr@1@@Z @ 293 NONAME
 ??0?$CStringT@_WV?$StrTraitMFC_DLL@_WV?$ChTraitsCRT@_W@ATL@@@@@ATL@@QEAA@PEBE@Z @ 294 NONAME
 ??0?$CStringT@_WV?$StrTraitMFC_DLL@_WV?$ChTraitsCRT@_W@ATL@@@@@ATL@@QEAA@PEBEPEAUIAtlStringMgr@1@@Z @ 295 NONAME
 ??0?$CStringT@_WV?$StrTraitMFC_DLL@_WV?$ChTraitsCRT@_W@ATL@@@@@ATL@@QEAA@XZ @ 296 NONAME
 ??0?$CStringT@DV?$StrTraitMFC_DLL@DV?$ChTraitsCRT@D@ATL@@@@@ATL@@QEAA@_WH@Z @ 297 NONAME
 ??0?$CStringT@DV?$StrTraitMFC_DLL@DV?$ChTraitsCRT@D@ATL@@@@@ATL@@QEAA@AEBUtagVARIANT@@@Z @ 298 NONAME
 ??0?$CStringT@DV?$StrTraitMFC_DLL@DV?$ChTraitsCRT@D@ATL@@@@@ATL@@QEAA@AEBUtagVARIANT@@PEAUIAtlStringMgr@1@@Z @ 299 NONAME
 ??0?$CStringT@DV?$StrTraitMFC_DLL@DV?$ChTraitsCRT@D@ATL@@@@@ATL@@QEAA@AEBV01@@Z @ 300 NONAME
 ??0?$CStringT@DV?$StrTraitMFC_DLL@DV?$ChTraitsCRT@D@ATL@@@@@ATL@@QEAA@DH@Z @ 301 NONAME
 ??0?$CStringT@DV?$StrTraitMFC_DLL@DV?$ChTraitsCRT@D@ATL@@@@@ATL@@QEAA@PEA_W@Z @ 302 NONAME
 ??0?$CStringT@DV?$StrTraitMFC_DLL@DV?$ChTraitsCRT@D@ATL@@@@@ATL@@QEAA@PEAD@Z @ 303 NONAME
 ??0?$CStringT@DV?$StrTraitMFC_DLL@DV?$ChTraitsCRT@D@ATL@@@@@ATL@@QEAA@PEAE@Z @ 304 NONAME
 ??0?$CStringT@DV?$StrTraitMFC_DLL@DV?$ChTraitsCRT@D@ATL@@@@@ATL@@QEAA@PEAUIAtlStringMgr@1@@Z @ 305 NONAME
 ??0?$CStringT@DV?$StrTraitMFC_DLL@DV?$ChTraitsCRT@D@ATL@@@@@ATL@@QEAA@PEB_W@Z @ 306 NONAME
 ??0?$CStringT@DV?$StrTraitMFC_DLL@DV?$ChTraitsCRT@D@ATL@@@@@ATL@@QEAA@PEB_WH@Z @ 307 NONAME
 ??0?$CStringT@DV?$StrTraitMFC_DLL@DV?$ChTraitsCRT@D@ATL@@@@@ATL@@QEAA@PEB_WHPEAUIAtlStringMgr@1@@Z @ 308 NONAME
 ??0?$CStringT@DV?$StrTraitMFC_DLL@DV?$ChTraitsCRT@D@ATL@@@@@ATL@@QEAA@PEB_WPEAUIAtlStringMgr@1@@Z @ 309 NONAME
 ??0?$CStringT@DV?$StrTraitMFC_DLL@DV?$ChTraitsCRT@D@ATL@@@@@ATL@@QEAA@PEBD@Z @ 310 NONAME
 ??0?$CStringT@DV?$StrTraitMFC_DLL@DV?$ChTraitsCRT@D@ATL@@@@@ATL@@QEAA@PEBDH@Z @ 311 NONAME
 ??0?$CStringT@DV?$StrTraitMFC_DLL@DV?$ChTraitsCRT@D@ATL@@@@@ATL@@QEAA@PEBDHPEAUIAtlStringMgr@1@@Z @ 312 NONAME
 ??0?$CStringT@DV?$StrTraitMFC_DLL@DV?$ChTraitsCRT@D@ATL@@@@@ATL@@QEAA@PEBDPEAUIAtlStringMgr@1@@Z @ 313 NONAME
 ??0?$CStringT@DV?$StrTraitMFC_DLL@DV?$ChTraitsCRT@D@ATL@@@@@ATL@@QEAA@PEBE@Z @ 314 NONAME
 ??0?$CStringT@DV?$StrTraitMFC_DLL@DV?$ChTraitsCRT@D@ATL@@@@@ATL@@QEAA@PEBEPEAUIAtlStringMgr@1@@Z @ 315 NONAME
 ??0?$CStringT@DV?$StrTraitMFC_DLL@DV?$ChTraitsCRT@D@ATL@@@@@ATL@@QEAA@XZ @ 316 NONAME
 ??0_AFX_THREAD_STATE@@QEAA@XZ @ 317 NONAME
 ??0AFX_DDPDATA@@QEAA@PEAXHH0IPEB_W@Z @ 318 NONAME
 ??0AFX_EXCEPTION_LINK@@QEAA@XZ @ 319 NONAME
 ??0AFX_MAINTAIN_STATE2@@QEAA@PEAVAFX_MODULE_STATE@@@Z @ 320 NONAME
 ??0AFX_MODULE_STATE@@QEAA@HP6A_JPEAUHWND__@@I_K_J@ZKH@Z @ 321 NONAME
 ??0AFX_MODULE_THREAD_STATE@@QEAA@XZ @ 322 NONAME
 ??0CArchive@@QEAA@PEAVCFile@@IHPEAX@Z @ 323 NONAME
 ??0CArchivePropExchange@@QEAA@AEAVCArchive@@@Z @ 324 NONAME
 ??0CArchiveStream@@QEAA@PEAVCArchive@@@Z @ 325 NONAME
 ??0CAsyncMonikerFile@@QEAA@XZ @ 326 NONAME
 ??0CAsyncPropExchange@@QEAA@K@Z @ 327 NONAME
 ??0CAsyncSocket@@QEAA@XZ @ 328 NONAME
 ??0CBlobProperty@@QEAA@PEAX@Z @ 329 NONAME
 ??0CBrowserControlSite@@QEAA@PEAVCOleControlContainer@@PEAVCDHtmlDialog@@@Z @ 330 NONAME
 ??0CBrush@@QEAA@HK@Z @ 331 NONAME
 ??0CBrush@@QEAA@K@Z @ 332 NONAME
 ??0CBrush@@QEAA@PEAVCBitmap@@@Z @ 333 NONAME
 ??0CByteArray@@QEAA@XZ @ 334 NONAME
 ??0CChevronOwnerDrawMenu@@QEAA@XZ @ 335 NONAME
 ??0CClientDC@@QEAA@PEAVCWnd@@@Z @ 336 NONAME
 ??0CCmdTarget@@QEAA@XZ @ 337 NONAME
 ??0CCmdUI@@QEAA@XZ @ 338 NONAME
 ??0CColorDialog@@QEAA@KKPEAVCWnd@@@Z @ 339 NONAME
 ??0CCommandLineInfo@@QEAA@XZ @ 340 NONAME
 ??0CConnectionPoint@@QEAA@XZ @ 341 NONAME
 ??0CControlBar@@IEAA@XZ @ 342 NONAME
 ??0CControlBarInfo@@QEAA@XZ @ 343 NONAME
 ??0CControlCreationInfo@@QEAA@XZ @ 344 NONAME
 ??0CControlDataSource@COleControl@@QEAA@PEAV1@@Z @ 345 NONAME
 ??0CControlFrameWnd@@QEAA@PEAVCOleControl@@@Z @ 346 NONAME
 ??0CControlSiteFactoryMgr@@QEAA@XZ @ 347 NONAME
 ??0CCtrlView@@QEAA@PEB_WK@Z @ 348 NONAME
 ??0CDatabase@@QEAA@XZ @ 349 NONAME
 ??0CDataBoundProperty@@QEAA@PEAV0@JG@Z @ 350 NONAME
 ??0CDataExchange@@QEAA@PEAVCWnd@@H@Z @ 351 NONAME
 ??0CDataSourceControl@@QEAA@PEAVCOleControlSite@@@Z @ 352 NONAME
 ??0CDBException@@QEAA@F@Z @ 353 NONAME
 ??0CDBVariant@@QEAA@XZ @ 354 NONAME
 ??0CDC@@QEAA@XZ @ 355 NONAME
 ??0CDHtmlControlSink@@QEAA@PEAUIUnknown@@PEAVCDHtmlSinkHandler@@PEB_W_K@Z @ 356 NONAME
 ??0CDHtmlControlSink@@QEAA@XZ @ 357 NONAME
 ??0CDHtmlDialog@@QEAA@IIPEAVCWnd@@@Z @ 358 NONAME
 ??0CDHtmlDialog@@QEAA@PEB_W0PEAVCWnd@@@Z @ 359 NONAME
 ??0CDHtmlDialog@@QEAA@XZ @ 360 NONAME
 ??0CDHtmlElementEventSink@@QEAA@PEAVCDHtmlEventSink@@PEAUIDispatch@@@Z @ 361 NONAME
 ??0CDialog@@QEAA@IPEAVCWnd@@@Z @ 362 NONAME
 ??0CDialog@@QEAA@PEB_WPEAVCWnd@@@Z @ 363 NONAME
 ??0CDialog@@QEAA@XZ @ 364 NONAME
 ??0CDialogBar@@QEAA@XZ @ 365 NONAME
 ??0CDialogTemplate@@QEAA@PEAX@Z @ 366 NONAME
 ??0CDialogTemplate@@QEAA@PEBUDLGTEMPLATE@@@Z @ 367 NONAME
 ??0CDocItem@@IEAA@XZ @ 368 NONAME
 ??0CDockBar@@QEAA@H@Z @ 369 NONAME
 ??0CDockContext@@QEAA@PEAVCControlBar@@@Z @ 370 NONAME
 ??0CDockState@@QEAA@XZ @ 371 NONAME
 ??0CDocManager@@QEAA@XZ @ 372 NONAME
 ??0CDocObjectServer@@QEAA@PEAVCOleServerDoc@@PEAUIOleDocumentSite@@@Z @ 373 NONAME
 ??0CDocObjectServerItem@@IEAA@PEAVCOleServerDoc@@H@Z @ 374 NONAME
 ??0CDocTemplate@@IEAA@IPEAUCRuntimeClass@@00@Z @ 375 NONAME
 ??0CDocument@@QEAA@XZ @ 376 NONAME
 ??0CDumpContext@@QEAA@PEAVCFile@@@Z @ 377 NONAME
 ??0CDWordArray@@QEAA@XZ @ 378 NONAME
 ??0CDynLinkLibrary@@QEAA@AEAUAFX_EXTENSION_MODULE@@H@Z @ 379 NONAME
 ??0CDynLinkLibrary@@QEAA@PEAUHINSTANCE__@@0@Z @ 380 NONAME
 ??0CEditView@@QEAA@XZ @ 381 NONAME
 ??0CEnumArray@@QEAA@_KPEBXIH@Z @ 382 NONAME
 ??0CEnumConnections@@QEAA@PEBXI@Z @ 383 NONAME
 ??0CEnumConnPoints@@QEAA@PEBXI@Z @ 384 NONAME
 ??0CEnumFormatEtc@@QEAA@XZ @ 385 NONAME
 ??0CEvent@@QEAA@HHPEB_WPEAU_SECURITY_ATTRIBUTES@@@Z @ 386 NONAME
 ??0CException@@QEAA@H@Z @ 387 NONAME
 ??0CException@@QEAA@XZ @ 388 NONAME
 ??0CFieldExchange@@QEAA@IPEAVCRecordset@@PEAX@Z @ 389 NONAME
 ??0CFile@@QEAA@PEAX@Z @ 390 NONAME
 ??0CFile@@QEAA@PEB_WI@Z @ 391 NONAME
 ??0CFile@@QEAA@XZ @ 392 NONAME
 ??0CFileDialog@@QEAA@HPEB_W0K0PEAVCWnd@@KH@Z @ 393 NONAME
 ??0CFileFind@@QEAA@XZ @ 394 NONAME
 ??0CFindReplaceDialog@@QEAA@XZ @ 395 NONAME
 ??0CFixedAlloc@@QEAA@II@Z @ 396 NONAME
 ??0CFixedAllocNoSync@@QEAA@II@Z @ 397 NONAME
 ??0CFontDialog@@QEAA@AEBU_charformatw@@KPEAVCDC@@PEAVCWnd@@@Z @ 398 NONAME
 ??0CFontDialog@@QEAA@PEAUtagLOGFONTW@@KPEAVCDC@@PEAVCWnd@@@Z @ 399 NONAME
 ??0CFontHolder@@QEAA@PEAUIPropertyNotifySink@@@Z @ 400 NONAME
 ??0CFormView@@IEAA@I@Z @ 401 NONAME
 ??0CFormView@@IEAA@PEB_W@Z @ 402 NONAME
 ??0CFrameWnd@@QEAA@XZ @ 403 NONAME
 ??0CFtpConnection@@QEAA@PEAVCInternetSession@@PEAXPEB_W_K@Z @ 404 NONAME
 ??0CFtpConnection@@QEAA@PEAVCInternetSession@@PEB_W11_KGH@Z @ 405 NONAME
 ??0CFtpFileFind@@QEAA@PEAVCFtpConnection@@_K@Z @ 406 NONAME
 ??0CGopherConnection@@QEAA@PEAVCInternetSession@@PEAXPEB_W_K@Z @ 407 NONAME
 ??0CGopherConnection@@QEAA@PEAVCInternetSession@@PEB_W11_KG@Z @ 408 NONAME
 ??0CGopherFile@@IEAA@PEAX0PEB_WK_K@Z @ 409 NONAME
 ??0CGopherFile@@IEAA@PEAXAEAVCGopherLocator@@PEAVCGopherConnection@@@Z @ 410 NONAME
 ??0CGopherFileFind@@QEAA@PEAVCGopherConnection@@_K@Z @ 411 NONAME
 ??0CGopherLocator@@AEAA@PEB_WK@Z @ 412 NONAME
 ??0CHandleMap@@QEAA@PEAUCRuntimeClass@@P6AXPEAVCObject@@@Z2_KH@Z @ 413 NONAME
 ??0CHtmlControlSite@@QEAA@PEAVCOleControlContainer@@@Z @ 414 NONAME
 ??0CHtmlEditCtrl@@QEAA@XZ @ 415 NONAME
 ??0CHtmlEditDoc@@QEAA@XZ @ 416 NONAME
 ??0CHtmlEditView@@QEAA@XZ @ 417 NONAME
 ??0CHtmlView@@IEAA@XZ @ 418 NONAME
 ??0CHttpConnection@@QEAA@PEAVCInternetSession@@PEAXPEB_W_K@Z @ 419 NONAME
 ??0CHttpConnection@@QEAA@PEAVCInternetSession@@PEB_WG11_K@Z @ 420 NONAME
 ??0CHttpConnection@@QEAA@PEAVCInternetSession@@PEB_WKG11_K@Z @ 421 NONAME
 ??0CHttpFile@@IEAA@PEAX0PEB_W11_K@Z @ 422 NONAME
 ??0CHttpFile@@IEAA@PEAXPEB_W1PEAVCHttpConnection@@@Z @ 423 NONAME
 ??0CImageList@@QEAA@XZ @ 424 NONAME
 ??0CInternetConnection@@QEAA@PEAVCInternetSession@@PEB_WG_K@Z @ 425 NONAME
 ??0CInternetException@@QEAA@K@Z @ 426 NONAME
 ??0CInternetFile@@IEAA@PEAX0PEB_W1_KH@Z @ 427 NONAME
 ??0CInternetFile@@IEAA@PEAXPEB_WPEAVCInternetConnection@@H@Z @ 428 NONAME
 ??0CInternetSession@@QEAA@PEB_W_KK00K@Z @ 429 NONAME
 ??0CLongBinary@@QEAA@XZ @ 430 NONAME
 ??0CMapPtrToPtr@@QEAA@_J@Z @ 431 NONAME
 ??0CMapPtrToWord@@QEAA@_J@Z @ 432 NONAME
 ??0CMapStringToOb@@QEAA@_J@Z @ 433 NONAME
 ??0CMapStringToPtr@@QEAA@_J@Z @ 434 NONAME
 ??0CMapStringToString@@QEAA@_J@Z @ 435 NONAME
 ??0CMapWordToOb@@QEAA@_J@Z @ 436 NONAME
 ??0CMapWordToPtr@@QEAA@_J@Z @ 437 NONAME
 ??0CMDIChildWnd@@QEAA@XZ @ 438 NONAME
 ??0CMDIFrameWnd@@QEAA@XZ @ 439 NONAME
 ??0CMemFile@@QEAA@I@Z @ 440 NONAME
 ??0CMemFile@@QEAA@PEAEII@Z @ 441 NONAME
 ??0CMetaFileDC@@QEAA@XZ @ 442 NONAME
 ??0CMiniDockFrameWnd@@QEAA@XZ @ 443 NONAME
 ??0CMiniFrameWnd@@QEAA@XZ @ 444 NONAME
 ??0CMultiDocTemplate@@QEAA@IPEAUCRuntimeClass@@00@Z @ 445 NONAME
 ??0CMultiLock@@QEAA@QEAPEAVCSyncObject@@KH@Z @ 446 NONAME
 ??0CMultiPageDHtmlDialog@@QEAA@IIPEAVCWnd@@@Z @ 447 NONAME
 ??0CMultiPageDHtmlDialog@@QEAA@PEB_W0PEAVCWnd@@@Z @ 448 NONAME
 ??0CMultiPageDHtmlDialog@@QEAA@XZ @ 449 NONAME
 ??0CMutex@@QEAA@HPEB_WPEAU_SECURITY_ATTRIBUTES@@@Z @ 450 NONAME
 ??0CObArray@@QEAA@XZ @ 451 NONAME
 ??0CObList@@QEAA@_J@Z @ 452 NONAME
 ??0COleBusyDialog@@QEAA@PEAUHTASK__@@HKPEAVCWnd@@@Z @ 453 NONAME
 ??0COleChangeIconDialog@@QEAA@PEAVCOleClientItem@@KPEAVCWnd@@@Z @ 454 NONAME
 ??0COleChangeSourceDialog@@QEAA@PEAVCOleClientItem@@PEAVCWnd@@@Z @ 455 NONAME
 ??0COleClientItem@@QEAA@PEAVCOleDocument@@@Z @ 456 NONAME
 ??0COleCmdUI@@QEAA@PEAU_tagOLECMD@@KPEBU_GUID@@@Z @ 457 NONAME
 ??0COleCntrFrameWnd@@QEAA@PEAVCOleIPFrameWnd@@@Z @ 458 NONAME
 ??0COleControl@@QEAA@XZ @ 459 NONAME
 ??0COleControlContainer@@QEAA@PEAVCWnd@@@Z @ 460 NONAME
 ??0COleControlLock@@QEAA@AEBU_GUID@@@Z @ 461 NONAME
 ??0COleControlSite@@QEAA@PEAVCOleControlContainer@@@Z @ 462 NONAME
 ??0COleControlSiteOrWnd@@QEAA@PEAUHWND__@@H@Z @ 463 NONAME
 ??0COleControlSiteOrWnd@@QEAA@PEAVCOleControlSite@@@Z @ 464 NONAME
 ??0COleControlSiteOrWnd@@QEAA@XZ @ 465 NONAME
 ??0COleConvertDialog@@QEAA@PEAVCOleClientItem@@KPEAU_GUID@@PEAVCWnd@@@Z @ 466 NONAME
 ??0COleCurrency@@QEAA@JJ@Z @ 467 NONAME
 ??0COleDataObject@@QEAA@XZ @ 468 NONAME
 ??0COleDataSource@@QEAA@XZ @ 469 NONAME
 ??0COleDialog@@QEAA@PEAVCWnd@@@Z @ 470 NONAME
 ??0COleDispatchDriver@@QEAA@AEBV0@@Z @ 471 NONAME
 ??0COleDispatchDriver@@QEAA@PEAUIDispatch@@H@Z @ 472 NONAME
 ??0COleDispatchDriver@@QEAA@XZ @ 473 NONAME
 ??0COleDispatchException@@QEAA@PEB_WIG@Z @ 474 NONAME
 ??0COleDocIPFrameWnd@@QEAA@XZ @ 475 NONAME
 ??0COleDocObjectItem@@QEAA@PEAVCOleDocument@@@Z @ 476 NONAME
 ??0COleDocument@@QEAA@XZ @ 477 NONAME
 ??0COleDropSource@@QEAA@XZ @ 478 NONAME
 ??0COleDropTarget@@QEAA@XZ @ 479 NONAME
 ??0COleFrameHook@@QEAA@PEAVCFrameWnd@@PEAVCOleClientItem@@@Z @ 480 NONAME
 ??0COleInsertDialog@@QEAA@KPEAVCWnd@@@Z @ 481 NONAME
 ??0COleIPFrameWnd@@QEAA@XZ @ 482 NONAME
 ??0COleLinkingDoc@@QEAA@XZ @ 483 NONAME
 ??0COleLinksDialog@@QEAA@PEAVCOleDocument@@PEAVCView@@KPEAVCWnd@@@Z @ 484 NONAME
 ??0COleMessageFilter@@QEAA@XZ @ 485 NONAME
 ??0COleObjectFactory@@QEAA@AEBU_GUID@@PEAUCRuntimeClass@@HHPEB_W@Z @ 486 NONAME
 ??0COleObjectFactory@@QEAA@AEBU_GUID@@PEAUCRuntimeClass@@HPEB_W@Z @ 487 NONAME
 ??0COlePasteSpecialDialog@@QEAA@KPEAVCOleDataObject@@PEAVCWnd@@@Z @ 488 NONAME
 ??0COlePropertiesDialog@@QEAA@PEAVCOleClientItem@@IIPEAVCWnd@@@Z @ 489 NONAME
 ??0COlePropertyPage@@QEAA@II@Z @ 490 NONAME
 ??0COleResizeBar@@QEAA@XZ @ 491 NONAME
 ??0COleSafeArray@@QEAA@AEBUtagSAFEARRAY@@G@Z @ 492 NONAME
 ??0COleSafeArray@@QEAA@AEBUtagVARIANT@@@Z @ 493 NONAME
 ??0COleSafeArray@@QEAA@AEBV0@@Z @ 494 NONAME
 ??0COleSafeArray@@QEAA@AEBVCOleVariant@@@Z @ 495 NONAME
 ??0COleSafeArray@@QEAA@PEBUtagSAFEARRAY@@G@Z @ 496 NONAME
 ??0COleSafeArray@@QEAA@PEBUtagVARIANT@@@Z @ 497 NONAME
 ??0COleServerDoc@@QEAA@XZ @ 498 NONAME
 ??0COleServerItem@@IEAA@PEAVCOleServerDoc@@H@Z @ 499 NONAME
 ??0COleStreamFile@@QEAA@PEAUIStream@@@Z @ 500 NONAME
 ??0COleTemplateServer@@QEAA@XZ @ 501 NONAME
 ??0COleUILinkInfo@@QEAA@PEAVCOleDocument@@@Z @ 502 NONAME
 ??0COleUpdateDialog@@QEAA@PEAVCOleDocument@@HHPEAVCWnd@@@Z @ 503 NONAME
 ??0COleVariant@@QEAA@AEBUtagVARIANT@@@Z @ 504 NONAME
 ??0COleVariant@@QEAA@AEBV0@@Z @ 505 NONAME
 ??0COleVariant@@QEAA@FG@Z @ 506 NONAME
 ??0COleVariant@@QEAA@JG@Z @ 507 NONAME
 ??0COleVariant@@QEAA@PEB_WG@Z @ 508 NONAME
 ??0COleVariant@@QEAA@PEBUtagVARIANT@@@Z @ 509 NONAME
 ??0COleVariant@@QEAA@PEFBU_ITEMIDLIST@@@Z @ 510 NONAME
 ??0CPageSetupDialog@@QEAA@KPEAVCWnd@@@Z @ 511 NONAME
 ??0CPaintDC@@QEAA@PEAVCWnd@@@Z @ 512 NONAME
 ??0CPen@@QEAA@HHK@Z @ 513 NONAME
 ??0CPen@@QEAA@HHPEBUtagLOGBRUSH@@HPEBK@Z @ 514 NONAME
 ??0CPictureHolder@@QEAA@XZ @ 515 NONAME
 ??0CPreviewDC@@QEAA@XZ @ 516 NONAME
 ??0CPreviewView@@QEAA@XZ @ 517 NONAME
 ??0CPrintDialog@@IEAA@AEAUtagPDW@@@Z @ 518 NONAME
 ??0CPrintDialog@@QEAA@HKPEAVCWnd@@@Z @ 519 NONAME
 ??0CPrintDialogEx@@QEAA@KPEAVCWnd@@@Z @ 520 NONAME
 ??0CPrintInfo@@QEAA@XZ @ 521 NONAME
 ??0CPrintPreviewState@@QEAA@XZ @ 522 NONAME
 ??0CPropbagPropExchange@@QEAA@PEAUIPropertyBag@@PEAUIErrorLog@@HH@Z @ 523 NONAME
 ??0CProperty@@QEAA@KQEAXK@Z @ 524 NONAME
 ??0CProperty@@QEAA@XZ @ 525 NONAME
 ??0CPropertyPage@@QEAA@IIIIK@Z @ 526 NONAME
 ??0CPropertyPage@@QEAA@IIK@Z @ 527 NONAME
 ??0CPropertyPage@@QEAA@PEB_WIIIK@Z @ 528 NONAME
 ??0CPropertyPage@@QEAA@PEB_WIK@Z @ 529 NONAME
 ??0CPropertyPage@@QEAA@XZ @ 530 NONAME
 ??0CPropertySection@@QEAA@U_GUID@@@Z @ 531 NONAME
 ??0CPropertySection@@QEAA@XZ @ 532 NONAME
 ??0CPropertySet@@QEAA@U_GUID@@@Z @ 533 NONAME
 ??0CPropertySet@@QEAA@XZ @ 534 NONAME
 ??0CPropertySheet@@QEAA@IPEAVCWnd@@I@Z @ 535 NONAME
 ??0CPropertySheet@@QEAA@IPEAVCWnd@@IPEAUHBITMAP__@@PEAUHPALETTE__@@1@Z @ 536 NONAME
 ??0CPropertySheet@@QEAA@PEB_WPEAVCWnd@@I@Z @ 537 NONAME
 ??0CPropertySheet@@QEAA@PEB_WPEAVCWnd@@IPEAUHBITMAP__@@PEAUHPALETTE__@@2@Z @ 538 NONAME
 ??0CPropertySheet@@QEAA@XZ @ 539 NONAME
 ??0CPropsetPropExchange@@QEAA@AEAVCPropertySection@@PEAUIStorage@@H@Z @ 540 NONAME
 ??0CPtrArray@@QEAA@XZ @ 541 NONAME
 ??0CPtrList@@QEAA@_J@Z @ 542 NONAME
 ??0CReBar@@QEAA@XZ @ 543 NONAME
 ??0CRecentFileList@@QEAA@IPEB_W0HH@Z @ 544 NONAME
 ??0CRecordset@@QEAA@PEAVCDatabase@@@Z @ 545 NONAME
 ??0CRecordView@@IEAA@I@Z @ 546 NONAME
 ??0CRecordView@@IEAA@PEB_W@Z @ 547 NONAME
 ??0CRectTracker@@QEAA@PEBUtagRECT@@I@Z @ 548 NONAME
 ??0CReObject@@QEAA@PEAVCRichEditCntrItem@@@Z @ 549 NONAME
 ??0CReObject@@QEAA@XZ @ 550 NONAME
 ??0CResetPropExchange@@QEAA@XZ @ 551 NONAME
 ??0CRichEditCntrItem@@QEAA@PEAU_reobject@@PEAVCRichEditDoc@@@Z @ 552 NONAME
 ??0CRichEditDoc@@IEAA@XZ @ 553 NONAME
 ??0CRichEditView@@QEAA@XZ @ 554 NONAME
 ??0CScrollView@@IEAA@XZ @ 555 NONAME
 ??0CSemaphore@@QEAA@JJPEB_WPEAU_SECURITY_ATTRIBUTES@@@Z @ 556 NONAME
 ??0CSharedFile@@QEAA@II@Z @ 557 NONAME
 ??0CSingleDocTemplate@@QEAA@IPEAUCRuntimeClass@@00@Z @ 558 NONAME
 ??0CSingleLock@@QEAA@PEAVCSyncObject@@H@Z @ 559 NONAME
 ??0CSocket@@QEAA@XZ @ 560 NONAME
 ??0CSocketFile@@QEAA@PEAVCSocket@@H@Z @ 561 NONAME
 ??0CSocketWnd@@QEAA@XZ @ 562 NONAME
 ??0CSplitterWnd@@QEAA@XZ @ 563 NONAME
 ??0CStatusBar@@QEAA@XZ @ 564 NONAME
 ??0CStdioFile@@QEAA@PEAU_iobuf@@@Z @ 565 NONAME
 ??0CStdioFile@@QEAA@PEB_WI@Z @ 566 NONAME
 ??0CStdioFile@@QEAA@XZ @ 567 NONAME
 ??0CStringArray@@QEAA@XZ @ 568 NONAME
 ??0CStringList@@QEAA@_J@Z @ 569 NONAME
 ??0CSyncObject@@QEAA@PEB_W@Z @ 570 NONAME
 ??0CTestCmdUI@@QEAA@XZ @ 571 NONAME
 ??0CThreadSlotData@@QEAA@XZ @ 572 NONAME
 ??0CToolBar@@QEAA@XZ @ 573 NONAME
 ??0CToolTipCtrl@@QEAA@XZ @ 574 NONAME
 ??0CUIntArray@@QEAA@XZ @ 575 NONAME
 ??0CView@@IEAA@XZ @ 576 NONAME
 ??0CWinApp@@QEAA@PEB_W@Z @ 577 NONAME
 ??0CWindowDC@@QEAA@PEAVCWnd@@@Z @ 578 NONAME
 ??0CWindowlessDC@@QEAA@PEAUHDC__@@AEAVCPoint@@@Z @ 579 NONAME
 ??0CWinThread@@QEAA@P6AIPEAX@Z0@Z @ 580 NONAME
 ??0CWinThread@@QEAA@XZ @ 581 NONAME
 ??0CWnd@@AEAA@PEAUHWND__@@@Z @ 582 NONAME
 ??0CWnd@@QEAA@XZ @ 583 NONAME
 ??0CWordArray@@QEAA@XZ @ 584 NONAME
 ??0PAGE_INFO@CPreviewView@@QEAA@XZ @ 585 NONAME
 ??1?$CSimpleStringT@_W$00@ATL@@QEAA@XZ @ 586 NONAME
 ??1?$CSimpleStringT@D$00@ATL@@QEAA@XZ @ 587 NONAME
 ??1?$CStringT@_WV?$StrTraitMFC_DLL@_WV?$ChTraitsCRT@_W@ATL@@@@@ATL@@QEAA@XZ @ 588 NONAME
 ??1?$CStringT@DV?$StrTraitMFC_DLL@DV?$ChTraitsCRT@D@ATL@@@@@ATL@@QEAA@XZ @ 589 NONAME
 ??1_AFX_THREAD_STATE@@UEAA@XZ @ 590 NONAME
 ??1AFX_MAINTAIN_STATE@@QEAA@XZ @ 591 NONAME
 ??1AFX_MODULE_STATE@@UEAA@XZ @ 592 NONAME
 ??1AFX_MODULE_THREAD_STATE@@UEAA@XZ @ 593 NONAME
 ??1CAnimateCtrl@@UEAA@XZ @ 594 NONAME
 ??1CArchive@@QEAA@XZ @ 595 NONAME
 ??1CAsyncMonikerFile@@UEAA@XZ @ 596 NONAME
 ??1CAsyncSocket@@UEAA@XZ @ 597 NONAME
 ??1CButton@@UEAA@XZ @ 598 NONAME
 ??1CByteArray@@UEAA@XZ @ 599 NONAME
 ??1CClientDC@@UEAA@XZ @ 600 NONAME
 ??1CCmdTarget@@UEAA@XZ @ 601 NONAME
 ??1CComboBox@@UEAA@XZ @ 602 NONAME
 ??1CComboBoxEx@@UEAA@XZ @ 603 NONAME
 ??1CCommandLineInfo@@UEAA@XZ @ 604 NONAME
 ??1CConnectionPoint@@UEAA@XZ @ 605 NONAME
 ??1CControlBar@@UEAA@XZ @ 606 NONAME
 ??1CControlSiteFactoryMgr@@UEAA@XZ @ 607 NONAME
 ??1CCtrlView@@UEAA@XZ @ 608 NONAME
 ??1CDatabase@@UEAA@XZ @ 609 NONAME
 ??1CDataSourceControl@@QEAA@XZ @ 610 NONAME
 ??1CDateTimeCtrl@@UEAA@XZ @ 611 NONAME
 ??1CDBException@@UEAA@XZ @ 612 NONAME
 ??1CDBVariant@@UEAA@XZ @ 613 NONAME
 ??1CDC@@UEAA@XZ @ 614 NONAME
 ??1CDHtmlControlSink@@UEAA@XZ @ 615 NONAME
 ??1CDHtmlDialog@@UEAA@XZ @ 616 NONAME
 ??1CDialog@@UEAA@XZ @ 617 NONAME
 ??1CDialogBar@@UEAA@XZ @ 618 NONAME
 ??1CDialogTemplate@@QEAA@XZ @ 619 NONAME
 ??1CDocItem@@UEAA@XZ @ 620 NONAME
 ??1CDockBar@@UEAA@XZ @ 621 NONAME
 ??1CDockContext@@UEAA@XZ @ 622 NONAME
 ??1CDockState@@UEAA@XZ @ 623 NONAME
 ??1CDocManager@@UEAA@XZ @ 624 NONAME
 ??1CDocObjectServer@@UEAA@XZ @ 625 NONAME
 ??1CDocObjectServerItem@@UEAA@XZ @ 626 NONAME
 ??1CDocTemplate@@UEAA@XZ @ 627 NONAME
 ??1CDocument@@UEAA@XZ @ 628 NONAME
 ??1CDragListBox@@UEAA@XZ @ 629 NONAME
 ??1CDWordArray@@UEAA@XZ @ 630 NONAME
 ??1CDynLinkLibrary@@UEAA@XZ @ 631 NONAME
 ??1CEdit@@UEAA@XZ @ 632 NONAME
 ??1CEditView@@UEAA@XZ @ 633 NONAME
 ??1CEnumArray@@UEAA@XZ @ 634 NONAME
 ??1CEnumConnections@@UEAA@XZ @ 635 NONAME
 ??1CEnumConnPoints@@UEAA@XZ @ 636 NONAME
 ??1CEnumFormatEtc@@UEAA@XZ @ 637 NONAME
 ??1CEnumOleVerb@@UEAA@XZ @ 638 NONAME
 ??1CEnumUnknown@@UEAA@XZ @ 639 NONAME
 ??1CEvent@@UEAA@XZ @ 640 NONAME
 ??1CFile@@UEAA@XZ @ 641 NONAME
 ??1CFileDialog@@UEAA@XZ @ 642 NONAME
 ??1CFileFind@@UEAA@XZ @ 643 NONAME
 ??1CFixedAlloc@@QEAA@XZ @ 644 NONAME
 ??1CFixedAllocNoSync@@QEAA@XZ @ 645 NONAME
 ??1CFontHolder@@QEAA@XZ @ 646 NONAME
 ??1CFormView@@UEAA@XZ @ 647 NONAME
 ??1CFrameWnd@@UEAA@XZ @ 648 NONAME
 ??1CFtpConnection@@UEAA@XZ @ 649 NONAME
 ??1CFtpFileFind@@UEAA@XZ @ 650 NONAME
 ??1CGopherConnection@@UEAA@XZ @ 651 NONAME
 ??1CGopherFile@@UEAA@XZ @ 652 NONAME
 ??1CGopherFileFind@@UEAA@XZ @ 653 NONAME
 ??1CGopherLocator@@UEAA@XZ @ 654 NONAME
 ??1CHeaderCtrl@@UEAA@XZ @ 655 NONAME
 ??1CHotKeyCtrl@@UEAA@XZ @ 656 NONAME
 ??1CHtmlControlSite@@UEAA@XZ @ 657 NONAME
 ??1CHtmlEditCtrl@@UEAA@XZ @ 658 NONAME
 ??1CHtmlEditDoc@@UEAA@XZ @ 659 NONAME
 ??1CHtmlEditView@@UEAA@XZ @ 660 NONAME
 ??1CHtmlView@@UEAA@XZ @ 661 NONAME
 ??1CHttpConnection@@UEAA@XZ @ 662 NONAME
 ??1CHttpFile@@UEAA@XZ @ 663 NONAME
 ??1CImageList@@UEAA@XZ @ 664 NONAME
 ??1CInternetConnection@@UEAA@XZ @ 665 NONAME
 ??1CInternetException@@UEAA@XZ @ 666 NONAME
 ??1CInternetFile@@UEAA@XZ @ 667 NONAME
 ??1CInternetSession@@UEAA@XZ @ 668 NONAME
 ??1CIPAddressCtrl@@UEAA@XZ @ 669 NONAME
 ??1CListBox@@UEAA@XZ @ 670 NONAME
 ??1CListCtrl@@UEAA@XZ @ 671 NONAME
 ??1CLongBinary@@UEAA@XZ @ 672 NONAME
 ??1CMapPtrToPtr@@UEAA@XZ @ 673 NONAME
 ??1CMapPtrToWord@@UEAA@XZ @ 674 NONAME
 ??1CMapStringToOb@@UEAA@XZ @ 675 NONAME
 ??1CMapStringToPtr@@UEAA@XZ @ 676 NONAME
 ??1CMapStringToString@@UEAA@XZ @ 677 NONAME
 ??1CMapWordToOb@@UEAA@XZ @ 678 NONAME
 ??1CMapWordToPtr@@UEAA@XZ @ 679 NONAME
 ??1CMemFile@@UEAA@XZ @ 680 NONAME
 ??1CMetaFileDC@@UEAA@XZ @ 681 NONAME
 ??1CMiniFrameWnd@@UEAA@XZ @ 682 NONAME
 ??1CMonikerFile@@UEAA@XZ @ 683 NONAME
 ??1CMonthCalCtrl@@UEAA@XZ @ 684 NONAME
 ??1CMultiDocTemplate@@UEAA@XZ @ 685 NONAME
 ??1CMultiLock@@QEAA@XZ @ 686 NONAME
 ??1CMultiPageDHtmlDialog@@UEAA@XZ @ 687 NONAME
 ??1CMutex@@UEAA@XZ @ 688 NONAME
 ??1CObArray@@UEAA@XZ @ 689 NONAME
 ??1CObList@@UEAA@XZ @ 690 NONAME
 ??1COleBusyDialog@@UEAA@XZ @ 691 NONAME
 ??1COleChangeIconDialog@@UEAA@XZ @ 692 NONAME
 ??1COleChangeSourceDialog@@UEAA@XZ @ 693 NONAME
 ??1COleClientItem@@UEAA@XZ @ 694 NONAME
 ??1COleCntrFrameWnd@@UEAA@XZ @ 695 NONAME
 ??1COleControl@@UEAA@XZ @ 696 NONAME
 ??1COleControlContainer@@UEAA@XZ @ 697 NONAME
 ??1COleControlLock@@UEAA@XZ @ 698 NONAME
 ??1COleControlSite@@UEAA@XZ @ 699 NONAME
 ??1COleControlSiteOrWnd@@QEAA@XZ @ 700 NONAME
 ??1COleConvertDialog@@UEAA@XZ @ 701 NONAME
 ??1COleDataSource@@UEAA@XZ @ 702 NONAME
 ??1COleDispatchException@@UEAA@XZ @ 703 NONAME
 ??1COleDocIPFrameWnd@@UEAA@XZ @ 704 NONAME
 ??1COleDocObjectItem@@UEAA@XZ @ 705 NONAME
 ??1COleDocument@@UEAA@XZ @ 706 NONAME
 ??1COleDropTarget@@UEAA@XZ @ 707 NONAME
 ??1COleFrameHook@@UEAA@XZ @ 708 NONAME
 ??1COleInsertDialog@@UEAA@XZ @ 709 NONAME
 ??1COleIPFrameWnd@@UEAA@XZ @ 710 NONAME
 ??1COleLinkingDoc@@UEAA@XZ @ 711 NONAME
 ??1COleLinksDialog@@UEAA@XZ @ 712 NONAME
 ??1COleMessageFilter@@UEAA@XZ @ 713 NONAME
 ??1COleObjectFactory@@UEAA@XZ @ 714 NONAME
 ??1COlePasteSpecialDialog@@UEAA@XZ @ 715 NONAME
 ??1COlePropertyPage@@UEAA@XZ @ 716 NONAME
 ??1COleResizeBar@@UEAA@XZ @ 717 NONAME
 ??1COleServerDoc@@UEAA@XZ @ 718 NONAME
 ??1COleServerItem@@UEAA@XZ @ 719 NONAME
 ??1COleStreamFile@@UEAA@XZ @ 720 NONAME
 ??1COleUpdateDialog@@UEAA@XZ @ 721 NONAME
 ??1CPaintDC@@UEAA@XZ @ 722 NONAME
 ??1CPictureHolder@@QEAA@XZ @ 723 NONAME
 ??1CPreviewDC@@UEAA@XZ @ 724 NONAME
 ??1CPreviewView@@UEAA@XZ @ 725 NONAME
 ??1CPrintInfo@@QEAA@XZ @ 726 NONAME
 ??1CProcessLocalObject@@QEAA@XZ @ 727 NONAME
 ??1CProgressCtrl@@UEAA@XZ @ 728 NONAME
 ??1CPropbagPropExchange@@UEAA@XZ @ 729 NONAME
 ??1CProperty@@QEAA@XZ @ 730 NONAME
 ??1CPropertyPage@@UEAA@XZ @ 731 NONAME
 ??1CPropertySection@@QEAA@XZ @ 732 NONAME
 ??1CPropertySet@@QEAA@XZ @ 733 NONAME
 ??1CPropertySheet@@UEAA@XZ @ 734 NONAME
 ??1CPtrArray@@UEAA@XZ @ 735 NONAME
 ??1CPtrList@@UEAA@XZ @ 736 NONAME
 ??1CReBarCtrl@@UEAA@XZ @ 737 NONAME
 ??1CRecentFileList@@UEAA@XZ @ 738 NONAME
 ??1CRecordset@@UEAA@XZ @ 739 NONAME
 ??1CRecordView@@UEAA@XZ @ 740 NONAME
 ??1CRectTracker@@UEAA@XZ @ 741 NONAME
 ??1CReObject@@QEAA@XZ @ 742 NONAME
 ??1CRichEditCntrItem@@UEAA@XZ @ 743 NONAME
 ??1CRichEditCtrl@@UEAA@XZ @ 744 NONAME
 ??1CScrollBar@@UEAA@XZ @ 745 NONAME
 ??1CScrollView@@UEAA@XZ @ 746 NONAME
 ??1CSemaphore@@UEAA@XZ @ 747 NONAME
 ??1CSharedFile@@UEAA@XZ @ 748 NONAME
 ??1CSingleDocTemplate@@UEAA@XZ @ 749 NONAME
 ??1CSliderCtrl@@UEAA@XZ @ 750 NONAME
 ??1CSocket@@UEAA@XZ @ 751 NONAME
 ??1CSocketFile@@UEAA@XZ @ 752 NONAME
 ??1CSpinButtonCtrl@@UEAA@XZ @ 753 NONAME
 ??1CSplitButton@@UEAA@XZ @ 754 NONAME
 ??1CSplitterWnd@@UEAA@XZ @ 755 NONAME
 ??1CStatic@@UEAA@XZ @ 756 NONAME
 ??1CStatusBar@@UEAA@XZ @ 757 NONAME
 ??1CStatusBarCtrl@@UEAA@XZ @ 758 NONAME
 ??1CStdioFile@@UEAA@XZ @ 759 NONAME
 ??1CStringArray@@UEAA@XZ @ 760 NONAME
 ??1CStringList@@UEAA@XZ @ 761 NONAME
 ??1CSyncObject@@UEAA@XZ @ 762 NONAME
 ??1CTabCtrl@@UEAA@XZ @ 763 NONAME
 ??1CThreadLocalObject@@QEAA@XZ @ 764 NONAME
 ??1CThreadSlotData@@QEAA@XZ @ 765 NONAME
 ??1CToolBar@@UEAA@XZ @ 766 NONAME
 ??1CToolBarCtrl@@UEAA@XZ @ 767 NONAME
 ??1CToolTipCtrl@@UEAA@XZ @ 768 NONAME
 ??1CTreeCtrl@@UEAA@XZ @ 769 NONAME
 ??1CUIntArray@@UEAA@XZ @ 770 NONAME
 ??1CView@@UEAA@XZ @ 771 NONAME
 ??1CWinApp@@UEAA@XZ @ 772 NONAME
 ??1CWindowDC@@UEAA@XZ @ 773 NONAME
 ??1CWinThread@@UEAA@XZ @ 774 NONAME
 ??1CWnd@@UEAA@XZ @ 775 NONAME
 ??1CWordArray@@UEAA@XZ @ 776 NONAME
 ??2@YAPEAX_K@Z @ 777 NONAME
 ??2CNoTrackObject@@SAPEAX_K@Z @ 778 NONAME
 ??3@YAXPEAX@Z @ 779 NONAME
 ??3CNoTrackObject@@SAXPEAX@Z @ 780 NONAME
 ??4?$CSimpleStringT@_W$00@ATL@@QEAAAEAV01@AEBV?$CSimpleStringT@_W$0A@@1@@Z @ 781 NONAME
 ??4?$CSimpleStringT@_W$00@ATL@@QEAAAEAV01@AEBV01@@Z @ 782 NONAME
 ??4?$CSimpleStringT@_W$00@ATL@@QEAAAEAV01@PEB_W@Z @ 783 NONAME
 ??4?$CSimpleStringT@D$00@ATL@@QEAAAEAV01@AEBV?$CSimpleStringT@D$0A@@1@@Z @ 784 NONAME
 ??4?$CSimpleStringT@D$00@ATL@@QEAAAEAV01@AEBV01@@Z @ 785 NONAME
 ??4?$CSimpleStringT@D$00@ATL@@QEAAAEAV01@PEBD@Z @ 786 NONAME
 ??4?$CStringT@_WV?$StrTraitMFC_DLL@_WV?$ChTraitsCRT@_W@ATL@@@@@ATL@@QEAAAEAV01@_W@Z @ 787 NONAME
 ??4?$CStringT@_WV?$StrTraitMFC_DLL@_WV?$ChTraitsCRT@_W@ATL@@@@@ATL@@QEAAAEAV01@AEBUtagVARIANT@@@Z @ 788 NONAME
 ??4?$CStringT@_WV?$StrTraitMFC_DLL@_WV?$ChTraitsCRT@_W@ATL@@@@@ATL@@QEAAAEAV01@AEBV01@@Z @ 789 NONAME
 ??4?$CStringT@_WV?$StrTraitMFC_DLL@_WV?$ChTraitsCRT@_W@ATL@@@@@ATL@@QEAAAEAV01@D@Z @ 790 NONAME
 ??4?$CStringT@_WV?$StrTraitMFC_DLL@_WV?$ChTraitsCRT@_W@ATL@@@@@ATL@@QEAAAEAV01@PEB_W@Z @ 791 NONAME
 ??4?$CStringT@_WV?$StrTraitMFC_DLL@_WV?$ChTraitsCRT@_W@ATL@@@@@ATL@@QEAAAEAV01@PEBD@Z @ 792 NONAME
 ??4?$CStringT@_WV?$StrTraitMFC_DLL@_WV?$ChTraitsCRT@_W@ATL@@@@@ATL@@QEAAAEAV01@PEBE@Z @ 793 NONAME
 ??4?$CStringT@DV?$StrTraitMFC_DLL@DV?$ChTraitsCRT@D@ATL@@@@@ATL@@QEAAAEAV01@_W@Z @ 794 NONAME
 ??4?$CStringT@DV?$StrTraitMFC_DLL@DV?$ChTraitsCRT@D@ATL@@@@@ATL@@QEAAAEAV01@AEBUtagVARIANT@@@Z @ 795 NONAME
 ??4?$CStringT@DV?$StrTraitMFC_DLL@DV?$ChTraitsCRT@D@ATL@@@@@ATL@@QEAAAEAV01@AEBV01@@Z @ 796 NONAME
 ??4?$CStringT@DV?$StrTraitMFC_DLL@DV?$ChTraitsCRT@D@ATL@@@@@ATL@@QEAAAEAV01@D@Z @ 797 NONAME
 ??4?$CStringT@DV?$StrTraitMFC_DLL@DV?$ChTraitsCRT@D@ATL@@@@@ATL@@QEAAAEAV01@PEB_W@Z @ 798 NONAME
 ??4?$CStringT@DV?$StrTraitMFC_DLL@DV?$ChTraitsCRT@D@ATL@@@@@ATL@@QEAAAEAV01@PEBD@Z @ 799 NONAME
 ??4?$CStringT@DV?$StrTraitMFC_DLL@DV?$ChTraitsCRT@D@ATL@@@@@ATL@@QEAAAEAV01@PEBE@Z @ 800 NONAME
 ??4COleCurrency@@QEAAAEBV0@AEBUtagVARIANT@@@Z @ 801 NONAME
 ??4COleCurrency@@QEAAAEBV0@AEBV0@@Z @ 802 NONAME
 ??4COleCurrency@@QEAAAEBV0@TtagCY@@@Z @ 803 NONAME
 ??4COleDispatchDriver@@QEAAAEBV0@AEBV0@@Z @ 804 NONAME
 ??4COleSafeArray@@QEAAAEAV0@AEBUtagVARIANT@@@Z @ 805 NONAME
 ??4COleSafeArray@@QEAAAEAV0@AEBV0@@Z @ 806 NONAME
 ??4COleSafeArray@@QEAAAEAV0@AEBVCOleVariant@@@Z @ 807 NONAME
 ??4COleSafeArray@@QEAAAEAV0@PEBUtagVARIANT@@@Z @ 808 NONAME
 ??4COleVariant@@QEAAAEBV0@_J@Z @ 809 NONAME
 ??4COleVariant@@QEAAAEBV0@_K@Z @ 810 NONAME
 ??4COleVariant@@QEAAAEBV0@AEBUtagVARIANT@@@Z @ 811 NONAME
 ??4COleVariant@@QEAAAEBV0@AEBV?$CStringT@_WV?$StrTraitMFC_DLL@_WV?$ChTraitsCRT@_W@ATL@@@@@ATL@@@Z @ 812 NONAME
 ??4COleVariant@@QEAAAEBV0@AEBV0@@Z @ 813 NONAME
 ??4COleVariant@@QEAAAEBV0@AEBVCByteArray@@@Z @ 814 NONAME
 ??4COleVariant@@QEAAAEBV0@AEBVCLongBinary@@@Z @ 815 NONAME
 ??4COleVariant@@QEAAAEBV0@AEBVCOleCurrency@@@Z @ 816 NONAME
 ??4COleVariant@@QEAAAEBV0@AEBVCOleDateTime@ATL@@@Z @ 817 NONAME
 ??4COleVariant@@QEAAAEBV0@E@Z @ 818 NONAME
 ??4COleVariant@@QEAAAEBV0@F@Z @ 819 NONAME
 ??4COleVariant@@QEAAAEBV0@J@Z @ 820 NONAME
 ??4COleVariant@@QEAAAEBV0@M@Z @ 821 NONAME
 ??4COleVariant@@QEAAAEBV0@N@Z @ 822 NONAME
 ??4COleVariant@@QEAAAEBV0@PEBUtagVARIANT@@@Z @ 823 NONAME
 ??4COleVariant@@QEAAAEBV0@QEB_W@Z @ 824 NONAME
 ??5@YAAEAVCArchive@@AEAV0@AEAPEAVCByteArray@@@Z @ 825 NONAME
 ??5@YAAEAVCArchive@@AEAV0@AEAPEAVCDocItem@@@Z @ 826 NONAME
 ??5@YAAEAVCArchive@@AEAV0@AEAPEAVCDockState@@@Z @ 827 NONAME
 ??5@YAAEAVCArchive@@AEAV0@AEAPEAVCDWordArray@@@Z @ 828 NONAME
 ??5@YAAEAVCArchive@@AEAV0@AEAPEAVCMapStringToOb@@@Z @ 829 NONAME
 ??5@YAAEAVCArchive@@AEAV0@AEAPEAVCMapStringToString@@@Z @ 830 NONAME
 ??5@YAAEAVCArchive@@AEAV0@AEAPEAVCMapWordToOb@@@Z @ 831 NONAME
 ??5@YAAEAVCArchive@@AEAV0@AEAPEAVCObArray@@@Z @ 832 NONAME
 ??5@YAAEAVCArchive@@AEAV0@AEAPEAVCObList@@@Z @ 833 NONAME
 ??5@YAAEAVCArchive@@AEAV0@AEAPEAVCRichEditCntrItem@@@Z @ 834 NONAME
 ??5@YAAEAVCArchive@@AEAV0@AEAPEAVCStringArray@@@Z @ 835 NONAME
 ??5@YAAEAVCArchive@@AEAV0@AEAPEAVCStringList@@@Z @ 836 NONAME
 ??5@YAAEAVCArchive@@AEAV0@AEAPEAVCWordArray@@@Z @ 837 NONAME
 ??5@YAAEAVCArchive@@AEAV0@AEAVCComBSTR@ATL@@@Z @ 838 NONAME
 ??5@YAAEAVCArchive@@AEAV0@AEAVCOleCurrency@@@Z @ 839 NONAME
 ??5@YAAEAVCArchive@@AEAV0@AEAVCOleDateTime@ATL@@@Z @ 840 NONAME
 ??5@YAAEAVCArchive@@AEAV0@AEAVCOleDateTimeSpan@ATL@@@Z @ 841 NONAME
 ??5@YAAEAVCArchive@@AEAV0@AEAVCOleVariant@@@Z @ 842 NONAME
 ??5@YAAEAVCArchive@@AEAV0@AEAVCTime@ATL@@@Z @ 843 NONAME
 ??5@YAAEAVCArchive@@AEAV0@AEAVCTimeSpan@ATL@@@Z @ 844 NONAME
 ??6@YAAEAVCArchive@@AEAV0@VCComBSTR@ATL@@@Z @ 845 NONAME
 ??6@YAAEAVCArchive@@AEAV0@VCOleCurrency@@@Z @ 846 NONAME
 ??6@YAAEAVCArchive@@AEAV0@VCOleDateTime@ATL@@@Z @ 847 NONAME
 ??6@YAAEAVCArchive@@AEAV0@VCOleDateTimeSpan@ATL@@@Z @ 848 NONAME
 ??6@YAAEAVCArchive@@AEAV0@VCOleVariant@@@Z @ 849 NONAME
 ??6@YAAEAVCArchive@@AEAV0@VCTime@ATL@@@Z @ 850 NONAME
 ??6@YAAEAVCArchive@@AEAV0@VCTimeSpan@ATL@@@Z @ 851 NONAME
 ??6CDumpContext@@QEAAAEAV0@_J@Z @ 852 NONAME
 ??6CDumpContext@@QEAAAEAV0@_K@Z @ 853 NONAME
 ??6CDumpContext@@QEAAAEAV0@AEBVCObject@@@Z @ 854 NONAME
 ??6CDumpContext@@QEAAAEAV0@E@Z @ 855 NONAME
 ??6CDumpContext@@QEAAAEAV0@G@Z @ 856 NONAME
 ??6CDumpContext@@QEAAAEAV0@H@Z @ 857 NONAME
 ??6CDumpContext@@QEAAAEAV0@I@Z @ 858 NONAME
 ??6CDumpContext@@QEAAAEAV0@J@Z @ 859 NONAME
 ??6CDumpContext@@QEAAAEAV0@K@Z @ 860 NONAME
 ??6CDumpContext@@QEAAAEAV0@PEAUHACCEL__@@@Z @ 861 NONAME
 ??6CDumpContext@@QEAAAEAV0@PEAUHDC__@@@Z @ 862 NONAME
 ??6CDumpContext@@QEAAAEAV0@PEAUHFONT__@@@Z @ 863 NONAME
 ??6CDumpContext@@QEAAAEAV0@PEAUHMENU__@@@Z @ 864 NONAME
 ??6CDumpContext@@QEAAAEAV0@PEAUHWND__@@@Z @ 865 NONAME
 ??6CDumpContext@@QEAAAEAV0@PEB_W@Z @ 866 NONAME
 ??6CDumpContext@@QEAAAEAV0@PEBD@Z @ 867 NONAME
 ??6CDumpContext@@QEAAAEAV0@PEBVCObject@@@Z @ 868 NONAME
 ??6CDumpContext@@QEAAAEAV0@PEBX@Z @ 869 NONAME
 ??8COleSafeArray@@QEBAHAEBUtagSAFEARRAY@@@Z @ 870 NONAME
 ??8COleSafeArray@@QEBAHAEBUtagVARIANT@@@Z @ 871 NONAME
 ??8COleSafeArray@@QEBAHAEBV0@@Z @ 872 NONAME
 ??8COleSafeArray@@QEBAHAEBVCOleVariant@@@Z @ 873 NONAME
 ??8COleSafeArray@@QEBAHPEBUtagSAFEARRAY@@@Z @ 874 NONAME
 ??8COleSafeArray@@QEBAHPEBUtagVARIANT@@@Z @ 875 NONAME
 ??8COleVariant@@QEBAHAEBUtagVARIANT@@@Z @ 876 NONAME
 ??A?$CSimpleStringT@_W$00@ATL@@QEBA_WH@Z @ 877 NONAME
 ??A?$CSimpleStringT@D$00@ATL@@QEBADH@Z @ 878 NONAME
 ??ACMapPtrToPtr@@QEAAAEAPEAXPEAX@Z @ 879 NONAME
 ??ACMapPtrToWord@@QEAAAEAGPEAX@Z @ 880 NONAME
 ??ACMapStringToOb@@QEAAAEAPEAVCObject@@PEB_W@Z @ 881 NONAME
 ??ACMapStringToPtr@@QEAAAEAPEAXPEB_W@Z @ 882 NONAME
 ??ACMapStringToString@@QEAAAEAV?$CStringT@_WV?$StrTraitMFC_DLL@_WV?$ChTraitsCRT@_W@ATL@@@@@ATL@@PEB_W@Z @ 883 NONAME
 ??ACMapWordToOb@@QEAAAEAPEAVCObject@@G@Z @ 884 NONAME
 ??ACMapWordToPtr@@QEAAAEAPEAXG@Z @ 885 NONAME
 ??B?$CSimpleStringT@_W$00@ATL@@QEAAAEAV?$CSimpleStringT@_W$0A@@1@XZ @ 886 NONAME
 ??B?$CSimpleStringT@_W$00@ATL@@QEBAPEB_WXZ @ 887 NONAME
 ??B?$CSimpleStringT@D$00@ATL@@QEAAAEAV?$CSimpleStringT@D$0A@@1@XZ @ 888 NONAME
 ??B?$CSimpleStringT@D$00@ATL@@QEBAPEBDXZ @ 889 NONAME
 ??B?$CStringT@_WV?$StrTraitMFC_DLL@_WV?$ChTraitsCRT@_W@ATL@@@@@ATL@@QEAAAEAV?$CSimpleStringT@_W$0A@@1@XZ @ 890 NONAME
 ??B?$CStringT@DV?$StrTraitMFC_DLL@DV?$ChTraitsCRT@D@ATL@@@@@ATL@@QEAAAEAV?$CSimpleStringT@D$0A@@1@XZ @ 891 NONAME
 ??DCOleCurrency@@QEBA?AV0@J@Z @ 892 NONAME
 ??GCOleCurrency@@QEBA?AV0@AEBV0@@Z @ 893 NONAME
 ??GCOleCurrency@@QEBA?AV0@XZ @ 894 NONAME
 ??HCOleCurrency@@QEBA?AV0@AEBV0@@Z @ 895 NONAME
 ??KCOleCurrency@@QEBA?AV0@J@Z @ 896 NONAME
 ??MCOleCurrency@@QEBAHAEBV0@@Z @ 897 NONAME
 ??NCOleCurrency@@QEBAHAEBV0@@Z @ 898 NONAME
 ??OCOleCurrency@@QEBAHAEBV0@@Z @ 899 NONAME
 ??PCOleCurrency@@QEBAHAEBV0@@Z @ 900 NONAME
 ??Y?$CSimpleStringT@_W$00@ATL@@QEAAAEAV01@_W@Z @ 901 NONAME
 ??Y?$CSimpleStringT@_W$00@ATL@@QEAAAEAV01@AEBV01@@Z @ 902 NONAME
 ??Y?$CSimpleStringT@_W$00@ATL@@QEAAAEAV01@D@Z @ 903 NONAME
 ??Y?$CSimpleStringT@_W$00@ATL@@QEAAAEAV01@E@Z @ 904 NONAME
 ??Y?$CSimpleStringT@_W$00@ATL@@QEAAAEAV01@PEB_W@Z @ 905 NONAME
 ??Y?$CSimpleStringT@D$00@ATL@@QEAAAEAV01@_W@Z @ 906 NONAME
 ??Y?$CSimpleStringT@D$00@ATL@@QEAAAEAV01@AEBV01@@Z @ 907 NONAME
 ??Y?$CSimpleStringT@D$00@ATL@@QEAAAEAV01@D@Z @ 908 NONAME
 ??Y?$CSimpleStringT@D$00@ATL@@QEAAAEAV01@E@Z @ 909 NONAME
 ??Y?$CSimpleStringT@D$00@ATL@@QEAAAEAV01@PEBD@Z @ 910 NONAME
 ??Y?$CStringT@_WV?$StrTraitMFC_DLL@_WV?$ChTraitsCRT@_W@ATL@@@@@ATL@@QEAAAEAV01@_W@Z @ 911 NONAME
 ??Y?$CStringT@_WV?$StrTraitMFC_DLL@_WV?$ChTraitsCRT@_W@ATL@@@@@ATL@@QEAAAEAV01@AEBUtagVARIANT@@@Z @ 912 NONAME
 ??Y?$CStringT@_WV?$StrTraitMFC_DLL@_WV?$ChTraitsCRT@_W@ATL@@@@@ATL@@QEAAAEAV01@AEBV?$CSimpleStringT@_W$00@1@@Z @ 913 NONAME
 ??Y?$CStringT@_WV?$StrTraitMFC_DLL@_WV?$ChTraitsCRT@_W@ATL@@@@@ATL@@QEAAAEAV01@D@Z @ 914 NONAME
 ??Y?$CStringT@_WV?$StrTraitMFC_DLL@_WV?$ChTraitsCRT@_W@ATL@@@@@ATL@@QEAAAEAV01@E@Z @ 915 NONAME
 ??Y?$CStringT@_WV?$StrTraitMFC_DLL@_WV?$ChTraitsCRT@_W@ATL@@@@@ATL@@QEAAAEAV01@PEB_W@Z @ 916 NONAME
 ??Y?$CStringT@_WV?$StrTraitMFC_DLL@_WV?$ChTraitsCRT@_W@ATL@@@@@ATL@@QEAAAEAV01@PEBD@Z @ 917 NONAME
 ??Y?$CStringT@DV?$StrTraitMFC_DLL@DV?$ChTraitsCRT@D@ATL@@@@@ATL@@QEAAAEAV01@_W@Z @ 918 NONAME
 ??Y?$CStringT@DV?$StrTraitMFC_DLL@DV?$ChTraitsCRT@D@ATL@@@@@ATL@@QEAAAEAV01@AEBUtagVARIANT@@@Z @ 919 NONAME
 ??Y?$CStringT@DV?$StrTraitMFC_DLL@DV?$ChTraitsCRT@D@ATL@@@@@ATL@@QEAAAEAV01@AEBV?$CSimpleStringT@D$00@1@@Z @ 920 NONAME
 ??Y?$CStringT@DV?$StrTraitMFC_DLL@DV?$ChTraitsCRT@D@ATL@@@@@ATL@@QEAAAEAV01@D@Z @ 921 NONAME
 ??Y?$CStringT@DV?$StrTraitMFC_DLL@DV?$ChTraitsCRT@D@ATL@@@@@ATL@@QEAAAEAV01@E@Z @ 922 NONAME
 ??Y?$CStringT@DV?$StrTraitMFC_DLL@DV?$ChTraitsCRT@D@ATL@@@@@ATL@@QEAAAEAV01@PEB_W@Z @ 923 NONAME
 ??Y?$CStringT@DV?$StrTraitMFC_DLL@DV?$ChTraitsCRT@D@ATL@@@@@ATL@@QEAAAEAV01@PEBD@Z @ 924 NONAME
 ?_AfxDeleteRegKey@@YAHPEB_W@Z @ 925 NONAME
 ?_AfxFindSiteOrWnd@@YAPEAUCOleControlSiteOrWnd@@PEAVCWnd@@0@Z @ 926 NONAME
 ?_AfxSocketInit@@YAHPEAUWSAData@@@Z @ 927 NONAME
 ?Abort@CArchive@@QEAAXXZ @ 928 NONAME
 ?Abort@CFile@@UEAAXXZ @ 929 NONAME
 ?Abort@CInternetFile@@UEAAXXZ @ 930 NONAME
 ?Abort@CMemFile@@UEAAXXZ @ 931 NONAME
 ?Abort@CMirrorFile@@UEAAXXZ @ 932 NONAME
 ?Abort@COleStreamFile@@UEAAXXZ @ 933 NONAME
 ?Abort@CSocketFile@@UEAAXXZ @ 934 NONAME
 ?Abort@CStdioFile@@UEAAXXZ @ 935 NONAME
 ?AboutToDo@XNotifyDBEvents@COleControlSite@@UEAAJKKQEAUtagDBNOTIFYREASON@@@Z @ 936 NONAME
 ?accDoDefaultAction@CCheckListBox@@MEAAJUtagVARIANT@@@Z @ 937 NONAME
 ?accDoDefaultAction@CWnd@@UEAAJUtagVARIANT@@@Z @ 938 NONAME
 ?accDoDefaultAction@XAccessible@CWnd@@UEAAJUtagVARIANT@@@Z @ 939 NONAME
 ?Accept@CAsyncSocket@@UEAAHAEAV1@PEAUsockaddr@@PEAH@Z @ 940 NONAME
 ?Accept@CSocket@@UEAAHAEAVCAsyncSocket@@PEAUsockaddr@@PEAH@Z @ 941 NONAME
 ?AccessData@COleSafeArray@@QEAAXPEAPEAX@Z @ 942 NONAME
 ?accHitTest@CWnd@@UEAAJJJPEAUtagVARIANT@@@Z @ 943 NONAME
 ?accHitTest@XAccessible@CWnd@@UEAAJJJPEAUtagVARIANT@@@Z @ 944 NONAME
 ?accLocation@CWnd@@UEAAJPEAJ000UtagVARIANT@@@Z @ 945 NONAME
 ?accLocation@XAccessible@CWnd@@UEAAJPEAJ000UtagVARIANT@@@Z @ 946 NONAME
 ?accNavigate@CWnd@@UEAAJJUtagVARIANT@@PEAU2@@Z @ 947 NONAME
 ?accNavigate@XAccessible@CWnd@@UEAAJJUtagVARIANT@@PEAU3@@Z @ 948 NONAME
 ?accSelect@CWnd@@UEAAJJUtagVARIANT@@@Z @ 949 NONAME
 ?accSelect@XAccessible@CWnd@@UEAAJJUtagVARIANT@@@Z @ 950 NONAME
 ?Activate@COleClientItem@@QEAAXJPEAVCView@@PEAUtagMSG@@@Z @ 951 NONAME
 ?Activate@XPropertyPage@COlePropertyPage@@UEAAJPEAUHWND__@@PEBUtagRECT@@H@Z @ 952 NONAME
 ?ActivateAndShow@COleDocObjectItem@@IEAAXXZ @ 953 NONAME
 ?ActivateAs@COleClientItem@@UEAAHPEB_WAEBU_GUID@@1@Z @ 954 NONAME
 ?ActivateAs@CRichEditCntrItem@@UEAAHPEB_WAEBU_GUID@@1@Z @ 955 NONAME
 ?ActivateDocObject@CDocObjectServer@@QEAAXXZ @ 956 NONAME
 ?ActivateDocObject@COleServerDoc@@QEAAXXZ @ 957 NONAME
 ?ActivateFrame@CFrameWnd@@UEAAXH@Z @ 958 NONAME
 ?ActivateFrame@CMDIChildWnd@@UEAAXH@Z @ 959 NONAME
 ?ActivateInPlace@COleServerDoc@@QEAAHXZ @ 960 NONAME
 ?ActivateMe@XOleDocumentSite@COleDocObjectItem@@UEAAJPEAUIOleDocumentView@@@Z @ 961 NONAME
 ?ActivateNext@CSplitterWnd@@UEAAXH@Z @ 962 NONAME
 ?ActivateTopParent@CWnd@@QEAAXXZ @ 963 NONAME
 ?Add@CRecentFileList@@UEAAXPEB_W@Z @ 964 NONAME
 ?AddBar@CReBar@@QEAAHPEAVCWnd@@KKPEB_WK@Z @ 965 NONAME
 ?AddBar@CReBar@@QEAAHPEAVCWnd@@PEB_WPEAVCBitmap@@K@Z @ 966 NONAME
 ?AddBitmap@CToolBarCtrl@@QEAAHHI@Z @ 967 NONAME
 ?AddBitmap@CToolBarCtrl@@QEAAHHPEAVCBitmap@@@Z @ 968 NONAME
 ?AddCachedData@COleClientItem@@IEAAXPEAVCOleDataSource@@@Z @ 969 NONAME
 ?AddClassIDToList@COleInsertDialog@@IEAAXAEAPEAU_GUID@@AEAH1PEAU2@@Z @ 970 NONAME
 ?AddConnection@CEnumConnections@@QEAAXPEAUtagCONNECTDATA@@@Z @ 971 NONAME
 ?AddConnPoint@CEnumConnPoints@@QEAAXPEAUIConnectionPoint@@@Z @ 972 NONAME
 ?AddDocTemplate@CDocManager@@UEAAXPEAVCDocTemplate@@@Z @ 973 NONAME
 ?AddDocTemplate@CWinApp@@QEAAXPEAVCDocTemplate@@@Z @ 974 NONAME
 ?AddDocument@CDocTemplate@@UEAAXPEAVCDocument@@@Z @ 975 NONAME
 ?AddDocument@CMultiDocTemplate@@UEAAXPEAVCDocument@@@Z @ 976 NONAME
 ?AddDocument@CSingleDocTemplate@@UEAAXPEAVCDocument@@@Z @ 977 NONAME
 ?AddFormat@CEnumFormatEtc@@QEAAXPEBUtagFORMATETC@@@Z @ 978 NONAME
 ?AddFormat@COlePasteSpecialDialog@@QEAAXAEBUtagFORMATETC@@PEA_W1K@Z @ 979 NONAME
 ?AddFormat@COlePasteSpecialDialog@@QEAAXIKIHH@Z @ 980 NONAME
 ?AddFrameLevelUI@COleControl@@MEAAXXZ @ 981 NONAME
 ?AddFrameWnd@CFrameWnd@@IEAAXXZ @ 982 NONAME
 ?AddHead@CObList@@QEAAPEAU__POSITION@@PEAVCObject@@@Z @ 983 NONAME
 ?AddHead@CObList@@QEAAXPEAV1@@Z @ 984 NONAME
 ?AddHead@CPtrList@@QEAAPEAU__POSITION@@PEAX@Z @ 985 NONAME
 ?AddHead@CPtrList@@QEAAXPEAV1@@Z @ 986 NONAME
 ?AddHead@CSimpleList@@QEAAXPEAX@Z @ 987 NONAME
 ?AddHead@CStringList@@QEAAPEAU__POSITION@@AEBV?$CStringT@_WV?$StrTraitMFC_DLL@_WV?$ChTraitsCRT@_W@ATL@@@@@ATL@@@Z @ 988 NONAME
 ?AddHead@CStringList@@QEAAPEAU__POSITION@@PEB_W@Z @ 989 NONAME
 ?AddHead@CStringList@@QEAAXPEAV1@@Z @ 990 NONAME
 ?AddItem@COleDocument@@UEAAXPEAVCDocItem@@@Z @ 991 NONAME
 ?AddLinkEntry@COlePasteSpecialDialog@@QEAA?AW4tagOLEUIPASTEFLAG@@I@Z @ 992 NONAME
 ?AddNew@CRecordset@@UEAAXXZ @ 993 NONAME
 ?AddOtherClipboardData@COleServerItem@@QEAAXPEAVCOleDataSource@@@Z @ 994 NONAME
 ?AddPage@CPropertySheet@@QEAAXPEAVCPropertyPage@@@Z @ 995 NONAME
 ?AddProperty@CPropertySection@@QEAAXPEAVCProperty@@@Z @ 996 NONAME
 ?AddProperty@CPropertySet@@QEAAXU_GUID@@PEAVCProperty@@@Z @ 997 NONAME
 ?AddRef@CArchiveStream@@UEAAKXZ @ 998 NONAME
 ?AddRef@CBlobProperty@@UEAAKXZ @ 999 NONAME
 ?AddRef@CBrowserControlSite@@MEAAKXZ @ 1000 NONAME
 ?AddRef@CDHtmlControlSink@@UEAAKXZ @ 1001 NONAME
 ?AddRef@CDHtmlElementEventSink@@UEAAKXZ @ 1002 NONAME
 ?AddRef@CDHtmlEventSink@@UEAAKXZ @ 1003 NONAME
 ?AddRef@CInnerUnknown@@UEAAKXZ @ 1004 NONAME
 ?AddRef@COleConnPtContainer@@UEAAKXZ @ 1005 NONAME
 ?AddRef@COleDispatchImpl@@UEAAKXZ @ 1006 NONAME
 ?AddRef@COleUILinkInfo@@UEAAKXZ @ 1007 NONAME
 ?AddRef@CPrintDialogEx@@UEAAKXZ @ 1008 NONAME
 ?AddReplaceBitmap@CToolBar@@QEAAHPEAUHBITMAP__@@@Z @ 1009 NONAME
 ?AddRequestHeaders@CHttpFile@@QEAAHAEAV?$CStringT@_WV?$StrTraitMFC_DLL@_WV?$ChTraitsCRT@_W@ATL@@@@@ATL@@K@Z @ 1010 NONAME
 ?AddRequestHeaders@CHttpFile@@QEAAHPEB_WKH@Z @ 1011 NONAME
 ?AddSection@CPropertySet@@QEAAPEAVCPropertySection@@U_GUID@@@Z @ 1012 NONAME
 ?AddSection@CPropertySet@@QEAAXPEAVCPropertySection@@@Z @ 1013 NONAME
 ?AddStandardFormats@COlePasteSpecialDialog@@QEAAXH@Z @ 1014 NONAME
 ?AddString@CToolBarCtrl@@QEAAHI@Z @ 1015 NONAME
 ?AddTail@CObList@@QEAAPEAU__POSITION@@PEAVCObject@@@Z @ 1016 NONAME
 ?AddTail@CObList@@QEAAXPEAV1@@Z @ 1017 NONAME
 ?AddTail@CPtrList@@QEAAPEAU__POSITION@@PEAX@Z @ 1018 NONAME
 ?AddTail@CPtrList@@QEAAXPEAV1@@Z @ 1019 NONAME
 ?AddTail@CStringList@@QEAAPEAU__POSITION@@AEBV?$CStringT@_WV?$StrTraitMFC_DLL@_WV?$ChTraitsCRT@_W@ATL@@@@@ATL@@@Z @ 1020 NONAME
 ?AddTail@CStringList@@QEAAPEAU__POSITION@@PEB_W@Z @ 1021 NONAME
 ?AddTail@CStringList@@QEAAXPEAV1@@Z @ 1022 NONAME
 ?AddTool@CToolTipCtrl@@QEAAHPEAVCWnd@@IPEBUtagRECT@@_K@Z @ 1023 NONAME
 ?AddTool@CToolTipCtrl@@QEAAHPEAVCWnd@@PEB_WPEBUtagRECT@@_K@Z @ 1024 NONAME
 ?AddToRecentFileList@CWinApp@@UEAAXPEB_W@Z @ 1025 NONAME
 ?AddView@CDocument@@QEAAXPEAVCView@@@Z @ 1026 NONAME
 ?AdjustCP@CMetaFileDC@@IEAAXH@Z @ 1027 NONAME
 ?AdjustDialogPosition@CRichEditView@@QEAAXPEAVCDialog@@@Z @ 1028 NONAME
 ?AdjustRect@CRectTracker@@UEAAXHPEAUtagRECT@@@Z @ 1029 NONAME
 ?AdjustRect@XOleIPSite@COleControlSite@@UEAAJPEAUtagRECT@@@Z @ 1030 NONAME
 ?Advise@CDHtmlElementEventSink@@QEAAJPEAUIUnknown@@AEBU_GUID@@@Z @ 1031 NONAME
 ?Advise@XConnPt@CConnectionPoint@@UEAAJPEAUIUnknown@@PEAK@Z @ 1032 NONAME
 ?Advise@XOleObject@CDocObjectServer@@UEAAJPEAUIAdviseSink@@PEAK@Z @ 1033 NONAME
 ?Advise@XOleObject@COleControl@@UEAAJPEAUIAdviseSink@@PEAK@Z @ 1034 NONAME
 ?Advise@XOleObject@COleServerDoc@@UEAAJPEAUIAdviseSink@@PEAK@Z @ 1035 NONAME
 ?Advise@XOleObject@COleServerItem@@UEAAJPEAUIAdviseSink@@PEAK@Z @ 1036 NONAME
 ?AfxA2WHelper@@YAPEA_WPEA_WPEBDH@Z @ 1037 NONAME
 ?AfxAbort@@YAXXZ @ 1038 NONAME
 ?AfxActivateActCtx@@YAHPEAXPEA_K@Z @ 1039 NONAME
 ?AfxActivateActCtxWrapper@@YA?AW4eActCtxResult@@PEAXPEA_K@Z @ 1040 NONAME
 ?AfxBeginThread@@YAPEAVCWinThread@@P6AIPEAX@Z0HIKPEAU_SECURITY_ATTRIBUTES@@@Z @ 1041 NONAME
 ?AfxBeginThread@@YAPEAVCWinThread@@PEAUCRuntimeClass@@HIKPEAU_SECURITY_ATTRIBUTES@@@Z @ 1042 NONAME
 ?AfxBSTR2CString@@YAXPEAV?$CStringT@_WV?$StrTraitMFC_DLL@_WV?$ChTraitsCRT@_W@ATL@@@@@ATL@@PEA_W@Z @ 1043 NONAME
 ?AfxCallWndProc@@YA_JPEAVCWnd@@PEAUHWND__@@I_K_J@Z @ 1044 NONAME
 ?AfxCancelModes@@YAXPEAUHWND__@@@Z @ 1045 NONAME
 ?AfxCheckError@@YAXJ@Z @ 1046 NONAME
 ?AfxClassInit@@YAXPEAUCRuntimeClass@@@Z @ 1047 NONAME
 ?AfxComparePath@@YAHPEB_W0@Z @ 1048 NONAME
 ?AfxCompareValueByRef@@YAHPEAX0H@Z @ 1049 NONAME
 ?AfxConnectionAdvise@@YAHPEAUIUnknown@@AEBU_GUID@@0HPEAK@Z @ 1050 NONAME
 ?AfxConnectionUnadvise@@YAHPEAUIUnknown@@AEBU_GUID@@0HK@Z @ 1051 NONAME
 ?AfxCopyValueByRef@@YAXPEAX0PEA_JH@Z @ 1052 NONAME
 ?AfxCoreInitModule@@YAXXZ @ 1053 NONAME
 ?AfxCreateActCtxW@@YAPEAXPEBUtagACTCTXW@@@Z @ 1054 NONAME
 ?AfxCreateDC@@YAPEAUHDC__@@PEAX0@Z @ 1055 NONAME
 ?AfxCriticalInit@@YAHXZ @ 1056 NONAME
 ?AfxCriticalNewHandler@@YAH_K@Z @ 1057 NONAME
 ?AfxCriticalTerm@@YAXXZ @ 1058 NONAME
 ?AfxCustomLogFont@@YAHIPEAUtagLOGFONTW@@@Z @ 1059 NONAME
 ?afxData@@3UAUX_DATA@@A @ 1060 NONAME DATA
 ?AfxDeactivateActCtx@@YAHK_K@Z @ 1061 NONAME
 ?AfxDeleteObject@@YAXPEAPEAX@Z @ 1062 NONAME
 ?AfxDelRegTreeHelper@@YAJPEAUHKEY__@@AEBV?$CStringT@_WV?$StrTraitMFC_DLL@_WV?$ChTraitsCRT@_W@ATL@@@@@ATL@@@Z @ 1063 NONAME
 ?AfxDlgProc@@YA_JPEAUHWND__@@I_K_J@Z @ 1064 NONAME
 ?AfxDllCanUnloadNow@@YAJXZ @ 1065 NONAME
 ?AfxDllGetClassObject@@YAJAEBU_GUID@@0PEAPEAX@Z @ 1066 NONAME
 ?AfxDrawDitheredBitmap@@YAXPEAVCDC@@HHAEBVCBitmap@@KK@Z @ 1067 NONAME
 ?AfxDrawGrayBitmap@@YAXPEAVCDC@@HHAEBVCBitmap@@K@Z @ 1068 NONAME
 ?AfxDynamicDownCast@@YAPEAVCObject@@PEAUCRuntimeClass@@PEAV1@@Z @ 1069 NONAME
 ?AfxEditviewTerm@@YAXXZ @ 1070 NONAME
 ?AfxEnableControlContainer@@YAXPEAVCOccManager@@@Z @ 1071 NONAME
 ?AfxEndDeferRegisterClass@@YAHJ@Z @ 1072 NONAME
 ?AfxEndThread@@YAXIH@Z @ 1073 NONAME
 ?AfxEnumMetaFileProc@@YAHPEAUHDC__@@PEAUtagHANDLETABLE@@PEAUtagMETARECORD@@H_J@Z @ 1074 NONAME
 ?AfxExtractSubString@@YAHAEAV?$CStringT@_WV?$StrTraitMFC_DLL@_WV?$ChTraitsCRT@_W@ATL@@@@@ATL@@PEB_WH_W@Z @ 1075 NONAME
 ?AfxFailMaxChars@@YAXPEAVCDataExchange@@H@Z @ 1076 NONAME
 ?AfxFailRadio@@YAXPEAVCDataExchange@@@Z @ 1077 NONAME
 ?AfxFieldText@@YAHPEAVCDataExchange@@HPEAXPEAVCRecordset@@@Z @ 1078 NONAME
 ?AfxFindMessageEntry@@YAPEBUAFX_MSGMAP_ENTRY@@PEBU1@III@Z @ 1079 NONAME
 ?AfxFindResourceHandle@@YAPEAUHINSTANCE__@@PEB_W0@Z @ 1080 NONAME
 ?AfxFindStringResourceHandle@@YAPEAUHINSTANCE__@@I@Z @ 1081 NONAME
 ?AfxFormatString1@@YAXAEAV?$CStringT@_WV?$StrTraitMFC_DLL@_WV?$ChTraitsCRT@_W@ATL@@@@@ATL@@IPEB_W@Z @ 1082 NONAME
 ?AfxFormatString2@@YAXAEAV?$CStringT@_WV?$StrTraitMFC_DLL@_WV?$ChTraitsCRT@_W@ATL@@@@@ATL@@IPEB_W1@Z @ 1083 NONAME
 ?AfxFormatStrings@@YAXAEAV?$CStringT@_WV?$StrTraitMFC_DLL@_WV?$ChTraitsCRT@_W@ATL@@@@@ATL@@IPEBQEB_WH@Z @ 1084 NONAME
 ?AfxFormatStrings@@YAXAEAV?$CStringT@_WV?$StrTraitMFC_DLL@_WV?$ChTraitsCRT@_W@ATL@@@@@ATL@@PEB_WPEBQEB_WH@Z @ 1085 NONAME
 ?AfxFreeLibrary@@YAHPEAUHINSTANCE__@@@Z @ 1086 NONAME
 ?AfxFullPath@@YAHPEA_WPEB_W@Z @ 1087 NONAME
 ?AfxGetAfxWndProc@@YAP6A_JPEAUHWND__@@I_K_J@ZXZ @ 1088 NONAME
 ?AfxGetAppModuleState@@YAPEAVAFX_MODULE_STATE@@XZ @ 1089 NONAME
 ?AfxGetClassIDFromString@@YAJPEB_WPEAU_GUID@@@Z @ 1090 NONAME
 ?AfxGetCurrentMessage@@YAPEAUtagMSG@@XZ @ 1091 NONAME
 ?AfxGetDitheredBitmap@@YAXAEBVCBitmap@@PEAV1@KK@Z @ 1092 NONAME
 ?AfxGetDlgItemStartFromHWND@@YAPEAUHWND__@@HPEAU1@@Z @ 1093 NONAME
 ?AfxGetDllVersion@@YAKXZ @ 1094 NONAME
 ?AfxGetFileName@@YAIPEB_WPEA_WI@Z @ 1095 NONAME
 ?AfxGetFileTitle@@YAIPEB_WPEA_WI@Z @ 1096 NONAME
 ?AfxGetGrayBitmap@@YAXAEBVCBitmap@@PEAV1@K@Z @ 1097 NONAME
 ?AfxGetHENV@@YAPEAXXZ @ 1098 NONAME
 ?AfxGetInProcServer@@YAHPEB_WAEAV?$CStringT@_WV?$StrTraitMFC_DLL@_WV?$ChTraitsCRT@_W@ATL@@@@@ATL@@@Z @ 1099 NONAME
 ?AfxGetInstanceHandleHelper@@YAPEAUHINSTANCE__@@XZ @ 1100 NONAME
 ?AfxGetInternetHandleType@@YAKPEAX@Z @ 1101 NONAME
 ?AfxGetModuleShortFileName@@YAXPEAUHINSTANCE__@@AEAV?$CStringT@_WV?$StrTraitMFC_DLL@_WV?$ChTraitsCRT@_W@ATL@@@@@ATL@@@Z @ 1102 NONAME
 ?AfxGetModuleState@@YAPEAVAFX_MODULE_STATE@@XZ @ 1103 NONAME
 ?AfxGetModuleThreadState@@YAPEAVAFX_MODULE_THREAD_STATE@@XZ @ 1104 NONAME
 ?AfxGetNewHandler@@YAP6AH_K@ZXZ @ 1105 NONAME
 ?AfxGetParentOwner@@YAPEAUHWND__@@PEAU1@@Z @ 1106 NONAME
 ?AfxGetPropSheetFont@@YAHAEAV?$CStringT@_WV?$StrTraitMFC_DLL@_WV?$ChTraitsCRT@_W@ATL@@@@@ATL@@AEAGH@Z @ 1107 NONAME
 ?AfxGetRoot@@YAXPEB_WAEAV?$CStringT@_WV?$StrTraitMFC_DLL@_WV?$ChTraitsCRT@_W@ATL@@@@@ATL@@@Z @ 1108 NONAME
 ?AfxGetStringManager@@YAPEAUIAtlStringMgr@ATL@@XZ @ 1109 NONAME
 ?AfxGetThread@@YAPEAVCWinThread@@XZ @ 1110 NONAME
 ?AfxGetThreadState@@YAPEAV_AFX_THREAD_STATE@@XZ @ 1111 NONAME
 ?AfxGetTypeLibCache@@YAPEAVCTypeLibCache@@PEBU_GUID@@@Z @ 1112 NONAME
 ?AfxGlobalFree@@YAXPEAX@Z @ 1113 NONAME
 ?AfxHelpEnabled@@YAHXZ @ 1114 NONAME
 ?AfxHookWindowCreate@@YAXPEAVCWnd@@@Z @ 1115 NONAME
 ?AfxHtmlHelp@@YAPEAUHWND__@@PEAU1@PEB_WI_K@Z @ 1116 NONAME
 ?AfxInitCurrentStateApp@@YAHXZ @ 1117 NONAME
 ?AfxInitExtensionModule@@YAHAEAUAFX_EXTENSION_MODULE@@PEAUHINSTANCE__@@@Z @ 1118 NONAME
 ?AfxInitLocalData@@YAXPEAUHINSTANCE__@@@Z @ 1119 NONAME
 ?AfxInitNetworkAddressControl@@YAHXZ @ 1120 NONAME
 ?AfxInitRichEdit@@YAHXZ @ 1121 NONAME
 ?AfxInitRichEdit2@@YAHXZ @ 1122 NONAME
 ?AfxInitThread@@YAXXZ @ 1123 NONAME
 ?AfxInternalIsIdleMessage@@YAHPEAUtagMSG@@@Z @ 1124 NONAME
 ?AfxInternalPreTranslateMessage@@YAHPEAUtagMSG@@@Z @ 1125 NONAME
 ?AfxInternalProcessWndProcException@@YA_JPEAVCException@@PEBUtagMSG@@@Z @ 1126 NONAME
 ?AfxInternalPumpMessage@@YAHXZ @ 1127 NONAME
 ?AfxInternetStatusCallback@@YAXPEAX_KK0K@Z @ 1128 NONAME
 ?AfxIsDescendant@@YAHPEAUHWND__@@0@Z @ 1129 NONAME
 ?AfxIsIdleMessage@@YAHPEAUtagMSG@@@Z @ 1130 NONAME
 ?AfxIsModuleDll@@YAHXZ @ 1131 NONAME
 ?AfxIsValidAddress@@YAHPEBX_KH@Z @ 1132 NONAME
 ?AfxIsValidAtom@@YAHG@Z @ 1133 NONAME
 ?AfxIsValidAtom@@YAHPEB_W@Z @ 1134 NONAME
 ?AfxIsValidString@@YAHPEB_WH@Z @ 1135 NONAME
 ?AfxIsValidString@@YAHPEBDH@Z @ 1136 NONAME
 ?AfxLoadField@@YAXAEAVCRecordset@@IPEAXPEA_J@Z @ 1137 NONAME
 ?AfxLoadLangResourceDLL@@YAPEAUHINSTANCE__@@PEB_W@Z @ 1138 NONAME
 ?AfxLoadLangResourceDLL@@YAPEAUHINSTANCE__@@PEB_W0@Z @ 1139 NONAME
 ?AfxLoadLibrary@@YAPEAUHINSTANCE__@@PEB_W@Z @ 1140 NONAME
 ?AfxLoadLibraryEx@@YAPEAUHINSTANCE__@@PEB_WPEAXK@Z @ 1141 NONAME
 ?AfxLoadString@@YAHIPEA_WI@Z @ 1142 NONAME
 ?AfxLoadString@@YAHIPEADI@Z @ 1143 NONAME
 ?AfxLoadSysColorBitmap@@YAPEAUHBITMAP__@@PEAUHINSTANCE__@@PEAUHRSRC__@@H@Z @ 1144 NONAME
 ?AfxLockGlobals@@YAXH@Z @ 1145 NONAME
 ?AfxLockTempMaps@@YAXXZ @ 1146 NONAME
 ?AfxMergeMenus@@YAPEAUHMENU__@@PEAU1@0PEAJHH@Z @ 1147 NONAME
 ?AfxMessageBox@@YAHIII@Z @ 1148 NONAME
 ?AfxMessageBox@@YAHPEB_WII@Z @ 1149 NONAME
 ?AfxOleCanExitApp@@YAHXZ @ 1150 NONAME
 ?AfxOleGetUserCtrl@@YAHXZ @ 1151 NONAME
 ?AfxOleInit@@YAHXZ @ 1152 NONAME
 ?AfxOleInprocRegisterHelper@@YAHPEAUHKEY__@@0H@Z @ 1153 NONAME
 ?AfxOleLockApp@@YAXXZ @ 1154 NONAME
 ?AfxOleLockControl@@YAHAEBU_GUID@@@Z @ 1155 NONAME
 ?AfxOleLockControl@@YAHPEB_W@Z @ 1156 NONAME
 ?AfxOleOnReleaseAllObjects@@YAXXZ @ 1157 NONAME
 ?AfxOleRegisterControlClass@@YAHPEAUHINSTANCE__@@AEBU_GUID@@PEB_WIIHK1GG@Z @ 1158 NONAME
 ?AfxOleRegisterHelper@@YAHPEBQEB_W0HHPEAUHKEY__@@@Z @ 1159 NONAME
 ?AfxOleRegisterPropertyPageClass@@YAHPEAUHINSTANCE__@@AEBU_GUID@@I@Z @ 1160 NONAME
 ?AfxOleRegisterPropertyPageClass@@YAHPEAUHINSTANCE__@@AEBU_GUID@@IH@Z @ 1161 NONAME
 ?AfxOleRegisterServerClass@@YAHAEBU_GUID@@PEB_W11W4OLE_APPTYPE@@PEAPEB_W3H1@Z @ 1162 NONAME
 ?AfxOleRegisterServerClass@@YAHAEBU_GUID@@PEB_W11W4OLE_APPTYPE@@PEAPEB_W3H11@Z @ 1163 NONAME
 ?AfxOleRegisterTypeLib@@YAHPEAUHINSTANCE__@@AEBU_GUID@@PEB_W2@Z @ 1164 NONAME
 ?AfxOleSetEditMenu@@YAXPEAVCOleClientItem@@PEAVCMenu@@IIII@Z @ 1165 NONAME
 ?AfxOleSetUserCtrl@@YAXH@Z @ 1166 NONAME
 ?AfxOleTerm@@YAXH@Z @ 1167 NONAME
 ?AfxOleTermOrFreeLib@@YAXHH@Z @ 1168 NONAME
 ?AfxOleUnlockAllControls@@YAXXZ @ 1169 NONAME
 ?AfxOleUnlockApp@@YAXXZ @ 1170 NONAME
 ?AfxOleUnlockControl@@YAHAEBU_GUID@@@Z @ 1171 NONAME
 ?AfxOleUnlockControl@@YAHPEB_W@Z @ 1172 NONAME
 ?AfxOleUnregisterClass@@YAHAEBU_GUID@@PEB_W@Z @ 1173 NONAME
 ?AfxOleUnregisterHelper@@YAHPEBQEB_W0HPEAUHKEY__@@@Z @ 1174 NONAME
 ?AfxOleUnregisterServerClass@@YAHAEBU_GUID@@PEB_W11W4OLE_APPTYPE@@PEAPEB_W3@Z @ 1175 NONAME
 ?AfxOleUnregisterTypeLib@@YAHAEBU_GUID@@GGK@Z @ 1176 NONAME
 ?AfxParseURL@@YAHPEB_WAEAKAEAV?$CStringT@_WV?$StrTraitMFC_DLL@_WV?$ChTraitsCRT@_W@ATL@@@@@ATL@@2AEAG@Z @ 1177 NONAME
 ?AfxParseURLEx@@YAHPEB_WAEAKAEAV?$CStringT@_WV?$StrTraitMFC_DLL@_WV?$ChTraitsCRT@_W@ATL@@@@@ATL@@2AEAG22K@Z @ 1178 NONAME
 ?AfxPostQuitMessage@@YAXH@Z @ 1179 NONAME
 ?AfxPreTranslateMessage@@YAHPEAUtagMSG@@@Z @ 1180 NONAME
 ?AfxProcessWndProcException@@YA_JPEAVCException@@PEBUtagMSG@@@Z @ 1181 NONAME
 ?AfxPropPageCallback@@YAIPEAUHWND__@@IPEAU_PROPSHEETPAGEW@@@Z @ 1182 NONAME
 ?AfxPropSheetCallback@@YAHPEAUHWND__@@I_J@Z @ 1183 NONAME
 ?AfxPumpMessage@@YAHXZ @ 1184 NONAME
 ?AfxReadStringLength@@YA_KAEAVCArchive@@AEAH@Z @ 1185 NONAME
 ?AfxRegisterClass@@YAHPEAUtagWNDCLASSW@@@Z @ 1186 NONAME
 ?AfxRegisterSiteFactory@@YAHPEAVIControlSiteFactory@@@Z @ 1187 NONAME
 ?AfxRegisterWndClass@@YAPEB_WIPEAUHICON__@@PEAUHBRUSH__@@0@Z @ 1188 NONAME
 ?AfxReleaseActCtx@@YAXPEAX@Z @ 1189 NONAME
 ?AfxRepositionWindow@@YAXPEAUAFX_SIZEPARENTPARAMS@@PEAUHWND__@@PEBUtagRECT@@@Z @ 1190 NONAME
 ?AfxResetMsgCache@@YAXXZ @ 1191 NONAME
 ?AfxResolveShortcut@@YAHPEAVCWnd@@PEB_WPEA_WH@Z @ 1192 NONAME
 ?AfxRFXBulkDefault@@YAXPEAVCFieldExchange@@PEB_WPEAXPEA_JH_K@Z @ 1193 NONAME
 ?AfxSafeArrayInit@@YAXPEAVCOleSafeArray@@@Z @ 1194 NONAME
 ?AfxSetModuleState@@YAPEAVAFX_MODULE_STATE@@PEAV1@@Z @ 1195 NONAME
 ?AfxSetNewHandler@@YAP6AH_K@ZP6AH0@Z@Z @ 1196 NONAME
 ?AfxSetWindowText@@YAXPEAUHWND__@@PEB_W@Z @ 1197 NONAME
 ?AfxSocketTerm@@YAXXZ @ 1198 NONAME
 ?AfxStoreField@@YAXAEAVCRecordset@@IPEAX@Z @ 1199 NONAME
 ?AfxStringFromCLSID@@YA?AV?$CStringT@_WV?$StrTraitMFC_DLL@_WV?$ChTraitsCRT@_W@ATL@@@@@ATL@@AEBU_GUID@@@Z @ 1200 NONAME
 ?AfxTermExtensionModule@@YAXAEAUAFX_EXTENSION_MODULE@@H@Z @ 1201 NONAME
 ?AfxTermLocalData@@YAXPEAUHINSTANCE__@@H@Z @ 1202 NONAME
 ?AfxTermThread@@YAXPEAUHINSTANCE__@@@Z @ 1203 NONAME
 ?AfxTextFloatFormat@@YAXPEAVCDataExchange@@HPEAXNH@Z @ 1204 NONAME
 ?AfxThrowArchiveException@@YAXHPEB_W@Z @ 1205 NONAME
 ?AfxThrowDBException@@YAXFPEAVCDatabase@@PEAX@Z @ 1206 NONAME
 ?AfxThrowFileException@@YAXHJPEB_W@Z @ 1207 NONAME
 ?AfxThrowInternetException@@YAX_KK@Z @ 1208 NONAME
 ?AfxThrowInvalidArgException@@YAXXZ @ 1209 NONAME
 ?AfxThrowLastCleanup@@YAXXZ @ 1210 NONAME
 ?AfxThrowMemoryException@@YAXXZ @ 1211 NONAME
 ?AfxThrowNotSupportedException@@YAXXZ @ 1212 NONAME
 ?AfxThrowOleDispatchException@@YAXGII@Z @ 1213 NONAME
 ?AfxThrowOleDispatchException@@YAXGPEB_WI@Z @ 1214 NONAME
 ?AfxThrowOleException@@YAXJ@Z @ 1215 NONAME
 ?AfxThrowResourceException@@YAXXZ @ 1216 NONAME
 ?AfxThrowUserException@@YAXXZ @ 1217 NONAME
 ?AfxTimeToFileTime@@YAXAEBVCTime@ATL@@PEAU_FILETIME@@@Z @ 1218 NONAME
 ?AfxTlsAddRef@@YAXXZ @ 1219 NONAME
 ?AfxTlsRelease@@YAXXZ @ 1220 NONAME
 ?AfxTrackerTerm@@YAXXZ @ 1221 NONAME
 ?AfxTryCleanup@@YAXXZ @ 1222 NONAME
 ?AfxUnhookWindowCreate@@YAHXZ @ 1223 NONAME
 ?AfxUnlockGlobals@@YAXH@Z @ 1224 NONAME
 ?AfxUnlockTempMaps@@YAHH@Z @ 1225 NONAME
 ?AfxUnmergeMenus@@YAXPEAUHMENU__@@00@Z @ 1226 NONAME
 ?AfxUnregisterSiteFactory@@YAHPEAVIControlSiteFactory@@@Z @ 1227 NONAME
 ?AfxUnregisterWndClasses@@YAXXZ @ 1228 NONAME
 ?AfxVariantInit@@YAXPEAUtagVARIANT@@@Z @ 1229 NONAME
 ?AfxVerifyLicFile@@YAHPEAUHINSTANCE__@@PEB_W1I@Z @ 1230 NONAME
 ?AfxW2AHelper@@YAPEADPEADPEB_WH@Z @ 1231 NONAME
 ?AfxWinInit@@YAHPEAUHINSTANCE__@@0PEA_WH@Z @ 1232 NONAME
 ?AfxWinMain@@YAHPEAUHINSTANCE__@@0PEA_WH@Z @ 1233 NONAME
 ?AfxWinTerm@@YAXXZ @ 1234 NONAME
 ?AfxWndProc@@YA_JPEAUHWND__@@I_K_J@Z @ 1235 NONAME
 ?AfxWndProcDllOle@@YA_JPEAUHWND__@@I_K_J@Z @ 1236 NONAME
 ?AfxWriteStringLength@@YAXAEAVCArchive@@_KH@Z @ 1237 NONAME
 ?Alloc@CFixedAlloc@@QEAAPEAXXZ @ 1238 NONAME
 ?Alloc@CFixedAllocNoSync@@QEAAPEAXXZ @ 1239 NONAME
 ?Alloc@CMemFile@@MEAAPEAE_K@Z @ 1240 NONAME
 ?Alloc@CSharedFile@@MEAAPEAE_K@Z @ 1241 NONAME
 ?AllocAndCacheFieldInfo@CRecordset@@IEAAXXZ @ 1242 NONAME
 ?Allocate@CAfxStringMgr@@UEAAPEAUCStringData@ATL@@HH@Z @ 1243 NONAME
 ?AllocConnect@CDatabase@@IEAAXK@Z @ 1244 NONAME
 ?AllocData@COleSafeArray@@QEAAXXZ @ 1245 NONAME
 ?AllocDataCache@CRecordset@@QEAAXXZ @ 1246 NONAME
 ?AllocDescriptor@COleSafeArray@@QEAAXK@Z @ 1247 NONAME
 ?AllocElements@CControlBar@@QEAAHHH@Z @ 1248 NONAME
 ?AllocElements@CStatusBar@@QEAAHHH@Z @ 1249 NONAME
 ?AllocHstmt@CRecordset@@IEAAHXZ @ 1250 NONAME
 ?AllocPSP@CPropertyPage@@IEAAXK@Z @ 1251 NONAME
 ?AllocRowset@CRecordset@@IEAAXXZ @ 1252 NONAME
 ?AllocSlot@CThreadSlotData@@QEAAHXZ @ 1253 NONAME
 ?AllocStatusArrays@CRecordset@@QEAAXXZ @ 1254 NONAME
 ?AllocSysString@?$CStringT@_WV?$StrTraitMFC_DLL@_WV?$ChTraitsCRT@_W@ATL@@@@@ATL@@QEBAPEA_WXZ @ 1255 NONAME
 ?AllocSysString@?$CStringT@DV?$StrTraitMFC_DLL@DV?$ChTraitsCRT@D@ATL@@@@@ATL@@QEBAPEA_WXZ @ 1256 NONAME
 ?AllocValue@CProperty@@AEAAPEAXK@Z @ 1257 NONAME
 ?AmbientAppearance@COleControl@@QEAAFXZ @ 1258 NONAME
 ?AmbientBackColor@COleControl@@QEAAKXZ @ 1259 NONAME
 ?AmbientDisplayName@COleControl@@QEAA?AV?$CStringT@_WV?$StrTraitMFC_DLL@_WV?$ChTraitsCRT@_W@ATL@@@@@ATL@@XZ @ 1260 NONAME
 ?AmbientFont@COleControl@@QEAAPEAUIFontDisp@@XZ @ 1261 NONAME
 ?AmbientForeColor@COleControl@@QEAAKXZ @ 1262 NONAME
 ?AmbientLocaleID@COleControl@@QEAAKXZ @ 1263 NONAME
 ?AmbientScaleUnits@COleControl@@QEAA?AV?$CStringT@_WV?$StrTraitMFC_DLL@_WV?$ChTraitsCRT@_W@ATL@@@@@ATL@@XZ @ 1264 NONAME
 ?AmbientShowGrabHandles@COleControl@@QEAAHXZ @ 1265 NONAME
 ?AmbientShowHatching@COleControl@@QEAAHXZ @ 1266 NONAME
 ?AmbientTextAlign@COleControl@@QEAAFXZ @ 1267 NONAME
 ?AmbientUIDead@COleControl@@QEAAHXZ @ 1268 NONAME
 ?AmbientUserMode@COleControl@@QEAAHXZ @ 1269 NONAME
 ?Append@?$CSimpleStringT@_W$00@ATL@@QEAAXAEBV12@@Z @ 1270 NONAME
 ?Append@?$CSimpleStringT@_W$00@ATL@@QEAAXPEB_W@Z @ 1271 NONAME
 ?Append@?$CSimpleStringT@_W$00@ATL@@QEAAXPEB_WH@Z @ 1272 NONAME
 ?Append@?$CSimpleStringT@D$00@ATL@@QEAAXAEBV12@@Z @ 1273 NONAME
 ?Append@?$CSimpleStringT@D$00@ATL@@QEAAXPEBD@Z @ 1274 NONAME
 ?Append@?$CSimpleStringT@D$00@ATL@@QEAAXPEBDH@Z @ 1275 NONAME
 ?Append@CByteArray@@QEAA_JAEBV1@@Z @ 1276 NONAME
 ?Append@CDWordArray@@QEAA_JAEBV1@@Z @ 1277 NONAME
 ?Append@CObArray@@QEAA_JAEBV1@@Z @ 1278 NONAME
 ?Append@CPtrArray@@QEAA_JAEBV1@@Z @ 1279 NONAME
 ?Append@CStringArray@@QEAA_JAEBV1@@Z @ 1280 NONAME
 ?Append@CUIntArray@@QEAA_JAEBV1@@Z @ 1281 NONAME
 ?Append@CWordArray@@QEAA_JAEBV1@@Z @ 1282 NONAME
 ?AppendChar@?$CSimpleStringT@_W$00@ATL@@QEAAX_W@Z @ 1283 NONAME
 ?AppendChar@?$CSimpleStringT@D$00@ATL@@QEAAXD@Z @ 1284 NONAME
 ?AppendFilterAndSortSQL@CRecordset@@IEAAXXZ @ 1285 NONAME
 ?AppendFormat@?$CStringT@_WV?$StrTraitMFC_DLL@_WV?$ChTraitsCRT@_W@ATL@@@@@ATL@@QEAAXIZZ @ 1286 NONAME
 ?AppendFormat@?$CStringT@_WV?$StrTraitMFC_DLL@_WV?$ChTraitsCRT@_W@ATL@@@@@ATL@@QEAAXPEB_WZZ @ 1287 NONAME
 ?AppendFormat@?$CStringT@DV?$StrTraitMFC_DLL@DV?$ChTraitsCRT@D@ATL@@@@@ATL@@QEAAXIZZ @ 1288 NONAME
 ?AppendFormat@?$CStringT@DV?$StrTraitMFC_DLL@DV?$ChTraitsCRT@D@ATL@@@@@ATL@@QEAAXPEBDZZ @ 1289 NONAME
 ?AppendFormatV@?$CStringT@_WV?$StrTraitMFC_DLL@_WV?$ChTraitsCRT@_W@ATL@@@@@ATL@@QEAAXPEB_WPEAD@Z @ 1290 NONAME
 ?AppendFormatV@?$CStringT@DV?$StrTraitMFC_DLL@DV?$ChTraitsCRT@D@ATL@@@@@ATL@@QEAAXPEBDPEAD@Z @ 1291 NONAME
 ?AppendNames@CRecordset@@QEAAIPEAV?$CStringT@_WV?$StrTraitMFC_DLL@_WV?$ChTraitsCRT@_W@ATL@@@@@ATL@@PEB_W@Z @ 1292 NONAME
 ?AppendNamesValues@CRecordset@@QEAAIPEAXPEAV?$CStringT@_WV?$StrTraitMFC_DLL@_WV?$ChTraitsCRT@_W@ATL@@@@@ATL@@PEB_W@Z @ 1293 NONAME
 ?AppendValues@CRecordset@@QEAAIPEAXPEAV?$CStringT@_WV?$StrTraitMFC_DLL@_WV?$ChTraitsCRT@_W@ATL@@@@@ATL@@PEB_W@Z @ 1294 NONAME
 ?Apply@XPropertyPage@COlePropertyPage@@UEAAJXZ @ 1295 NONAME
 ?ApplyOFNToShellDialog@CFileDialog@@QEAAXXZ @ 1296 NONAME
 ?ApplyPrintDevice@COleDocument@@QEAAHPEBUtagDVTARGETDEVICE@@@Z @ 1297 NONAME
 ?ApplyPrintDevice@COleDocument@@QEAAHPEBUtagPDW@@@Z @ 1298 NONAME
 ?ApplyViewState@XOleDocumentView@CDocObjectServer@@UEAAJPEAUIStream@@@Z @ 1299 NONAME
 ?ArcTo@CDC@@QEAAHHHHHHHHH@Z @ 1300 NONAME
 ?AssignInstance@CThreadSlotData@@QEAAXPEAUHINSTANCE__@@@Z @ 1301 NONAME
 ?AsyncSelect@CAsyncSocket@@QEAAHJ@Z @ 1302 NONAME
 ?Attach@?$CSimpleStringT@_W$00@ATL@@AEAAXPEAUCStringData@2@@Z @ 1303 NONAME
 ?Attach@?$CSimpleStringT@D$00@ATL@@AEAAXPEAUCStringData@2@@Z @ 1304 NONAME
 ?Attach@CAsyncSocket@@QEAAH_KJ@Z @ 1305 NONAME
 ?Attach@CDC@@QEAAHPEAUHDC__@@@Z @ 1306 NONAME
 ?Attach@CGdiObject@@QEAAHPEAX@Z @ 1307 NONAME
 ?Attach@CImageList@@QEAAHPEAU_IMAGELIST@@@Z @ 1308 NONAME
 ?Attach@CMemFile@@QEAAXPEAEII@Z @ 1309 NONAME
 ?Attach@CMenu@@QEAAHPEAUHMENU__@@@Z @ 1310 NONAME
 ?Attach@CMonikerFile@@IEAAHPEAUIMoniker@@PEAUIBindHost@@PEAUIBindStatusCallback@@PEAUIBindCtx@@PEAVCFileException@@@Z @ 1311 NONAME
 ?Attach@CMonikerFile@@IEAAHPEB_WPEAUIBindHost@@PEAUIBindStatusCallback@@PEAUIBindCtx@@PEAVCFileException@@@Z @ 1312 NONAME
 ?Attach@COleDataObject@@QEAAXPEAUIDataObject@@H@Z @ 1313 NONAME
 ?Attach@COleSafeArray@@QEAAXAEAUtagVARIANT@@@Z @ 1314 NONAME
 ?Attach@COleStreamFile@@QEAAXPEAUIStream@@@Z @ 1315 NONAME
 ?Attach@COleVariant@@QEAAXAEAUtagVARIANT@@@Z @ 1316 NONAME
 ?Attach@CWnd@@QEAAHPEAUHWND__@@@Z @ 1317 NONAME
 ?AttachClipboard@COleDataObject@@QEAAHXZ @ 1318 NONAME
 ?AttachControlSite@COleControlContainer@@QEAAXPEAVCWnd@@I@Z @ 1319 NONAME
 ?AttachControlSite@CWnd@@IEAAXPEAVCHandleMap@@@Z @ 1320 NONAME
 ?AttachControlSite@CWnd@@QEAAXPEAV1@I@Z @ 1321 NONAME
 ?AttachDataObject@COleClientItem@@QEBAXAEAVCOleDataObject@@@Z @ 1322 NONAME
 ?AttachDispatch@COleDispatchDriver@@QEAAXPEAUIDispatch@@H@Z @ 1323 NONAME
 ?AttachHandle@CAsyncSocket@@SAX_KPEAV1@H@Z @ 1324 NONAME
 ?AttachOnSetup@CPrintDialog@@MEAAPEAV1@XZ @ 1325 NONAME
 ?AttachWindow@COleControlSite@@QEAAXXZ @ 1326 NONAME
 ?AutoLoad@CBitmapButton@@QEAAHIPEAVCWnd@@@Z @ 1327 NONAME
 ?AuxQueueAdd@CSocket@@KAXI_K_J@Z @ 1328 NONAME
 ?BeforeNavigate2@CHtmlView@@MEAAXPEAUIDispatch@@PEAUtagVARIANT@@1111PEAF@Z @ 1329 NONAME
 ?BeginBusyState@COleMessageFilter@@UEAAXXZ @ 1330 NONAME
 ?BeginDrag@CDragListBox@@UEAAHVCPoint@@@Z @ 1331 NONAME
 ?BeginEnumFormats@COleDataObject@@QEAAXXZ @ 1332 NONAME
 ?BeginModalState@CFrameWnd@@UEAAXXZ @ 1333 NONAME
 ?BeginTrans@CDatabase@@QEAAHXZ @ 1334 NONAME
 ?BeginWaitCursor@CCmdTarget@@QEAAXXZ @ 1335 NONAME
 ?Bind@CAsyncSocket@@QEAAHIPEB_W@Z @ 1336 NONAME
 ?BindColumns@CDataSourceControl@@UEAAXXZ @ 1337 NONAME
 ?BindControls@COccManager@@IEAAXPEAVCWnd@@@Z @ 1338 NONAME
 ?BindDefaultProperty@COleControlSite@@UEAAXJGPEB_WPEAVCWnd@@@Z @ 1339 NONAME
 ?BindDefaultProperty@CWnd@@QEAAXJGPEB_WPEAV1@@Z @ 1340 NONAME
 ?BindFieldsForUpdate@CRecordset@@QEAAXXZ @ 1341 NONAME
 ?BindFieldsToColumns@CRecordset@@QEAAIXZ @ 1342 NONAME
 ?BindParameters@CDatabase@@UEAAXPEAX@Z @ 1343 NONAME
 ?BindParams@CRecordset@@QEAAIPEAX@Z @ 1344 NONAME
 ?BindProp@CDataSourceControl@@UEAAXPEAVCDataBoundProperty@@H@Z @ 1345 NONAME
 ?BindProp@CDataSourceControl@@UEAAXPEAVCOleControlSite@@H@Z @ 1346 NONAME
 ?BindProperty@COleControlSite@@UEAAXJPEAVCWnd@@@Z @ 1347 NONAME
 ?BindProperty@CWnd@@QEAAXJPEAV1@@Z @ 1348 NONAME
 ?BoundPropertyChanged@COleControl@@QEAAXJ@Z @ 1349 NONAME
 ?BoundPropertyRequestEdit@COleControl@@QEAAHJ@Z @ 1350 NONAME
 ?BringToTop@CFrameWnd@@IEAAXH@Z @ 1351 NONAME
 ?BroadcastAmbientPropertyChange@COleControlContainer@@UEAAXJ@Z @ 1352 NONAME
 ?BuildErrorString@CDBException@@UEAAXPEAVCDatabase@@PEAXH@Z @ 1353 NONAME
 ?BuildPropPageArray@CPropertySheet@@UEAAXXZ @ 1354 NONAME
 ?BuildSelectSQL@CRecordset@@IEAAXXZ @ 1355 NONAME
 ?BuildSharedMenu@COleControl@@MEAAHXZ @ 1356 NONAME
 ?BuildSharedMenu@COleDocIPFrameWnd@@MEAAHXZ @ 1357 NONAME
 ?BuildSharedMenu@COleIPFrameWnd@@MEAAHXZ @ 1358 NONAME
 ?BuildSQL@CRecordset@@IEAAXPEB_W@Z @ 1359 NONAME
 ?BuildUpdateSQL@CRecordset@@IEAAXXZ @ 1360 NONAME
 ?ButtonDblClk@COleControl@@IEAAXGIVCPoint@@@Z @ 1361 NONAME
 ?ButtonDown@COleControl@@IEAAXGIVCPoint@@@Z @ 1362 NONAME
 ?ButtonUp@COleControl@@IEAAXGIVCPoint@@@Z @ 1363 NONAME
 ?Cache@CTypeLibCache@@QEAAXKPEAUITypeLib@@@Z @ 1364 NONAME
 ?Cache@XOleCache@COleControl@@UEAAJPEAUtagFORMATETC@@KPEAK@Z @ 1365 NONAME
 ?CacheData@COleDataSource@@QEAAXGPEAUtagSTGMEDIUM@@PEAUtagFORMATETC@@@Z @ 1366 NONAME
 ?CacheGlobalData@COleDataSource@@QEAAXGPEAXPEAUtagFORMATETC@@@Z @ 1367 NONAME
 ?CacheTypeInfo@CTypeLibCache@@QEAAXKAEBU_GUID@@PEAUITypeInfo@@@Z @ 1368 NONAME
 ?CalcBorders@CMiniFrameWnd@@SAXPEAUtagRECT@@KK@Z @ 1369 NONAME
 ?CalcDynamicLayout@CControlBar@@UEAA?AVCSize@@HK@Z @ 1370 NONAME
 ?CalcDynamicLayout@CReBar@@UEAA?AVCSize@@HK@Z @ 1371 NONAME
 ?CalcDynamicLayout@CToolBar@@UEAA?AVCSize@@HK@Z @ 1372 NONAME
 ?CalcFixedLayout@CControlBar@@UEAA?AVCSize@@HH@Z @ 1373 NONAME
 ?CalcFixedLayout@CDialogBar@@UEAA?AVCSize@@HH@Z @ 1374 NONAME
 ?CalcFixedLayout@CDockBar@@UEAA?AVCSize@@HH@Z @ 1375 NONAME
 ?CalcFixedLayout@CReBar@@UEAA?AVCSize@@HH@Z @ 1376 NONAME
 ?CalcFixedLayout@CStatusBar@@UEAA?AVCSize@@HH@Z @ 1377 NONAME
 ?CalcFixedLayout@CToolBar@@UEAA?AVCSize@@HH@Z @ 1378 NONAME
 ?CalcInsideRect@CControlBar@@UEBAXAEAVCRect@@H@Z @ 1379 NONAME
 ?CalcInsideRect@CStatusBar@@UEBAXAEAVCRect@@H@Z @ 1380 NONAME
 ?CalcLayout@CToolBar@@IEAA?AVCSize@@KH@Z @ 1381 NONAME
 ?CalcMinimumItemHeight@CCheckListBox@@IEAAHXZ @ 1382 NONAME
 ?CalcPageDisplaySize@CPreviewView@@IEAA?AVCSize@@XZ @ 1383 NONAME
 ?CalcScaleRatio@CPreviewView@@MEAA?AVCSize@@V2@0@Z @ 1384 NONAME
 ?CalcSize@CToolBar@@IEAA?AVCSize@@PEAU_TBBUTTON@@H@Z @ 1385 NONAME
 ?CalcWindowRect@CEditView@@MEAAXPEAUtagRECT@@I@Z @ 1386 NONAME
 ?CalcWindowRect@CScrollView@@UEAAXPEAUtagRECT@@I@Z @ 1387 NONAME
 ?CalcWindowRect@CView@@UEAAXPEAUtagRECT@@I@Z @ 1388 NONAME
 ?CalcWindowRect@CWnd@@UEAAXPEAUtagRECT@@I@Z @ 1389 NONAME
 ?CallMemberFunc@CCmdTarget@@IEAAJPEBUAFX_DISPMAP_ENTRY@@GPEAUtagVARIANT@@PEAUtagDISPPARAMS@@PEAI@Z @ 1390 NONAME
 ?CanAccessExternal@CDHtmlDialog@@UEAAHXZ @ 1391 NONAME
 ?CanActivate@COleClientItem@@MEAAHXZ @ 1392 NONAME
 ?CanActivate@CRichEditCntrItem@@UEAAHXZ @ 1393 NONAME
 ?CanActivateNext@CSplitterWnd@@UEAAHH@Z @ 1394 NONAME
 ?CanBookmark@CRecordset@@QEBAHXZ @ 1395 NONAME
 ?Cancel@CDatabase@@QEAAXXZ @ 1396 NONAME
 ?Cancel@CRecordset@@QEAAXXZ @ 1397 NONAME
 ?CancelBlockingCall@CSocket@@QEAAXXZ @ 1398 NONAME
 ?CancelDrag@CDragListBox@@UEAAXVCPoint@@@Z @ 1399 NONAME
 ?Cancelled@XNotifyDBEvents@COleControlSite@@UEAAJKKQEAUtagDBNOTIFYREASON@@@Z @ 1400 NONAME
 ?CancelLink@COleUILinkInfo@@UEAAJK@Z @ 1401 NONAME
 ?CancelLoop@CDockContext@@QEAAXXZ @ 1402 NONAME
 ?CancelToClose@CPropertyPage@@QEAAXXZ @ 1403 NONAME
 ?CancelToolTips@CWnd@@SAXH@Z @ 1404 NONAME
 ?CancelUpdate@CRecordset@@QEAAXXZ @ 1405 NONAME
 ?CanCloseFrame@CDocument@@UEAAHPEAVCFrameWnd@@@Z @ 1406 NONAME
 ?CanCloseFrame@COleServerDoc@@UEAAHPEAVCFrameWnd@@@Z @ 1407 NONAME
 ?CanCreateFromData@COleClientItem@@SAHPEBVCOleDataObject@@@Z @ 1408 NONAME
 ?CanCreateLinkFromData@COleClientItem@@SAHPEBVCOleDataObject@@@Z @ 1409 NONAME
 ?CanDock@CDockContext@@QEAAKXZ @ 1410 NONAME
 ?CanDock@CFrameWnd@@QEAAKVCRect@@KPEAPEAVCDockBar@@@Z @ 1411 NONAME
 ?CanEnterHelpMode@CFrameWnd@@QEAAHXZ @ 1412 NONAME
 ?CanInPlaceActivate@XOleIPSite@COleClientItem@@UEAAJXZ @ 1413 NONAME
 ?CanInPlaceActivate@XOleIPSite@COleControlSite@@UEAAJXZ @ 1414 NONAME
 ?CanPaste@COleClientItem@@SAHXZ @ 1415 NONAME
 ?CanPaste@CRichEditCtrl@@QEBAHI@Z @ 1416 NONAME
 ?CanPaste@CRichEditView@@QEBAHXZ @ 1417 NONAME
 ?CanPasteLink@COleClientItem@@SAHXZ @ 1418 NONAME
 ?CanWindowlessActivate@XOleIPSite@COleControlSite@@UEAAJXZ @ 1419 NONAME
 ?CDHtmlSinkHandlerQueryInterface@CDHtmlEventSink@@UEAAJAEBU_GUID@@PEAPEAX@Z @ 1420 NONAME
 ?CenterOnPoint@CScrollView@@IEAAXVCPoint@@@Z @ 1421 NONAME
 ?CenterWindow@CWnd@@QEAAXPEAV1@@Z @ 1422 NONAME
 ?ChangeType@COleVariant@@QEAAXGPEAUtagVARIANT@@@Z @ 1423 NONAME
 ?CharToItem@CListBox@@UEAAHII@Z @ 1424 NONAME
 ?CharToOemA@?$CStringT@_WV?$StrTraitMFC_DLL@_WV?$ChTraitsCRT@_W@ATL@@@@@ATL@@QEAAXXZ @ 1425 NONAME
 ?CharToOemA@?$CStringT@DV?$StrTraitMFC_DLL@DV?$ChTraitsCRT@D@ATL@@@@@ATL@@QEAAXXZ @ 1426 NONAME
 ?Check@CDatabase@@UEBAHF@Z @ 1427 NONAME
 ?Check@CRecordset@@UEBAHF@Z @ 1428 NONAME
 ?CheckAutoCenter@CDialog@@UEAAHXZ @ 1429 NONAME
 ?CheckAutoCenter@CWnd@@UEAAHXZ @ 1430 NONAME
 ?CheckCount@CArchive@@QEAAXXZ @ 1431 NONAME
 ?CheckDlgButton@COleControlContainer@@UEAAXHI@Z @ 1432 NONAME
 ?CheckDlgButton@CWnd@@QEAAXHI@Z @ 1433 NONAME
 ?CheckFromPoint@CCheckListBox@@IEAAHVCPoint@@AEAH@Z @ 1434 NONAME
 ?CheckGeneral@COleClientItem@@MEAAXJ@Z @ 1435 NONAME
 ?CheckHstmt@CDatabase@@QEBAHFPEAX@Z @ 1436 NONAME
 ?CheckImplicitLoad@?$CStringT@_WV?$StrTraitMFC_DLL@_WV?$ChTraitsCRT@_W@ATL@@@@@ATL@@AEAA_NPEBX@Z @ 1437 NONAME
 ?CheckImplicitLoad@?$CStringT@DV?$StrTraitMFC_DLL@DV?$ChTraitsCRT@D@ATL@@@@@ATL@@AEAA_NPEBX@Z @ 1438 NONAME
 ?CheckRadioButton@COleControlContainer@@UEAAXHHH@Z @ 1439 NONAME
 ?CheckRadioButton@CWnd@@QEAAXHHH@Z @ 1440 NONAME
 ?CheckRowsetCurrencyStatus@CRecordset@@QEAAXGJ@Z @ 1441 NONAME
 ?CheckRowsetError@CRecordset@@UEAAXF@Z @ 1442 NONAME
 ?CheckScrollBars@CScrollView@@QEBAXAEAH0@Z @ 1443 NONAME
 ?Cleanup@CPropertyPage@@IEAAXXZ @ 1444 NONAME
 ?Cleanup@CSplitButton@@IEAAXXZ @ 1445 NONAME
 ?CleanupObjectArray@COlePropertyPage@@IEAAXXZ @ 1446 NONAME
 ?Clear@CDBVariant@@QEAAXXZ @ 1447 NONAME
 ?Clear@CDockState@@QEAAXXZ @ 1448 NONAME
 ?ClearDirtyFieldStatus@CRecordset@@QEAAXK@Z @ 1449 NONAME
 ?ClearFieldStatus@CRecordset@@QEAAXXZ @ 1450 NONAME
 ?ClearNullFieldStatus@CRecordset@@QEAAXK@Z @ 1451 NONAME
 ?ClearNullParamStatus@CRecordset@@QEAAXK@Z @ 1452 NONAME
 ?ClientToParent@COleControl@@UEBAXPEBUtagRECT@@PEAUtagPOINT@@@Z @ 1453 NONAME
 ?ClientToScreen@CWnd@@QEBAXPEAUtagRECT@@@Z @ 1454 NONAME
 ?ClipCaretRect@COleControl@@QEAAHPEAUtagRECT@@@Z @ 1455 NONAME
 ?ClipToPage@CPreviewDC@@QEAAXXZ @ 1456 NONAME
 ?Clone@CAfxStringMgr@@UEAAPEAUIAtlStringMgr@ATL@@XZ @ 1457 NONAME
 ?Clone@CArchiveStream@@UEAAJPEAPEAUIStream@@@Z @ 1458 NONAME
 ?Clone@XEnumVOID@CEnumArray@@UEAAJPEAPEAUIEnumVOID@@@Z @ 1459 NONAME
 ?Clone@XOleDocumentView@CDocObjectServer@@UEAAJPEAUIOleInPlaceSite@@PEAPEAUIOleDocumentView@@@Z @ 1460 NONAME
 ?CloneData@?$CSimpleStringT@_W$00@ATL@@CAPEAUCStringData@2@PEAU32@@Z @ 1461 NONAME
 ?CloneData@?$CSimpleStringT@D$00@ATL@@CAPEAUCStringData@2@PEAU32@@Z @ 1462 NONAME
 ?Close@CArchive@@QEAAXXZ @ 1463 NONAME
 ?Close@CAsyncMonikerFile@@UEAAXXZ @ 1464 NONAME
 ?Close@CAsyncSocket@@UEAAXXZ @ 1465 NONAME
 ?Close@CCachedDataPathProperty@@UEAAXXZ @ 1466 NONAME
 ?Close@CDatabase@@UEAAXXZ @ 1467 NONAME
 ?Close@CFile@@UEAAXXZ @ 1468 NONAME
 ?Close@CFileFind@@QEAAXXZ @ 1469 NONAME
 ?Close@CInternetConnection@@UEAAXXZ @ 1470 NONAME
 ?Close@CInternetFile@@UEAAXXZ @ 1471 NONAME
 ?Close@CInternetSession@@UEAAXXZ @ 1472 NONAME
 ?Close@CMemFile@@UEAAXXZ @ 1473 NONAME
 ?Close@CMirrorFile@@UEAAXXZ @ 1474 NONAME
 ?Close@CMonikerFile@@UEAAXXZ @ 1475 NONAME
 ?Close@COleClientItem@@QEAAXW4tagOLECLOSE@@@Z @ 1476 NONAME
 ?Close@COleStreamFile@@UEAAXXZ @ 1477 NONAME
 ?Close@CRecordset@@UEAAXXZ @ 1478 NONAME
 ?Close@CSocket@@UEAAXXZ @ 1479 NONAME
 ?Close@CSocketFile@@UEAAXXZ @ 1480 NONAME
 ?Close@CStdioFile@@UEAAXXZ @ 1481 NONAME
 ?Close@XOleObject@CDocObjectServer@@UEAAJK@Z @ 1482 NONAME
 ?Close@XOleObject@COleControl@@UEAAJK@Z @ 1483 NONAME
 ?Close@XOleObject@COleServerDoc@@UEAAJK@Z @ 1484 NONAME
 ?Close@XOleObject@COleServerItem@@UEAAJK@Z @ 1485 NONAME
 ?CloseAllDocuments@CDocManager@@UEAAXH@Z @ 1486 NONAME
 ?CloseAllDocuments@CDocTemplate@@UEAAXH@Z @ 1487 NONAME
 ?CloseAllDocuments@CWinApp@@QEAAXH@Z @ 1488 NONAME
 ?CloseContext@CFileFind@@MEAAXXZ @ 1489 NONAME
 ?CloseContext@CFtpFileFind@@MEAAXXZ @ 1490 NONAME
 ?CloseContext@CGopherFileFind@@MEAAXXZ @ 1491 NONAME
 ?CloseThemeData@CThemeHelper@@SAJPEAX@Z @ 1492 NONAME
 ?CloseThemeDataFail@CThemeHelper@@CAJPEAX@Z @ 1493 NONAME
 ?CloseView@XOleDocumentView@CDocObjectServer@@UEAAJK@Z @ 1494 NONAME
 ?Collate@?$CStringT@_WV?$StrTraitMFC_DLL@_WV?$ChTraitsCRT@_W@ATL@@@@@ATL@@QEBAHPEB_W@Z @ 1495 NONAME
 ?Collate@?$CStringT@DV?$StrTraitMFC_DLL@DV?$ChTraitsCRT@D@ATL@@@@@ATL@@QEBAHPEBD@Z @ 1496 NONAME
 ?CollateNoCase@?$CStringT@_WV?$StrTraitMFC_DLL@_WV?$ChTraitsCRT@_W@ATL@@@@@ATL@@QEBAHPEB_W@Z @ 1497 NONAME
 ?CollateNoCase@?$CStringT@DV?$StrTraitMFC_DLL@DV?$ChTraitsCRT@D@ATL@@@@@ATL@@QEBAHPEBD@Z @ 1498 NONAME
 ?Command@CFtpConnection@@QEAAPEAVCInternetFile@@PEB_WW4CmdResponseType@1@K_K@Z @ 1499 NONAME
 ?CommandToIndex@CStatusBar@@QEBAHI@Z @ 1500 NONAME
 ?CommandToIndex@CToolBar@@QEBAHI@Z @ 1501 NONAME
 ?Commit@CArchiveStream@@UEAAJK@Z @ 1502 NONAME
 ?CommitItem@COleClientItem@@UEAAXH@Z @ 1503 NONAME
 ?CommitItems@COleDocument@@QEAAXHPEAUIStorage@@@Z @ 1504 NONAME
 ?CommitTrans@CDatabase@@QEAAHXZ @ 1505 NONAME
 ?CommonConstruct@COleObjectFactory@@IEAAXAEBU_GUID@@PEAUCRuntimeClass@@HHPEB_W@Z @ 1506 NONAME
 ?CommonConstruct@CPropertyPage@@IEAAXPEB_WI@Z @ 1507 NONAME
 ?CommonConstruct@CPropertyPage@@IEAAXPEB_WIII@Z @ 1508 NONAME
 ?CommonConstruct@CPropertySheet@@QEAAXPEAVCWnd@@I@Z @ 1509 NONAME
 ?CommonConstruct@CPropertySheet@@QEAAXPEAVCWnd@@IPEAUHBITMAP__@@PEAUHPALETTE__@@1@Z @ 1510 NONAME
 ?CommonConstruct@CWinThread@@QEAAXXZ @ 1511 NONAME
 ?Compare@?$CStringT@_WV?$StrTraitMFC_DLL@_WV?$ChTraitsCRT@_W@ATL@@@@@ATL@@QEBAHPEB_W@Z @ 1512 NONAME
 ?Compare@?$CStringT@DV?$StrTraitMFC_DLL@DV?$ChTraitsCRT@D@ATL@@@@@ATL@@QEBAHPEBD@Z @ 1513 NONAME
 ?CompareItem@CComboBox@@UEAAHPEAUtagCOMPAREITEMSTRUCT@@@Z @ 1514 NONAME
 ?CompareItem@CListBox@@UEAAHPEAUtagCOMPAREITEMSTRUCT@@@Z @ 1515 NONAME
 ?CompareNoCase@?$CStringT@_WV?$StrTraitMFC_DLL@_WV?$ChTraitsCRT@_W@ATL@@@@@ATL@@QEBAHPEB_W@Z @ 1516 NONAME
 ?CompareNoCase@?$CStringT@DV?$StrTraitMFC_DLL@DV?$ChTraitsCRT@D@ATL@@@@@ATL@@QEBAHPEBD@Z @ 1517 NONAME
 ?ComputeDeltas@CPreviewDC@@IEAA?AVCSize@@AEAHPEB_WAEAIHIPEAHHPEA_W30@Z @ 1518 NONAME
 ?Concatenate@?$CSimpleStringT@_W$00@ATL@@KAXAEAV12@PEB_WH1H@Z @ 1519 NONAME
 ?Concatenate@?$CSimpleStringT@D$00@ATL@@KAXAEAV12@PEBDH1H@Z @ 1520 NONAME
 ?Connect@CAsyncSocket@@QEAAHPEB_WI@Z @ 1521 NONAME
 ?Connect@CDatabase@@IEAAHK@Z @ 1522 NONAME
 ?ConnectDHtmlElementEvents@CDHtmlDialog@@IEAAJ_K@Z @ 1523 NONAME
 ?ConnectDHtmlEvents@CDHtmlDialog@@IEAAJPEAUIUnknown@@@Z @ 1524 NONAME
 ?ConnectHelper@CAsyncSocket@@MEAAHPEBUsockaddr@@H@Z @ 1525 NONAME
 ?ConnectHelper@CSocket@@MEAAHPEBUsockaddr@@H@Z @ 1526 NONAME
 ?ConnectSink@COleControlSite@@IEAAKAEBU_GUID@@PEAUIUnknown@@@Z @ 1527 NONAME
 ?ConnectTemplate@COleTemplateServer@@QEAAXAEBU_GUID@@PEAVCDocTemplate@@H@Z @ 1528 NONAME
 ?ConnectToConnectionPoint@CDHtmlEventSink@@QEAAJPEAUIUnknown@@AEBU_GUID@@PEAK@Z @ 1529 NONAME
 ?ConnectToControl@CDHtmlControlSink@@QEAAJPEAUIUnknown@@@Z @ 1530 NONAME
 ?ConnectView@COleServerDoc@@IEAAXPEAVCWnd@@PEAVCView@@@Z @ 1531 NONAME
 ?Construct@?$CStringT@_WV?$StrTraitMFC_DLL@_WV?$ChTraitsCRT@_W@ATL@@@@@ATL@@SAXPEAV12@@Z @ 1532 NONAME
 ?Construct@?$CStringT@DV?$StrTraitMFC_DLL@DV?$ChTraitsCRT@D@ATL@@@@@ATL@@SAXPEAV12@@Z @ 1533 NONAME
 ?Construct@CPropertyPage@@QEAAXII@Z @ 1534 NONAME
 ?Construct@CPropertyPage@@QEAAXIIII@Z @ 1535 NONAME
 ?Construct@CPropertyPage@@QEAAXPEB_WI@Z @ 1536 NONAME
 ?Construct@CPropertyPage@@QEAAXPEB_WIII@Z @ 1537 NONAME
 ?Construct@CPropertySheet@@QEAAXIPEAVCWnd@@I@Z @ 1538 NONAME
 ?Construct@CPropertySheet@@QEAAXIPEAVCWnd@@IPEAUHBITMAP__@@PEAUHPALETTE__@@1@Z @ 1539 NONAME
 ?Construct@CPropertySheet@@QEAAXPEB_WPEAVCWnd@@I@Z @ 1540 NONAME
 ?Construct@CPropertySheet@@QEAAXPEB_WPEAVCWnd@@IPEAUHBITMAP__@@PEAUHPALETTE__@@2@Z @ 1541 NONAME
 ?Construct@CRectTracker@@IEAAXXZ @ 1542 NONAME
 ?ContextSensitiveHelp@XOleInPlaceActiveObject@COleControl@@UEAAJH@Z @ 1543 NONAME
 ?ContextSensitiveHelp@XOleInPlaceActiveObject@COleServerDoc@@UEAAJH@Z @ 1544 NONAME
 ?ContextSensitiveHelp@XOleInPlaceFrame@COleFrameHook@@UEAAJH@Z @ 1545 NONAME
 ?ContextSensitiveHelp@XOleInPlaceObject@COleControl@@UEAAJH@Z @ 1546 NONAME
 ?ContextSensitiveHelp@XOleInPlaceObject@COleServerDoc@@UEAAJH@Z @ 1547 NONAME
 ?ContextSensitiveHelp@XOleIPFrame@COleControlContainer@@UEAAJH@Z @ 1548 NONAME
 ?ContextSensitiveHelp@XOleIPSite@COleClientItem@@UEAAJH@Z @ 1549 NONAME
 ?ContextSensitiveHelp@XOleIPSite@COleControlSite@@UEAAJH@Z @ 1550 NONAME
 ?ContextSensitiveHelp@XRichEditOleCallback@CRichEditView@@UEAAJH@Z @ 1551 NONAME
 ?ContinueModal@CPropertySheet@@UEAAHXZ @ 1552 NONAME
 ?ContinueModal@CWnd@@UEAAHXZ @ 1553 NONAME
 ?ControlInfoChanged@COleControl@@QEAAXXZ @ 1554 NONAME
 ?ConvertObject@XOleUIObjInfo@COlePropertiesDialog@@UEAAJKAEBU_GUID@@@Z @ 1555 NONAME
 ?ConvertTo@COleClientItem@@UEAAHAEBU_GUID@@@Z @ 1556 NONAME
 ?ConvertTo@CRichEditCntrItem@@UEAAHAEBU_GUID@@@Z @ 1557 NONAME
 ?Copy@CByteArray@@QEAAXAEBV1@@Z @ 1558 NONAME
 ?Copy@CDWordArray@@QEAAXAEBV1@@Z @ 1559 NONAME
 ?Copy@CObArray@@QEAAXAEBV1@@Z @ 1560 NONAME
 ?Copy@COleSafeArray@@QEAAXPEAPEAUtagSAFEARRAY@@@Z @ 1561 NONAME
 ?Copy@CPtrArray@@QEAAXAEBV1@@Z @ 1562 NONAME
 ?Copy@CStringArray@@QEAAXAEBV1@@Z @ 1563 NONAME
 ?Copy@CUIntArray@@QEAAXAEBV1@@Z @ 1564 NONAME
 ?Copy@CWordArray@@QEAAXAEBV1@@Z @ 1565 NONAME
 ?CopyChars@?$CSimpleStringT@_W$00@ATL@@SAXPEA_WPEB_WH@Z @ 1566 NONAME
 ?CopyChars@?$CSimpleStringT@D$00@ATL@@SAXPEADPEBDH@Z @ 1567 NONAME
 ?CopyCharsOverlapped@?$CSimpleStringT@_W$00@ATL@@SAXPEA_WPEB_WH@Z @ 1568 NONAME
 ?CopyCharsOverlapped@?$CSimpleStringT@D$00@ATL@@SAXPEADPEBDH@Z @ 1569 NONAME
 ?CopyColumnID@CDataSourceControl@@QEAAHPEAUtagDBCOLUMNID@@PEBU2@@Z @ 1570 NONAME
 ?CopyTo@CArchiveStream@@UEAAJPEAUIStream@@T_ULARGE_INTEGER@@PEAT3@2@Z @ 1571 NONAME
 ?CopyToClipboard@COleClientItem@@QEAAXH@Z @ 1572 NONAME
 ?CopyToClipboard@COleServerItem@@QEAAXH@Z @ 1573 NONAME
 ?Create@CAnimateCtrl@@UEAAHKAEBUtagRECT@@PEAVCWnd@@I@Z @ 1574 NONAME
 ?Create@CAsyncSocket@@QEAAHIHJPEB_W@Z @ 1575 NONAME
 ?Create@CButton@@UEAAHPEB_WKAEBUtagRECT@@PEAVCWnd@@I@Z @ 1576 NONAME
 ?Create@CCheckListBox@@UEAAHKAEBUtagRECT@@PEAVCWnd@@I@Z @ 1577 NONAME
 ?Create@CComboBox@@UEAAHKAEBUtagRECT@@PEAVCWnd@@I@Z @ 1578 NONAME
 ?Create@CComboBoxEx@@UEAAHKAEBUtagRECT@@PEAVCWnd@@I@Z @ 1579 NONAME
 ?Create@CControlFrameWnd@@UEAAHPEB_W@Z @ 1580 NONAME
 ?Create@CDateTimeCtrl@@UEAAHKAEBUtagRECT@@PEAVCWnd@@I@Z @ 1581 NONAME
 ?Create@CDialog@@UEAAHPEB_WPEAVCWnd@@@Z @ 1582 NONAME
 ?Create@CDialogBar@@UEAAHPEAVCWnd@@PEB_WII@Z @ 1583 NONAME
 ?Create@CDockBar@@UEAAHPEAVCWnd@@KI@Z @ 1584 NONAME
 ?Create@CEdit@@QEAAHKAEBUtagRECT@@PEAVCWnd@@I@Z @ 1585 NONAME
 ?Create@CFindReplaceDialog@@UEAAHHPEB_W0KPEAVCWnd@@@Z @ 1586 NONAME
 ?Create@CFormView@@MEAAHPEB_W0KAEBUtagRECT@@PEAVCWnd@@IPEAUCCreateContext@@@Z @ 1587 NONAME
 ?Create@CFrameWnd@@UEAAHPEB_W0KAEBUtagRECT@@PEAVCWnd@@0KPEAUCCreateContext@@@Z @ 1588 NONAME
 ?Create@CHeaderCtrl@@UEAAHKAEBUtagRECT@@PEAVCWnd@@I@Z @ 1589 NONAME
 ?Create@CHotKeyCtrl@@UEAAHKAEBUtagRECT@@PEAVCWnd@@I@Z @ 1590 NONAME
 ?Create@CHtmlEditCtrl@@UEAAHPEB_WKAEBUtagRECT@@PEAVCWnd@@HPEAUCCreateContext@@@Z @ 1591 NONAME
 ?Create@CHtmlEditView@@UEAAHPEB_W0KAEBUtagRECT@@PEAVCWnd@@IPEAUCCreateContext@@@Z @ 1592 NONAME
 ?Create@CHtmlView@@UEAAHPEB_W0KAEBUtagRECT@@PEAVCWnd@@IPEAUCCreateContext@@@Z @ 1593 NONAME
 ?Create@CImageList@@QEAAHAEAV1@H0HHH@Z @ 1594 NONAME
 ?Create@CImageList@@QEAAHHHIHH@Z @ 1595 NONAME
 ?Create@CImageList@@QEAAHIHHK@Z @ 1596 NONAME
 ?Create@CImageList@@QEAAHPEAV1@@Z @ 1597 NONAME
 ?Create@CImageList@@QEAAHPEB_WHHK@Z @ 1598 NONAME
 ?Create@CIPAddressCtrl@@UEAAHKAEBUtagRECT@@PEAVCWnd@@I@Z @ 1599 NONAME
 ?Create@CLinkCtrl@@UEAAHKAEBUtagRECT@@PEAVCWnd@@I@Z @ 1600 NONAME
 ?Create@CLinkCtrl@@UEAAHPEB_WKAEBUtagRECT@@PEAVCWnd@@I@Z @ 1601 NONAME
 ?Create@CListBox@@UEAAHKAEBUtagRECT@@PEAVCWnd@@I@Z @ 1602 NONAME
 ?Create@CListCtrl@@QEAAHKAEBUtagRECT@@PEAVCWnd@@I@Z @ 1603 NONAME
 ?Create@CMDIChildWnd@@UEAAHPEB_W0KAEBUtagRECT@@PEAVCMDIFrameWnd@@PEAUCCreateContext@@@Z @ 1604 NONAME
 ?Create@CMiniDockFrameWnd@@UEAAHPEAVCWnd@@K@Z @ 1605 NONAME
 ?Create@CMiniFrameWnd@@UEAAHPEB_W0KAEBUtagRECT@@PEAVCWnd@@I@Z @ 1606 NONAME
 ?Create@CMonthCalCtrl@@UEAAHKAEBUtagPOINT@@PEAVCWnd@@I@Z @ 1607 NONAME
 ?Create@CMonthCalCtrl@@UEAAHKAEBUtagRECT@@PEAVCWnd@@I@Z @ 1608 NONAME
 ?Create@CNetAddressCtrl@@UEAAHKAEBUtagRECT@@PEAVCWnd@@I@Z @ 1609 NONAME
 ?Create@COleResizeBar@@UEAAHPEAVCWnd@@KI@Z @ 1610 NONAME
 ?Create@COleSafeArray@@QEAAXGKPEAK@Z @ 1611 NONAME
 ?Create@COleSafeArray@@QEAAXGKPEAUtagSAFEARRAYBOUND@@@Z @ 1612 NONAME
 ?Create@CPagerCtrl@@UEAAHKAEBUtagRECT@@PEAVCWnd@@I@Z @ 1613 NONAME
 ?Create@CPlex@@SAPEAU1@AEAPEAU1@_K1@Z @ 1614 NONAME
 ?Create@CProgressCtrl@@UEAAHKAEBUtagRECT@@PEAVCWnd@@I@Z @ 1615 NONAME
 ?Create@CPropertySheet@@UEAAHPEAVCWnd@@KK@Z @ 1616 NONAME
 ?Create@CReBar@@UEAAHPEAVCWnd@@KKI@Z @ 1617 NONAME
 ?Create@CReBarCtrl@@QEAAHKAEBUtagRECT@@PEAVCWnd@@I@Z @ 1618 NONAME
 ?Create@CReflectorWnd@@QEAAHAEBVCRect@@PEAUHWND__@@@Z @ 1619 NONAME
 ?Create@CRichEditCtrl@@QEAAHKAEBUtagRECT@@PEAVCWnd@@I@Z @ 1620 NONAME
 ?Create@CScrollBar@@UEAAHKAEBUtagRECT@@PEAVCWnd@@I@Z @ 1621 NONAME
 ?Create@CSliderCtrl@@UEAAHKAEBUtagRECT@@PEAVCWnd@@I@Z @ 1622 NONAME
 ?Create@CSpinButtonCtrl@@UEAAHKAEBUtagRECT@@PEAVCWnd@@I@Z @ 1623 NONAME
 ?Create@CSplitButton@@UEAAHPEB_WKAEBUtagRECT@@PEAVCWnd@@I@Z @ 1624 NONAME
 ?Create@CSplitterWnd@@UEAAHPEAVCWnd@@HHUtagSIZE@@PEAUCCreateContext@@KI@Z @ 1625 NONAME
 ?Create@CStatic@@UEAAHPEB_WKAEBUtagRECT@@PEAVCWnd@@I@Z @ 1626 NONAME
 ?Create@CStatusBar@@UEAAHPEAVCWnd@@KI@Z @ 1627 NONAME
 ?Create@CStatusBarCtrl@@QEAAHKAEBUtagRECT@@PEAVCWnd@@I@Z @ 1628 NONAME
 ?Create@CTabCtrl@@UEAAHKAEBUtagRECT@@PEAVCWnd@@I@Z @ 1629 NONAME
 ?Create@CToolBar@@UEAAHPEAVCWnd@@KI@Z @ 1630 NONAME
 ?Create@CToolBarCtrl@@QEAAHKAEBUtagRECT@@PEAVCWnd@@I@Z @ 1631 NONAME
 ?Create@CToolTipCtrl@@UEAAHPEAVCWnd@@K@Z @ 1632 NONAME
 ?Create@CTreeCtrl@@QEAAHKAEBUtagRECT@@PEAVCWnd@@I@Z @ 1633 NONAME
 ?Create@CWnd@@UEAAHPEB_W0KAEBUtagRECT@@PEAV1@IPEAUCCreateContext@@@Z @ 1634 NONAME
 ?CreateAccessibleProxy@CWnd@@UEAAJ_K_JPEA_J@Z @ 1635 NONAME
 ?CreateActivationContext@AFX_MODULE_STATE@@QEAAXXZ @ 1636 NONAME
 ?CreateBindContext@CMonikerFile@@IEAAPEAUIBindCtx@@PEAVCFileException@@@Z @ 1637 NONAME
 ?CreateBindHost@CMonikerFile@@KAPEAUIBindHost@@XZ @ 1638 NONAME
 ?CreateBindStatusCallback@CAsyncMonikerFile@@MEAAPEAUIUnknown@@PEAU2@@Z @ 1639 NONAME
 ?CreateClient@CMDIFrameWnd@@UEAAHPEAUtagCREATESTRUCTW@@PEAVCMenu@@@Z @ 1640 NONAME
 ?CreateClientItem@CRichEditDoc@@UEBAPEAVCRichEditCntrItem@@PEAU_reobject@@@Z @ 1641 NONAME
 ?CreateCloneFrom@COleClientItem@@QEAAHPEBV1@@Z @ 1642 NONAME
 ?CreateCommon@CSplitterWnd@@IEAAHPEAVCWnd@@UtagSIZE@@KI@Z @ 1643 NONAME
 ?CreateConnectionArray@CConnectionPoint@@QEAAXXZ @ 1644 NONAME
 ?CreateContainer@COccManager@@UEAAPEAVCOleControlContainer@@PEAVCWnd@@@Z @ 1645 NONAME
 ?CreateControl@COleControlContainer@@QEAAHPEAVCWnd@@AEBU_GUID@@PEB_WKAEBUtagRECT@@IPEAVCFile@@HPEA_WPEAPEAVCOleControlSite@@@Z @ 1646 NONAME
 ?CreateControl@COleControlContainer@@QEAAHPEAVCWnd@@AEBU_GUID@@PEB_WKPEBUtagPOINT@@PEBUtagSIZE@@IPEAVCFile@@HPEA_WPEAPEAVCOleControlSite@@@Z @ 1647 NONAME
 ?CreateControl@COleControlContainer@@QEAAHPEAVCWnd@@AEBVCControlCreationInfo@@KPEBUtagPOINT@@PEBUtagSIZE@@I@Z @ 1648 NONAME
 ?CreateControl@COleControlSite@@QEAAJPEAVCWnd@@AEBVCControlCreationInfo@@KPEBUtagPOINT@@PEBUtagSIZE@@I@Z @ 1649 NONAME
 ?CreateControl@COleControlSite@@UEAAJPEAVCWnd@@AEBU_GUID@@PEB_WKAEBUtagRECT@@IPEAVCFile@@HPEA_W@Z @ 1650 NONAME
 ?CreateControl@COleControlSite@@UEAAJPEAVCWnd@@AEBU_GUID@@PEB_WKPEBUtagPOINT@@PEBUtagSIZE@@IPEAVCFile@@HPEA_W@Z @ 1651 NONAME
 ?CreateControl@CWnd@@QEAAHAEBU_GUID@@PEB_WKAEBUtagRECT@@PEAV1@IPEAVCFile@@HPEA_W@Z @ 1652 NONAME
 ?CreateControl@CWnd@@QEAAHAEBU_GUID@@PEB_WKPEBUtagPOINT@@PEBUtagSIZE@@PEAV1@IPEAVCFile@@HPEA_W@Z @ 1653 NONAME
 ?CreateControl@CWnd@@QEAAHAEBVCControlCreationInfo@@KPEBUtagPOINT@@PEBUtagSIZE@@PEAV1@I@Z @ 1654 NONAME
 ?CreateControl@CWnd@@QEAAHPEB_W0KAEBUtagRECT@@PEAV1@IPEAVCFile@@HPEA_W@Z @ 1655 NONAME
 ?CreateControlCommon@COleControlContainer@@QEAAHPEAVCWnd@@AEBU_GUID@@AEBVCControlCreationInfo@@PEB_WKPEBUtagPOINT@@PEBUtagSIZE@@IPEAVCFile@@HPEA_WPEAPEAVCOleControlSite@@@Z @ 1656 NONAME
 ?CreateControlCommon@COleControlSite@@MEAAJPEAVCWnd@@AEBU_GUID@@AEBVCControlCreationInfo@@PEB_WKPEBUtagPOINT@@PEBUtagSIZE@@IPEAVCFile@@HPEA_W@Z @ 1657 NONAME
 ?CreateControlContainer@CWnd@@MEAAHPEAPEAVCOleControlContainer@@@Z @ 1658 NONAME
 ?CreateControlSite@CDHtmlDialog@@UEAAHPEAVCOleControlContainer@@PEAPEAVCOleControlSite@@IAEBU_GUID@@@Z @ 1659 NONAME
 ?CreateControlSite@CHtmlView@@UEAAHPEAVCOleControlContainer@@PEAPEAVCOleControlSite@@IAEBU_GUID@@@Z @ 1660 NONAME
 ?CreateControlSite@CWnd@@MEAAHPEAVCOleControlContainer@@PEAPEAVCOleControlSite@@IAEBU_GUID@@@Z @ 1661 NONAME
 ?CreateControlWindow@COleControl@@MEAAHPEAUHWND__@@AEBVCRect@@PEBUtagRECT@@@Z @ 1662 NONAME
 ?CreateDIBPatternBrush@CBrush@@QEAAHPEAXI@Z @ 1663 NONAME
 ?CreateDirectoryW@CFtpConnection@@QEAAHPEB_W@Z @ 1664 NONAME
 ?CreateDispatch@COleDispatchDriver@@QEAAHAEBU_GUID@@PEAVCOleException@@@Z @ 1665 NONAME
 ?CreateDispatch@COleDispatchDriver@@QEAAHPEB_WPEAVCOleException@@@Z @ 1666 NONAME
 ?CreateDlg@CWnd@@IEAAHPEB_WPEAV1@@Z @ 1667 NONAME
 ?CreateDlgControl@COccManager@@IEAAHPEAVCWnd@@PEAUHWND__@@HPEAUDLGITEMTEMPLATE@@GPEAEKPEAPEAU3@@Z @ 1668 NONAME
 ?CreateDlgControls@COccManager@@UEAAHPEAVCWnd@@PEAXPEAU_AFX_OCC_DIALOG_INFO@@@Z @ 1669 NONAME
 ?CreateDlgControls@COccManager@@UEAAHPEAVCWnd@@PEB_WPEAU_AFX_OCC_DIALOG_INFO@@@Z @ 1670 NONAME
 ?CreateDlgIndirect@CWnd@@IEAAHPEBUDLGTEMPLATE@@PEAV1@PEAUHINSTANCE__@@@Z @ 1671 NONAME
 ?CreateDragImage@CListCtrl@@QEAAPEAVCImageList@@HPEAUtagPOINT@@@Z @ 1672 NONAME
 ?CreateDragImage@CTreeCtrl@@QEAAPEAVCImageList@@PEAU_TREEITEM@@@Z @ 1673 NONAME
 ?CreateEmpty@CPictureHolder@@QEAAHXZ @ 1674 NONAME
 ?CreateEx@CAnimateCtrl@@UEAAHKKAEBUtagRECT@@PEAVCWnd@@I@Z @ 1675 NONAME
 ?CreateEx@CComboBoxEx@@UEAAHKKAEBUtagRECT@@PEAVCWnd@@I@Z @ 1676 NONAME
 ?CreateEx@CHeaderCtrl@@UEAAHKKAEBUtagRECT@@PEAVCWnd@@I@Z @ 1677 NONAME
 ?CreateEx@CHotKeyCtrl@@UEAAHKKAEBUtagRECT@@PEAVCWnd@@I@Z @ 1678 NONAME
 ?CreateEx@CIPAddressCtrl@@UEAAHKKAEBUtagRECT@@PEAVCWnd@@I@Z @ 1679 NONAME
 ?CreateEx@CLinkCtrl@@UEAAHKKAEBUtagRECT@@PEAVCWnd@@I@Z @ 1680 NONAME
 ?CreateEx@CLinkCtrl@@UEAAHPEB_WKKAEBUtagRECT@@PEAVCWnd@@I@Z @ 1681 NONAME
 ?CreateEx@CListCtrl@@QEAAHKKAEBUtagRECT@@PEAVCWnd@@I@Z @ 1682 NONAME
 ?CreateEx@CMiniFrameWnd@@UEAAHKPEB_W0KAEBUtagRECT@@PEAVCWnd@@I@Z @ 1683 NONAME
 ?CreateEx@CNetAddressCtrl@@UEAAHKKAEBUtagRECT@@PEAVCWnd@@I@Z @ 1684 NONAME
 ?CreateEx@CPagerCtrl@@UEAAHKKAEBUtagRECT@@PEAVCWnd@@I@Z @ 1685 NONAME
 ?CreateEx@CProgressCtrl@@UEAAHKKAEBUtagRECT@@PEAVCWnd@@I@Z @ 1686 NONAME
 ?CreateEx@CReBarCtrl@@QEAAHKKAEBUtagRECT@@PEAVCWnd@@I@Z @ 1687 NONAME
 ?CreateEx@CRichEditCtrl@@QEAAHKKAEBUtagRECT@@PEAVCWnd@@I@Z @ 1688 NONAME
 ?CreateEx@CSliderCtrl@@UEAAHKKAEBUtagRECT@@PEAVCWnd@@I@Z @ 1689 NONAME
 ?CreateEx@CSpinButtonCtrl@@UEAAHKKAEBUtagRECT@@PEAVCWnd@@I@Z @ 1690 NONAME
 ?CreateEx@CStatusBar@@UEAAHPEAVCWnd@@KKI@Z @ 1691 NONAME
 ?CreateEx@CStatusBarCtrl@@QEAAHKKAEBUtagRECT@@PEAVCWnd@@I@Z @ 1692 NONAME
 ?CreateEx@CTabCtrl@@UEAAHKKAEBUtagRECT@@PEAVCWnd@@I@Z @ 1693 NONAME
 ?CreateEx@CToolBar@@UEAAHPEAVCWnd@@KKVCRect@@I@Z @ 1694 NONAME
 ?CreateEx@CToolBarCtrl@@QEAAHKKAEBUtagRECT@@PEAVCWnd@@I@Z @ 1695 NONAME
 ?CreateEx@CToolTipCtrl@@UEAAHPEAVCWnd@@KK@Z @ 1696 NONAME
 ?CreateEx@CTreeCtrl@@QEAAHKKAEBUtagRECT@@PEAVCWnd@@I@Z @ 1697 NONAME
 ?CreateEx@CWnd@@UEAAHKPEB_W0KAEBUtagRECT@@PEAV1@IPEAX@Z @ 1698 NONAME
 ?CreateEx@CWnd@@UEAAHKPEB_W0KHHHHPEAUHWND__@@PEAUHMENU__@@PEAX@Z @ 1699 NONAME
 ?CreateFloatingFrame@CFrameWnd@@QEAAPEAVCMiniDockFrameWnd@@K@Z @ 1700 NONAME
 ?CreateFrameWindow@COleControl@@MEAAPEAVCControlFrameWnd@@XZ @ 1701 NONAME
 ?CreateFromBitmap@CPictureHolder@@QEAAHI@Z @ 1702 NONAME
 ?CreateFromBitmap@CPictureHolder@@QEAAHPEAUHBITMAP__@@PEAUHPALETTE__@@H@Z @ 1703 NONAME
 ?CreateFromBitmap@CPictureHolder@@QEAAHPEAVCBitmap@@PEAVCPalette@@H@Z @ 1704 NONAME
 ?CreateFromClipboard@COleClientItem@@QEAAHW4tagOLERENDER@@GPEAUtagFORMATETC@@@Z @ 1705 NONAME
 ?CreateFromData@COleClientItem@@QEAAHPEAVCOleDataObject@@W4tagOLERENDER@@GPEAUtagFORMATETC@@@Z @ 1706 NONAME
 ?CreateFromFile@COleClientItem@@QEAAHPEB_WAEBU_GUID@@W4tagOLERENDER@@GPEAUtagFORMATETC@@@Z @ 1707 NONAME
 ?CreateFromIcon@CPictureHolder@@QEAAHI@Z @ 1708 NONAME
 ?CreateFromIcon@CPictureHolder@@QEAAHPEAUHICON__@@H@Z @ 1709 NONAME
 ?CreateFromMetafile@CPictureHolder@@QEAAHPEAUHMETAFILE__@@HHH@Z @ 1710 NONAME
 ?CreateIndirect@CDialog@@IEAAHPEAXPEAVCWnd@@PEAUHINSTANCE__@@@Z @ 1711 NONAME
 ?CreateIndirect@CDialog@@IEAAHPEBUDLGTEMPLATE@@PEAVCWnd@@PEAXPEAUHINSTANCE__@@@Z @ 1712 NONAME
 ?CreateIndirect@CDialog@@UEAAHPEAXPEAVCWnd@@@Z @ 1713 NONAME
 ?CreateIndirect@CDialog@@UEAAHPEBUDLGTEMPLATE@@PEAVCWnd@@PEAX@Z @ 1714 NONAME
 ?CreateInPlaceFrame@COleServerDoc@@MEAAPEAVCOleIPFrameWnd@@PEAVCWnd@@@Z @ 1715 NONAME
 ?CreateInstance@AFX_COM@@QEAAJAEBU_GUID@@PEAUIUnknown@@0PEAPEAX@Z @ 1716 NONAME
 ?CreateInstance@XClassFactory@COleObjectFactory@@UEAAJPEAUIUnknown@@AEBU_GUID@@PEAPEAX@Z @ 1717 NONAME
 ?CreateInstanceLic@XClassFactory@COleObjectFactory@@UEAAJPEAUIUnknown@@0AEBU_GUID@@PEA_WPEAPEAX@Z @ 1718 NONAME
 ?CreateItem@COleInsertDialog@@QEAAHPEAVCOleClientItem@@@Z @ 1719 NONAME
 ?CreateItem@COlePasteSpecialDialog@@QEAAHPEAVCOleClientItem@@@Z @ 1720 NONAME
 ?CreateLinkFromClipboard@COleClientItem@@QEAAHW4tagOLERENDER@@GPEAUtagFORMATETC@@@Z @ 1721 NONAME
 ?CreateLinkFromData@COleClientItem@@QEAAHPEAVCOleDataObject@@W4tagOLERENDER@@GPEAUtagFORMATETC@@@Z @ 1722 NONAME
 ?CreateLinkFromFile@COleClientItem@@QEAAHPEB_WW4tagOLERENDER@@GPEAUtagFORMATETC@@@Z @ 1723 NONAME
 ?CreateLocator@CGopherConnection@@QEAA?AVCGopherLocator@@PEB_W0K@Z @ 1724 NONAME
 ?CreateLocator@CGopherConnection@@SA?AVCGopherLocator@@PEB_W@Z @ 1725 NONAME
 ?CreateLocator@CGopherConnection@@SA?AVCGopherLocator@@PEB_W00KG@Z @ 1726 NONAME
 ?CreateMemoryStream@COleStreamFile@@QEAAHPEAVCFileException@@@Z @ 1727 NONAME
 ?CreateNewChild@CMDIFrameWnd@@QEAAPEAVCMDIChildWnd@@PEAUCRuntimeClass@@IPEAUHMENU__@@PEAUHACCEL__@@@Z @ 1728 NONAME
 ?CreateNewDocument@CDocTemplate@@UEAAPEAVCDocument@@XZ @ 1729 NONAME
 ?CreateNewFrame@CDocTemplate@@UEAAPEAVCFrameWnd@@PEAVCDocument@@PEAV2@@Z @ 1730 NONAME
 ?CreateNewItem@COleClientItem@@QEAAHAEBU_GUID@@W4tagOLERENDER@@GPEAUtagFORMATETC@@@Z @ 1731 NONAME
 ?CreateObject@CByteArray@@SAPEAVCObject@@XZ @ 1732 NONAME
 ?CreateObject@CDC@@SAPEAVCObject@@XZ @ 1733 NONAME
 ?CreateObject@CDocItem@@SAPEAVCObject@@XZ @ 1734 NONAME
 ?CreateObject@CDockState@@SAPEAVCObject@@XZ @ 1735 NONAME
 ?CreateObject@CDWordArray@@SAPEAVCObject@@XZ @ 1736 NONAME
 ?CreateObject@CEditView@@SAPEAVCObject@@XZ @ 1737 NONAME
 ?CreateObject@CFrameWnd@@SAPEAVCObject@@XZ @ 1738 NONAME
 ?CreateObject@CGdiObject@@SAPEAVCObject@@XZ @ 1739 NONAME
 ?CreateObject@CHtmlEditView@@SAPEAVCObject@@XZ @ 1740 NONAME
 ?CreateObject@CHtmlView@@SAPEAVCObject@@XZ @ 1741 NONAME
 ?CreateObject@CImageList@@SAPEAVCObject@@XZ @ 1742 NONAME
 ?CreateObject@CListView@@SAPEAVCObject@@XZ @ 1743 NONAME
 ?CreateObject@CMapStringToOb@@SAPEAVCObject@@XZ @ 1744 NONAME
 ?CreateObject@CMapStringToString@@SAPEAVCObject@@XZ @ 1745 NONAME
 ?CreateObject@CMapWordToOb@@SAPEAVCObject@@XZ @ 1746 NONAME
 ?CreateObject@CMDIChildWnd@@SAPEAVCObject@@XZ @ 1747 NONAME
 ?CreateObject@CMDIFrameWnd@@SAPEAVCObject@@XZ @ 1748 NONAME
 ?CreateObject@CMenu@@SAPEAVCObject@@XZ @ 1749 NONAME
 ?CreateObject@CMiniDockFrameWnd@@SAPEAVCObject@@XZ @ 1750 NONAME
 ?CreateObject@CMiniFrameWnd@@SAPEAVCObject@@XZ @ 1751 NONAME
 ?CreateObject@CObArray@@SAPEAVCObject@@XZ @ 1752 NONAME
 ?CreateObject@CObList@@SAPEAVCObject@@XZ @ 1753 NONAME
 ?CreateObject@COleDocIPFrameWnd@@SAPEAVCObject@@XZ @ 1754 NONAME
 ?CreateObject@COleIPFrameWnd@@SAPEAVCObject@@XZ @ 1755 NONAME
 ?CreateObject@CPreviewView@@SAPEAVCObject@@XZ @ 1756 NONAME
 ?CreateObject@CRichEditCntrItem@@SAPEAVCObject@@XZ @ 1757 NONAME
 ?CreateObject@CRichEditView@@SAPEAVCObject@@XZ @ 1758 NONAME
 ?CreateObject@CRuntimeClass@@QEAAPEAVCObject@@XZ @ 1759 NONAME
 ?CreateObject@CRuntimeClass@@SAPEAVCObject@@PEB_W@Z @ 1760 NONAME
 ?CreateObject@CRuntimeClass@@SAPEAVCObject@@PEBD@Z @ 1761 NONAME
 ?CreateObject@CStringArray@@SAPEAVCObject@@XZ @ 1762 NONAME
 ?CreateObject@CStringList@@SAPEAVCObject@@XZ @ 1763 NONAME
 ?CreateObject@CTreeView@@SAPEAVCObject@@XZ @ 1764 NONAME
 ?CreateObject@CWnd@@SAPEAVCObject@@XZ @ 1765 NONAME
 ?CreateObject@CWordArray@@SAPEAVCObject@@XZ @ 1766 NONAME
 ?CreateOleFont@COleControlContainer@@QEAAXPEAVCFont@@@Z @ 1767 NONAME
 ?CreateOleFrame@CDocTemplate@@QEAAPEAVCFrameWnd@@PEAVCWnd@@PEAVCDocument@@H@Z @ 1768 NONAME
 ?CreateOneDim@COleSafeArray@@QEAAXGKPEBXJ@Z @ 1769 NONAME
 ?CreateOrLoad@COleControlSite@@MEAAJAEBU_GUID@@PEAVCFile@@HPEA_W@Z @ 1770 NONAME
 ?CreateOrLoad@COleControlSite@@MEAAJAEBVCControlCreationInfo@@@Z @ 1771 NONAME
 ?CreatePointFont@CFont@@QEAAHHPEB_WPEAVCDC@@@Z @ 1772 NONAME
 ?CreatePointFontIndirect@CFont@@QEAAHPEBUtagLOGFONTW@@PEAVCDC@@@Z @ 1773 NONAME
 ?CreatePrinterDC@CPageSetupDialog@@QEAAPEAUHDC__@@XZ @ 1774 NONAME
 ?CreatePrinterDC@CPrintDialog@@QEAAPEAUHDC__@@XZ @ 1775 NONAME
 ?CreatePrinterDC@CPrintDialogEx@@QEAAPEAUHDC__@@XZ @ 1776 NONAME
 ?CreatePrinterDC@CWinApp@@QEAAHAEAVCDC@@@Z @ 1777 NONAME
 ?CreateScrollBarCtrl@CSplitterWnd@@UEAAHKI@Z @ 1778 NONAME
 ?CreateSite@CControlSiteFactoryMgr@@QEAAPEAVCOleControlSite@@PEAVCOleControlContainer@@AEBVCControlCreationInfo@@@Z @ 1779 NONAME
 ?CreateSite@COccManager@@UEAAPEAVCOleControlSite@@PEAVCOleControlContainer@@@Z @ 1780 NONAME
 ?CreateSite@COccManager@@UEAAPEAVCOleControlSite@@PEAVCOleControlContainer@@AEBVCControlCreationInfo@@@Z @ 1781 NONAME
 ?CreateStatic@CSplitterWnd@@UEAAHPEAVCWnd@@HHKI@Z @ 1782 NONAME
 ?CreateStaticFromClipboard@COleClientItem@@QEAAHW4tagOLERENDER@@GPEAUtagFORMATETC@@@Z @ 1783 NONAME
 ?CreateStaticFromData@COleClientItem@@QEAAHPEAVCOleDataObject@@W4tagOLERENDER@@GPEAUtagFORMATETC@@@Z @ 1784 NONAME
 ?CreateStream@COleStreamFile@@QEAAHPEAUIStorage@@PEB_WKPEAVCFileException@@@Z @ 1785 NONAME
 ?CreateThread@CWinThread@@QEAAHKIPEAU_SECURITY_ATTRIBUTES@@@Z @ 1786 NONAME
 ?CreateTracker@COleControl@@IEAAXHH@Z @ 1787 NONAME
 ?CreateTracker@COleControl@@IEAAXHHPEBUtagRECT@@@Z @ 1788 NONAME
 ?CreateView@CFrameWnd@@QEAAPEAVCWnd@@PEAUCCreateContext@@I@Z @ 1789 NONAME
 ?CreateView@CSplitterWnd@@UEAAHHHPEAUCRuntimeClass@@UtagSIZE@@PEAUCCreateContext@@@Z @ 1790 NONAME
 ?CreateView@XOleDocument@CDocObjectServer@@UEAAJPEAUIOleInPlaceSite@@PEAUIStream@@KPEAPEAUIOleDocumentView@@@Z @ 1791 NONAME
 ?CreateWindowForSubclassedControl@COleControl@@IEAAXXZ @ 1792 NONAME
 ?DAdvise@XDataObject@COleControl@@UEAAJPEAUtagFORMATETC@@KPEAUIAdviseSink@@PEAK@Z @ 1793 NONAME
 ?DAdvise@XDataObject@COleDataSource@@UEAAJPEAUtagFORMATETC@@KPEAUIAdviseSink@@PEAK@Z @ 1794 NONAME
 ?DAdvise@XDataObject@COleServerDoc@@UEAAJPEAUtagFORMATETC@@KPEAUIAdviseSink@@PEAK@Z @ 1795 NONAME
 ?DAdvise@XDataObject@COleServerItem@@UEAAJPEAUtagFORMATETC@@KPEAUIAdviseSink@@PEAK@Z @ 1796 NONAME
 ?DDP_Check@@YAXPEAVCDataExchange@@HAEAHPEB_W@Z @ 1797 NONAME
 ?DDP_EndCheck@@YAXPEAVCDataExchange@@HPEAHPEB_W@Z @ 1798 NONAME
 ?DDP_EndRadio@@YAXPEAVCDataExchange@@HPEAHPEB_W@Z @ 1799 NONAME
 ?DDP_EndText@@YAXPEAVCDataExchange@@HPEAEPEB_W@Z @ 1800 NONAME
 ?DDP_EndText@@YAXPEAVCDataExchange@@HPEAFPEB_W@Z @ 1801 NONAME
 ?DDP_EndText@@YAXPEAVCDataExchange@@HPEAHPEB_W@Z @ 1802 NONAME
 ?DDP_EndText@@YAXPEAVCDataExchange@@HPEAIPEB_W@Z @ 1803 NONAME
 ?DDP_EndText@@YAXPEAVCDataExchange@@HPEAJPEB_W@Z @ 1804 NONAME
 ?DDP_EndText@@YAXPEAVCDataExchange@@HPEAKPEB_W@Z @ 1805 NONAME
 ?DDP_EndText@@YAXPEAVCDataExchange@@HPEAMPEB_W@Z @ 1806 NONAME
 ?DDP_EndText@@YAXPEAVCDataExchange@@HPEANPEB_W@Z @ 1807 NONAME
 ?DDP_EndText@@YAXPEAVCDataExchange@@HPEAV?$CStringT@_WV?$StrTraitMFC_DLL@_WV?$ChTraitsCRT@_W@ATL@@@@@ATL@@PEB_W@Z @ 1808 NONAME
 ?DDP_PostProcessing@@YAXPEAVCDataExchange@@@Z @ 1809 NONAME
 ?DDP_Radio@@YAXPEAVCDataExchange@@HAEAHPEB_W@Z @ 1810 NONAME
 ?DDP_Text@@YAXPEAVCDataExchange@@HAEAEPEB_W@Z @ 1811 NONAME
 ?DDP_Text@@YAXPEAVCDataExchange@@HAEAFPEB_W@Z @ 1812 NONAME
 ?DDP_Text@@YAXPEAVCDataExchange@@HAEAHPEB_W@Z @ 1813 NONAME
 ?DDP_Text@@YAXPEAVCDataExchange@@HAEAIPEB_W@Z @ 1814 NONAME
 ?DDP_Text@@YAXPEAVCDataExchange@@HAEAJPEB_W@Z @ 1815 NONAME
 ?DDP_Text@@YAXPEAVCDataExchange@@HAEAKPEB_W@Z @ 1816 NONAME
 ?DDP_Text@@YAXPEAVCDataExchange@@HAEAMPEB_W@Z @ 1817 NONAME
 ?DDP_Text@@YAXPEAVCDataExchange@@HAEANPEB_W@Z @ 1818 NONAME
 ?DDP_Text@@YAXPEAVCDataExchange@@HAEAV?$CStringT@_WV?$StrTraitMFC_DLL@_WV?$ChTraitsCRT@_W@ATL@@@@@ATL@@PEB_W@Z @ 1819 NONAME
 ?DDV_MaxChars@@YAXPEAVCDataExchange@@AEBV?$CStringT@_WV?$StrTraitMFC_DLL@_WV?$ChTraitsCRT@_W@ATL@@@@@ATL@@H@Z @ 1820 NONAME
 ?DDV_MinMaxByte@@YAXPEAVCDataExchange@@EEE@Z @ 1821 NONAME
 ?DDV_MinMaxDateTime@@YAXPEAVCDataExchange@@AEAVCOleDateTime@ATL@@PEBV23@2@Z @ 1822 NONAME
 ?DDV_MinMaxDateTime@@YAXPEAVCDataExchange@@AEAVCTime@ATL@@PEBV23@2@Z @ 1823 NONAME
 ?DDV_MinMaxDouble@@YAXPEAVCDataExchange@@AEBNNN@Z @ 1824 NONAME
 ?DDV_MinMaxDWord@@YAXPEAVCDataExchange@@KKK@Z @ 1825 NONAME
 ?DDV_MinMaxFloat@@YAXPEAVCDataExchange@@AEBMMM@Z @ 1826 NONAME
 ?DDV_MinMaxInt@@YAXPEAVCDataExchange@@HHH@Z @ 1827 NONAME
 ?DDV_MinMaxLong@@YAXPEAVCDataExchange@@JJJ@Z @ 1828 NONAME
 ?DDV_MinMaxLongLong@@YAXPEAVCDataExchange@@_J11@Z @ 1829 NONAME
 ?DDV_MinMaxMonth@@YAXPEAVCDataExchange@@AEAVCOleDateTime@ATL@@PEBV23@2@Z @ 1830 NONAME
 ?DDV_MinMaxMonth@@YAXPEAVCDataExchange@@AEAVCTime@ATL@@PEBV23@2@Z @ 1831 NONAME
 ?DDV_MinMaxShort@@YAXPEAVCDataExchange@@FFF@Z @ 1832 NONAME
 ?DDV_MinMaxSlider@@YAXPEAVCDataExchange@@KKK@Z @ 1833 NONAME
 ?DDV_MinMaxUInt@@YAXPEAVCDataExchange@@III@Z @ 1834 NONAME
 ?DDV_MinMaxULongLong@@YAXPEAVCDataExchange@@_K11@Z @ 1835 NONAME
 ?DDX_CBIndex@@YAXPEAVCDataExchange@@HAEAH@Z @ 1836 NONAME
 ?DDX_CBString@@YAXPEAVCDataExchange@@HAEAV?$CStringT@_WV?$StrTraitMFC_DLL@_WV?$ChTraitsCRT@_W@ATL@@@@@ATL@@@Z @ 1837 NONAME
 ?DDX_CBStringExact@@YAXPEAVCDataExchange@@HAEAV?$CStringT@_WV?$StrTraitMFC_DLL@_WV?$ChTraitsCRT@_W@ATL@@@@@ATL@@@Z @ 1838 NONAME
 ?DDX_Check@@YAXPEAVCDataExchange@@HAEAH@Z @ 1839 NONAME
 ?DDX_Control@@YAXPEAVCDataExchange@@HAEAVCWnd@@@Z @ 1840 NONAME
 ?DDX_DateTimeCtrl@@YAXPEAVCDataExchange@@HAEAU_FILETIME@@@Z @ 1841 NONAME
 ?DDX_DateTimeCtrl@@YAXPEAVCDataExchange@@HAEAUtagDBDATE@@@Z @ 1842 NONAME
 ?DDX_DateTimeCtrl@@YAXPEAVCDataExchange@@HAEAUtagDBTIME@@@Z @ 1843 NONAME
 ?DDX_DateTimeCtrl@@YAXPEAVCDataExchange@@HAEAV?$CStringT@_WV?$StrTraitMFC_DLL@_WV?$ChTraitsCRT@_W@ATL@@@@@ATL@@@Z @ 1844 NONAME
 ?DDX_DateTimeCtrl@@YAXPEAVCDataExchange@@HAEAVCOleDateTime@ATL@@@Z @ 1845 NONAME
 ?DDX_DateTimeCtrl@@YAXPEAVCDataExchange@@HAEAVCTime@ATL@@@Z @ 1846 NONAME
 ?DDX_DHtml_AxControl@CDHtmlDialog@@IEAAXPEB_W0AEAUtagVARIANT@@H@Z @ 1847 NONAME
 ?DDX_DHtml_AxControl@CDHtmlDialog@@IEAAXPEB_WJAEAUtagVARIANT@@H@Z @ 1848 NONAME
 ?DDX_DHtml_AxControl@CDHtmlDialog@@QEAAXPEAVCDataExchange@@PEB_W1AEAUtagVARIANT@@@Z @ 1849 NONAME
 ?DDX_DHtml_AxControl@CDHtmlDialog@@QEAAXPEAVCDataExchange@@PEB_WJAEAUtagVARIANT@@@Z @ 1850 NONAME
 ?DDX_DHtml_CheckBox@CDHtmlDialog@@IEAAXPEB_WAEAHH@Z @ 1851 NONAME
 ?DDX_DHtml_CheckBox@CDHtmlDialog@@QEAAXPEAVCDataExchange@@PEB_WAEAH@Z @ 1852 NONAME
 ?DDX_DHtml_ElementText@CDHtmlDialog@@IEAAXPEB_WJAEAFH@Z @ 1853 NONAME
 ?DDX_DHtml_ElementText@CDHtmlDialog@@IEAAXPEB_WJAEAHH@Z @ 1854 NONAME
 ?DDX_DHtml_ElementText@CDHtmlDialog@@IEAAXPEB_WJAEAJH@Z @ 1855 NONAME
 ?DDX_DHtml_ElementText@CDHtmlDialog@@IEAAXPEB_WJAEAKH@Z @ 1856 NONAME
 ?DDX_DHtml_ElementText@CDHtmlDialog@@IEAAXPEB_WJAEAMH@Z @ 1857 NONAME
 ?DDX_DHtml_ElementText@CDHtmlDialog@@IEAAXPEB_WJAEANH@Z @ 1858 NONAME
 ?DDX_DHtml_ElementText@CDHtmlDialog@@IEAAXPEB_WJAEAV?$CStringT@_WV?$StrTraitMFC_DLL@_WV?$ChTraitsCRT@_W@ATL@@@@@ATL@@H@Z @ 1859 NONAME
 ?DDX_DHtml_ElementText@CDHtmlDialog@@QEAAXPEAVCDataExchange@@PEB_WJAEAF@Z @ 1860 NONAME
 ?DDX_DHtml_ElementText@CDHtmlDialog@@QEAAXPEAVCDataExchange@@PEB_WJAEAH@Z @ 1861 NONAME
 ?DDX_DHtml_ElementText@CDHtmlDialog@@QEAAXPEAVCDataExchange@@PEB_WJAEAJ@Z @ 1862 NONAME
 ?DDX_DHtml_ElementText@CDHtmlDialog@@QEAAXPEAVCDataExchange@@PEB_WJAEAK@Z @ 1863 NONAME
 ?DDX_DHtml_ElementText@CDHtmlDialog@@QEAAXPEAVCDataExchange@@PEB_WJAEAM@Z @ 1864 NONAME
 ?DDX_DHtml_ElementText@CDHtmlDialog@@QEAAXPEAVCDataExchange@@PEB_WJAEAN@Z @ 1865 NONAME
 ?DDX_DHtml_ElementText@CDHtmlDialog@@QEAAXPEAVCDataExchange@@PEB_WJAEAV?$CStringT@_WV?$StrTraitMFC_DLL@_WV?$ChTraitsCRT@_W@ATL@@@@@ATL@@@Z @ 1866 NONAME
 ?DDX_DHtml_ElementTextFloatFormat@CDHtmlDialog@@IEAAXPEB_WJPEAXNHH@Z @ 1867 NONAME
 ?DDX_DHtml_ElementTextWithFormat@CDHtmlDialog@@IEAAXPEB_WJ0IHZZ @ 1868 NONAME
 ?DDX_DHtml_Radio@CDHtmlDialog@@IEAAXPEB_WAEAJH@Z @ 1869 NONAME
 ?DDX_DHtml_Radio@CDHtmlDialog@@QEAAXPEAVCDataExchange@@PEB_WAEAJ@Z @ 1870 NONAME
 ?DDX_DHtml_SelectIndex@CDHtmlDialog@@IEAAXPEB_WAEAJH@Z @ 1871 NONAME
 ?DDX_DHtml_SelectIndex@CDHtmlDialog@@QEAAXPEAVCDataExchange@@PEB_WAEAJ@Z @ 1872 NONAME
 ?DDX_DHtml_SelectString@CDHtmlDialog@@IEAAXPEB_WAEAV?$CStringT@_WV?$StrTraitMFC_DLL@_WV?$ChTraitsCRT@_W@ATL@@@@@ATL@@H@Z @ 1873 NONAME
 ?DDX_DHtml_SelectString@CDHtmlDialog@@QEAAXPEAVCDataExchange@@PEB_WAEAV?$CStringT@_WV?$StrTraitMFC_DLL@_WV?$ChTraitsCRT@_W@ATL@@@@@ATL@@@Z @ 1874 NONAME
 ?DDX_DHtml_SelectValue@CDHtmlDialog@@IEAAXPEB_WAEAV?$CStringT@_WV?$StrTraitMFC_DLL@_WV?$ChTraitsCRT@_W@ATL@@@@@ATL@@H@Z @ 1875 NONAME
 ?DDX_DHtml_SelectValue@CDHtmlDialog@@QEAAXPEAVCDataExchange@@PEB_WAEAV?$CStringT@_WV?$StrTraitMFC_DLL@_WV?$ChTraitsCRT@_W@ATL@@@@@ATL@@@Z @ 1876 NONAME
 ?DDX_FieldCBIndex@@YAXPEAVCDataExchange@@HAEAHPEAVCRecordset@@@Z @ 1877 NONAME
 ?DDX_FieldCBString@@YAXPEAVCDataExchange@@HAEAV?$CStringT@_WV?$StrTraitMFC_DLL@_WV?$ChTraitsCRT@_W@ATL@@@@@ATL@@PEAVCRecordset@@@Z @ 1878 NONAME
 ?DDX_FieldCBStringExact@@YAXPEAVCDataExchange@@HAEAV?$CStringT@_WV?$StrTraitMFC_DLL@_WV?$ChTraitsCRT@_W@ATL@@@@@ATL@@PEAVCRecordset@@@Z @ 1879 NONAME
 ?DDX_FieldCheck@@YAXPEAVCDataExchange@@HAEAHPEAVCRecordset@@@Z @ 1880 NONAME
 ?DDX_FieldLBIndex@@YAXPEAVCDataExchange@@HAEAHPEAVCRecordset@@@Z @ 1881 NONAME
 ?DDX_FieldLBString@@YAXPEAVCDataExchange@@HAEAV?$CStringT@_WV?$StrTraitMFC_DLL@_WV?$ChTraitsCRT@_W@ATL@@@@@ATL@@PEAVCRecordset@@@Z @ 1882 NONAME
 ?DDX_FieldLBStringExact@@YAXPEAVCDataExchange@@HAEAV?$CStringT@_WV?$StrTraitMFC_DLL@_WV?$ChTraitsCRT@_W@ATL@@@@@ATL@@PEAVCRecordset@@@Z @ 1883 NONAME
 ?DDX_FieldRadio@@YAXPEAVCDataExchange@@HAEAHPEAVCRecordset@@@Z @ 1884 NONAME
 ?DDX_FieldScroll@@YAXPEAVCDataExchange@@HAEAHPEAVCRecordset@@@Z @ 1885 NONAME
 ?DDX_FieldText@@YAXPEAVCDataExchange@@HAEAEPEAVCRecordset@@@Z @ 1886 NONAME
 ?DDX_FieldText@@YAXPEAVCDataExchange@@HAEAHPEAVCRecordset@@@Z @ 1887 NONAME
 ?DDX_FieldText@@YAXPEAVCDataExchange@@HAEAIPEAVCRecordset@@@Z @ 1888 NONAME
 ?DDX_FieldText@@YAXPEAVCDataExchange@@HAEAJPEAVCRecordset@@@Z @ 1889 NONAME
 ?DDX_FieldText@@YAXPEAVCDataExchange@@HAEAKPEAVCRecordset@@@Z @ 1890 NONAME
 ?DDX_FieldText@@YAXPEAVCDataExchange@@HAEAMPEAVCRecordset@@@Z @ 1891 NONAME
 ?DDX_FieldText@@YAXPEAVCDataExchange@@HAEANPEAVCRecordset@@@Z @ 1892 NONAME
 ?DDX_FieldText@@YAXPEAVCDataExchange@@HAEAV?$CStringT@_WV?$StrTraitMFC_DLL@_WV?$ChTraitsCRT@_W@ATL@@@@@ATL@@PEAVCRecordset@@@Z @ 1893 NONAME
 ?DDX_FieldText@@YAXPEAVCDataExchange@@HPEA_WHPEAVCRecordset@@@Z @ 1894 NONAME
 ?DDX_IPAddress@@YAXPEAVCDataExchange@@HAEAK@Z @ 1895 NONAME
 ?DDX_LBIndex@@YAXPEAVCDataExchange@@HAEAH@Z @ 1896 NONAME
 ?DDX_LBString@@YAXPEAVCDataExchange@@HAEAV?$CStringT@_WV?$StrTraitMFC_DLL@_WV?$ChTraitsCRT@_W@ATL@@@@@ATL@@@Z @ 1897 NONAME
 ?DDX_LBStringExact@@YAXPEAVCDataExchange@@HAEAV?$CStringT@_WV?$StrTraitMFC_DLL@_WV?$ChTraitsCRT@_W@ATL@@@@@ATL@@@Z @ 1898 NONAME
 ?DDX_MonthCalCtrl@@YAXPEAVCDataExchange@@HAEAU_FILETIME@@@Z @ 1899 NONAME
 ?DDX_MonthCalCtrl@@YAXPEAVCDataExchange@@HAEAUtagDBDATE@@@Z @ 1900 NONAME
 ?DDX_MonthCalCtrl@@YAXPEAVCDataExchange@@HAEAVCOleDateTime@ATL@@@Z @ 1901 NONAME
 ?DDX_MonthCalCtrl@@YAXPEAVCDataExchange@@HAEAVCTime@ATL@@@Z @ 1902 NONAME
 ?DDX_OCBool@@YAXPEAVCDataExchange@@HJAEAH@Z @ 1903 NONAME
 ?DDX_OCBoolRO@@YAXPEAVCDataExchange@@HJAEAH@Z @ 1904 NONAME
 ?DDX_OCColor@@YAXPEAVCDataExchange@@HJAEAK@Z @ 1905 NONAME
 ?DDX_OCColorRO@@YAXPEAVCDataExchange@@HJAEAK@Z @ 1906 NONAME
 ?DDX_OCFloat@@YAXPEAVCDataExchange@@HJAEAM@Z @ 1907 NONAME
 ?DDX_OCFloat@@YAXPEAVCDataExchange@@HJAEAN@Z @ 1908 NONAME
 ?DDX_OCFloatRO@@YAXPEAVCDataExchange@@HJAEAM@Z @ 1909 NONAME
 ?DDX_OCFloatRO@@YAXPEAVCDataExchange@@HJAEAN@Z @ 1910 NONAME
 ?DDX_OCInt@@YAXPEAVCDataExchange@@HJAEAH@Z @ 1911 NONAME
 ?DDX_OCInt@@YAXPEAVCDataExchange@@HJAEAJ@Z @ 1912 NONAME
 ?DDX_OCIntRO@@YAXPEAVCDataExchange@@HJAEAH@Z @ 1913 NONAME
 ?DDX_OCIntRO@@YAXPEAVCDataExchange@@HJAEAJ@Z @ 1914 NONAME
 ?DDX_OCShort@@YAXPEAVCDataExchange@@HJAEAF@Z @ 1915 NONAME
 ?DDX_OCShortRO@@YAXPEAVCDataExchange@@HJAEAF@Z @ 1916 NONAME
 ?DDX_OCText@@YAXPEAVCDataExchange@@HJAEAV?$CStringT@_WV?$StrTraitMFC_DLL@_WV?$ChTraitsCRT@_W@ATL@@@@@ATL@@@Z @ 1917 NONAME
 ?DDX_OCTextRO@@YAXPEAVCDataExchange@@HJAEAV?$CStringT@_WV?$StrTraitMFC_DLL@_WV?$ChTraitsCRT@_W@ATL@@@@@ATL@@@Z @ 1918 NONAME
 ?DDX_Radio@@YAXPEAVCDataExchange@@HAEAH@Z @ 1919 NONAME
 ?DDX_Scroll@@YAXPEAVCDataExchange@@HAEAH@Z @ 1920 NONAME
 ?DDX_Slider@@YAXPEAVCDataExchange@@HAEAH@Z @ 1921 NONAME
 ?DDX_Text@@YAXPEAVCDataExchange@@HAEA_J@Z @ 1922 NONAME
 ?DDX_Text@@YAXPEAVCDataExchange@@HAEA_K@Z @ 1923 NONAME
 ?DDX_Text@@YAXPEAVCDataExchange@@HAEAE@Z @ 1924 NONAME
 ?DDX_Text@@YAXPEAVCDataExchange@@HAEAF@Z @ 1925 NONAME
 ?DDX_Text@@YAXPEAVCDataExchange@@HAEAH@Z @ 1926 NONAME
 ?DDX_Text@@YAXPEAVCDataExchange@@HAEAI@Z @ 1927 NONAME
 ?DDX_Text@@YAXPEAVCDataExchange@@HAEAJ@Z @ 1928 NONAME
 ?DDX_Text@@YAXPEAVCDataExchange@@HAEAK@Z @ 1929 NONAME
 ?DDX_Text@@YAXPEAVCDataExchange@@HAEAM@Z @ 1930 NONAME
 ?DDX_Text@@YAXPEAVCDataExchange@@HAEAN@Z @ 1931 NONAME
 ?DDX_Text@@YAXPEAVCDataExchange@@HAEAU_FILETIME@@@Z @ 1932 NONAME
 ?DDX_Text@@YAXPEAVCDataExchange@@HAEAU_GUID@@@Z @ 1933 NONAME
 ?DDX_Text@@YAXPEAVCDataExchange@@HAEAUtagDB_NUMERIC@@@Z @ 1934 NONAME
 ?DDX_Text@@YAXPEAVCDataExchange@@HAEAUtagDBDATE@@@Z @ 1935 NONAME
 ?DDX_Text@@YAXPEAVCDataExchange@@HAEAUtagDBTIME@@@Z @ 1936 NONAME
 ?DDX_Text@@YAXPEAVCDataExchange@@HAEAUtagDEC@@@Z @ 1937 NONAME
 ?DDX_Text@@YAXPEAVCDataExchange@@HAEAV?$CStringT@_WV?$StrTraitMFC_DLL@_WV?$ChTraitsCRT@_W@ATL@@@@@ATL@@@Z @ 1938 NONAME
 ?DDX_Text@@YAXPEAVCDataExchange@@HAEAVCOleCurrency@@@Z @ 1939 NONAME
 ?DDX_Text@@YAXPEAVCDataExchange@@HAEAVCOleDateTime@ATL@@@Z @ 1940 NONAME
 ?DDX_Text@@YAXPEAVCDataExchange@@HPEA_WH@Z @ 1941 NONAME
 ?Deactivate@COleClientItem@@QEAAXXZ @ 1942 NONAME
 ?Deactivate@XPropertyPage@COlePropertyPage@@UEAAJXZ @ 1943 NONAME
 ?DeactivateAndUndo@COleServerDoc@@QEAAHXZ @ 1944 NONAME
 ?DeactivateAndUndo@XOleIPSite@COleClientItem@@UEAAJXZ @ 1945 NONAME
 ?DeactivateAndUndo@XOleIPSite@COleControlSite@@UEAAJXZ @ 1946 NONAME
 ?DeactivateUI@COleClientItem@@QEAAXXZ @ 1947 NONAME
 ?Default@CFieldExchange@@QEAAXPEB_WPEAXPEA_JH_K3@Z @ 1948 NONAME
 ?Default@CWnd@@IEAA_JXZ @ 1949 NONAME
 ?DefWindowProcW@CMDIChildWnd@@MEAA_JI_K_J@Z @ 1950 NONAME
 ?DefWindowProcW@CMDIFrameWnd@@MEAA_JI_K_J@Z @ 1951 NONAME
 ?DefWindowProcW@COleControl@@MEAA_JI_K_J@Z @ 1952 NONAME
 ?DefWindowProcW@CPrintDialogEx@@UEAA_JI_K_J@Z @ 1953 NONAME
 ?DefWindowProcW@CWnd@@MEAA_JI_K_J@Z @ 1954 NONAME
 ?DelayRenderData@COleDataSource@@QEAAXGPEAUtagFORMATETC@@@Z @ 1955 NONAME
 ?DelayRenderFileData@COleDataSource@@QEAAXGPEAUtagFORMATETC@@@Z @ 1956 NONAME
 ?DelaySetData@COleDataSource@@QEAAXGPEAUtagFORMATETC@@@Z @ 1957 NONAME
 ?DelayShow@CControlBar@@UEAAXH@Z @ 1958 NONAME
 ?DelayUpdateFrameMenu@CFrameWnd@@UEAAXPEAUHMENU__@@@Z @ 1959 NONAME
 ?DelayUpdateFrameMenu@CMDIFrameWnd@@UEAAXPEAUHMENU__@@@Z @ 1960 NONAME
 ?Delete@?$CStringT@_WV?$StrTraitMFC_DLL@_WV?$ChTraitsCRT@_W@ATL@@@@@ATL@@QEAAHHH@Z @ 1961 NONAME
 ?Delete@?$CStringT@DV?$StrTraitMFC_DLL@DV?$ChTraitsCRT@D@ATL@@@@@ATL@@QEAAHHH@Z @ 1962 NONAME
 ?Delete@CException@@QEAAXXZ @ 1963 NONAME
 ?Delete@COleClientItem@@QEAAXH@Z @ 1964 NONAME
 ?Delete@CRecordset@@UEAAXXZ @ 1965 NONAME
 ?Delete@CWinThread@@UEAAXXZ @ 1966 NONAME
 ?DeleteColumn@CSplitterWnd@@UEAAXH@Z @ 1967 NONAME
 ?DeleteContents@CDocument@@UEAAXXZ @ 1968 NONAME
 ?DeleteContents@CEditView@@UEAAXXZ @ 1969 NONAME
 ?DeleteContents@CHtmlEditDoc@@UEAAXXZ @ 1970 NONAME
 ?DeleteContents@COleDocument@@UEAAXXZ @ 1971 NONAME
 ?DeleteContents@COleServerDoc@@UEAAXXZ @ 1972 NONAME
 ?DeleteContents@CRichEditDoc@@UEAAXXZ @ 1973 NONAME
 ?DeleteContents@CRichEditView@@UEAAXXZ @ 1974 NONAME
 ?DeleteDC@CDC@@QEAAHXZ @ 1975 NONAME
 ?DeleteImageList@CImageList@@QEAAHXZ @ 1976 NONAME
 ?DeleteItem@CComboBox@@UEAAXPEAUtagDELETEITEMSTRUCT@@@Z @ 1977 NONAME
 ?DeleteItem@CComboBoxEx@@QEAAHH@Z @ 1978 NONAME
 ?DeleteItem@CListBox@@UEAAXPEAUtagDELETEITEMSTRUCT@@@Z @ 1979 NONAME
 ?DeleteObject@CGdiObject@@QEAAHXZ @ 1980 NONAME
 ?DeleteObject@XRichEditOleCallback@CRichEditView@@UEAAJPEAUIOleObject@@@Z @ 1981 NONAME
 ?DeleteRow@CSplitterWnd@@UEAAXH@Z @ 1982 NONAME
 ?DeleteTemp@CHandleMap@@QEAAXXZ @ 1983 NONAME
 ?DeleteTempMap@CDC@@SAXXZ @ 1984 NONAME
 ?DeleteTempMap@CGdiObject@@SAXXZ @ 1985 NONAME
 ?DeleteTempMap@CImageList@@SAXXZ @ 1986 NONAME
 ?DeleteTempMap@CMenu@@SAXXZ @ 1987 NONAME
 ?DeleteTempMap@CWnd@@SAXXZ @ 1988 NONAME
 ?DeleteUnmarkedItems@CRichEditDoc@@IEBAXXZ @ 1989 NONAME
 ?DeleteValues@CThreadSlotData@@QEAAXPEAUCThreadData@@PEAUHINSTANCE__@@@Z @ 1990 NONAME
 ?DeleteValues@CThreadSlotData@@QEAAXPEAUHINSTANCE__@@H@Z @ 1991 NONAME
 ?DeleteView@CSplitterWnd@@UEAAXHH@Z @ 1992 NONAME
 ?DelRegTree@CWinApp@@QEAAJPEAUHKEY__@@AEBV?$CStringT@_WV?$StrTraitMFC_DLL@_WV?$ChTraitsCRT@_W@ATL@@@@@ATL@@@Z @ 1993 NONAME
 ?DelTool@CToolTipCtrl@@QEAAXPEAVCWnd@@_K@Z @ 1994 NONAME
 ?Destroy@COleSafeArray@@QEAAXXZ @ 1995 NONAME
 ?DestroyControl@COleControlSite@@UEAAHXZ @ 1996 NONAME
 ?DestroyData@COleSafeArray@@QEAAXXZ @ 1997 NONAME
 ?DestroyDescriptor@COleSafeArray@@QEAAXXZ @ 1998 NONAME
 ?DestroyDockBars@CFrameWnd@@QEAAXXZ @ 1999 NONAME
 ?DestroyInPlaceFrame@COleServerDoc@@MEAAXPEAVCOleIPFrameWnd@@@Z @ 2000 NONAME
 ?DestroyMenu@CMenu@@QEAAHXZ @ 2001 NONAME
 ?DestroyModeless@CDHtmlDialog@@QEAAXXZ @ 2002 NONAME
 ?DestroySharedMenu@COleControl@@MEAAXXZ @ 2003 NONAME
 ?DestroySharedMenu@COleDocIPFrameWnd@@MEAAXXZ @ 2004 NONAME
 ?DestroySharedMenu@COleIPFrameWnd@@MEAAXXZ @ 2005 NONAME
 ?DestroyToolTipCtrl@CToolTipCtrl@@QEAAHXZ @ 2006 NONAME
 ?DestroyTracker@COleControl@@IEAAXXZ @ 2007 NONAME
 ?DestroyWindow@CControlBar@@UEAAHXZ @ 2008 NONAME
 ?DestroyWindow@CMDIChildWnd@@UEAAHXZ @ 2009 NONAME
 ?DestroyWindow@CWnd@@UEAAHXZ @ 2010 NONAME
 ?Detach@CAsyncSocket@@QEAA_KXZ @ 2011 NONAME
 ?Detach@CDC@@QEAAPEAUHDC__@@XZ @ 2012 NONAME
 ?Detach@CDialogTemplate@@QEAAPEAXXZ @ 2013 NONAME
 ?Detach@CGdiObject@@QEAAPEAXXZ @ 2014 NONAME
 ?Detach@CImageList@@QEAAPEAU_IMAGELIST@@XZ @ 2015 NONAME
 ?Detach@CMemFile@@QEAAPEAEXZ @ 2016 NONAME
 ?Detach@CMenu@@QEAAPEAUHMENU__@@XZ @ 2017 NONAME
 ?Detach@CMonikerFile@@QEAAHPEAVCFileException@@@Z @ 2018 NONAME
 ?Detach@COleDataObject@@QEAAPEAUIDataObject@@XZ @ 2019 NONAME
 ?Detach@COleSafeArray@@QEAA?AUtagVARIANT@@XZ @ 2020 NONAME
 ?Detach@COleStreamFile@@QEAAPEAUIStream@@XZ @ 2021 NONAME
 ?Detach@COleVariant@@QEAA?AUtagVARIANT@@XZ @ 2022 NONAME
 ?Detach@CSharedFile@@QEAAPEAXXZ @ 2023 NONAME
 ?Detach@CWindowlessDC@@QEAAPEAUHDC__@@XZ @ 2024 NONAME
 ?Detach@CWnd@@QEAAPEAUHWND__@@XZ @ 2025 NONAME
 ?DetachDispatch@COleDispatchDriver@@QEAAPEAUIDispatch@@XZ @ 2026 NONAME
 ?DetachHandle@CAsyncSocket@@SAX_KH@Z @ 2027 NONAME
 ?DetachWindow@COleControlSite@@QEAAXXZ @ 2028 NONAME
 ?DevModeChange@CWinApp@@QEAAXPEA_W@Z @ 2029 NONAME
 ?DHtmlEventHook@CDHtmlEventSink@@UEAAHPEAJJPEAUtagDISPPARAMS@@PEAUtagVARIANT@@PEAUtagEXCEPINFO@@PEAI@Z @ 2030 NONAME
 ?DidEvent@XNotifyDBEvents@COleControlSite@@UEAAJKKQEAUtagDBNOTIFYREASON@@@Z @ 2031 NONAME
 ?DiscardUndoState@COleServerDoc@@QEAAHXZ @ 2032 NONAME
 ?DiscardUndoState@XOleIPSite@COleClientItem@@UEAAJXZ @ 2033 NONAME
 ?DiscardUndoState@XOleIPSite@COleControlSite@@UEAAJXZ @ 2034 NONAME
 ?Disconnect@COleDispatchImpl@@UEAAXXZ @ 2035 NONAME
 ?DisconnectDHtmlElementEvents@CDHtmlDialog@@IEAAXXZ @ 2036 NONAME
 ?DisconnectDHtmlEvents@CDHtmlDialog@@IEAAXXZ @ 2037 NONAME
 ?DisconnectFromConnectionPoint@CDHtmlEventSink@@QEAAXPEAUIUnknown@@AEBU_GUID@@AEAK@Z @ 2038 NONAME
 ?DisconnectSink@COleControlSite@@IEAAXAEBU_GUID@@K@Z @ 2039 NONAME
 ?DisconnectViews@CDocument@@QEAAXXZ @ 2040 NONAME
 ?DispatchThreadMessage@CWinThread@@IEAAXPEAUtagMSG@@@Z @ 2041 NONAME
 ?DispatchThreadMessageEx@CWinThread@@IEAAHPEAUtagMSG@@@Z @ 2042 NONAME
 ?DisplayError@COleControl@@UEAAXJPEB_W00I@Z @ 2043 NONAME
 ?DoBeginPrinting@CDocObjectServer@@IEAAXPEAVCView@@PEAVCDC@@PEAUCPrintInfo@@@Z @ 2044 NONAME
 ?DoBulkFieldExchange@CRecordset@@UEAAXPEAVCFieldExchange@@@Z @ 2045 NONAME
 ?DoCallBack@CAsyncSocket@@SAX_K_J@Z @ 2046 NONAME
 ?DoChangeIcon@COleChangeIconDialog@@QEAAHPEAVCOleClientItem@@@Z @ 2047 NONAME
 ?DockControlBar@CDockBar@@QEAAXPEAVCControlBar@@PEBUtagRECT@@@Z @ 2048 NONAME
 ?DockControlBar@CFrameWnd@@QEAAXPEAVCControlBar@@IPEBUtagRECT@@@Z @ 2049 NONAME
 ?DockControlBar@CFrameWnd@@QEAAXPEAVCControlBar@@PEAVCDockBar@@PEBUtagRECT@@@Z @ 2050 NONAME
 ?DoClick@COleControl@@QEAAXXZ @ 2051 NONAME
 ?DoContextSensitiveHelp@COleFrameHook@@QEAAHH@Z @ 2052 NONAME
 ?DoConvert@COleConvertDialog@@QEAAHPEAVCOleClientItem@@@Z @ 2053 NONAME
 ?DocumentComplete@CHtmlView@@MEAAXPEAUIDispatch@@PEAUtagVARIANT@@@Z @ 2054 NONAME
 ?DoDefaultPrinting@COleDocObjectItem@@SAJPEAVCView@@PEAUCPrintInfo@@@Z @ 2055 NONAME
 ?DoDragDrop@COleClientItem@@QEAAKPEBUtagRECT@@VCPoint@@HK0@Z @ 2056 NONAME
 ?DoDragDrop@COleDataSource@@QEAAKKPEBUtagRECT@@PEAVCOleDropSource@@@Z @ 2057 NONAME
 ?DoDragDrop@COleServerItem@@QEAAKPEBUtagRECT@@VCPoint@@HK0@Z @ 2058 NONAME
 ?DoEnableModeless@COleFrameHook@@QEAAHH@Z @ 2059 NONAME
 ?DoEnableModeless@CWinApp@@SAXH@Z @ 2060 NONAME
 ?DoEndPrinting@CDocObjectServer@@IEAAXPEAVCView@@PEAVCDC@@PEAUCPrintInfo@@@Z @ 2061 NONAME
 ?DoFieldExchange@CRecordset@@UEAAXPEAVCFieldExchange@@@Z @ 2062 NONAME
 ?DoFileSave@CDocument@@UEAAHXZ @ 2063 NONAME
 ?DoKeyboardSplit@CSplitterWnd@@UEAAHXZ @ 2064 NONAME
 ?DoMessageBox@CWinApp@@UEAAHPEB_WII@Z @ 2065 NONAME
 ?DoModal@CColorDialog@@UEAA_JXZ @ 2066 NONAME
 ?DoModal@CDialog@@UEAA_JXZ @ 2067 NONAME
 ?DoModal@CFileDialog@@UEAA_JXZ @ 2068 NONAME
 ?DoModal@CFontDialog@@UEAA_JXZ @ 2069 NONAME
 ?DoModal@COleBusyDialog@@UEAA_JXZ @ 2070 NONAME
 ?DoModal@COleChangeIconDialog@@UEAA_JXZ @ 2071 NONAME
 ?DoModal@COleChangeSourceDialog@@UEAA_JXZ @ 2072 NONAME
 ?DoModal@COleConvertDialog@@UEAA_JXZ @ 2073 NONAME
 ?DoModal@COleInsertDialog@@QEAA_JK@Z @ 2074 NONAME
 ?DoModal@COleInsertDialog@@UEAA_JXZ @ 2075 NONAME
 ?DoModal@COleLinksDialog@@UEAA_JXZ @ 2076 NONAME
 ?DoModal@COlePasteSpecialDialog@@UEAA_JXZ @ 2077 NONAME
 ?DoModal@COlePropertiesDialog@@UEAA_JXZ @ 2078 NONAME
 ?DoModal@COleUpdateDialog@@UEAA_JXZ @ 2079 NONAME
 ?DoModal@CPageSetupDialog@@UEAA_JXZ @ 2080 NONAME
 ?DoModal@CPrintDialog@@UEAA_JXZ @ 2081 NONAME
 ?DoModal@CPrintDialogEx@@UEAA_JXZ @ 2082 NONAME
 ?DoModal@CPropertySheet@@UEAA_JXZ @ 2083 NONAME
 ?DoMouseWheel@CScrollView@@QEAAHIFVCPoint@@@Z @ 2084 NONAME
 ?DoOleVerb@CCmdTarget@@QEAAHJPEAUtagMSG@@PEAUHWND__@@PEBUtagRECT@@@Z @ 2085 NONAME
 ?DoPaint@CControlBar@@UEAAXPEAVCDC@@@Z @ 2086 NONAME
 ?DoPaint@CDockBar@@UEAAXPEAVCDC@@@Z @ 2087 NONAME
 ?DoPaste@CRichEditView@@QEAAXAEAVCOleDataObject@@GPEAX@Z @ 2088 NONAME
 ?DoPrepareDC@CDocObjectServer@@IEAAXPEAVCView@@PEAVCDC@@PEAUCPrintInfo@@@Z @ 2089 NONAME
 ?DoPreparePrinting@CDocObjectServer@@IEAAHPEAVCView@@PEAUCPrintInfo@@@Z @ 2090 NONAME
 ?DoPreparePrinting@CView@@QEAAHPEAUCPrintInfo@@@Z @ 2091 NONAME
 ?DoPrint@CDocObjectServer@@IEAAXPEAVCView@@PEAVCDC@@PEAUCPrintInfo@@@Z @ 2092 NONAME
 ?DoPrintDialog@CWinApp@@QEAA_JPEAVCPrintDialog@@@Z @ 2093 NONAME
 ?DoPrintPreview@CView@@QEAAHIPEAV1@PEAUCRuntimeClass@@PEAUCPrintPreviewState@@@Z @ 2094 NONAME
 ?DoPromptFileName@CDocManager@@UEAAHAEAV?$CStringT@_WV?$StrTraitMFC_DLL@_WV?$ChTraitsCRT@_W@ATL@@@@@ATL@@IKHPEAVCDocTemplate@@@Z @ 2095 NONAME
 ?DoPromptFileName@CWinApp@@QEAAHAEAV?$CStringT@_WV?$StrTraitMFC_DLL@_WV?$ChTraitsCRT@_W@ATL@@@@@ATL@@IKHPEAVCDocTemplate@@@Z @ 2096 NONAME
 ?DoPropExchange@COleControl@@UEAAXPEAVCPropExchange@@@Z @ 2097 NONAME
 ?DoSave@CDocument@@UEAAHPEB_WH@Z @ 2098 NONAME
 ?DoScroll@CSplitterWnd@@UEAAHPEAVCView@@IH@Z @ 2099 NONAME
 ?DoScrollBy@CSplitterWnd@@UEAAHPEAVCView@@VCSize@@H@Z @ 2100 NONAME
 ?DoSuperclassPaint@COleControl@@QEAAXPEAVCDC@@AEBVCRect@@@Z @ 2101 NONAME
 ?DoUpdate@CCmdUI@@QEAAHPEAVCCmdTarget@@H@Z @ 2102 NONAME
 ?DoUpdate@COleCmdUI@@UEAAHPEAVCCmdTarget@@H@Z @ 2103 NONAME
 ?DoVerb@COleClientItem@@UEAAHJPEAVCView@@PEAUtagMSG@@@Z @ 2104 NONAME
 ?DoVerb@COleControlSite@@UEAAJJPEAUtagMSG@@@Z @ 2105 NONAME
 ?DoVerb@XOleObject@CDocObjectServer@@UEAAJJPEAUtagMSG@@PEAUIOleClientSite@@JPEAUHWND__@@PEBUtagRECT@@@Z @ 2106 NONAME
 ?DoVerb@XOleObject@COleControl@@UEAAJJPEAUtagMSG@@PEAUIOleClientSite@@JPEAUHWND__@@PEBUtagRECT@@@Z @ 2107 NONAME
 ?DoVerb@XOleObject@COleServerDoc@@UEAAJJPEAUtagMSG@@PEAUIOleClientSite@@JPEAUHWND__@@PEBUtagRECT@@@Z @ 2108 NONAME
 ?DoVerb@XOleObject@COleServerItem@@UEAAJJPEAUtagMSG@@PEAUIOleClientSite@@JPEAUHWND__@@PEBUtagRECT@@@Z @ 2109 NONAME
 ?DoWaitCursor@CWinApp@@UEAAXH@Z @ 2110 NONAME
 ?DoZoom@CPreviewView@@IEAAXIVCPoint@@@Z @ 2111 NONAME
 ?DPtoHIMETRIC@CDC@@QEBAXPEAUtagSIZE@@@Z @ 2112 NONAME
 ?DPtoLP@CDC@@QEBAXPEAUtagSIZE@@@Z @ 2113 NONAME
 ?DragEnter@XDropTarget@COleDropTarget@@UEAAJPEAUIDataObject@@KU_POINTL@@PEAK@Z @ 2114 NONAME
 ?Dragging@CDragListBox@@UEAAIVCPoint@@@Z @ 2115 NONAME
 ?DragLeave@XDropTarget@COleDropTarget@@UEAAJXZ @ 2116 NONAME
 ?DragOver@XDropTarget@COleDropTarget@@UEAAJKU_POINTL@@PEAK@Z @ 2117 NONAME
 ?Draw@COleClientItem@@QEAAHPEAVCDC@@PEBUtagRECT@@W4tagDVASPECT@@@Z @ 2118 NONAME
 ?Draw@CRectTracker@@QEBAXPEAVCDC@@@Z @ 2119 NONAME
 ?Draw@XViewObject@COleControl@@UEAAJKJPEAXPEAUtagDVTARGETDEVICE@@PEAUHDC__@@2PEBU_RECTL@@3P6AH_K@Z4@Z @ 2120 NONAME
 ?Draw3dRect@CDC@@QEAAXHHHHKK@Z @ 2121 NONAME
 ?Draw3dRect@CDC@@QEAAXPEBUtagRECT@@KK@Z @ 2122 NONAME
 ?DrawAllSplitBars@CSplitterWnd@@MEAAXPEAVCDC@@HH@Z @ 2123 NONAME
 ?DrawBorders@CControlBar@@UEAAXPEAVCDC@@AEAVCRect@@@Z @ 2124 NONAME
 ?DrawContent@COleControl@@IEAAXPEAVCDC@@AEAVCRect@@@Z @ 2125 NONAME
 ?DrawDragRect@CDC@@QEAAXPEBUtagRECT@@UtagSIZE@@01PEAVCBrush@@2@Z @ 2126 NONAME
 ?DrawFocusRect@CDockContext@@QEAAXH@Z @ 2127 NONAME
 ?DrawGripper@CControlBar@@UEAAXPEAVCDC@@AEBVCRect@@@Z @ 2128 NONAME
 ?DrawIndirect@CImageList@@QEAAHPEAU_IMAGELISTDRAWPARAMS@@@Z @ 2129 NONAME
 ?DrawIndirect@CImageList@@QEAAHPEAVCDC@@HUtagPOINT@@UtagSIZE@@1IKKKKKK@Z @ 2130 NONAME
 ?DrawInsert@CDragListBox@@UEAAXH@Z @ 2131 NONAME
 ?DrawItem@CBitmapButton@@MEAAXPEAUtagDRAWITEMSTRUCT@@@Z @ 2132 NONAME
 ?DrawItem@CButton@@UEAAXPEAUtagDRAWITEMSTRUCT@@@Z @ 2133 NONAME
 ?DrawItem@CCheckListBox@@UEAAXPEAUtagDRAWITEMSTRUCT@@@Z @ 2134 NONAME
 ?DrawItem@CChevronOwnerDrawMenu@@UEAAXPEAUtagDRAWITEMSTRUCT@@@Z @ 2135 NONAME
 ?DrawItem@CComboBox@@UEAAXPEAUtagDRAWITEMSTRUCT@@@Z @ 2136 NONAME
 ?DrawItem@CHeaderCtrl@@UEAAXPEAUtagDRAWITEMSTRUCT@@@Z @ 2137 NONAME
 ?DrawItem@CListBox@@UEAAXPEAUtagDRAWITEMSTRUCT@@@Z @ 2138 NONAME
 ?DrawItem@CListCtrl@@UEAAXPEAUtagDRAWITEMSTRUCT@@@Z @ 2139 NONAME
 ?DrawItem@CListView@@UEAAXPEAUtagDRAWITEMSTRUCT@@@Z @ 2140 NONAME
 ?DrawItem@CMenu@@UEAAXPEAUtagDRAWITEMSTRUCT@@@Z @ 2141 NONAME
 ?DrawItem@CStatic@@UEAAXPEAUtagDRAWITEMSTRUCT@@@Z @ 2142 NONAME
 ?DrawItem@CStatusBar@@UEAAXPEAUtagDRAWITEMSTRUCT@@@Z @ 2143 NONAME
 ?DrawItem@CStatusBarCtrl@@UEAAXPEAUtagDRAWITEMSTRUCT@@@Z @ 2144 NONAME
 ?DrawItem@CTabCtrl@@UEAAXPEAUtagDRAWITEMSTRUCT@@@Z @ 2145 NONAME
 ?DrawMetafile@COleControl@@IEAAXPEAVCDC@@AEAVCRect@@@Z @ 2146 NONAME
 ?DrawNCGripper@CControlBar@@UEAAXPEAVCDC@@AEBVCRect@@@Z @ 2147 NONAME
 ?DrawNonThemedGripper@CControlBar@@UEAAHPEAVCDC@@AEBVCRect@@@Z @ 2148 NONAME
 ?DrawSingle@CDragListBox@@QEAAXH@Z @ 2149 NONAME
 ?DrawTextExW@CMetaFileDC@@UEAAHPEA_WHPEAUtagRECT@@IPEAUtagDRAWTEXTPARAMS@@@Z @ 2150 NONAME
 ?DrawTextExW@CPreviewDC@@UEAAHPEA_WHPEAUtagRECT@@IPEAUtagDRAWTEXTPARAMS@@@Z @ 2151 NONAME
 ?DrawTextW@CMetaFileDC@@UEAAHPEB_WHPEAUtagRECT@@I@Z @ 2152 NONAME
 ?DrawTextW@CPreviewDC@@UEAAHPEB_WHPEAUtagRECT@@I@Z @ 2153 NONAME
 ?DrawThemeBackground@CThemeHelper@@SAJPEAXPEAUHDC__@@HHPEBUtagRECT@@2@Z @ 2154 NONAME
 ?DrawThemeBackgroundFail@CThemeHelper@@CAJPEAXPEAUHDC__@@HHPEBUtagRECT@@2@Z @ 2155 NONAME
 ?DrawThemedGripper@CControlBar@@UEAAHPEAVCDC@@AEBVCRect@@H@Z @ 2156 NONAME
 ?DrawThemeParentBackground@CThemeHelper@@SAJPEAUHWND__@@PEAUHDC__@@PEAUtagRECT@@@Z @ 2157 NONAME
 ?DrawThemeParentBackgroundFail@CThemeHelper@@CAJPEAUHWND__@@PEAUHDC__@@PEAUtagRECT@@@Z @ 2158 NONAME
 ?DrawTrackerRect@CRectTracker@@UEAAXPEBUtagRECT@@PEAVCWnd@@PEAVCDC@@1@Z @ 2159 NONAME
 ?Drop@XDropTarget@COleDropTarget@@UEAAJPEAUIDataObject@@KU_POINTL@@PEAK@Z @ 2160 NONAME
 ?Dropped@CDragListBox@@UEAAXHVCPoint@@@Z @ 2161 NONAME
 ?DumpAsHex@CDumpContext@@QEAAAEAV1@_J@Z @ 2162 NONAME
 ?DumpAsHex@CDumpContext@@QEAAAEAV1@_K@Z @ 2163 NONAME
 ?DumpAsHex@CDumpContext@@QEAAAEAV1@E@Z @ 2164 NONAME
 ?DumpAsHex@CDumpContext@@QEAAAEAV1@G@Z @ 2165 NONAME
 ?DumpAsHex@CDumpContext@@QEAAAEAV1@H@Z @ 2166 NONAME
 ?DumpAsHex@CDumpContext@@QEAAAEAV1@I@Z @ 2167 NONAME
 ?DumpAsHex@CDumpContext@@QEAAAEAV1@J@Z @ 2168 NONAME
 ?DumpAsHex@CDumpContext@@QEAAAEAV1@K@Z @ 2169 NONAME
 ?DUnadvise@XDataObject@COleControl@@UEAAJK@Z @ 2170 NONAME
 ?DUnadvise@XDataObject@COleDataSource@@UEAAJK@Z @ 2171 NONAME
 ?DUnadvise@XDataObject@COleServerDoc@@UEAAJK@Z @ 2172 NONAME
 ?DUnadvise@XDataObject@COleServerItem@@UEAAJK@Z @ 2173 NONAME
 ?Duplicate@CFile@@UEBAPEAV1@XZ @ 2174 NONAME
 ?Duplicate@CInternetFile@@UEBAPEAVCFile@@XZ @ 2175 NONAME
 ?Duplicate@CMemFile@@UEBAPEAVCFile@@XZ @ 2176 NONAME
 ?Duplicate@COleStreamFile@@UEBAPEAVCFile@@XZ @ 2177 NONAME
 ?Duplicate@CSocketFile@@UEBAPEAVCFile@@XZ @ 2178 NONAME
 ?Duplicate@CStdioFile@@UEBAPEAVCFile@@XZ @ 2179 NONAME
 ?dwStyleDefault@CEditView@@2KB @ 2180 NONAME DATA
 ?Edit@CRecordset@@UEAAXXZ @ 2181 NONAME
 ?EditProperty@XPropertyPage@COlePropertyPage@@UEAAJJ@Z @ 2182 NONAME
 ?EditStreamCallBack@CRichEditView@@SAK_KPEAEJPEAJ@Z @ 2183 NONAME
 ?Empty@?$CSimpleStringT@_W$00@ATL@@QEAAXXZ @ 2184 NONAME
 ?Empty@?$CSimpleStringT@D$00@ATL@@QEAAXXZ @ 2185 NONAME
 ?Empty@CDBException@@QEAAXXZ @ 2186 NONAME
 ?Empty@COleDataSource@@QEAAXXZ @ 2187 NONAME
 ?Enable@CCheckListBox@@QEAAXHH@Z @ 2188 NONAME
 ?Enable@CCmdUI@@UEAAXH@Z @ 2189 NONAME
 ?Enable@COleCmdUI@@UEAAXH@Z @ 2190 NONAME
 ?Enable@CStatusCmdUI@@UEAAXH@Z @ 2191 NONAME
 ?Enable@CTestCmdUI@@UEAAXH@Z @ 2192 NONAME
 ?Enable@CToolCmdUI@@UEAAXH@Z @ 2193 NONAME
 ?EnableAggregation@CCmdTarget@@QEAAXXZ @ 2194 NONAME
 ?EnableAutomation@CCmdTarget@@QEAAXXZ @ 2195 NONAME
 ?EnableBookmarks@CRecordset@@IEAAXXZ @ 2196 NONAME
 ?EnableConnections@CCmdTarget@@QEAAXXZ @ 2197 NONAME
 ?EnableDocking@CControlBar@@QEAAXK@Z @ 2198 NONAME
 ?EnableDocking@CFrameWnd@@QEAAXK@Z @ 2199 NONAME
 ?EnableDSC@COleControlSite@@UEAAXXZ @ 2200 NONAME
 ?EnableModeless@CBrowserControlSite@@MEAAJH@Z @ 2201 NONAME
 ?EnableModeless@CDHtmlDialog@@UEAAJH@Z @ 2202 NONAME
 ?EnableModeless@CWinApp@@QEAAXH@Z @ 2203 NONAME
 ?EnableModeless@XDocHostUIHandler@CHtmlControlSite@@UEAAJH@Z @ 2204 NONAME
 ?EnableModeless@XOleInPlaceActiveObject@COleControl@@UEAAJH@Z @ 2205 NONAME
 ?EnableModeless@XOleInPlaceActiveObject@COleServerDoc@@UEAAJH@Z @ 2206 NONAME
 ?EnableModeless@XOleInPlaceFrame@COleFrameHook@@UEAAJH@Z @ 2207 NONAME
 ?EnableModeless@XOleIPFrame@COleControlContainer@@UEAAJH@Z @ 2208 NONAME
 ?EnableScrollBarCtrl@CWnd@@QEAAXHH@Z @ 2209 NONAME
 ?EnableShellOpen@CWinApp@@IEAAXXZ @ 2210 NONAME
 ?EnableSimpleFrame@COleControl@@QEAAXXZ @ 2211 NONAME
 ?EnableStackedTabs@CPropertySheet@@QEAAXH@Z @ 2212 NONAME
 ?EnableStatusCallback@CInternetSession@@QEAAHH@Z @ 2213 NONAME
 ?EnableToolTips@CWnd@@QEAAHH@Z @ 2214 NONAME
 ?EnableTrackingToolTips@CWnd@@QEAAHH@Z @ 2215 NONAME
 ?EnableTypeLib@CCmdTarget@@QEAAXXZ @ 2216 NONAME
 ?EnableWindow@COleControlSite@@UEAAHH@Z @ 2217 NONAME
 ?EnableWindow@CWnd@@QEAAHH@Z @ 2218 NONAME
 ?EndBusyState@COleMessageFilter@@UEAAXXZ @ 2219 NONAME
 ?EndCallbacks@CAsyncMonikerFile@@IEAAXXZ @ 2220 NONAME
 ?EndDeferErrors@COleLinkingDoc@@QEAAJJ@Z @ 2221 NONAME
 ?EndDialog@CDialog@@QEAAXH@Z @ 2222 NONAME
 ?EndDialog@CPropertyPage@@QEAAXH@Z @ 2223 NONAME
 ?EndDialog@CPropertySheet@@QEAAXH@Z @ 2224 NONAME
 ?EndDrag@CDockContext@@QEAAXXZ @ 2225 NONAME
 ?EndModalLoop@CWnd@@UEAAXH@Z @ 2226 NONAME
 ?EndModalState@CFrameWnd@@UEAAXXZ @ 2227 NONAME
 ?EndRequest@CHttpFile@@QEAAHKPEAU_INTERNET_BUFFERSW@@_K@Z @ 2228 NONAME
 ?EndResize@CDockContext@@QEAAXXZ @ 2229 NONAME
 ?EndWaitCursor@CCmdTarget@@QEAAXXZ @ 2230 NONAME
 ?EnsureClipboardObject@COleDataObject@@QEAAXXZ @ 2231 NONAME
 ?EnsureSchemaMapExists@CArchive@@QEAAXPEAPEAV?$CArray@W4LoadArrayObjType@CArchive@@AEBW412@@@@Z @ 2232 NONAME
 ?EnsureStdObj@CWnd@@UEAAJXZ @ 2233 NONAME
 ?EnumAdvise@XOleObject@CDocObjectServer@@UEAAJPEAPEAUIEnumSTATDATA@@@Z @ 2234 NONAME
 ?EnumAdvise@XOleObject@COleControl@@UEAAJPEAPEAUIEnumSTATDATA@@@Z @ 2235 NONAME
 ?EnumAdvise@XOleObject@COleServerDoc@@UEAAJPEAPEAUIEnumSTATDATA@@@Z @ 2236 NONAME
 ?EnumAdvise@XOleObject@COleServerItem@@UEAAJPEAPEAUIEnumSTATDATA@@@Z @ 2237 NONAME
 ?EnumCache@XOleCache@COleControl@@UEAAJPEAPEAUIEnumSTATDATA@@@Z @ 2238 NONAME
 ?EnumChildProc@COlePropertyPage@@KAHPEAUHWND__@@_J@Z @ 2239 NONAME
 ?EnumConnectionPoints@COleConnPtContainer@@UEAAJPEAPEAUIEnumConnectionPoints@@@Z @ 2240 NONAME
 ?EnumConnections@XConnPt@CConnectionPoint@@UEAAJPEAPEAUIEnumConnections@@@Z @ 2241 NONAME
 ?EnumControls@COlePropertyPage@@KAHPEAUHWND__@@_J@Z @ 2242 NONAME
 ?EnumDAdvise@XDataObject@COleControl@@UEAAJPEAPEAUIEnumSTATDATA@@@Z @ 2243 NONAME
 ?EnumDAdvise@XDataObject@COleDataSource@@UEAAJPEAPEAUIEnumSTATDATA@@@Z @ 2244 NONAME
 ?EnumDAdvise@XDataObject@COleServerDoc@@UEAAJPEAPEAUIEnumSTATDATA@@@Z @ 2245 NONAME
 ?EnumDAdvise@XDataObject@COleServerItem@@UEAAJPEAPEAUIEnumSTATDATA@@@Z @ 2246 NONAME
 ?EnumFormatEtc@XDataObject@COleControl@@UEAAJKPEAPEAUIEnumFORMATETC@@@Z @ 2247 NONAME
 ?EnumFormatEtc@XDataObject@COleDataSource@@UEAAJKPEAPEAUIEnumFORMATETC@@@Z @ 2248 NONAME
 ?EnumFormatEtc@XDataObject@COleServerDoc@@UEAAJKPEAPEAUIEnumFORMATETC@@@Z @ 2249 NONAME
 ?EnumFormatEtc@XDataObject@COleServerItem@@UEAAJKPEAPEAUIEnumFORMATETC@@@Z @ 2250 NONAME
 ?EnumObjects@XOleContainer@COleControlContainer@@UEAAJKPEAPEAUIEnumUnknown@@@Z @ 2251 NONAME
 ?EnumObjects@XOleItemContainer@COleLinkingDoc@@UEAAJKPEAPEAUIEnumUnknown@@@Z @ 2252 NONAME
 ?EnumOleVerbs@CCmdTarget@@QEAAHPEAPEAUIEnumOLEVERB@@@Z @ 2253 NONAME
 ?EnumVerbs@XOleObject@CDocObjectServer@@UEAAJPEAPEAUIEnumOLEVERB@@@Z @ 2254 NONAME
 ?EnumVerbs@XOleObject@COleControl@@UEAAJPEAPEAUIEnumOLEVERB@@@Z @ 2255 NONAME
 ?EnumVerbs@XOleObject@COleServerDoc@@UEAAJPEAPEAUIEnumOLEVERB@@@Z @ 2256 NONAME
 ?EnumVerbs@XOleObject@COleServerItem@@UEAAJPEAPEAUIEnumOLEVERB@@@Z @ 2257 NONAME
 ?EnumViews@XOleDocument@CDocObjectServer@@UEAAJPEAPEAUIEnumOleDocumentViews@@PEAPEAUIOleDocumentView@@@Z @ 2258 NONAME
 ?EraseNonClient@CControlBar@@QEAAXXZ @ 2259 NONAME
 ?ErrnoToException@CFileException@@SAHH@Z @ 2260 NONAME
 ?ErrorDlg@CHttpFile@@QEAAKPEAVCWnd@@KKPEAPEAX@Z @ 2261 NONAME
 ?Escape@CMetaFileDC@@UEAAHHHPEBDPEAX@Z @ 2262 NONAME
 ?Escape@CPreviewDC@@UEAAHHHPEBDPEAX@Z @ 2263 NONAME
 ?ExchangeBlobProp@CArchivePropExchange@@UEAAHPEB_WPEAPEAXPEAX@Z @ 2264 NONAME
 ?ExchangeBlobProp@CAsyncPropExchange@@UEAAHPEB_WPEAPEAXPEAX@Z @ 2265 NONAME
 ?ExchangeBlobProp@CPropbagPropExchange@@UEAAHPEB_WPEAPEAXPEAX@Z @ 2266 NONAME
 ?ExchangeBlobProp@CPropsetPropExchange@@UEAAHPEB_WPEAPEAXPEAX@Z @ 2267 NONAME
 ?ExchangeBlobProp@CResetPropExchange@@UEAAHPEB_WPEAPEAXPEAX@Z @ 2268 NONAME
 ?ExchangeExtent@COleControl@@QEAAHPEAVCPropExchange@@@Z @ 2269 NONAME
 ?ExchangeFontProp@CArchivePropExchange@@UEAAHPEB_WAEAVCFontHolder@@PEBUtagFONTDESC@@PEAUIFontDisp@@@Z @ 2270 NONAME
 ?ExchangeFontProp@CAsyncPropExchange@@UEAAHPEB_WAEAVCFontHolder@@PEBUtagFONTDESC@@PEAUIFontDisp@@@Z @ 2271 NONAME
 ?ExchangeFontProp@CPropbagPropExchange@@UEAAHPEB_WAEAVCFontHolder@@PEBUtagFONTDESC@@PEAUIFontDisp@@@Z @ 2272 NONAME
 ?ExchangeFontProp@CPropsetPropExchange@@UEAAHPEB_WAEAVCFontHolder@@PEBUtagFONTDESC@@PEAUIFontDisp@@@Z @ 2273 NONAME
 ?ExchangeFontProp@CResetPropExchange@@UEAAHPEB_WAEAVCFontHolder@@PEBUtagFONTDESC@@PEAUIFontDisp@@@Z @ 2274 NONAME
 ?ExchangePersistentProp@CArchivePropExchange@@UEAAHPEB_WPEAPEAUIUnknown@@AEBU_GUID@@PEAU2@@Z @ 2275 NONAME
 ?ExchangePersistentProp@CAsyncPropExchange@@UEAAHPEB_WPEAPEAUIUnknown@@AEBU_GUID@@PEAU2@@Z @ 2276 NONAME
 ?ExchangePersistentProp@CPropbagPropExchange@@UEAAHPEB_WPEAPEAUIUnknown@@AEBU_GUID@@PEAU2@@Z @ 2277 NONAME
 ?ExchangePersistentProp@CPropsetPropExchange@@UEAAHPEB_WPEAPEAUIUnknown@@AEBU_GUID@@PEAU2@@Z @ 2278 NONAME
 ?ExchangePersistentProp@CResetPropExchange@@UEAAHPEB_WPEAPEAUIUnknown@@AEBU_GUID@@PEAU2@@Z @ 2279 NONAME
 ?ExchangeProp@CArchivePropExchange@@UEAAHPEB_WGPEAXPEBX@Z @ 2280 NONAME
 ?ExchangeProp@CAsyncPropExchange@@UEAAHPEB_WGPEAXPEBX@Z @ 2281 NONAME
 ?ExchangeProp@CPropbagPropExchange@@UEAAHPEB_WGPEAXPEBX@Z @ 2282 NONAME
 ?ExchangeProp@CPropsetPropExchange@@UEAAHPEB_WGPEAXPEBX@Z @ 2283 NONAME
 ?ExchangeProp@CResetPropExchange@@UEAAHPEB_WGPEAXPEBX@Z @ 2284 NONAME
 ?ExchangeStockProps@COleControl@@QEAAXPEAVCPropExchange@@@Z @ 2285 NONAME
 ?ExchangeVersion@CAsyncPropExchange@@UEAAHAEAKKH@Z @ 2286 NONAME
 ?ExchangeVersion@CPropExchange@@UEAAHAEAKKH@Z @ 2287 NONAME
 ?ExcludeClipRect@CDC@@QEAAHHHHH@Z @ 2288 NONAME
 ?ExcludeClipRect@CDC@@QEAAHPEBUtagRECT@@@Z @ 2289 NONAME
 ?Exec@XOleCommandTarget@CDocObjectServer@@UEAAJPEBU_GUID@@KKPEAUtagVARIANT@@1@Z @ 2290 NONAME
 ?Exec@XOleCommandTarget@COleFrameHook@@UEAAJPEBU_GUID@@KKPEAUtagVARIANT@@1@Z @ 2291 NONAME
 ?ExecCommand@COleDocObjectItem@@QEAAJKKPEBU_GUID@@@Z @ 2292 NONAME
 ?ExecFormsCommand@CHtmlView@@QEAAJKPEAUtagVARIANT@@0@Z @ 2293 NONAME
 ?ExecHandler@CHtmlEditView@@UEAAHI@Z @ 2294 NONAME
 ?ExecuteDlgInit@CWnd@@QEAAHPEAX@Z @ 2295 NONAME
 ?ExecuteDlgInit@CWnd@@QEAAHPEB_W@Z @ 2296 NONAME
 ?ExecuteSetPosUpdate@CRecordset@@IEAAXXZ @ 2297 NONAME
 ?ExecuteSQL@CDatabase@@QEAAXPEB_W@Z @ 2298 NONAME
 ?ExecuteUpdateSQL@CRecordset@@IEAAXXZ @ 2299 NONAME
 ?ExecWB@CHtmlView@@QEAAXW4OLECMDID@@W4OLECMDEXECOPT@@PEAUtagVARIANT@@2@Z @ 2300 NONAME
 ?ExitHelpMode@CFrameWnd@@UEAAXXZ @ 2301 NONAME
 ?ExitInstance@COleControlModule@@UEAAHXZ @ 2302 NONAME
 ?ExitInstance@CWinApp@@UEAAHXZ @ 2303 NONAME
 ?ExitInstance@CWinThread@@UEAAHXZ @ 2304 NONAME
 ?ExternalAddRef@CCmdTarget@@QEAAKXZ @ 2305 NONAME
 ?ExternalDisconnect@CCmdTarget@@QEAAXXZ @ 2306 NONAME
 ?ExternalQueryInterface@CCmdTarget@@QEAAKPEBXPEAPEAX@Z @ 2307 NONAME
 ?ExternalRelease@CCmdTarget@@QEAAKXZ @ 2308 NONAME
 ?ExtTextOutW@CMetaFileDC@@UEAAHHHIPEBUtagRECT@@PEB_WIPEAH@Z @ 2309 NONAME
 ?ExtTextOutW@CPreviewDC@@UEAAHHHIPEBUtagRECT@@PEB_WIPEAH@Z @ 2310 NONAME
 ?Fail@CDataExchange@@QEAAXXZ @ 2311 NONAME
 ?FailedToDo@XNotifyDBEvents@COleControlSite@@UEAAJKKQEAUtagDBNOTIFYREASON@@@Z @ 2312 NONAME
 ?FetchData@CRecordset@@QEAAFGJPEA_K@Z @ 2313 NONAME
 ?FillBuffer@CArchive@@QEAAXI@Z @ 2314 NONAME
 ?FillInLogFont@CFontDialog@@QEAAKAEBU_charformatw@@@Z @ 2315 NONAME
 ?FillInToolInfo@CToolTipCtrl@@QEBAXAEAUtagTOOLINFOW@@PEAVCWnd@@_K@Z @ 2316 NONAME
 ?FillListSitesOrWnds@COleControlContainer@@UEAAHPEAU_AFX_OCC_DIALOG_INFO@@@Z @ 2317 NONAME
 ?FillOutsideRect@CScrollView@@QEAAXPEAVCDC@@PEAVCBrush@@@Z @ 2318 NONAME
 ?FillSolidRect@CDC@@QEAAXHHHHK@Z @ 2319 NONAME
 ?FillSolidRect@CDC@@QEAAXPEBUtagRECT@@K@Z @ 2320 NONAME
 ?FilterDataObject@CBrowserControlSite@@MEAAJPEAUIDataObject@@PEAPEAU2@@Z @ 2321 NONAME
 ?FilterDataObject@CDHtmlDialog@@UEAAJPEAUIDataObject@@PEAPEAU2@@Z @ 2322 NONAME
 ?FilterDataObject@XDocHostUIHandler@CHtmlControlSite@@UEAAJPEAUIDataObject@@PEAPEAU3@@Z @ 2323 NONAME
 ?FilterToolTipMessage@CWnd@@QEAAXPEAUtagMSG@@@Z @ 2324 NONAME
 ?Find@?$CStringT@_WV?$StrTraitMFC_DLL@_WV?$ChTraitsCRT@_W@ATL@@@@@ATL@@QEBAH_WH@Z @ 2325 NONAME
 ?Find@?$CStringT@_WV?$StrTraitMFC_DLL@_WV?$ChTraitsCRT@_W@ATL@@@@@ATL@@QEBAHPEB_WH@Z @ 2326 NONAME
 ?Find@?$CStringT@DV?$StrTraitMFC_DLL@DV?$ChTraitsCRT@D@ATL@@@@@ATL@@QEBAHDH@Z @ 2327 NONAME
 ?Find@?$CStringT@DV?$StrTraitMFC_DLL@DV?$ChTraitsCRT@D@ATL@@@@@ATL@@QEBAHPEBDH@Z @ 2328 NONAME
 ?Find@CObList@@QEBAPEAU__POSITION@@PEAVCObject@@PEAU2@@Z @ 2329 NONAME
 ?Find@CPtrList@@QEBAPEAU__POSITION@@PEAXPEAU2@@Z @ 2330 NONAME
 ?Find@CStringList@@QEBAPEAU__POSITION@@PEB_WPEAU2@@Z @ 2331 NONAME
 ?FindAndSelect@CRichEditView@@QEAAJKAEAU_findtextexw@@@Z @ 2332 NONAME
 ?FindBar@CDockBar@@QEAAHPEAVCControlBar@@H@Z @ 2333 NONAME
 ?FindConnectionPoint@COleConnPtContainer@@UEAAJAEBU_GUID@@PEAPEAUIConnectionPoint@@@Z @ 2334 NONAME
 ?FindDHtmlEventEntry@CDHtmlEventSink@@QEAAHPEBUDHtmlEventMapEntry@@JPEAPEAUIHTMLElement@@@Z @ 2335 NONAME
 ?FindFile@CFileFind@@UEAAHPEB_WK@Z @ 2336 NONAME
 ?FindFile@CFtpFileFind@@UEAAHPEB_WK@Z @ 2337 NONAME
 ?FindFile@CGopherFileFind@@UEAAHAEAVCGopherLocator@@PEB_WK@Z @ 2338 NONAME
 ?FindFile@CGopherFileFind@@UEAAHPEB_WK@Z @ 2339 NONAME
 ?FindIndex@CObList@@QEBAPEAU__POSITION@@_J@Z @ 2340 NONAME
 ?FindIndex@CPtrList@@QEBAPEAU__POSITION@@_J@Z @ 2341 NONAME
 ?FindIndex@CStringList@@QEBAPEAU__POSITION@@_J@Z @ 2342 NONAME
 ?FindItem@COleControlContainer@@UEBAPEAVCOleControlSite@@I@Z @ 2343 NONAME
 ?FindNextFileW@CFileFind@@UEAAHXZ @ 2344 NONAME
 ?FindNextFileW@CFtpFileFind@@UEAAHXZ @ 2345 NONAME
 ?FindNextFileW@CGopherFileFind@@UEAAHXZ @ 2346 NONAME
 ?FindOneOf@?$CStringT@_WV?$StrTraitMFC_DLL@_WV?$ChTraitsCRT@_W@ATL@@@@@ATL@@QEBAHPEB_W@Z @ 2347 NONAME
 ?FindOneOf@?$CStringT@DV?$StrTraitMFC_DLL@DV?$ChTraitsCRT@D@ATL@@@@@ATL@@QEBAHPEBD@Z @ 2348 NONAME
 ?FindPageRect@CPreviewView@@IEAAHAEAVCPoint@@AEAI@Z @ 2349 NONAME
 ?FindSinkForObject@CDHtmlDialog@@IEAAHPEB_W@Z @ 2350 NONAME
 ?FindSiteOrWnd@CWnd@@QEBAPEAU__POSITION@@PEBUCOleControlSiteOrWnd@@@Z @ 2351 NONAME
 ?FindSiteOrWndWithFocus@CWnd@@QEBAPEAU__POSITION@@XZ @ 2352 NONAME
 ?FindSQLToken@CRecordset@@SAPEB_WPEB_W0@Z @ 2353 NONAME
 ?FindTextSimple@CRichEditView@@QEAAHPEB_WHHH@Z @ 2354 NONAME
 ?FindTextW@CEditView@@QEAAHPEB_WHH@Z @ 2355 NONAME
 ?FindTextW@CRichEditView@@QEAAHPEB_WHHH@Z @ 2356 NONAME
 ?FinishCreate@COleClientItem@@MEAAHJ@Z @ 2357 NONAME
 ?FireError@COleControl@@QEAAXJPEB_WI@Z @ 2358 NONAME
 ?FireEvent@COleControl@@QEAAXJPEAEZZ @ 2359 NONAME
 ?FireEvent@XNotifyDBEvents@COleControlSite@@QEAAJKKQEAUtagDBNOTIFYREASON@@W4DSCSTATE@@@Z @ 2360 NONAME
 ?FireEventV@COleControl@@IEAAXJPEAEPEAD@Z @ 2361 NONAME
 ?Fixups@CRecordset@@QEAAXXZ @ 2362 NONAME
 ?FloatControlBar@CFrameWnd@@QEAAXPEAVCControlBar@@VCPoint@@K@Z @ 2363 NONAME
 ?Flush@CArchive@@QEAAXXZ @ 2364 NONAME
 ?Flush@CDumpContext@@QEAAXXZ @ 2365 NONAME
 ?Flush@CFile@@UEAAXXZ @ 2366 NONAME
 ?Flush@CInternetFile@@UEAAXXZ @ 2367 NONAME
 ?Flush@CMemFile@@UEAAXXZ @ 2368 NONAME
 ?Flush@CMonikerFile@@UEAAXXZ @ 2369 NONAME
 ?Flush@COleStreamFile@@UEAAXXZ @ 2370 NONAME
 ?Flush@CSocketFile@@UEAAXXZ @ 2371 NONAME
 ?Flush@CStdioFile@@UEAAXXZ @ 2372 NONAME
 ?FlushClipboard@COleDataSource@@SAXXZ @ 2373 NONAME
 ?FlushResultSet@CRecordset@@QEAAHXZ @ 2374 NONAME
 ?Fork@?$CSimpleStringT@_W$00@ATL@@AEAAXH@Z @ 2375 NONAME
 ?Fork@?$CSimpleStringT@D$00@ATL@@AEAAXH@Z @ 2376 NONAME
 ?Format@?$CStringT@_WV?$StrTraitMFC_DLL@_WV?$ChTraitsCRT@_W@ATL@@@@@ATL@@QEAAXIZZ @ 2377 NONAME
 ?Format@?$CStringT@_WV?$StrTraitMFC_DLL@_WV?$ChTraitsCRT@_W@ATL@@@@@ATL@@QEAAXPEB_WZZ @ 2378 NONAME
 ?Format@?$CStringT@DV?$StrTraitMFC_DLL@DV?$ChTraitsCRT@D@ATL@@@@@ATL@@QEAAXIZZ @ 2379 NONAME
 ?Format@?$CStringT@DV?$StrTraitMFC_DLL@DV?$ChTraitsCRT@D@ATL@@@@@ATL@@QEAAXPEBDZZ @ 2380 NONAME
 ?Format@COleCurrency@@QEBA?AV?$CStringT@_WV?$StrTraitMFC_DLL@_WV?$ChTraitsCRT@_W@ATL@@@@@ATL@@KK@Z @ 2381 NONAME
 ?FormatMessage@?$CStringT@_WV?$StrTraitMFC_DLL@_WV?$ChTraitsCRT@_W@ATL@@@@@ATL@@QEAAXIZZ @ 2382 NONAME
 ?FormatMessage@?$CStringT@_WV?$StrTraitMFC_DLL@_WV?$ChTraitsCRT@_W@ATL@@@@@ATL@@QEAAXPEB_WZZ @ 2383 NONAME
 ?FormatMessage@?$CStringT@DV?$StrTraitMFC_DLL@DV?$ChTraitsCRT@D@ATL@@@@@ATL@@QEAAXIZZ @ 2384 NONAME
 ?FormatMessage@?$CStringT@DV?$StrTraitMFC_DLL@DV?$ChTraitsCRT@D@ATL@@@@@ATL@@QEAAXPEBDZZ @ 2385 NONAME
 ?FormatMessageV@?$CStringT@_WV?$StrTraitMFC_DLL@_WV?$ChTraitsCRT@_W@ATL@@@@@ATL@@QEAAXPEB_WPEAPEAD@Z @ 2386 NONAME
 ?FormatMessageV@?$CStringT@DV?$StrTraitMFC_DLL@DV?$ChTraitsCRT@D@ATL@@@@@ATL@@QEAAXPEBDPEAPEAD@Z @ 2387 NONAME
 ?FormatMessageW@?$CStringT@_WV?$StrTraitMFC_DLL@_WV?$ChTraitsCRT@_W@ATL@@@@@ATL@@QEAAXIZZ @ 2388 NONAME
 ?FormatMessageW@?$CStringT@_WV?$StrTraitMFC_DLL@_WV?$ChTraitsCRT@_W@ATL@@@@@ATL@@QEAAXPEB_WZZ @ 2389 NONAME
 ?FormatMessageW@?$CStringT@DV?$StrTraitMFC_DLL@DV?$ChTraitsCRT@D@ATL@@@@@ATL@@QEAAXIZZ @ 2390 NONAME
 ?FormatMessageW@?$CStringT@DV?$StrTraitMFC_DLL@DV?$ChTraitsCRT@D@ATL@@@@@ATL@@QEAAXPEBDZZ @ 2391 NONAME
 ?FormatV@?$CStringT@_WV?$StrTraitMFC_DLL@_WV?$ChTraitsCRT@_W@ATL@@@@@ATL@@QEAAXPEB_WPEAD@Z @ 2392 NONAME
 ?FormatV@?$CStringT@DV?$StrTraitMFC_DLL@DV?$ChTraitsCRT@D@ATL@@@@@ATL@@QEAAXPEBDPEAD@Z @ 2393 NONAME
 ?ForwardActivationMsg@COleControl@@IEAAXPEAUtagMSG@@@Z @ 2394 NONAME
 ?Free@CAfxStringMgr@@UEAAXPEAUCStringData@ATL@@@Z @ 2395 NONAME
 ?Free@CDatabase@@IEAAXXZ @ 2396 NONAME
 ?Free@CFixedAlloc@@QEAAXPEAX@Z @ 2397 NONAME
 ?Free@CFixedAllocNoSync@@QEAAXPEAX@Z @ 2398 NONAME
 ?Free@CMemFile@@MEAAXPEAE@Z @ 2399 NONAME
 ?Free@CSharedFile@@MEAAXPEAE@Z @ 2400 NONAME
 ?FreeAll@CFixedAlloc@@QEAAXXZ @ 2401 NONAME
 ?FreeAll@CFixedAllocNoSync@@QEAAXXZ @ 2402 NONAME
 ?FreeAssoc@CMapPtrToPtr@@IEAAXPEAUCAssoc@1@@Z @ 2403 NONAME
 ?FreeAssoc@CMapPtrToWord@@IEAAXPEAUCAssoc@1@@Z @ 2404 NONAME
 ?FreeAssoc@CMapStringToOb@@IEAAXPEAUCAssoc@1@@Z @ 2405 NONAME
 ?FreeAssoc@CMapStringToPtr@@IEAAXPEAUCAssoc@1@@Z @ 2406 NONAME
 ?FreeAssoc@CMapStringToString@@IEAAXPEAVCAssoc@1@@Z @ 2407 NONAME
 ?FreeAssoc@CMapWordToOb@@IEAAXPEAUCAssoc@1@@Z @ 2408 NONAME
 ?FreeAssoc@CMapWordToPtr@@IEAAXPEAUCAssoc@1@@Z @ 2409 NONAME
 ?FreeDataCache@CRecordset@@QEAAXXZ @ 2410 NONAME
 ?FreeDataChain@CPlex@@QEAAXXZ @ 2411 NONAME
 ?FreeExtra@?$CSimpleStringT@_W$00@ATL@@QEAAXXZ @ 2412 NONAME
 ?FreeExtra@?$CSimpleStringT@D$00@ATL@@QEAAXXZ @ 2413 NONAME
 ?FreeExtra@CByteArray@@QEAAXXZ @ 2414 NONAME
 ?FreeExtra@CDWordArray@@QEAAXXZ @ 2415 NONAME
 ?FreeExtra@CObArray@@QEAAXXZ @ 2416 NONAME
 ?FreeExtra@CPtrArray@@QEAAXXZ @ 2417 NONAME
 ?FreeExtra@CStringArray@@QEAAXXZ @ 2418 NONAME
 ?FreeExtra@CUIntArray@@QEAAXXZ @ 2419 NONAME
 ?FreeExtra@CWordArray@@QEAAXXZ @ 2420 NONAME
 ?FreeNode@CObList@@IEAAXPEAUCNode@1@@Z @ 2421 NONAME
 ?FreeNode@CPtrList@@IEAAXPEAUCNode@1@@Z @ 2422 NONAME
 ?FreeNode@CStringList@@IEAAXPEAUCNode@1@@Z @ 2423 NONAME
 ?FreeRowset@CRecordset@@IEAAXXZ @ 2424 NONAME
 ?FreeSlot@CThreadSlotData@@QEAAXH@Z @ 2425 NONAME
 ?FreeValue@CProperty@@AEAAXXZ @ 2426 NONAME
 ?Freeze@XViewObject@COleControl@@UEAAJKJPEAXPEAK@Z @ 2427 NONAME
 ?FreezeAllEvents@COleControlContainer@@QEAAXH@Z @ 2428 NONAME
 ?FreezeEvents@COleControlSite@@QEAAXH@Z @ 2429 NONAME
 ?FreezeEvents@XOleControl@COleControl@@UEAAJH@Z @ 2430 NONAME
 ?FreezeLink@COleClientItem@@UEAAHXZ @ 2431 NONAME
 ?FromHandle@CDC@@SAPEAV1@PEAUHDC__@@@Z @ 2432 NONAME
 ?FromHandle@CGdiObject@@SAPEAV1@PEAX@Z @ 2433 NONAME
 ?FromHandle@CHandleMap@@QEAAPEAVCObject@@PEAX@Z @ 2434 NONAME
 ?FromHandle@CImageList@@SAPEAV1@PEAU_IMAGELIST@@@Z @ 2435 NONAME
 ?FromHandle@CMenu@@SAPEAV1@PEAUHMENU__@@@Z @ 2436 NONAME
 ?FromHandle@CWnd@@SAPEAV1@PEAUHWND__@@@Z @ 2437 NONAME
 ?FromHandlePermanent@CImageList@@SAPEAV1@PEAU_IMAGELIST@@@Z @ 2438 NONAME
 ?FromHandlePermanent@CMenu@@SAPEAV1@PEAUHMENU__@@@Z @ 2439 NONAME
 ?FromHandlePermanent@CWnd@@SAPEAV1@PEAUHWND__@@@Z @ 2440 NONAME
 ?FromIDispatch@CCmdTarget@@SAPEAV1@PEAUIDispatch@@@Z @ 2441 NONAME
 ?FromName@CRuntimeClass@@SAPEAU1@PEB_W@Z @ 2442 NONAME
 ?FromName@CRuntimeClass@@SAPEAU1@PEBD@Z @ 2443 NONAME
 ?Get@CProperty@@QEAAPEAXPEAK@Z @ 2444 NONAME
 ?Get@CProperty@@QEAAPEAXXZ @ 2445 NONAME
 ?Get@CPropertySection@@QEAAPEAXK@Z @ 2446 NONAME
 ?Get@CPropertySection@@QEAAPEAXKPEAK@Z @ 2447 NONAME
 ?Get@CPropertySet@@QEAAPEAXU_GUID@@K@Z @ 2448 NONAME
 ?Get@CPropertySet@@QEAAPEAXU_GUID@@KPEAK@Z @ 2449 NONAME
 ?get_accChild@CWnd@@UEAAJUtagVARIANT@@PEAPEAUIDispatch@@@Z @ 2450 NONAME
 ?get_accChild@XAccessible@CWnd@@UEAAJUtagVARIANT@@PEAPEAUIDispatch@@@Z @ 2451 NONAME
 ?get_accChildCount@CWnd@@UEAAJPEAJ@Z @ 2452 NONAME
 ?get_accChildCount@XAccessible@CWnd@@UEAAJPEAJ@Z @ 2453 NONAME
 ?get_accDefaultAction@CCheckListBox@@MEAAJUtagVARIANT@@PEAPEA_W@Z @ 2454 NONAME
 ?get_accDefaultAction@CWnd@@UEAAJUtagVARIANT@@PEAPEA_W@Z @ 2455 NONAME
 ?get_accDefaultAction@XAccessible@CWnd@@UEAAJUtagVARIANT@@PEAPEA_W@Z @ 2456 NONAME
 ?get_accDescription@CWnd@@UEAAJUtagVARIANT@@PEAPEA_W@Z @ 2457 NONAME
 ?get_accDescription@XAccessible@CWnd@@UEAAJUtagVARIANT@@PEAPEA_W@Z @ 2458 NONAME
 ?get_accFocus@CWnd@@UEAAJPEAUtagVARIANT@@@Z @ 2459 NONAME
 ?get_accFocus@XAccessible@CWnd@@UEAAJPEAUtagVARIANT@@@Z @ 2460 NONAME
 ?get_accHelp@CWnd@@UEAAJUtagVARIANT@@PEAPEA_W@Z @ 2461 NONAME
 ?get_accHelp@XAccessible@CWnd@@UEAAJUtagVARIANT@@PEAPEA_W@Z @ 2462 NONAME
 ?get_accHelpTopic@CWnd@@UEAAJPEAPEA_WUtagVARIANT@@PEAJ@Z @ 2463 NONAME
 ?get_accHelpTopic@XAccessible@CWnd@@UEAAJPEAPEA_WUtagVARIANT@@PEAJ@Z @ 2464 NONAME
 ?get_accKeyboardShortcut@CWnd@@UEAAJUtagVARIANT@@PEAPEA_W@Z @ 2465 NONAME
 ?get_accKeyboardShortcut@XAccessible@CWnd@@UEAAJUtagVARIANT@@PEAPEA_W@Z @ 2466 NONAME
 ?get_accName@CToolBar@@UEAAJUtagVARIANT@@PEAPEA_W@Z @ 2467 NONAME
 ?get_accName@CWnd@@UEAAJUtagVARIANT@@PEAPEA_W@Z @ 2468 NONAME
 ?get_accName@XAccessible@CWnd@@UEAAJUtagVARIANT@@PEAPEA_W@Z @ 2469 NONAME
 ?get_accParent@CWnd@@UEAAJPEAPEAUIDispatch@@@Z @ 2470 NONAME
 ?get_accParent@XAccessible@CWnd@@UEAAJPEAPEAUIDispatch@@@Z @ 2471 NONAME
 ?get_accRole@CCheckListBox@@MEAAJUtagVARIANT@@PEAU2@@Z @ 2472 NONAME
 ?get_accRole@CWnd@@UEAAJUtagVARIANT@@PEAU2@@Z @ 2473 NONAME
 ?get_accRole@XAccessible@CWnd@@UEAAJUtagVARIANT@@PEAU3@@Z @ 2474 NONAME
 ?get_accSelection@CWnd@@UEAAJPEAUtagVARIANT@@@Z @ 2475 NONAME
 ?get_accSelection@XAccessible@CWnd@@UEAAJPEAUtagVARIANT@@@Z @ 2476 NONAME
 ?get_accState@CCheckListBox@@MEAAJUtagVARIANT@@PEAU2@@Z @ 2477 NONAME
 ?get_accState@CWnd@@UEAAJUtagVARIANT@@PEAU2@@Z @ 2478 NONAME
 ?get_accState@XAccessible@CWnd@@UEAAJUtagVARIANT@@PEAU3@@Z @ 2479 NONAME
 ?get_accValue@CWnd@@UEAAJUtagVARIANT@@PEAPEA_W@Z @ 2480 NONAME
 ?get_accValue@XAccessible@CWnd@@UEAAJUtagVARIANT@@PEAPEA_W@Z @ 2481 NONAME
 ?GetAccessibilityHitTest@CWnd@@QEAAJJJPEAUtagVARIANT@@@Z @ 2482 NONAME
 ?GetAccessibilityLocation@CWnd@@QEAAJUtagVARIANT@@PEAJ111@Z @ 2483 NONAME
 ?GetAccessibleChild@CWnd@@QEAAJUtagVARIANT@@PEAPEAUIDispatch@@@Z @ 2484 NONAME
 ?GetAccessibleChildCount@CWnd@@QEAAJXZ @ 2485 NONAME
 ?GetAccessibleName@CWnd@@QEAAJUtagVARIANT@@PEAPEA_W@Z @ 2486 NONAME
 ?GetActivationPolicy@COleControl@@UEAAKXZ @ 2487 NONAME
 ?GetActivationPolicy@XPointerInactive@COleControl@@UEAAJPEAK@Z @ 2488 NONAME
 ?GetActiveDocument@CFrameWnd@@UEAAPEAVCDocument@@XZ @ 2489 NONAME
 ?GetActiveFrame@CFrameWnd@@UEAAPEAV1@XZ @ 2490 NONAME
 ?GetActiveFrame@CMDIFrameWnd@@UEAAPEAVCFrameWnd@@XZ @ 2491 NONAME
 ?GetActiveIndex@CPropertySheet@@QEBAHXZ @ 2492 NONAME
 ?GetActivePage@CPropertySheet@@QEBAPEAVCPropertyPage@@XZ @ 2493 NONAME
 ?GetActivePane@CSplitterWnd@@UEAAPEAVCWnd@@PEAH0@Z @ 2494 NONAME
 ?GetActiveView@CFrameWnd@@QEBAPEAVCView@@XZ @ 2495 NONAME
 ?GetActiveView@COleDocObjectItem@@QEBAPEAUIOleDocumentView@@XZ @ 2496 NONAME
 ?GetAddress@CIPAddressCtrl@@QEBAHAEAE000@Z @ 2497 NONAME
 ?GetAddressBar@CHtmlView@@QEBAHXZ @ 2498 NONAME
 ?GetAdvise@XViewObject@COleControl@@UEAAJPEAK0PEAPEAUIAdviseSink@@@Z @ 2499 NONAME
 ?GetAllocLength@?$CSimpleStringT@_W$00@ATL@@QEBAHXZ @ 2500 NONAME
 ?GetAllocLength@?$CSimpleStringT@D$00@ATL@@QEBAHXZ @ 2501 NONAME
 ?GetAmbientDispatchDriver@COleControl@@IEAAPEAVCOleDispatchDriver@@XZ @ 2502 NONAME
 ?GetAmbientProp@COleControlContainer@@UEAAHPEAVCOleControlSite@@JPEAUtagVARIANT@@@Z @ 2503 NONAME
 ?GetAmbientProperty@COleControl@@QEAAHJGPEAX@Z @ 2504 NONAME
 ?GetAppearance@COleControl@@QEAAFXZ @ 2505 NONAME
 ?GetApplication@CHtmlView@@QEBAPEAUIDispatch@@XZ @ 2506 NONAME
 ?GetAppRegistryKey@CWinApp@@QEAAPEAUHKEY__@@XZ @ 2507 NONAME
 ?GetAssocAt@CMapPtrToPtr@@IEBAPEAUCAssoc@1@PEAXAEAI1@Z @ 2508 NONAME
 ?GetAssocAt@CMapPtrToWord@@IEBAPEAUCAssoc@1@PEAXAEAI1@Z @ 2509 NONAME
 ?GetAssocAt@CMapStringToOb@@IEBAPEAUCAssoc@1@PEB_WAEAI1@Z @ 2510 NONAME
 ?GetAssocAt@CMapStringToPtr@@IEBAPEAUCAssoc@1@PEB_WAEAI1@Z @ 2511 NONAME
 ?GetAssocAt@CMapStringToString@@IEBAPEAVCAssoc@1@PEB_WAEAI1@Z @ 2512 NONAME
 ?GetAssocAt@CMapWordToOb@@IEBAPEAUCAssoc@1@GAEAI0@Z @ 2513 NONAME
 ?GetAssocAt@CMapWordToPtr@@IEBAPEAUCAssoc@1@GAEAI0@Z @ 2514 NONAME
 ?GetAt@?$CSimpleStringT@_W$00@ATL@@QEBA_WH@Z @ 2515 NONAME
 ?GetAt@?$CSimpleStringT@D$00@ATL@@QEBADH@Z @ 2516 NONAME
 ?GetAttribute@CGopherConnection@@QEAAHAEAVCGopherLocator@@V?$CStringT@_WV?$StrTraitMFC_DLL@_WV?$ChTraitsCRT@_W@ATL@@@@@ATL@@AEAV34@@Z @ 2517 NONAME
 ?GetBackColor@COleControl@@QEAAKXZ @ 2518 NONAME
 ?GetBarInfo@CControlBar@@QEAAXPEAVCControlBarInfo@@@Z @ 2519 NONAME
 ?GetBarInfo@CDockBar@@QEAAXPEAVCControlBarInfo@@@Z @ 2520 NONAME
 ?GetBindInfo@CAsyncMonikerFile@@MEBAKXZ @ 2521 NONAME
 ?GetBlob@CBlobProperty@@QEAAPEAXXZ @ 2522 NONAME
 ?GetBookmark@CRecordset@@QEAAXAEAVCDBVariant@@@Z @ 2523 NONAME
 ?GetBorder@XOleInPlaceFrame@COleFrameHook@@UEAAJPEAUtagRECT@@@Z @ 2524 NONAME
 ?GetBorder@XOleIPFrame@COleControlContainer@@UEAAJPEAUtagRECT@@@Z @ 2525 NONAME
 ?GetBorders@CStatusBarCtrl@@QEBAHAEAH00@Z @ 2526 NONAME
 ?GetBorderStyle@COleControl@@QEAAFXZ @ 2527 NONAME
 ?GetBoundClientRow@CDataSourceControl@@QEAAJXZ @ 2528 NONAME
 ?GetBoundFieldIndex@CRecordset@@QEAAHPEAX@Z @ 2529 NONAME
 ?GetBoundParamIndex@CRecordset@@QEAAHPEAX@Z @ 2530 NONAME
 ?GetBuffer@?$CSimpleStringT@_W$00@ATL@@QEAAPEA_WH@Z @ 2531 NONAME
 ?GetBuffer@?$CSimpleStringT@_W$00@ATL@@QEAAPEA_WXZ @ 2532 NONAME
 ?GetBuffer@?$CSimpleStringT@D$00@ATL@@QEAAPEADH@Z @ 2533 NONAME
 ?GetBuffer@?$CSimpleStringT@D$00@ATL@@QEAAPEADXZ @ 2534 NONAME
 ?GetBufferLength@CEditView@@QEBAIXZ @ 2535 NONAME
 ?GetBufferPtr@CFile@@UEAAIIIPEAPEAX0@Z @ 2536 NONAME
 ?GetBufferPtr@CMemFile@@UEAAIIIPEAPEAX0@Z @ 2537 NONAME
 ?GetBufferPtr@CSocketFile@@UEAAIIIPEAPEAX0@Z @ 2538 NONAME
 ?GetBufferSetLength@?$CSimpleStringT@_W$00@ATL@@QEAAPEA_WH@Z @ 2539 NONAME
 ?GetBufferSetLength@?$CSimpleStringT@D$00@ATL@@QEAAPEADH@Z @ 2540 NONAME
 ?GetBusy@CHtmlView@@QEBAHXZ @ 2541 NONAME
 ?GetButtonInfo@CToolBar@@QEBAXHAEAI0AEAH@Z @ 2542 NONAME
 ?GetButtonStyle@CToolBar@@QEBAIH@Z @ 2543 NONAME
 ?GetButtonText@CToolBar@@QEBA?AV?$CStringT@_WV?$StrTraitMFC_DLL@_WV?$ChTraitsCRT@_W@ATL@@@@@ATL@@H@Z @ 2544 NONAME
 ?GetButtonText@CToolBar@@QEBAXHAEAV?$CStringT@_WV?$StrTraitMFC_DLL@_WV?$ChTraitsCRT@_W@ATL@@@@@ATL@@@Z @ 2545 NONAME
 ?GetByteArray@COleSafeArray@@QEAAXAEAVCByteArray@@@Z @ 2546 NONAME
 ?GetByteArrayFromVariantArray@COleVariant@@QEAAXAEAVCByteArray@@@Z @ 2547 NONAME
 ?GetByteOrder@CPropertySet@@QEAAGXZ @ 2548 NONAME
 ?GetCachedExtent@COleClientItem@@QEAAHPEAUtagSIZE@@W4tagDVASPECT@@@Z @ 2549 NONAME
 ?GetCacheEntry@COleDataSource@@IEAAPEAUAFX_DATACACHE_ENTRY@@PEAUtagFORMATETC@@W4tagDATADIR@@@Z @ 2550 NONAME
 ?GetCanonicalFormatEtc@XDataObject@COleControl@@UEAAJPEAUtagFORMATETC@@0@Z @ 2551 NONAME
 ?GetCanonicalFormatEtc@XDataObject@COleDataSource@@UEAAJPEAUtagFORMATETC@@0@Z @ 2552 NONAME
 ?GetCanonicalFormatEtc@XDataObject@COleServerDoc@@UEAAJPEAUtagFORMATETC@@0@Z @ 2553 NONAME
 ?GetCanonicalFormatEtc@XDataObject@COleServerItem@@UEAAJPEAUtagFORMATETC@@0@Z @ 2554 NONAME
 ?GetCapture@COleControl@@QEAAPEAVCWnd@@XZ @ 2555 NONAME
 ?GetCapture@XOleIPSite@COleControlSite@@UEAAJXZ @ 2556 NONAME
 ?GetCharFormat@CFontDialog@@QEBAXAEAU_charformatw@@@Z @ 2557 NONAME
 ?GetCharFormatSelection@CRichEditView@@QEAAAEAUCHARFORMAT2W@@XZ @ 2558 NONAME
 ?GetCheck@CCheckListBox@@QEAAHH@Z @ 2559 NONAME
 ?GetCheck@CListCtrl@@QEBAHH@Z @ 2560 NONAME
 ?GetCheck@CTreeCtrl@@QEBAHPEAU_TREEITEM@@@Z @ 2561 NONAME
 ?GetCheckedRadioButton@CWnd@@QEBAHHH@Z @ 2562 NONAME
 ?GetClassID@CBlobProperty@@UEAAJPEAU_GUID@@@Z @ 2563 NONAME
 ?GetClassID@COleClientItem@@QEBAXPEAU_GUID@@@Z @ 2564 NONAME
 ?GetClassID@CPropertySet@@QEAA?AU_GUID@@XZ @ 2565 NONAME
 ?GetClassID@XPersistFile@COleLinkingDoc@@UEAAJPEAU_GUID@@@Z @ 2566 NONAME
 ?GetClassID@XPersistMemory@COleControl@@UEAAJPEAU_GUID@@@Z @ 2567 NONAME
 ?GetClassID@XPersistPropertyBag@COleControl@@UEAAJPEAU_GUID@@@Z @ 2568 NONAME
 ?GetClassID@XPersistStorage@COleControl@@UEAAJPEAU_GUID@@@Z @ 2569 NONAME
 ?GetClassID@XPersistStorage@COleServerDoc@@UEAAJPEAU_GUID@@@Z @ 2570 NONAME
 ?GetClassID@XPersistStreamInit@COleControl@@UEAAJPEAU_GUID@@@Z @ 2571 NONAME
 ?GetClassInfoW@XProvideClassInfo@COleControl@@UEAAJPEAPEAUITypeInfo@@@Z @ 2572 NONAME
 ?GetClassObject@AFX_COM@@QEAAJAEBU_GUID@@0PEAPEAX@Z @ 2573 NONAME
 ?GetClientOffset@COleControl@@UEBAXPEAJ0@Z @ 2574 NONAME
 ?GetClientRect@COleControl@@UEBAXPEAUtagRECT@@@Z @ 2575 NONAME
 ?GetClientSite@COleClientItem@@MEAAPEAUIOleClientSite@@XZ @ 2576 NONAME
 ?GetClientSite@COleControl@@QEAAPEAUIOleClientSite@@XZ @ 2577 NONAME
 ?GetClientSite@CRichEditCntrItem@@UEAAPEAUIOleClientSite@@XZ @ 2578 NONAME
 ?GetClientSite@XOleObject@CDocObjectServer@@UEAAJPEAPEAUIOleClientSite@@@Z @ 2579 NONAME
 ?GetClientSite@XOleObject@COleControl@@UEAAJPEAPEAUIOleClientSite@@@Z @ 2580 NONAME
 ?GetClientSite@XOleObject@COleServerDoc@@UEAAJPEAPEAUIOleClientSite@@@Z @ 2581 NONAME
 ?GetClientSite@XOleObject@COleServerItem@@UEAAJPEAPEAUIOleClientSite@@@Z @ 2582 NONAME
 ?GetClipboardData@COleClientItem@@QEAAXPEAVCOleDataSource@@HPEAUtagPOINT@@PEAUtagSIZE@@@Z @ 2583 NONAME
 ?GetClipboardData@COleServerItem@@QEAAXPEAVCOleDataSource@@HPEAUtagPOINT@@PEAUtagSIZE@@@Z @ 2584 NONAME
 ?GetClipboardData@CRichEditView@@MEAAJPEAU_charrange@@KPEAUIDataObject@@PEAPEAU3@@Z @ 2585 NONAME
 ?GetClipboardData@XOleObject@CDocObjectServer@@UEAAJKPEAPEAUIDataObject@@@Z @ 2586 NONAME
 ?GetClipboardData@XOleObject@COleControl@@UEAAJKPEAPEAUIDataObject@@@Z @ 2587 NONAME
 ?GetClipboardData@XOleObject@COleServerDoc@@UEAAJKPEAPEAUIDataObject@@@Z @ 2588 NONAME
 ?GetClipboardData@XOleObject@COleServerItem@@UEAAJKPEAPEAUIDataObject@@@Z @ 2589 NONAME
 ?GetClipboardData@XRichEditOleCallback@CRichEditView@@UEAAJPEAU_charrange@@KPEAPEAUIDataObject@@@Z @ 2590 NONAME
 ?GetClipboardOwner@COleDataSource@@SAPEAV1@XZ @ 2591 NONAME
 ?GetClipBox@CDC@@UEBAHPEAUtagRECT@@@Z @ 2592 NONAME
 ?GetClipBox@CMetaFileDC@@UEBAHPEAUtagRECT@@@Z @ 2593 NONAME
 ?GetColorScheme@CReBarCtrl@@QEBAHPEAUtagCOLORSCHEME@@@Z @ 2594 NONAME
 ?GetColorSet@XViewObject@COleControl@@UEAAJKJPEAXPEAUtagDVTARGETDEVICE@@PEAUHDC__@@PEAPEAUtagLOGPALETTE@@@Z @ 2595 NONAME
 ?GetColumnInfo@CSplitterWnd@@QEBAXHAEAH0@Z @ 2596 NONAME
 ?GetColumnOrderArray@CListCtrl@@QEBAHPEAHH@Z @ 2597 NONAME
 ?GetCommandMap@CCmdTarget@@MEBAPEBUAFX_OLECMDMAP@@XZ @ 2598 NONAME
 ?GetCommandMap@COleDocObjectItem@@MEBAPEBUAFX_OLECMDMAP@@XZ @ 2599 NONAME
 ?GetConnectInfo@CDatabase@@IEAAXXZ @ 2600 NONAME
 ?GetConnectionCount@CConnectionPoint@@QEAAHXZ @ 2601 NONAME
 ?GetConnectionHook@CCmdTarget@@MEAAPEAUIConnectionPoint@@AEBU_GUID@@@Z @ 2602 NONAME
 ?GetConnectionHook@COleControl@@MEAAPEAUIConnectionPoint@@AEBU_GUID@@@Z @ 2603 NONAME
 ?GetConnectionInterface@XConnPt@CConnectionPoint@@UEAAJPEAU_GUID@@@Z @ 2604 NONAME
 ?GetConnectionMap@CCmdTarget@@MEBAPEBUAFX_CONNECTIONMAP@@XZ @ 2605 NONAME
 ?GetConnectionMap@COleControl@@MEBAPEBUAFX_CONNECTIONMAP@@XZ @ 2606 NONAME
 ?GetConnectionPointContainer@XConnPt@CConnectionPoint@@UEAAJPEAPEAUIConnectionPointContainer@@@Z @ 2607 NONAME
 ?GetConnections@CConnectionPoint@@QEAAPEBVCPtrArray@@XZ @ 2608 NONAME
 ?GetContainer@CConnectionPoint@@UEAAPEAUIConnectionPointContainer@@XZ @ 2609 NONAME
 ?GetContainer@CHtmlView@@QEBAPEAUIDispatch@@XZ @ 2610 NONAME
 ?GetContainer@COleDocument@@UEAAPEAUIOleItemContainer@@XZ @ 2611 NONAME
 ?GetContainer@COleLinkingDoc@@UEAAPEAUIOleItemContainer@@XZ @ 2612 NONAME
 ?GetContainer@XOleClientSite@COleClientItem@@UEAAJPEAPEAUIOleContainer@@@Z @ 2613 NONAME
 ?GetContainer@XOleClientSite@COleControlSite@@UEAAJPEAPEAUIOleContainer@@@Z @ 2614 NONAME
 ?GetContentExtent@XQuickActivate@COleControl@@UEAAJPEAUtagSIZE@@@Z @ 2615 NONAME
 ?GetContextMenu@CRichEditView@@MEAAPEAUHMENU__@@GPEAUIOleObject@@PEAU_charrange@@@Z @ 2616 NONAME
 ?GetContextMenu@XRichEditOleCallback@CRichEditView@@UEAAJGPEAUIOleObject@@PEAU_charrange@@PEAPEAUHMENU__@@@Z @ 2617 NONAME
 ?GetControlBar@CFrameWnd@@QEAAPEAVCControlBar@@I@Z @ 2618 NONAME
 ?GetControlContainer@CWnd@@QEAAPEAVCOleControlContainer@@XZ @ 2619 NONAME
 ?GetControlDispatch@CDHtmlDialog@@QEAAJPEB_WPEAPEAUIDispatch@@@Z @ 2620 NONAME
 ?GetControlFlags@COleControl@@UEAAKXZ @ 2621 NONAME
 ?GetControlInfo@COleControlSite@@IEAAXXZ @ 2622 NONAME
 ?GetControlInfo@XOleControl@COleControl@@UEAAJPEAUtagCONTROLINFO@@@Z @ 2623 NONAME
 ?GetControllingFrame@CDocObjectServer@@QEBAPEAVCOleDocIPFrameWnd@@XZ @ 2624 NONAME
 ?GetControllingUnknown@CCmdTarget@@QEAAPEAUIUnknown@@XZ @ 2625 NONAME
 ?GetControlProperty@CDHtmlDialog@@QEAA?AUtagVARIANT@@PEAUIDispatch@@J@Z @ 2626 NONAME
 ?GetControlProperty@CDHtmlDialog@@QEAA?AUtagVARIANT@@PEB_W0@Z @ 2627 NONAME
 ?GetControlProperty@CDHtmlDialog@@QEAA?AUtagVARIANT@@PEB_WJ@Z @ 2628 NONAME
 ?GetControlSize@COleControl@@QEAAXPEAH0@Z @ 2629 NONAME
 ?GetControlStatus@COlePropertyPage@@QEAAHI@Z @ 2630 NONAME
 ?GetControlUnknown@CWnd@@QEAAPEAUIUnknown@@XZ @ 2631 NONAME
 ?GetConvertInfo@XOleUIObjInfo@COlePropertiesDialog@@UEAAJKPEAU_GUID@@PEAG0PEAPEAU3@PEAI@Z @ 2632 NONAME
 ?GetCookie@CInternetSession@@SAHPEB_W0AEAV?$CStringT@_WV?$StrTraitMFC_DLL@_WV?$ChTraitsCRT@_W@ATL@@@@@ATL@@@Z @ 2633 NONAME
 ?GetCookie@CInternetSession@@SAHPEB_W0PEA_WK@Z @ 2634 NONAME
 ?GetCookieLength@CInternetSession@@SAKPEB_W0@Z @ 2635 NONAME
 ?GetCopies@CPrintDialog@@QEBAHXZ @ 2636 NONAME
 ?GetCopies@CPrintDialogEx@@QEBAHXZ @ 2637 NONAME
 ?GetCount@CPropertySection@@QEAAKXZ @ 2638 NONAME
 ?GetCount@CPropertySet@@QEAAKXZ @ 2639 NONAME
 ?GetCreationTime@CFileFind@@UEBAHAEAVCTime@ATL@@@Z @ 2640 NONAME
 ?GetCreationTime@CFileFind@@UEBAHPEAU_FILETIME@@@Z @ 2641 NONAME
 ?GetCreationTime@CGopherFileFind@@UEBAHAEAVCTime@ATL@@@Z @ 2642 NONAME
 ?GetCreationTime@CGopherFileFind@@UEBAHPEAU_FILETIME@@@Z @ 2643 NONAME
 ?GetCurFile@XPersistFile@COleLinkingDoc@@UEAAJPEAPEA_W@Z @ 2644 NONAME
 ?GetCurrentDirectoryAsURL@CFtpConnection@@QEBAHAEAV?$CStringT@_WV?$StrTraitMFC_DLL@_WV?$ChTraitsCRT@_W@ATL@@@@@ATL@@@Z @ 2645 NONAME
 ?GetCurrentDirectoryAsURL@CFtpConnection@@QEBAHPEA_WPEAK@Z @ 2646 NONAME
 ?GetCurrentDirectoryW@CFtpConnection@@QEBAHAEAV?$CStringT@_WV?$StrTraitMFC_DLL@_WV?$ChTraitsCRT@_W@ATL@@@@@ATL@@@Z @ 2647 NONAME
 ?GetCurrentDirectoryW@CFtpConnection@@QEBAHPEA_WPEAK@Z @ 2648 NONAME
 ?GetCurrentFont@CFontDialog@@QEAAXPEAUtagLOGFONTW@@@Z @ 2649 NONAME
 ?GetCurrentMessage@CWnd@@KAPEBUtagMSG@@XZ @ 2650 NONAME
 ?GetCurrentUrl@CDHtmlDialog@@QEAAXAEAV?$CStringT@_WV?$StrTraitMFC_DLL@_WV?$ChTraitsCRT@_W@ATL@@@@@ATL@@@Z @ 2651 NONAME
 ?GetCurSel@CMonthCalCtrl@@QEBAHAEAVCOleDateTime@ATL@@@Z @ 2652 NONAME
 ?GetCurSel@CMonthCalCtrl@@QEBAHAEAVCTime@ATL@@@Z @ 2653 NONAME
 ?GetCursor@CDataBoundProperty@@QEAAPEAUIUnknown@@XZ @ 2654 NONAME
 ?GetCursor@CDataSourceControl@@UEAAPEAUIUnknown@@XZ @ 2655 NONAME
 ?GetCursor@COleControlSite@@IEAAJJPEAPEAUIUnknown@@PEAPEAX@Z @ 2656 NONAME
 ?GetCursor@XBoundObjectSite@COleControlSite@@UEAAJJPEAPEAUICursor@@PEAPEAX@Z @ 2657 NONAME
 ?GetData@?$CSimpleStringT@_W$00@ATL@@AEBAPEAUCStringData@2@XZ @ 2658 NONAME
 ?GetData@?$CSimpleStringT@D$00@ATL@@AEBAPEAUCStringData@2@XZ @ 2659 NONAME
 ?GetData@COleDataObject@@QEAAHGPEAUtagSTGMEDIUM@@PEAUtagFORMATETC@@@Z @ 2660 NONAME
 ?GetData@CProcessLocalObject@@QEAAPEAVCNoTrackObject@@P6APEAV2@XZ@Z @ 2661 NONAME
 ?GetData@CRecordset@@SA_JPEAVCDatabase@@PEAXFF1_JF@Z @ 2662 NONAME
 ?GetData@CThreadLocalObject@@QEAAPEAVCNoTrackObject@@P6APEAV2@XZ@Z @ 2663 NONAME
 ?GetData@XDataObject@COleControl@@UEAAJPEAUtagFORMATETC@@PEAUtagSTGMEDIUM@@@Z @ 2664 NONAME
 ?GetData@XDataObject@COleDataSource@@UEAAJPEAUtagFORMATETC@@PEAUtagSTGMEDIUM@@@Z @ 2665 NONAME
 ?GetData@XDataObject@COleServerDoc@@UEAAJPEAUtagFORMATETC@@PEAUtagSTGMEDIUM@@@Z @ 2666 NONAME
 ?GetData@XDataObject@COleServerItem@@UEAAJPEAUtagFORMATETC@@PEAUtagSTGMEDIUM@@@Z @ 2667 NONAME
 ?GetDatabaseName@CDatabase@@QEBA?AV?$CStringT@_WV?$StrTraitMFC_DLL@_WV?$ChTraitsCRT@_W@ATL@@@@@ATL@@XZ @ 2668 NONAME
 ?GetDataBuffer@CRecordset@@SAPEAXAEAVCDBVariant@@FPEA_JF_K@Z @ 2669 NONAME
 ?GetDataHere@XDataObject@COleControl@@UEAAJPEAUtagFORMATETC@@PEAUtagSTGMEDIUM@@@Z @ 2670 NONAME
 ?GetDataHere@XDataObject@COleDataSource@@UEAAJPEAUtagFORMATETC@@PEAUtagSTGMEDIUM@@@Z @ 2671 NONAME
 ?GetDataHere@XDataObject@COleServerDoc@@UEAAJPEAUtagFORMATETC@@PEAUtagSTGMEDIUM@@@Z @ 2672 NONAME
 ?GetDataHere@XDataObject@COleServerItem@@UEAAJPEAUtagFORMATETC@@PEAUtagSTGMEDIUM@@@Z @ 2673 NONAME
 ?GetDataNA@CThreadLocalObject@@QEAAPEAVCNoTrackObject@@XZ @ 2674 NONAME
 ?GetDataObject@COleServerItem@@QEAAPEAUIDataObject@@XZ @ 2675 NONAME
 ?GetDataSource@COleControl@@IEAAPEAVCControlDataSource@1@XZ @ 2676 NONAME
 ?GetDC@COleControl@@QEAAPEAVCDC@@PEBUtagRECT@@K@Z @ 2677 NONAME
 ?GetDC@XOleIPSite@COleControlSite@@UEAAJPEBUtagRECT@@KPEAPEAUHDC__@@@Z @ 2678 NONAME
 ?GetDefaultAccelerator@CDocument@@UEAAPEAUHACCEL__@@XZ @ 2679 NONAME
 ?GetDefaultAccelerator@CFrameWnd@@UEAAPEAUHACCEL__@@XZ @ 2680 NONAME
 ?GetDefaultAccelerator@COleServerDoc@@MEAAPEAUHACCEL__@@XZ @ 2681 NONAME
 ?GetDefaultCharFormat@CRichEditCtrl@@QEBAKAEAU_charformatw@@@Z @ 2682 NONAME
 ?GetDefaultCharFormat@CRichEditCtrl@@QEBAKAEAUCHARFORMAT2W@@@Z @ 2683 NONAME
 ?GetDefaultConnect@CRecordset@@UEAA?AV?$CStringT@_WV?$StrTraitMFC_DLL@_WV?$ChTraitsCRT@_W@ATL@@@@@ATL@@XZ @ 2684 NONAME
 ?GetDefaultFieldType@CRecordset@@SAFF@Z @ 2685 NONAME
 ?GetDefaultMenu@CDocument@@UEAAPEAUHMENU__@@XZ @ 2686 NONAME
 ?GetDefaultMenu@COleServerDoc@@MEAAPEAUHMENU__@@XZ @ 2687 NONAME
 ?GetDefaults@CPrintDialog@@QEAAHXZ @ 2688 NONAME
 ?GetDefaults@CPrintDialogEx@@QEAAHXZ @ 2689 NONAME
 ?GetDefaultSQL@CRecordset@@UEAA?AV?$CStringT@_WV?$StrTraitMFC_DLL@_WV?$ChTraitsCRT@_W@ATL@@@@@ATL@@XZ @ 2690 NONAME
 ?GetDefBtnCode@COccManager@@SAKPEAVCWnd@@@Z @ 2691 NONAME
 ?GetDefBtnCode@COleControlSite@@QEAAKXZ @ 2692 NONAME
 ?GetDescendantWindow@CWnd@@SAPEAV1@PEAUHWND__@@HH@Z @ 2693 NONAME
 ?GetDeviceName@CPageSetupDialog@@QEBA?AV?$CStringT@_WV?$StrTraitMFC_DLL@_WV?$ChTraitsCRT@_W@ATL@@@@@ATL@@XZ @ 2694 NONAME
 ?GetDeviceName@CPrintDialog@@QEBA?AV?$CStringT@_WV?$StrTraitMFC_DLL@_WV?$ChTraitsCRT@_W@ATL@@@@@ATL@@XZ @ 2695 NONAME
 ?GetDeviceName@CPrintDialogEx@@QEBA?AV?$CStringT@_WV?$StrTraitMFC_DLL@_WV?$ChTraitsCRT@_W@ATL@@@@@ATL@@XZ @ 2696 NONAME
 ?GetDeviceScrollPosition@CScrollView@@QEBA?AVCPoint@@XZ @ 2697 NONAME
 ?GetDeviceScrollSizes@CScrollView@@QEBAXAEAHAEAUtagSIZE@@11@Z @ 2698 NONAME
 ?GetDevMode@CPageSetupDialog@@QEBAPEAU_devicemodeW@@XZ @ 2699 NONAME
 ?GetDevMode@CPrintDialog@@QEBAPEAU_devicemodeW@@XZ @ 2700 NONAME
 ?GetDevMode@CPrintDialogEx@@QEBAPEAU_devicemodeW@@XZ @ 2701 NONAME
 ?GetDHtmlCommandMapping@CHtmlEditView@@UEAAIIAEAHAEAI@Z @ 2702 NONAME
 ?GetDHtmlDocument@CDHtmlDialog@@UEAAJPEAPEAUIHTMLDocument2@@@Z @ 2703 NONAME
 ?GetDHtmlDocument@CHtmlEditCtrl@@QEBAHPEAPEAUIHTMLDocument2@@@Z @ 2704 NONAME
 ?GetDHtmlDocument@CHtmlEditView@@QEBAHPEAPEAUIHTMLDocument2@@@Z @ 2705 NONAME
 ?GetDHtmlEventMap@@YAPEBUDHtmlEventMapEntry@@XZ @ 2706 NONAME
 ?GetDHtmlEventMap@CDHtmlDialog@@MEAAPEBUDHtmlEventMapEntry@@XZ @ 2707 NONAME
 ?GetDHtmlEventMap@CMultiPageDHtmlDialog@@MEAAPEBUDHtmlEventMapEntry@@XZ @ 2708 NONAME
 ?GetDispatchIID@CCmdTarget@@UEAAHPEAU_GUID@@@Z @ 2709 NONAME
 ?GetDispatchIID@COleControl@@MEAAHPEAU_GUID@@@Z @ 2710 NONAME
 ?GetDispatchMap@CCmdTarget@@MEBAPEBUAFX_DISPMAP@@XZ @ 2711 NONAME
 ?GetDispatchMap@COleControlContainer@@MEBAPEBUAFX_DISPMAP@@XZ @ 2712 NONAME
 ?GetDispEntry@CCmdTarget@@IEAAPEBUAFX_DISPMAP_ENTRY@@J@Z @ 2713 NONAME
 ?GetDisplayName@CRecentFileList@@UEBAHAEAV?$CStringT@_WV?$StrTraitMFC_DLL@_WV?$ChTraitsCRT@_W@ATL@@@@@ATL@@HPEB_WHH@Z @ 2714 NONAME
 ?GetDisplayString@CFontHolder@@QEAAHAEAV?$CStringT@_WV?$StrTraitMFC_DLL@_WV?$ChTraitsCRT@_W@ATL@@@@@ATL@@@Z @ 2715 NONAME
 ?GetDisplayString@CPictureHolder@@QEAAHAEAV?$CStringT@_WV?$StrTraitMFC_DLL@_WV?$ChTraitsCRT@_W@ATL@@@@@ATL@@@Z @ 2716 NONAME
 ?GetDisplayString@XPerPropertyBrowsing@COleControl@@UEAAJJPEAPEA_W@Z @ 2717 NONAME
 ?GetDlgCtrlID@COleControlSite@@UEBAHXZ @ 2718 NONAME
 ?GetDlgCtrlID@CWnd@@QEBAHXZ @ 2719 NONAME
 ?GetDlgItem@COleControlContainer@@UEBAPEAVCWnd@@H@Z @ 2720 NONAME
 ?GetDlgItem@COleControlContainer@@UEBAXHPEAPEAUHWND__@@@Z @ 2721 NONAME
 ?GetDlgItem@CWnd@@QEBAPEAV1@H@Z @ 2722 NONAME
 ?GetDlgItem@CWnd@@QEBAXHPEAPEAUHWND__@@@Z @ 2723 NONAME
 ?GetDlgItemInt@COleControlContainer@@UEBAIHPEAHH@Z @ 2724 NONAME
 ?GetDlgItemInt@CWnd@@QEBAIHPEAHH@Z @ 2725 NONAME
 ?GetDlgItemTextW@COleControlContainer@@UEBAHHPEA_WH@Z @ 2726 NONAME
 ?GetDlgItemTextW@CWnd@@QEBAHHAEAV?$CStringT@_WV?$StrTraitMFC_DLL@_WV?$ChTraitsCRT@_W@ATL@@@@@ATL@@@Z @ 2727 NONAME
 ?GetDlgItemTextW@CWnd@@QEBAHHPEA_WH@Z @ 2728 NONAME
 ?GetDockBar@CDockContext@@QEAAPEAVCDockBar@@K@Z @ 2729 NONAME
 ?GetDockedControlBar@CDockBar@@IEBAPEAVCControlBar@@H@Z @ 2730 NONAME
 ?GetDockedCount@CDockBar@@QEBAHXZ @ 2731 NONAME
 ?GetDockedVisibleCount@CDockBar@@UEBAHXZ @ 2732 NONAME
 ?GetDockingFrame@CControlBar@@QEBAPEAVCFrameWnd@@XZ @ 2733 NONAME
 ?GetDockState@CFrameWnd@@QEBAXAEAVCDockState@@@Z @ 2734 NONAME
 ?GetDocMiscStatus@XOleDocument@CDocObjectServer@@UEAAJPEAK@Z @ 2735 NONAME
 ?GetDocObjectServer@COleServerDoc@@MEAAPEAVCDocObjectServer@@PEAUIOleDocumentSite@@@Z @ 2736 NONAME
 ?GetDocString@CDocTemplate@@UEBAHAEAV?$CStringT@_WV?$StrTraitMFC_DLL@_WV?$ChTraitsCRT@_W@ATL@@@@@ATL@@W4DocStringIndex@1@@Z @ 2737 NONAME
 ?GetDocument@XOleDocumentView@CDocObjectServer@@UEAAJPEAPEAUIUnknown@@@Z @ 2738 NONAME
 ?GetDocumentCount@CDocManager@@IEAAHXZ @ 2739 NONAME
 ?GetDragDropEffect@XRichEditOleCallback@CRichEditView@@UEAAJHKPEAK@Z @ 2740 NONAME
 ?GetDriverName@CPageSetupDialog@@QEBA?AV?$CStringT@_WV?$StrTraitMFC_DLL@_WV?$ChTraitsCRT@_W@ATL@@@@@ATL@@XZ @ 2741 NONAME
 ?GetDriverName@CPrintDialog@@QEBA?AV?$CStringT@_WV?$StrTraitMFC_DLL@_WV?$ChTraitsCRT@_W@ATL@@@@@ATL@@XZ @ 2742 NONAME
 ?GetDriverName@CPrintDialogEx@@QEBA?AV?$CStringT@_WV?$StrTraitMFC_DLL@_WV?$ChTraitsCRT@_W@ATL@@@@@ATL@@XZ @ 2743 NONAME
 ?GetDropTarget@CBrowserControlSite@@MEAAJPEAUIDropTarget@@PEAPEAU2@@Z @ 2744 NONAME
 ?GetDropTarget@CDHtmlDialog@@UEAAJPEAUIDropTarget@@PEAPEAU2@@Z @ 2745 NONAME
 ?GetDropTarget@CToolBarCtrl@@QEBAJPEAPEAUIDropTarget@@@Z @ 2746 NONAME
 ?GetDropTarget@XDocHostUIHandler@CHtmlControlSite@@UEAAJPEAUIDropTarget@@PEAPEAU3@@Z @ 2747 NONAME
 ?GetDropTarget@XOleInPlaceObject@COleControl@@UEAAJPEAPEAUIDropTarget@@@Z @ 2748 NONAME
 ?GetDSCCursor@CWnd@@QEAAPEAUIUnknown@@XZ @ 2749 NONAME
 ?GetElement@CDHtmlDialog@@QEAAJPEB_WPEAPEAUIDispatch@@PEAH@Z @ 2750 NONAME
 ?GetElement@CDHtmlDialog@@QEAAJPEB_WPEAPEAUIHTMLElement@@@Z @ 2751 NONAME
 ?GetElement@COleSafeArray@@QEAAXPEAJPEAX@Z @ 2752 NONAME
 ?GetElementHtml@CDHtmlDialog@@QEAAPEA_WPEB_W@Z @ 2753 NONAME
 ?GetElementInterface@CDHtmlDialog@@QEAAJPEB_WAEBU_GUID@@PEAPEAX@Z @ 2754 NONAME
 ?GetElementProperty@CDHtmlDialog@@QEAA?AUtagVARIANT@@PEB_WJ@Z @ 2755 NONAME
 ?GetElementText@CDHtmlDialog@@QEAAPEA_WPEB_W@Z @ 2756 NONAME
 ?GetEmbeddedItem@COleServerDoc@@QEAAPEAVCOleServerItem@@XZ @ 2757 NONAME
 ?GetEmbeddedItemData@COleClientItem@@IEAAXPEAUtagSTGMEDIUM@@@Z @ 2758 NONAME
 ?GetEmbedSourceData@COleServerItem@@QEAAXPEAUtagSTGMEDIUM@@@Z @ 2759 NONAME
 ?GetEnabled@COleControl@@QEAAHXZ @ 2760 NONAME
 ?GetEntryCount@CCmdTarget@@KAIPEBUAFX_DISPMAP@@@Z @ 2761 NONAME
 ?GetEnumVariant@XAccessibleServer@CWnd@@UEAAJPEAPEAUIEnumVARIANT@@@Z @ 2762 NONAME
 ?GetEnvironmentVariableW@?$CStringT@_WV?$StrTraitMFC_DLL@_WV?$ChTraitsCRT@_W@ATL@@@@@ATL@@QEAAHPEB_W@Z @ 2763 NONAME
 ?GetEnvironmentVariableW@?$CStringT@DV?$StrTraitMFC_DLL@DV?$ChTraitsCRT@D@ATL@@@@@ATL@@QEAAHPEBD@Z @ 2764 NONAME
 ?GetErrorMessage@CArchiveException@@UEBAHPEA_WIPEAI@Z @ 2765 NONAME
 ?GetErrorMessage@CDBException@@UEBAHPEA_WIPEAI@Z @ 2766 NONAME
 ?GetErrorMessage@CException@@UEAAHPEA_WIPEAI@Z @ 2767 NONAME
 ?GetErrorMessage@CException@@UEBAHPEA_WIPEAI@Z @ 2768 NONAME
 ?GetErrorMessage@CFileException@@UEBAHPEA_WIPEAI@Z @ 2769 NONAME
 ?GetErrorMessage@CInternetException@@UEBAHPEA_WIPEAI@Z @ 2770 NONAME
 ?GetErrorMessage@COleDispatchException@@UEBAHPEA_WIPEAI@Z @ 2771 NONAME
 ?GetErrorMessage@COleException@@UEBAHPEA_WIPEAI@Z @ 2772 NONAME
 ?GetErrorMessage@CSimpleException@@UEBAHPEA_WIPEAI@Z @ 2773 NONAME
 ?GetEvent@CDHtmlDialog@@QEAAJPEAPEAUIHTMLEventObj@@@Z @ 2774 NONAME
 ?GetEventIID@COleControlSite@@QEAAHPEAU_GUID@@@Z @ 2775 NONAME
 ?GetEventMap@COleControl@@MEBAPEBUAFX_EVENTMAP@@XZ @ 2776 NONAME
 ?GetEventMapEntry@COleControl@@IEBAPEBUAFX_EVENTMAP_ENTRY@@PEB_WPEAJ@Z @ 2777 NONAME
 ?GetEventMapForUrl@CMultiPageDHtmlDialog@@MEAAPEBUDHtmlEventMapEntry@@PEB_W@Z @ 2778 NONAME
 ?GetEventSinkEntry@CCmdTarget@@IEAAPEBUAFX_EVENTSINKMAP_ENTRY@@IPEAUAFX_EVENT@@@Z @ 2779 NONAME
 ?GetEventSinkMap@CCmdTarget@@MEBAPEBUAFX_EVENTSINKMAP@@XZ @ 2780 NONAME
 ?GetEventSinkMap@CDHtmlDialog@@MEBAPEBUAFX_EVENTSINKMAP@@XZ @ 2781 NONAME
 ?GetEventSinkMap@CHtmlEditCtrl@@MEBAPEBUAFX_EVENTSINKMAP@@XZ @ 2782 NONAME
 ?GetEventSinkMap@CHtmlView@@MEBAPEBUAFX_EVENTSINKMAP@@XZ @ 2783 NONAME
 ?GetExStyle@COleControlSite@@UEBAKXZ @ 2784 NONAME
 ?GetExStyle@CWnd@@QEBAKXZ @ 2785 NONAME
 ?GetExtendedControl@COleControl@@QEAAPEAUIDispatch@@XZ @ 2786 NONAME
 ?GetExtendedControl@XOleControlSite@COleControlSite@@UEAAJPEAPEAUIDispatch@@@Z @ 2787 NONAME
 ?GetExtent@COleClientItem@@QEAAHPEAUtagSIZE@@W4tagDVASPECT@@@Z @ 2788 NONAME
 ?GetExtent@XOleObject@CDocObjectServer@@UEAAJKPEAUtagSIZE@@@Z @ 2789 NONAME
 ?GetExtent@XOleObject@COleControl@@UEAAJKPEAUtagSIZE@@@Z @ 2790 NONAME
 ?GetExtent@XOleObject@COleServerDoc@@UEAAJKPEAUtagSIZE@@@Z @ 2791 NONAME
 ?GetExtent@XOleObject@COleServerItem@@UEAAJKPEAUtagSIZE@@@Z @ 2792 NONAME
 ?GetExtent@XViewObject@COleControl@@UEAAJKJPEAUtagDVTARGETDEVICE@@PEAUtagSIZE@@@Z @ 2793 NONAME
 ?GetExternal@CBrowserControlSite@@MEAAJPEAPEAUIDispatch@@@Z @ 2794 NONAME
 ?GetExternal@CDHtmlDialog@@UEAAJPEAPEAUIDispatch@@@Z @ 2795 NONAME
 ?GetExternal@XDocHostUIHandler@CHtmlControlSite@@UEAAJPEAPEAUIDispatch@@@Z @ 2796 NONAME
 ?GetExtraConnectionPoints@CCmdTarget@@MEAAHPEAVCPtrArray@@@Z @ 2797 NONAME
 ?GetExtraConnectionPoints@COleControl@@MEAAHPEAVCPtrArray@@@Z @ 2798 NONAME
 ?GetFieldIndexByName@CRecordset@@QEAAFPEB_W@Z @ 2799 NONAME
 ?GetFieldLengthBuffer@CRecordset@@QEAAPEA_JKH@Z @ 2800 NONAME
 ?GetFieldStatus@CRecordset@@QEAAEK@Z @ 2801 NONAME
 ?GetFieldValue@CRecordset@@QEAAXFAEAV?$CStringT@_WV?$StrTraitMFC_DLL@_WV?$ChTraitsCRT@_W@ATL@@@@@ATL@@@Z @ 2802 NONAME
 ?GetFieldValue@CRecordset@@QEAAXFAEAV?$CStringT@DV?$StrTraitMFC_DLL@DV?$ChTraitsCRT@D@ATL@@@@@ATL@@@Z @ 2803 NONAME
 ?GetFieldValue@CRecordset@@QEAAXFAEAVCDBVariant@@F@Z @ 2804 NONAME
 ?GetFieldValue@CRecordset@@QEAAXPEB_WAEAV?$CStringT@_WV?$StrTraitMFC_DLL@_WV?$ChTraitsCRT@_W@ATL@@@@@ATL@@@Z @ 2805 NONAME
 ?GetFieldValue@CRecordset@@QEAAXPEB_WAEAV?$CStringT@DV?$StrTraitMFC_DLL@DV?$ChTraitsCRT@D@ATL@@@@@ATL@@@Z @ 2806 NONAME
 ?GetFieldValue@CRecordset@@QEAAXPEB_WAEAVCDBVariant@@F@Z @ 2807 NONAME
 ?GetFile@CDocument@@UEAAPEAVCFile@@PEB_WIPEAVCFileException@@@Z @ 2808 NONAME
 ?GetFile@CFtpConnection@@QEAAHPEB_W0HKK_K@Z @ 2809 NONAME
 ?GetFileData@COleDataObject@@QEAAPEAVCFile@@GPEAUtagFORMATETC@@@Z @ 2810 NONAME
 ?GetFileExt@CFileDialog@@QEBA?AV?$CStringT@_WV?$StrTraitMFC_DLL@_WV?$ChTraitsCRT@_W@ATL@@@@@ATL@@XZ @ 2811 NONAME
 ?GetFileName@CFile@@UEBA?AV?$CStringT@_WV?$StrTraitMFC_DLL@_WV?$ChTraitsCRT@_W@ATL@@@@@ATL@@XZ @ 2812 NONAME
 ?GetFileName@CFileDialog@@QEBA?AV?$CStringT@_WV?$StrTraitMFC_DLL@_WV?$ChTraitsCRT@_W@ATL@@@@@ATL@@XZ @ 2813 NONAME
 ?GetFileName@CFileFind@@UEBA?AV?$CStringT@_WV?$StrTraitMFC_DLL@_WV?$ChTraitsCRT@_W@ATL@@@@@ATL@@XZ @ 2814 NONAME
 ?GetFileName@CGopherFileFind@@UEBA?AV?$CStringT@_WV?$StrTraitMFC_DLL@_WV?$ChTraitsCRT@_W@ATL@@@@@ATL@@XZ @ 2815 NONAME
 ?GetFilePath@CFile@@UEBA?AV?$CStringT@_WV?$StrTraitMFC_DLL@_WV?$ChTraitsCRT@_W@ATL@@@@@ATL@@XZ @ 2816 NONAME
 ?GetFilePath@CFileFind@@UEBA?AV?$CStringT@_WV?$StrTraitMFC_DLL@_WV?$ChTraitsCRT@_W@ATL@@@@@ATL@@XZ @ 2817 NONAME
 ?GetFilePath@CGopherFileFind@@UEBA?AV?$CStringT@_WV?$StrTraitMFC_DLL@_WV?$ChTraitsCRT@_W@ATL@@@@@ATL@@XZ @ 2818 NONAME
 ?GetFileTitle@CFile@@UEBA?AV?$CStringT@_WV?$StrTraitMFC_DLL@_WV?$ChTraitsCRT@_W@ATL@@@@@ATL@@XZ @ 2819 NONAME
 ?GetFileTitle@CFileDialog@@QEBA?AV?$CStringT@_WV?$StrTraitMFC_DLL@_WV?$ChTraitsCRT@_W@ATL@@@@@ATL@@XZ @ 2820 NONAME
 ?GetFileTitle@CFileFind@@UEBA?AV?$CStringT@_WV?$StrTraitMFC_DLL@_WV?$ChTraitsCRT@_W@ATL@@@@@ATL@@XZ @ 2821 NONAME
 ?GetFileTitle@CGopherFileFind@@UEBA?AV?$CStringT@_WV?$StrTraitMFC_DLL@_WV?$ChTraitsCRT@_W@ATL@@@@@ATL@@XZ @ 2822 NONAME
 ?GetFileTypeString@COleServerDoc@@MEAAHAEAV?$CStringT@_WV?$StrTraitMFC_DLL@_WV?$ChTraitsCRT@_W@ATL@@@@@ATL@@@Z @ 2823 NONAME
 ?GetFileURL@CFileFind@@UEBA?AV?$CStringT@_WV?$StrTraitMFC_DLL@_WV?$ChTraitsCRT@_W@ATL@@@@@ATL@@XZ @ 2824 NONAME
 ?GetFileURL@CFtpFileFind@@UEBA?AV?$CStringT@_WV?$StrTraitMFC_DLL@_WV?$ChTraitsCRT@_W@ATL@@@@@ATL@@XZ @ 2825 NONAME
 ?GetFileURL@CGopherFileFind@@UEBA?AV?$CStringT@_WV?$StrTraitMFC_DLL@_WV?$ChTraitsCRT@_W@ATL@@@@@ATL@@XZ @ 2826 NONAME
 ?GetFileURL@CHttpFile@@UEBA?AV?$CStringT@_WV?$StrTraitMFC_DLL@_WV?$ChTraitsCRT@_W@ATL@@@@@ATL@@XZ @ 2827 NONAME
 ?GetFirstDayOfWeek@CMonthCalCtrl@@QEBAHPEAH@Z @ 2828 NONAME
 ?GetFirstDocPosition@CMultiDocTemplate@@UEBAPEAU__POSITION@@XZ @ 2829 NONAME
 ?GetFirstDocPosition@CSingleDocTemplate@@UEBAPEAU__POSITION@@XZ @ 2830 NONAME
 ?GetFirstDocTemplatePosition@CDocManager@@UEBAPEAU__POSITION@@XZ @ 2831 NONAME
 ?GetFirstDocTemplatePosition@CWinApp@@QEBAPEAU__POSITION@@XZ @ 2832 NONAME
 ?GetFirstFrame@COleDocument@@QEAAPEAVCFrameWnd@@XZ @ 2833 NONAME
 ?GetFirstViewPosition@CDocument@@UEBAPEAU__POSITION@@XZ @ 2834 NONAME
 ?GetFocus@COleControl@@QEAAPEAVCWnd@@XZ @ 2835 NONAME
 ?GetFocus@XOleIPSite@COleControlSite@@UEAAJXZ @ 2836 NONAME
 ?GetFolderPath@CFileDialog@@QEBA?AV?$CStringT@_WV?$StrTraitMFC_DLL@_WV?$ChTraitsCRT@_W@ATL@@@@@ATL@@XZ @ 2837 NONAME
 ?GetFont@CDialogTemplate@@QEBAHAEAV?$CStringT@_WV?$StrTraitMFC_DLL@_WV?$ChTraitsCRT@_W@ATL@@@@@ATL@@AEAG@Z @ 2838 NONAME
 ?GetFont@CDialogTemplate@@SAHPEBUDLGTEMPLATE@@AEAV?$CStringT@_WV?$StrTraitMFC_DLL@_WV?$ChTraitsCRT@_W@ATL@@@@@ATL@@AEAG@Z @ 2839 NONAME
 ?GetFont@COleControl@@QEAAPEAUIFontDisp@@XZ @ 2840 NONAME
 ?GetFontDispatch@CFontHolder@@QEAAPEAUIFontDisp@@XZ @ 2841 NONAME
 ?GetFontHandle@CFontHolder@@QEAAPEAUHFONT__@@JJ@Z @ 2842 NONAME
 ?GetFontHandle@CFontHolder@@QEAAPEAUHFONT__@@XZ @ 2843 NONAME
 ?GetFontSizeField@CDialogTemplate@@KAPEAEPEBUDLGTEMPLATE@@@Z @ 2844 NONAME
 ?GetFontTextMetrics@COleControl@@QEAAXPEAUtagTEXTMETRICW@@AEAVCFontHolder@@@Z @ 2845 NONAME
 ?GetForeColor@COleControl@@QEAAKXZ @ 2846 NONAME
 ?GetFormatID@CPropertySection@@QEAA?AU_GUID@@XZ @ 2847 NONAME
 ?GetFormatVersion@CPropertySet@@QEAAGXZ @ 2848 NONAME
 ?GetFtpConnection@CInternetSession@@QEAAPEAVCFtpConnection@@PEB_W00GH@Z @ 2849 NONAME
 ?GetFullName@CHtmlView@@QEBA?AV?$CStringT@_WV?$StrTraitMFC_DLL@_WV?$ChTraitsCRT@_W@ATL@@@@@ATL@@XZ @ 2850 NONAME
 ?GetFullScreen@CHtmlView@@QEBAHXZ @ 2851 NONAME
 ?GetFuncInfoFromId@CDHtmlControlSink@@QEAAJAEBU_GUID@@JKAEAU_ATL_FUNC_INFO@ATL@@@Z @ 2852 NONAME
 ?GetGlobalData@COleDataObject@@QEAAPEAXGPEAUtagFORMATETC@@@Z @ 2853 NONAME
 ?GetGopherConnection@CInternetSession@@QEAAPEAVCGopherConnection@@PEB_W00G@Z @ 2854 NONAME
 ?GetGUID@XProvideClassInfo@COleControl@@UEAAJKPEAU_GUID@@@Z @ 2855 NONAME
 ?GetHalftoneBrush@CDC@@SAPEAVCBrush@@XZ @ 2856 NONAME
 ?GetHandleMask@CRectTracker@@UEBAIXZ @ 2857 NONAME
 ?GetHandleRect@CRectTracker@@IEBAXHPEAVCRect@@@Z @ 2858 NONAME
 ?GetHandleSize@CRectTracker@@MEBAHPEBUtagRECT@@@Z @ 2859 NONAME
 ?GetHeaderCtrl@CListCtrl@@QEBAPEAVCHeaderCtrl@@XZ @ 2860 NONAME
 ?GetHeight@CHtmlView@@QEBAJXZ @ 2861 NONAME
 ?GetHelpMenu@COleDocObjectItem@@MEAAPEAVCMenu@@AEAI@Z @ 2862 NONAME
 ?GetHitRect@CSplitterWnd@@MEAAXHAEAVCRect@@@Z @ 2863 NONAME
 ?GetHostInfo@CBrowserControlSite@@MEAAJPEAU_DOCHOSTUIINFO@@@Z @ 2864 NONAME
 ?GetHostInfo@CDHtmlDialog@@UEAAJPEAU_DOCHOSTUIINFO@@@Z @ 2865 NONAME
 ?GetHostInfo@XDocHostUIHandler@CHtmlControlSite@@UEAAJPEAU_DOCHOSTUIINFO@@@Z @ 2866 NONAME
 ?GetHotKey@CHotKeyCtrl@@QEBAXAEAG0@Z @ 2867 NONAME
 ?GetHotKeyName@CHotKeyCtrl@@QEBA?AV?$CStringT@_WV?$StrTraitMFC_DLL@_WV?$ChTraitsCRT@_W@ATL@@@@@ATL@@XZ @ 2868 NONAME
 ?GetHtmlDocument@CHtmlView@@QEBAPEAUIDispatch@@XZ @ 2869 NONAME
 ?GetHttpConnection@CInternetSession@@QEAAPEAVCHttpConnection@@PEB_WG00@Z @ 2870 NONAME
 ?GetHttpConnection@CInternetSession@@QEAAPEAVCHttpConnection@@PEB_WKG00@Z @ 2871 NONAME
 ?GetHwnd@COleControl@@QEAAIXZ @ 2872 NONAME
 ?GetHWND@XAccessibleServer@CWnd@@UEAAJPEAPEAUHWND__@@@Z @ 2873 NONAME
 ?GetIconFromRegistry@COleClientItem@@QEBAPEAUHICON__@@XZ @ 2874 NONAME
 ?GetIconFromRegistry@COleClientItem@@SAPEAUHICON__@@AEAU_GUID@@@Z @ 2875 NONAME
 ?GetIconicMetafile@COleClientItem@@QEAAPEAXXZ @ 2876 NONAME
 ?GetIconWndClass@CFrameWnd@@IEAAPEB_WKI@Z @ 2877 NONAME
 ?GetID@CProperty@@QEAAKXZ @ 2878 NONAME
 ?GetID@CPropertySection@@QEAAHPEB_WPEAK@Z @ 2879 NONAME
 ?GetIDataObject@COleDataObject@@QEAAPEAUIDataObject@@H@Z @ 2880 NONAME
 ?GetIDispatch@CCmdTarget@@QEAAPEAUIDispatch@@H@Z @ 2881 NONAME
 ?GetIDsOfNames@CDHtmlControlSink@@UEAAJAEBU_GUID@@PEAPEA_WIKPEAJ@Z @ 2882 NONAME
 ?GetIDsOfNames@CDHtmlElementEventSink@@UEAAJAEBU_GUID@@PEAPEA_WIKPEAJ@Z @ 2883 NONAME
 ?GetIDsOfNames@CDHtmlEventSink@@UEAAJAEBU_GUID@@PEAPEA_WIKPEAJ@Z @ 2884 NONAME
 ?GetIDsOfNames@COleDispatchImpl@@UEAAJAEBU_GUID@@PEAPEA_WIKPEAJ@Z @ 2885 NONAME
 ?GetIDsOfNames@XAccessible@CWnd@@UEAAJAEBU_GUID@@PEAPEA_WIKPEAJ@Z @ 2886 NONAME
 ?GetIDsOfNames@XAmbientProps@COleControlSite@@UEAAJAEBU_GUID@@PEAPEA_WIKPEAJ@Z @ 2887 NONAME
 ?GetIDsOfNames@XEventSink@COleControlSite@@UEAAJAEBU_GUID@@PEAPEA_WIKPEAJ@Z @ 2888 NONAME
 ?GetIFileDialogCustomize@CFileDialog@@QEAAPEAUIFileDialogCustomize@@XZ @ 2889 NONAME
 ?GetIFileOpenDialog@CFileDialog@@QEAAPEAUIFileOpenDialog@@XZ @ 2890 NONAME
 ?GetIFileSaveDialog@CFileDialog@@QEAAPEAUIFileSaveDialog@@XZ @ 2891 NONAME
 ?GetIID@XEventConnPt@COleControl@@UEAAAEBU_GUID@@XZ @ 2892 NONAME
 ?GetImageList@CReBarCtrl@@QEBAPEAVCImageList@@XZ @ 2893 NONAME
 ?GetInPlaceActiveItem@COleDocument@@UEAAPEAVCOleClientItem@@PEAVCWnd@@@Z @ 2894 NONAME
 ?GetInPlaceActiveItem@CRichEditDoc@@UEAAPEAVCOleClientItem@@PEAVCWnd@@@Z @ 2895 NONAME
 ?GetInPlaceActiveItem@CRichEditView@@QEBAPEAVCRichEditCntrItem@@XZ @ 2896 NONAME
 ?GetInPlaceContext@XRichEditOleCallback@CRichEditView@@UEAAJPEAPEAUIOleInPlaceFrame@@PEAPEAUIOleInPlaceUIWindow@@PEAUtagOIFI@@@Z @ 2897 NONAME
 ?GetInPlaceMenu@COleIPFrameWnd@@MEAAPEAUHMENU__@@XZ @ 2898 NONAME
 ?GetInPlaceSite@XOleDocumentView@CDocObjectServer@@UEAAJPEAPEAUIOleInPlaceSite@@@Z @ 2899 NONAME
 ?GetInPlaceWindow@COleClientItem@@QEAAPEAVCWnd@@XZ @ 2900 NONAME
 ?GetInsideRect@CSplitterWnd@@MEBAXAEAVCRect@@@Z @ 2901 NONAME
 ?GetInterface@CCmdTarget@@QEAAPEAUIUnknown@@PEBX@Z @ 2902 NONAME
 ?GetInterfaceHook@CBrowserControlSite@@MEAAPEAUIUnknown@@PEBX@Z @ 2903 NONAME
 ?GetInterfaceHook@CCmdTarget@@UEAAPEAUIUnknown@@PEBX@Z @ 2904 NONAME
 ?GetInterfaceHook@COleControl@@MEAAPEAUIUnknown@@PEBX@Z @ 2905 NONAME
 ?GetInterfaceHook@COleServerDoc@@MEAAPEAUIUnknown@@PEBX@Z @ 2906 NONAME
 ?GetInterfaceMap@CCmdTarget@@MEBAPEBUAFX_INTERFACEMAP@@XZ @ 2907 NONAME
 ?GetInterfaceMap@CDocObjectServer@@MEBAPEBUAFX_INTERFACEMAP@@XZ @ 2908 NONAME
 ?GetInterfaceMap@CEnumConnections@@MEBAPEBUAFX_INTERFACEMAP@@XZ @ 2909 NONAME
 ?GetInterfaceMap@CEnumConnPoints@@MEBAPEBUAFX_INTERFACEMAP@@XZ @ 2910 NONAME
 ?GetInterfaceMap@CEnumFormatEtc@@MEBAPEBUAFX_INTERFACEMAP@@XZ @ 2911 NONAME
 ?GetInterfaceMap@CEnumOleVerb@@MEBAPEBUAFX_INTERFACEMAP@@XZ @ 2912 NONAME
 ?GetInterfaceMap@CEnumUnknown@@MEBAPEBUAFX_INTERFACEMAP@@XZ @ 2913 NONAME
 ?GetInterfaceMap@CFileDialog@@MEBAPEBUAFX_INTERFACEMAP@@XZ @ 2914 NONAME
 ?GetInterfaceMap@CHtmlControlSite@@MEBAPEBUAFX_INTERFACEMAP@@XZ @ 2915 NONAME
 ?GetInterfaceMap@COleClientItem@@MEBAPEBUAFX_INTERFACEMAP@@XZ @ 2916 NONAME
 ?GetInterfaceMap@COleControl@@MEBAPEBUAFX_INTERFACEMAP@@XZ @ 2917 NONAME
 ?GetInterfaceMap@COleControlContainer@@MEBAPEBUAFX_INTERFACEMAP@@XZ @ 2918 NONAME
 ?GetInterfaceMap@COleControlSite@@MEBAPEBUAFX_INTERFACEMAP@@XZ @ 2919 NONAME
 ?GetInterfaceMap@COleDataSource@@MEBAPEBUAFX_INTERFACEMAP@@XZ @ 2920 NONAME
 ?GetInterfaceMap@COleDocObjectItem@@MEBAPEBUAFX_INTERFACEMAP@@XZ @ 2921 NONAME
 ?GetInterfaceMap@COleDropSource@@MEBAPEBUAFX_INTERFACEMAP@@XZ @ 2922 NONAME
 ?GetInterfaceMap@COleDropTarget@@MEBAPEBUAFX_INTERFACEMAP@@XZ @ 2923 NONAME
 ?GetInterfaceMap@COleFrameHook@@MEBAPEBUAFX_INTERFACEMAP@@XZ @ 2924 NONAME
 ?GetInterfaceMap@COleLinkingDoc@@MEBAPEBUAFX_INTERFACEMAP@@XZ @ 2925 NONAME
 ?GetInterfaceMap@COleMessageFilter@@MEBAPEBUAFX_INTERFACEMAP@@XZ @ 2926 NONAME
 ?GetInterfaceMap@COleObjectFactory@@MEBAPEBUAFX_INTERFACEMAP@@XZ @ 2927 NONAME
 ?GetInterfaceMap@COlePropertyPage@@MEBAPEBUAFX_INTERFACEMAP@@XZ @ 2928 NONAME
 ?GetInterfaceMap@COleServerDoc@@MEBAPEBUAFX_INTERFACEMAP@@XZ @ 2929 NONAME
 ?GetInterfaceMap@COleServerItem@@MEBAPEBUAFX_INTERFACEMAP@@XZ @ 2930 NONAME
 ?GetInterfaceMap@CRichEditView@@MEBAPEBUAFX_INTERFACEMAP@@XZ @ 2931 NONAME
 ?GetInterfaceMap@CWnd@@MEBAPEBUAFX_INTERFACEMAP@@XZ @ 2932 NONAME
 ?GetIRichEditOle@CRichEditCtrl@@QEBAPEAUIRichEditOle@@XZ @ 2933 NONAME
 ?GetItem@CComboBoxEx@@QEAAHPEAUtagCOMBOBOXEXITEMW@@@Z @ 2934 NONAME
 ?GetItemClipRect@COleServerDoc@@QEBAXPEAUtagRECT@@@Z @ 2935 NONAME
 ?GetItemData@CListCtrl@@QEBA_KH@Z @ 2936 NONAME
 ?GetItemData@CTreeCtrl@@QEBA_KPEAU_TREEITEM@@@Z @ 2937 NONAME
 ?GetItemExpandedImageIndex@CTreeCtrl@@QEBAHPEAU_TREEITEM@@@Z @ 2938 NONAME
 ?GetItemID@CStatusBar@@QEBAIH@Z @ 2939 NONAME
 ?GetItemID@CToolBar@@QEBAIH@Z @ 2940 NONAME
 ?GetItemImage@CTreeCtrl@@QEBAHPEAU_TREEITEM@@AEAH1@Z @ 2941 NONAME
 ?GetItemName@COleClientItem@@QEBAXPEA_W@Z @ 2942 NONAME
 ?GetItemName@COleClientItem@@QEBAXPEA_WI@Z @ 2943 NONAME
 ?GetItemPartRect@CTreeCtrl@@QEAAHPEAU_TREEITEM@@W4_TVITEMPART@@PEAUtagRECT@@@Z @ 2944 NONAME
 ?GetItemPosition@COleServerDoc@@QEBAXPEAUtagRECT@@@Z @ 2945 NONAME
 ?GetItemRect@CListCtrl@@QEBAHHPEAUtagRECT@@I@Z @ 2946 NONAME
 ?GetItemRect@CStatusBar@@QEBAXHPEAUtagRECT@@@Z @ 2947 NONAME
 ?GetItemRect@CToolBar@@UEBAXHPEAUtagRECT@@@Z @ 2948 NONAME
 ?GetItemRect@CTreeCtrl@@QEBAHPEAU_TREEITEM@@PEAUtagRECT@@H@Z @ 2949 NONAME
 ?GetItemState@CTabCtrl@@QEBAKHK@Z @ 2950 NONAME
 ?GetItemState@CTreeCtrl@@QEBAIPEAU_TREEITEM@@I@Z @ 2951 NONAME
 ?GetItemStateEx@CTreeCtrl@@QEBAIPEAU_TREEITEM@@@Z @ 2952 NONAME
 ?GetItemStorage@COleClientItem@@UEAAXXZ @ 2953 NONAME
 ?GetItemStorageCompound@COleClientItem@@QEAAXXZ @ 2954 NONAME
 ?GetItemStorageFlat@COleClientItem@@QEAAXXZ @ 2955 NONAME
 ?GetItemText@CListCtrl@@QEBA?AV?$CStringT@_WV?$StrTraitMFC_DLL@_WV?$ChTraitsCRT@_W@ATL@@@@@ATL@@HH@Z @ 2956 NONAME
 ?GetItemText@CListCtrl@@QEBAHHHPEA_WH@Z @ 2957 NONAME
 ?GetItemText@CTreeCtrl@@QEBA?AV?$CStringT@_WV?$StrTraitMFC_DLL@_WV?$ChTraitsCRT@_W@ATL@@@@@ATL@@PEAU_TREEITEM@@@Z @ 2958 NONAME
 ?GetKeyName@CHotKeyCtrl@@SA?AV?$CStringT@_WV?$StrTraitMFC_DLL@_WV?$ChTraitsCRT@_W@ATL@@@@@ATL@@IH@Z @ 2959 NONAME
 ?GetLastAccessTime@CFileFind@@UEBAHAEAVCTime@ATL@@@Z @ 2960 NONAME
 ?GetLastAccessTime@CFileFind@@UEBAHPEAU_FILETIME@@@Z @ 2961 NONAME
 ?GetLastAccessTime@CGopherFileFind@@UEBAHAEAVCTime@ATL@@@Z @ 2962 NONAME
 ?GetLastAccessTime@CGopherFileFind@@UEBAHPEAU_FILETIME@@@Z @ 2963 NONAME
 ?GetLastUpdate@COleUILinkInfo@@UEAAJKPEAU_FILETIME@@@Z @ 2964 NONAME
 ?GetLastWriteTime@CFileFind@@UEBAHAEAVCTime@ATL@@@Z @ 2965 NONAME
 ?GetLastWriteTime@CFileFind@@UEBAHPEAU_FILETIME@@@Z @ 2966 NONAME
 ?GetLastWriteTime@CGopherFileFind@@UEBAHAEAVCTime@ATL@@@Z @ 2967 NONAME
 ?GetLastWriteTime@CGopherFileFind@@UEBAHPEAU_FILETIME@@@Z @ 2968 NONAME
 ?GetLayout@CDC@@QEBAKXZ @ 2969 NONAME
 ?GetLBFetchSize@CRecordset@@MEAA_J_J@Z @ 2970 NONAME
 ?GetLBound@COleSafeArray@@QEAAXKPEAJ@Z @ 2971 NONAME
 ?GetLBReallocSize@CRecordset@@MEAA_J_J@Z @ 2972 NONAME
 ?GetLBText@CComboBox@@QEBAXHAEAV?$CStringT@_WV?$StrTraitMFC_DLL@_WV?$ChTraitsCRT@_W@ATL@@@@@ATL@@@Z @ 2973 NONAME
 ?GetLeft@CHtmlView@@QEBAJXZ @ 2974 NONAME
 ?GetLength@?$CSimpleStringT@_W$00@ATL@@QEBAHXZ @ 2975 NONAME
 ?GetLength@?$CSimpleStringT@D$00@ATL@@QEBAHXZ @ 2976 NONAME
 ?GetLength@CFile@@UEBA_KXZ @ 2977 NONAME
 ?GetLength@CFileFind@@QEBA_KXZ @ 2978 NONAME
 ?GetLength@CGopherFileFind@@UEBA_KXZ @ 2979 NONAME
 ?GetLength@CInternetFile@@UEBA_KXZ @ 2980 NONAME
 ?GetLength@CMemFile@@UEBA_KXZ @ 2981 NONAME
 ?GetLength@COleStreamFile@@UEBA_KXZ @ 2982 NONAME
 ?GetLength@CSocketFile@@UEBA_KXZ @ 2983 NONAME
 ?GetLength@CStdioFile@@UEBA_KXZ @ 2984 NONAME
 ?GetLicenseKey@COleObjectFactory@@MEAAHKPEAPEA_W@Z @ 2985 NONAME
 ?GetLicInfo@XClassFactory@COleObjectFactory@@UEAAJPEAUtagLICINFO@@@Z @ 2986 NONAME
 ?GetLine@CRichEditCtrl@@QEBAHHPEA_W@Z @ 2987 NONAME
 ?GetLine@CRichEditCtrl@@QEBAHHPEA_WH@Z @ 2988 NONAME
 ?GetLinkItem@COleUILinkInfo@@AEAAPEAVCOleClientItem@@K@Z @ 2989 NONAME
 ?GetLinkSource@COleUILinkInfo@@UEAAJKPEAPEA_WPEAK00PEAH2@Z @ 2990 NONAME
 ?GetLinkSourceData@COleClientItem@@IEAAHPEAUtagSTGMEDIUM@@@Z @ 2991 NONAME
 ?GetLinkSourceData@COleServerItem@@QEAAHPEAUtagSTGMEDIUM@@@Z @ 2992 NONAME
 ?GetLinkUpdateOptions@COleClientItem@@QEAA?AW4tagOLEUPDATE@@XZ @ 2993 NONAME
 ?GetLinkUpdateOptions@COleUILinkInfo@@UEAAJKPEAK@Z @ 2994 NONAME
 ?GetList@CPropertySection@@QEAAPEAVCPtrList@@XZ @ 2995 NONAME
 ?GetList@CPropertySet@@QEAAPEAVCPtrList@@XZ @ 2996 NONAME
 ?GetLocationName@CHtmlView@@QEBA?AV?$CStringT@_WV?$StrTraitMFC_DLL@_WV?$ChTraitsCRT@_W@ATL@@@@@ATL@@XZ @ 2997 NONAME
 ?GetLocationURL@CHtmlView@@QEBA?AV?$CStringT@_WV?$StrTraitMFC_DLL@_WV?$ChTraitsCRT@_W@ATL@@@@@ATL@@XZ @ 2998 NONAME
 ?GetLocator@CGopherFileFind@@QEBA?AVCGopherLocator@@XZ @ 2999 NONAME
 ?GetLongBinaryData@CFieldExchange@@QEAAXHAEAVCLongBinary@@PEA_J@Z @ 3000 NONAME
 ?GetLongBinaryDataAndCleanup@CRecordset@@SAXPEAVCDatabase@@PEAXF_JPEAPEAX2AEAVCDBVariant@@F@Z @ 3001 NONAME
 ?GetLongBinarySize@CFieldExchange@@QEAA_JH@Z @ 3002 NONAME
 ?GetLongCharDataAndCleanup@CRecordset@@SAXPEAVCDatabase@@PEAXF_JPEAPEAX2AEAV?$CStringT@_WV?$StrTraitMFC_DLL@_WV?$ChTraitsCRT@_W@ATL@@@@@ATL@@FF@Z @ 3003 NONAME
 ?GetLongCharDataAndCleanup@CRecordset@@SAXPEAVCDatabase@@PEAXF_JPEAPEAX2AEAV?$CStringT@DV?$StrTraitMFC_DLL@DV?$ChTraitsCRT@D@ATL@@@@@ATL@@FF@Z @ 3004 NONAME
 ?GetMainWnd@CWinThread@@UEAAPEAVCWnd@@XZ @ 3005 NONAME
 ?GetManager@?$CSimpleStringT@_W$00@ATL@@QEBAPEAUIAtlStringMgr@2@XZ @ 3006 NONAME
 ?GetManager@?$CSimpleStringT@D$00@ATL@@QEBAPEAUIAtlStringMgr@2@XZ @ 3007 NONAME
 ?GetManager@?$CStringT@_WV?$StrTraitMFC_DLL@_WV?$ChTraitsCRT@_W@ATL@@@@@ATL@@QEBAPEAUIAtlStringMgr@2@XZ @ 3008 NONAME
 ?GetManager@?$CStringT@DV?$StrTraitMFC_DLL@DV?$ChTraitsCRT@D@ATL@@@@@ATL@@QEBAPEAUIAtlStringMgr@2@XZ @ 3009 NONAME
 ?GetMargins@CPageSetupDialog@@QEBAXPEAUtagRECT@@0@Z @ 3010 NONAME
 ?GetMaxConnections@CConnectionPoint@@UEAAHXZ @ 3011 NONAME
 ?GetMDIFrame@CMDIChildWnd@@QEAAPEAVCMDIFrameWnd@@XZ @ 3012 NONAME
 ?GetMenu@CFrameWnd@@UEBAPEAVCMenu@@XZ @ 3013 NONAME
 ?GetMenu@CWnd@@UEBAPEAVCMenu@@XZ @ 3014 NONAME
 ?GetMenuBar@CHtmlView@@QEBAHXZ @ 3015 NONAME
 ?GetMenuBarInfo@CFrameWnd@@QEBAHJJPEAUtagMENUBARINFO@@@Z @ 3016 NONAME
 ?GetMenuBarState@CFrameWnd@@UEBAKXZ @ 3017 NONAME
 ?GetMenuBarVisibility@CFrameWnd@@UEBAKXZ @ 3018 NONAME
 ?GetMenuStringW@CMenu@@QEBAHIAEAV?$CStringT@_WV?$StrTraitMFC_DLL@_WV?$ChTraitsCRT@_W@ATL@@@@@ATL@@I@Z @ 3019 NONAME
 ?GetMessageBar@CFrameWnd@@UEAAPEAVCWnd@@XZ @ 3020 NONAME
 ?GetMessageBar@CMDIChildWnd@@MEAAPEAVCWnd@@XZ @ 3021 NONAME
 ?GetMessageMap@CCheckListBox@@MEBAPEBUAFX_MSGMAP@@XZ @ 3022 NONAME
 ?GetMessageMap@CCmdTarget@@MEBAPEBUAFX_MSGMAP@@XZ @ 3023 NONAME
 ?GetMessageMap@CCommonDialog@@MEBAPEBUAFX_MSGMAP@@XZ @ 3024 NONAME
 ?GetMessageMap@CControlBar@@MEBAPEBUAFX_MSGMAP@@XZ @ 3025 NONAME
 ?GetMessageMap@CControlFrameWnd@@MEBAPEBUAFX_MSGMAP@@XZ @ 3026 NONAME
 ?GetMessageMap@CCtrlView@@MEBAPEBUAFX_MSGMAP@@XZ @ 3027 NONAME
 ?GetMessageMap@CDHtmlDialog@@MEBAPEBUAFX_MSGMAP@@XZ @ 3028 NONAME
 ?GetMessageMap@CDialog@@MEBAPEBUAFX_MSGMAP@@XZ @ 3029 NONAME
 ?GetMessageMap@CDialogBar@@MEBAPEBUAFX_MSGMAP@@XZ @ 3030 NONAME
 ?GetMessageMap@CDockBar@@MEBAPEBUAFX_MSGMAP@@XZ @ 3031 NONAME
 ?GetMessageMap@CDocObjectServer@@MEBAPEBUAFX_MSGMAP@@XZ @ 3032 NONAME
 ?GetMessageMap@CDocument@@MEBAPEBUAFX_MSGMAP@@XZ @ 3033 NONAME
 ?GetMessageMap@CEditView@@MEBAPEBUAFX_MSGMAP@@XZ @ 3034 NONAME
 ?GetMessageMap@CFormView@@MEBAPEBUAFX_MSGMAP@@XZ @ 3035 NONAME
 ?GetMessageMap@CFrameWnd@@MEBAPEBUAFX_MSGMAP@@XZ @ 3036 NONAME
 ?GetMessageMap@CHtmlEditView@@MEBAPEBUAFX_MSGMAP@@XZ @ 3037 NONAME
 ?GetMessageMap@CHtmlView@@MEBAPEBUAFX_MSGMAP@@XZ @ 3038 NONAME
 ?GetMessageMap@CListCtrl@@MEBAPEBUAFX_MSGMAP@@XZ @ 3039 NONAME
 ?GetMessageMap@CListView@@MEBAPEBUAFX_MSGMAP@@XZ @ 3040 NONAME
 ?GetMessageMap@CMDIChildWnd@@MEBAPEBUAFX_MSGMAP@@XZ @ 3041 NONAME
 ?GetMessageMap@CMDIFrameWnd@@MEBAPEBUAFX_MSGMAP@@XZ @ 3042 NONAME
 ?GetMessageMap@CMiniDockFrameWnd@@MEBAPEBUAFX_MSGMAP@@XZ @ 3043 NONAME
 ?GetMessageMap@CMiniFrameWnd@@MEBAPEBUAFX_MSGMAP@@XZ @ 3044 NONAME
 ?GetMessageMap@COleControl@@MEBAPEBUAFX_MSGMAP@@XZ @ 3045 NONAME
 ?GetMessageMap@COleDBRecordView@@MEBAPEBUAFX_MSGMAP@@XZ @ 3046 NONAME
 ?GetMessageMap@COleDocIPFrameWnd@@MEBAPEBUAFX_MSGMAP@@XZ @ 3047 NONAME
 ?GetMessageMap@COleIPFrameWnd@@MEBAPEBUAFX_MSGMAP@@XZ @ 3048 NONAME
 ?GetMessageMap@COlePropertyPage@@MEBAPEBUAFX_MSGMAP@@XZ @ 3049 NONAME
 ?GetMessageMap@COleResizeBar@@MEBAPEBUAFX_MSGMAP@@XZ @ 3050 NONAME
 ?GetMessageMap@COleServerDoc@@MEBAPEBUAFX_MSGMAP@@XZ @ 3051 NONAME
 ?GetMessageMap@CPreviewView@@MEBAPEBUAFX_MSGMAP@@XZ @ 3052 NONAME
 ?GetMessageMap@CPrintDialog@@MEBAPEBUAFX_MSGMAP@@XZ @ 3053 NONAME
 ?GetMessageMap@CPrintDialogEx@@MEBAPEBUAFX_MSGMAP@@XZ @ 3054 NONAME
 ?GetMessageMap@CPropertyPage@@MEBAPEBUAFX_MSGMAP@@XZ @ 3055 NONAME
 ?GetMessageMap@CPropertySheet@@MEBAPEBUAFX_MSGMAP@@XZ @ 3056 NONAME
 ?GetMessageMap@CReBar@@MEBAPEBUAFX_MSGMAP@@XZ @ 3057 NONAME
 ?GetMessageMap@CRecordView@@MEBAPEBUAFX_MSGMAP@@XZ @ 3058 NONAME
 ?GetMessageMap@CRichEditView@@MEBAPEBUAFX_MSGMAP@@XZ @ 3059 NONAME
 ?GetMessageMap@CScrollView@@MEBAPEBUAFX_MSGMAP@@XZ @ 3060 NONAME
 ?GetMessageMap@CSocketWnd@@MEBAPEBUAFX_MSGMAP@@XZ @ 3061 NONAME
 ?GetMessageMap@CSplitButton@@MEBAPEBUAFX_MSGMAP@@XZ @ 3062 NONAME
 ?GetMessageMap@CSplitterWnd@@MEBAPEBUAFX_MSGMAP@@XZ @ 3063 NONAME
 ?GetMessageMap@CStatusBar@@MEBAPEBUAFX_MSGMAP@@XZ @ 3064 NONAME
 ?GetMessageMap@CTabCtrl@@MEBAPEBUAFX_MSGMAP@@XZ @ 3065 NONAME
 ?GetMessageMap@CToolBar@@MEBAPEBUAFX_MSGMAP@@XZ @ 3066 NONAME
 ?GetMessageMap@CToolBarCtrl@@MEBAPEBUAFX_MSGMAP@@XZ @ 3067 NONAME
 ?GetMessageMap@CToolTipCtrl@@MEBAPEBUAFX_MSGMAP@@XZ @ 3068 NONAME
 ?GetMessageMap@CTreeCtrl@@MEBAPEBUAFX_MSGMAP@@XZ @ 3069 NONAME
 ?GetMessageMap@CTreeView@@MEBAPEBUAFX_MSGMAP@@XZ @ 3070 NONAME
 ?GetMessageMap@CView@@MEBAPEBUAFX_MSGMAP@@XZ @ 3071 NONAME
 ?GetMessageMap@CWinApp@@MEBAPEBUAFX_MSGMAP@@XZ @ 3072 NONAME
 ?GetMessageMap@CWnd@@MEBAPEBUAFX_MSGMAP@@XZ @ 3073 NONAME
 ?GetMessageString@CFrameWnd@@UEBAXIAEAV?$CStringT@_WV?$StrTraitMFC_DLL@_WV?$ChTraitsCRT@_W@ATL@@@@@ATL@@@Z @ 3074 NONAME
 ?GetMessageString@COleControl@@UEBAXIAEAV?$CStringT@_WV?$StrTraitMFC_DLL@_WV?$ChTraitsCRT@_W@ATL@@@@@ATL@@@Z @ 3075 NONAME
 ?GetMetaData@CDataSourceControl@@QEAAJXZ @ 3076 NONAME
 ?GetMetafileData@COleControl@@IEAAHPEAUtagFORMATETC@@PEAUtagSTGMEDIUM@@@Z @ 3077 NONAME
 ?GetMetafileData@COleServerItem@@MEAAHPEAUtagFORMATETC@@PEAUtagSTGMEDIUM@@@Z @ 3078 NONAME
 ?GetMiscStatus@XOleObject@CDocObjectServer@@UEAAJKPEAK@Z @ 3079 NONAME
 ?GetMiscStatus@XOleObject@COleControl@@UEAAJKPEAK@Z @ 3080 NONAME
 ?GetMiscStatus@XOleObject@COleServerDoc@@UEAAJKPEAK@Z @ 3081 NONAME
 ?GetMiscStatus@XOleObject@COleServerItem@@UEAAJKPEAK@Z @ 3082 NONAME
 ?GetModifyPointers@CRectTracker@@IEAAXHPEAPEAH0PEAH1@Z @ 3083 NONAME
 ?GetMoniker@COleDocument@@UEAAPEAUIMoniker@@W4tagOLEGETMONIKER@@@Z @ 3084 NONAME
 ?GetMoniker@COleLinkingDoc@@UEAAPEAUIMoniker@@W4tagOLEGETMONIKER@@@Z @ 3085 NONAME
 ?GetMoniker@COleServerDoc@@UEAAPEAUIMoniker@@W4tagOLEGETMONIKER@@@Z @ 3086 NONAME
 ?GetMoniker@COleServerItem@@QEAAPEAUIMoniker@@W4tagOLEGETMONIKER@@@Z @ 3087 NONAME
 ?GetMoniker@XOleClientSite@COleClientItem@@UEAAJKKPEAPEAUIMoniker@@@Z @ 3088 NONAME
 ?GetMoniker@XOleClientSite@COleControlSite@@UEAAJKKPEAPEAUIMoniker@@@Z @ 3089 NONAME
 ?GetMoniker@XOleObject@CDocObjectServer@@UEAAJKKPEAPEAUIMoniker@@@Z @ 3090 NONAME
 ?GetMoniker@XOleObject@COleControl@@UEAAJKKPEAPEAUIMoniker@@@Z @ 3091 NONAME
 ?GetMoniker@XOleObject@COleServerDoc@@UEAAJKKPEAPEAUIMoniker@@@Z @ 3092 NONAME
 ?GetMoniker@XOleObject@COleServerItem@@UEAAJKKPEAPEAUIMoniker@@@Z @ 3093 NONAME
 ?GetMonthRange@CMonthCalCtrl@@QEBAHAEAVCOleDateTime@ATL@@0K@Z @ 3094 NONAME
 ?GetMonthRange@CMonthCalCtrl@@QEBAHAEAVCTime@ATL@@0K@Z @ 3095 NONAME
 ?GetMonthRange@CMonthCalCtrl@@QEBAHPEAU_SYSTEMTIME@@0K@Z @ 3096 NONAME
 ?GetNaturalExtent@XViewObject@COleControl@@UEAAJKJPEAUtagDVTARGETDEVICE@@PEAUHDC__@@PEAUtagExtentInfo@@PEAUtagSIZE@@@Z @ 3097 NONAME
 ?GetNewItemNumber@COleClientItem@@QEAAKXZ @ 3098 NONAME
 ?GetNewStorage@XRichEditOleCallback@CRichEditView@@UEAAJPEAPEAUIStorage@@@Z @ 3099 NONAME
 ?GetNext@CDataBoundProperty@@QEAAPEAV1@XZ @ 3100 NONAME
 ?GetNextAssoc@CMapPtrToPtr@@QEBAXAEAPEAU__POSITION@@AEAPEAX1@Z @ 3101 NONAME
 ?GetNextAssoc@CMapPtrToWord@@QEBAXAEAPEAU__POSITION@@AEAPEAXAEAG@Z @ 3102 NONAME
 ?GetNextAssoc@CMapStringToOb@@QEBAXAEAPEAU__POSITION@@AEAV?$CStringT@_WV?$StrTraitMFC_DLL@_WV?$ChTraitsCRT@_W@ATL@@@@@ATL@@AEAPEAVCObject@@@Z @ 3103 NONAME
 ?GetNextAssoc@CMapStringToPtr@@QEBAXAEAPEAU__POSITION@@AEAV?$CStringT@_WV?$StrTraitMFC_DLL@_WV?$ChTraitsCRT@_W@ATL@@@@@ATL@@AEAPEAX@Z @ 3104 NONAME
 ?GetNextAssoc@CMapStringToString@@QEBAXAEAPEAU__POSITION@@AEAV?$CStringT@_WV?$StrTraitMFC_DLL@_WV?$ChTraitsCRT@_W@ATL@@@@@ATL@@1@Z @ 3105 NONAME
 ?GetNextAssoc@CMapWordToOb@@QEBAXAEAPEAU__POSITION@@AEAGAEAPEAVCObject@@@Z @ 3106 NONAME
 ?GetNextAssoc@CMapWordToPtr@@QEBAXAEAPEAU__POSITION@@AEAGAEAPEAX@Z @ 3107 NONAME
 ?GetNextClientItem@COleDocument@@QEBAPEAVCOleClientItem@@AEAPEAU__POSITION@@@Z @ 3108 NONAME
 ?GetNextConnection@CConnectionPoint@@QEBAPEAUIUnknown@@AEAPEAU__POSITION@@@Z @ 3109 NONAME
 ?GetNextDlgGroupItem@CWnd@@QEBAPEAUCOleControlSiteOrWnd@@PEAU2@@Z @ 3110 NONAME
 ?GetNextDlgTabItem@CWnd@@QEBAPEAUCOleControlSiteOrWnd@@PEAU2@H@Z @ 3111 NONAME
 ?GetNextDoc@CMultiDocTemplate@@UEBAPEAVCDocument@@AEAPEAU__POSITION@@@Z @ 3112 NONAME
 ?GetNextDoc@CSingleDocTemplate@@UEBAPEAVCDocument@@AEAPEAU__POSITION@@@Z @ 3113 NONAME
 ?GetNextDocTemplate@CDocManager@@UEBAPEAVCDocTemplate@@AEAPEAU__POSITION@@@Z @ 3114 NONAME
 ?GetNextDocTemplate@CWinApp@@QEBAPEAVCDocTemplate@@AEAPEAU__POSITION@@@Z @ 3115 NONAME
 ?GetNextFormat@COleDataObject@@QEAAHPEAUtagFORMATETC@@@Z @ 3116 NONAME
 ?GetNextItem@COleDocument@@UEBAPEAVCDocItem@@AEAPEAU__POSITION@@@Z @ 3117 NONAME
 ?GetNextItemOfKind@COleDocument@@IEBAPEAVCDocItem@@AEAPEAU__POSITION@@PEAUCRuntimeClass@@@Z @ 3118 NONAME
 ?GetNextLink@COleUILinkInfo@@UEAAKK@Z @ 3119 NONAME
 ?GetNextPathName@CFileDialog@@QEBA?AV?$CStringT@_WV?$StrTraitMFC_DLL@_WV?$ChTraitsCRT@_W@ATL@@@@@ATL@@AEAPEAU__POSITION@@@Z @ 3120 NONAME
 ?GetNextServerItem@COleDocument@@QEBAPEAVCOleServerItem@@AEAPEAU__POSITION@@@Z @ 3121 NONAME
 ?GetNextView@CDocument@@UEBAPEAVCView@@AEAPEAU__POSITION@@@Z @ 3122 NONAME
 ?GetNilString@CAfxStringMgr@@UEAAPEAUCStringData@ATL@@XZ @ 3123 NONAME
 ?GetNotifier@CFindReplaceDialog@@SAPEAV1@_J@Z @ 3124 NONAME
 ?GetNotSupported@CCmdTarget@@QEAAXXZ @ 3125 NONAME
 ?GetNotSupported@COleControl@@QEAAXXZ @ 3126 NONAME
 ?GetObjectArray@COlePropertyPage@@QEAAPEAPEAUIDispatch@@PEAK@Z @ 3127 NONAME
 ?GetObjectDescriptorData@COleClientItem@@IEAAXPEAUtagPOINT@@PEAUtagSIZE@@PEAUtagSTGMEDIUM@@@Z @ 3128 NONAME
 ?GetObjectDescriptorData@COleServerItem@@QEAAXPEAUtagPOINT@@PEAUtagSIZE@@PEAUtagSTGMEDIUM@@@Z @ 3129 NONAME
 ?GetObjectInfo@XOleUIObjInfo@COlePropertiesDialog@@UEAAJKPEAKPEAPEA_W111@Z @ 3130 NONAME
 ?GetObjectSchema@CArchive@@QEAAIXZ @ 3131 NONAME
 ?GetObjectStorage@XOleItemContainer@COleLinkingDoc@@UEAAJPEA_WPEAUIBindCtx@@AEBU_GUID@@PEAPEAX@Z @ 3132 NONAME
 ?GetObjectW@CHttpFile@@QEBA?AV?$CStringT@_WV?$StrTraitMFC_DLL@_WV?$ChTraitsCRT@_W@ATL@@@@@ATL@@XZ @ 3133 NONAME
 ?GetObjectW@XOleItemContainer@COleLinkingDoc@@UEAAJPEA_WKPEAUIBindCtx@@AEBU_GUID@@PEAPEAX@Z @ 3134 NONAME
 ?GetOccDialogInfo@CDialog@@MEAAPEAU_AFX_OCC_DIALOG_INFO@@XZ @ 3135 NONAME
 ?GetOccDialogInfo@CFormView@@MEAAPEAU_AFX_OCC_DIALOG_INFO@@XZ @ 3136 NONAME
 ?GetOccDialogInfo@CWnd@@MEAAPEAU_AFX_OCC_DIALOG_INFO@@XZ @ 3137 NONAME
 ?GetODBCFieldInfo@CRecordset@@QEAAXFAEAUCODBCFieldInfo@@@Z @ 3138 NONAME
 ?GetODBCFieldInfo@CRecordset@@QEAAXPEB_WAEAUCODBCFieldInfo@@@Z @ 3139 NONAME
 ?GetOffline@CHtmlView@@QEBAHXZ @ 3140 NONAME
 ?GetOFN@CFileDialog@@QEAAAEAUtagOFNW@@XZ @ 3141 NONAME
 ?GetOFN@CFileDialog@@QEBAAEBUtagOFNW@@XZ @ 3142 NONAME
 ?GetOleControlSite@CWnd@@QEBAPEAVCOleControlSite@@I@Z @ 3143 NONAME
 ?GetOleObject@COleServerItem@@QEAAPEAUIOleObject@@XZ @ 3144 NONAME
 ?GetOneDimSize@COleSafeArray@@QEAAKXZ @ 3145 NONAME
 ?GetOpenDocumentCount@CDocManager@@UEAAHXZ @ 3146 NONAME
 ?GetOpenDocumentCount@CWinApp@@QEAAHXZ @ 3147 NONAME
 ?GetOptionKeyPath@CBrowserControlSite@@MEAAJPEAPEA_WK@Z @ 3148 NONAME
 ?GetOptionKeyPath@CDHtmlDialog@@UEAAJPEAPEA_WK@Z @ 3149 NONAME
 ?GetOptionKeyPath@XDocHostUIHandler@CHtmlControlSite@@UEAAJPEAPEA_WK@Z @ 3150 NONAME
 ?GetOrderArray@CHeaderCtrl@@QEBAHPEAHH@Z @ 3151 NONAME
 ?GetOSVersion@CPropertySet@@QEAAKXZ @ 3152 NONAME
 ?GetOuterWindow@COleControl@@IEBAPEAVCWnd@@XZ @ 3153 NONAME
 ?GetPageCount@COleDocObjectItem@@QEAAHPEAJ0@Z @ 3154 NONAME
 ?GetPageCount@CPropertySheet@@QEBAHXZ @ 3155 NONAME
 ?GetPageIndex@CPropertySheet@@QEAAHPEAVCPropertyPage@@@Z @ 3156 NONAME
 ?GetPageInfo@XPrint@CDocObjectServer@@UEAAJPEAJ0@Z @ 3157 NONAME
 ?GetPageInfo@XPropertyPage@COlePropertyPage@@UEAAJPEAUtagPROPPAGEINFO@@@Z @ 3158 NONAME
 ?GetPages@XSpecifyPropertyPages@COleControl@@UEAAJPEAUtagCAUUID@@@Z @ 3159 NONAME
 ?GetPageSite@COlePropertyPage@@QEAAPEAUIPropertyPageSite@@XZ @ 3160 NONAME
 ?GetPane@CSplitterWnd@@QEBAPEAVCWnd@@HH@Z @ 3161 NONAME
 ?GetPaneInfo@CStatusBar@@QEBAXHAEAI0AEAH@Z @ 3162 NONAME
 ?GetPaneStyle@CStatusBar@@QEBAIH@Z @ 3163 NONAME
 ?GetPaneText@CStatusBar@@QEBA?AV?$CStringT@_WV?$StrTraitMFC_DLL@_WV?$ChTraitsCRT@_W@ATL@@@@@ATL@@H@Z @ 3164 NONAME
 ?GetPaneText@CStatusBar@@QEBAXHAEAV?$CStringT@_WV?$StrTraitMFC_DLL@_WV?$ChTraitsCRT@_W@ATL@@@@@ATL@@@Z @ 3165 NONAME
 ?GetParaFormat@CRichEditCtrl@@QEBAKAEAU_paraformat@@@Z @ 3166 NONAME
 ?GetParaFormat@CRichEditCtrl@@QEBAKAEAUPARAFORMAT2@@@Z @ 3167 NONAME
 ?GetParaFormatSelection@CRichEditView@@QEAAAEAUPARAFORMAT2@@XZ @ 3168 NONAME
 ?GetParentBrowser@CHtmlView@@QEBAPEAUIDispatch@@XZ @ 3169 NONAME
 ?GetParentFrame@CWnd@@QEBAPEAVCFrameWnd@@XZ @ 3170 NONAME
 ?GetParentOwner@CWnd@@QEBAPEAV1@XZ @ 3171 NONAME
 ?GetParentSplitter@CView@@SAPEAVCSplitterWnd@@PEBVCWnd@@H@Z @ 3172 NONAME
 ?GetPathName@CFileDialog@@QEBA?AV?$CStringT@_WV?$StrTraitMFC_DLL@_WV?$ChTraitsCRT@_W@ATL@@@@@ATL@@XZ @ 3173 NONAME
 ?GetPeerName@CAsyncSocket@@QEAAHAEAV?$CStringT@_WV?$StrTraitMFC_DLL@_WV?$ChTraitsCRT@_W@ATL@@@@@ATL@@AEAI@Z @ 3174 NONAME
 ?GetPictureDispatch@CPictureHolder@@QEAAPEAUIPictureDisp@@XZ @ 3175 NONAME
 ?GetPortName@CPageSetupDialog@@QEBA?AV?$CStringT@_WV?$StrTraitMFC_DLL@_WV?$ChTraitsCRT@_W@ATL@@@@@ATL@@XZ @ 3176 NONAME
 ?GetPortName@CPrintDialog@@QEBA?AV?$CStringT@_WV?$StrTraitMFC_DLL@_WV?$ChTraitsCRT@_W@ATL@@@@@ATL@@XZ @ 3177 NONAME
 ?GetPortName@CPrintDialogEx@@QEBA?AV?$CStringT@_WV?$StrTraitMFC_DLL@_WV?$ChTraitsCRT@_W@ATL@@@@@ATL@@XZ @ 3178 NONAME
 ?GetPosition@CFile@@UEBA_KXZ @ 3179 NONAME
 ?GetPosition@CMemFile@@UEBA_KXZ @ 3180 NONAME
 ?GetPosition@COleStreamFile@@UEBA_KXZ @ 3181 NONAME
 ?GetPosition@CSocketFile@@UEBA_KXZ @ 3182 NONAME
 ?GetPosition@CStdioFile@@UEBA_KXZ @ 3183 NONAME
 ?GetPredefinedStrings@XPerPropertyBrowsing@COleControl@@UEAAJJPEAUtagCALPOLESTR@@PEAUtagCADWORD@@@Z @ 3184 NONAME
 ?GetPredefinedValue@XPerPropertyBrowsing@COleControl@@UEAAJJKPEAUtagVARIANT@@@Z @ 3185 NONAME
 ?GetPrevDlgGroupItem@CWnd@@QEBAPEAUCOleControlSiteOrWnd@@PEAU2@@Z @ 3186 NONAME
 ?GetPrimarySelectedItem@COleDocument@@UEAAPEAVCOleClientItem@@PEAVCView@@@Z @ 3187 NONAME
 ?GetPrimarySelectedItem@CRichEditDoc@@UEAAPEAVCOleClientItem@@PEAVCView@@@Z @ 3188 NONAME
 ?GetPrintDeviceInfo@COleClientItem@@IEAAHPEAPEAUIOleCache@@PEAPEAUtagDVTARGETDEVICE@@PEAK@Z @ 3189 NONAME
 ?GetPrinterDeviceDefaults@CWinApp@@QEAAHPEAUtagPDW@@@Z @ 3190 NONAME
 ?GetPrinterFont@CEditView@@QEBAPEAVCFont@@XZ @ 3191 NONAME
 ?GetPriority@CAsyncMonikerFile@@MEBAJXZ @ 3192 NONAME
 ?GetProc@CThemeHelper@@CAPEAXPEBDPEAX@Z @ 3193 NONAME
 ?GetProfileBinary@CWinApp@@QEAAHPEB_W0PEAPEAEPEAI@Z @ 3194 NONAME
 ?GetProfileIntW@CWinApp@@QEAAIPEB_W0H@Z @ 3195 NONAME
 ?GetProfileStringW@CWinApp@@QEAA?AV?$CStringT@_WV?$StrTraitMFC_DLL@_WV?$ChTraitsCRT@_W@ATL@@@@@ATL@@PEB_W00@Z @ 3196 NONAME
 ?GetPropCheck@COlePropertyPage@@QEAAHPEB_WPEAH@Z @ 3197 NONAME
 ?GetProperty@CHtmlView@@QEAA?AVCOleVariant@@PEB_W@Z @ 3198 NONAME
 ?GetProperty@CHtmlView@@QEAAHPEB_WAEAV?$CStringT@_WV?$StrTraitMFC_DLL@_WV?$ChTraitsCRT@_W@ATL@@@@@ATL@@@Z @ 3199 NONAME
 ?GetProperty@COleControlSite@@UEBAXJGPEAX@Z @ 3200 NONAME
 ?GetProperty@COleDispatchDriver@@QEBAXJGPEAX@Z @ 3201 NONAME
 ?GetProperty@CPropertySection@@QEAAPEAVCProperty@@K@Z @ 3202 NONAME
 ?GetProperty@CPropertySet@@QEAAPEAVCProperty@@U_GUID@@K@Z @ 3203 NONAME
 ?GetProperty@CWnd@@QEBAXJGPEAX@Z @ 3204 NONAME
 ?GetPropIndex@COlePropertyPage@@QEAAHPEB_WPEAH@Z @ 3205 NONAME
 ?GetPropPageIDs@COleControl@@MEAAPEAU_GUID@@AEAK@Z @ 3206 NONAME
 ?GetPropRadio@COlePropertyPage@@QEAAHPEB_WPEAH@Z @ 3207 NONAME
 ?GetPropsetData@COleControl@@IEAAHPEAUtagFORMATETC@@PEAUtagSTGMEDIUM@@AEBU_GUID@@@Z @ 3208 NONAME
 ?GetPropText@COlePropertyPage@@QEAAHPEB_WPEAE@Z @ 3209 NONAME
 ?GetPropText@COlePropertyPage@@QEAAHPEB_WPEAF@Z @ 3210 NONAME
 ?GetPropText@COlePropertyPage@@QEAAHPEB_WPEAH@Z @ 3211 NONAME
 ?GetPropText@COlePropertyPage@@QEAAHPEB_WPEAI@Z @ 3212 NONAME
 ?GetPropText@COlePropertyPage@@QEAAHPEB_WPEAJ@Z @ 3213 NONAME
 ?GetPropText@COlePropertyPage@@QEAAHPEB_WPEAK@Z @ 3214 NONAME
 ?GetPropText@COlePropertyPage@@QEAAHPEB_WPEAM@Z @ 3215 NONAME
 ?GetPropText@COlePropertyPage@@QEAAHPEB_WPEAN@Z @ 3216 NONAME
 ?GetPropText@COlePropertyPage@@QEAAHPEB_WPEAV?$CStringT@_WV?$StrTraitMFC_DLL@_WV?$ChTraitsCRT@_W@ATL@@@@@ATL@@@Z @ 3217 NONAME
 ?GetPSP@CPropertyPage@@QEAAAEAU_PROPSHEETPAGEW@@XZ @ 3218 NONAME
 ?GetPSP@CPropertyPage@@QEBAAEBU_PROPSHEETPAGEW@@XZ @ 3219 NONAME
 ?GetRange@CDateTimeCtrl@@QEBAKPEAVCOleDateTime@ATL@@0@Z @ 3220 NONAME
 ?GetRange@CDateTimeCtrl@@QEBAKPEAVCTime@ATL@@0@Z @ 3221 NONAME
 ?GetRange@CMonthCalCtrl@@QEBAKPEAU_SYSTEMTIME@@0@Z @ 3222 NONAME
 ?GetRange@CMonthCalCtrl@@QEBAKPEAVCOleDateTime@ATL@@0@Z @ 3223 NONAME
 ?GetRange@CMonthCalCtrl@@QEBAKPEAVCTime@ATL@@0@Z @ 3224 NONAME
 ?GetRange@CProgressCtrl@@QEBAXAEAH0@Z @ 3225 NONAME
 ?GetRange@CSliderCtrl@@QEBAXAEAH0@Z @ 3226 NONAME
 ?GetRange@CSpinButtonCtrl@@QEBAXAEAH0@Z @ 3227 NONAME
 ?GetRawValue@CProperty@@QEAAPEAXXZ @ 3228 NONAME
 ?GetReadyState@CHtmlView@@QEBA?AW4tagREADYSTATE@@XZ @ 3229 NONAME
 ?GetReadyState@COleControl@@QEAAJXZ @ 3230 NONAME
 ?GetRect@XOleDocumentView@CDocObjectServer@@UEAAJPEAUtagRECT@@@Z @ 3231 NONAME
 ?GetRect@XViewObject@COleControl@@UEAAJKPEAU_RECTL@@@Z @ 3232 NONAME
 ?GetRectInContainer@COleControl@@QEAAHPEAUtagRECT@@@Z @ 3233 NONAME
 ?GetRegisterAsBrowser@CHtmlView@@QEBAHXZ @ 3234 NONAME
 ?GetRegisterAsDropTarget@CHtmlView@@QEBAHXZ @ 3235 NONAME
 ?GetRoot@CFileFind@@UEBA?AV?$CStringT@_WV?$StrTraitMFC_DLL@_WV?$ChTraitsCRT@_W@ATL@@@@@ATL@@XZ @ 3236 NONAME
 ?GetRoot@CGopherFileFind@@UEBA?AV?$CStringT@_WV?$StrTraitMFC_DLL@_WV?$ChTraitsCRT@_W@ATL@@@@@ATL@@XZ @ 3237 NONAME
 ?GetRoutingFrame@CCmdTarget@@IEAAPEAVCFrameWnd@@XZ @ 3238 NONAME
 ?GetRoutingFrame_@CCmdTarget@@KAPEAVCFrameWnd@@XZ @ 3239 NONAME
 ?GetRoutingView@CCmdTarget@@IEAAPEAVCView@@XZ @ 3240 NONAME
 ?GetRoutingView_@CCmdTarget@@KAPEAVCView@@XZ @ 3241 NONAME
 ?GetRowInfo@CSplitterWnd@@QEBAXHAEAH0@Z @ 3242 NONAME
 ?GetRuntimeClass@CAnimateCtrl@@UEBAPEAUCRuntimeClass@@XZ @ 3243 NONAME
 ?GetRuntimeClass@CArchiveException@@UEBAPEAUCRuntimeClass@@XZ @ 3244 NONAME
 ?GetRuntimeClass@CAsyncMonikerFile@@UEBAPEAUCRuntimeClass@@XZ @ 3245 NONAME
 ?GetRuntimeClass@CAsyncSocket@@UEBAPEAUCRuntimeClass@@XZ @ 3246 NONAME
 ?GetRuntimeClass@CBitmap@@UEBAPEAUCRuntimeClass@@XZ @ 3247 NONAME
 ?GetRuntimeClass@CBitmapButton@@UEBAPEAUCRuntimeClass@@XZ @ 3248 NONAME
 ?GetRuntimeClass@CBrush@@UEBAPEAUCRuntimeClass@@XZ @ 3249 NONAME
 ?GetRuntimeClass@CButton@@UEBAPEAUCRuntimeClass@@XZ @ 3250 NONAME
 ?GetRuntimeClass@CByteArray@@UEBAPEAUCRuntimeClass@@XZ @ 3251 NONAME
 ?GetRuntimeClass@CCachedDataPathProperty@@UEBAPEAUCRuntimeClass@@XZ @ 3252 NONAME
 ?GetRuntimeClass@CCheckListBox@@UEBAPEAUCRuntimeClass@@XZ @ 3253 NONAME
 ?GetRuntimeClass@CClientDC@@UEBAPEAUCRuntimeClass@@XZ @ 3254 NONAME
 ?GetRuntimeClass@CCmdTarget@@UEBAPEAUCRuntimeClass@@XZ @ 3255 NONAME
 ?GetRuntimeClass@CColorDialog@@UEBAPEAUCRuntimeClass@@XZ @ 3256 NONAME
 ?GetRuntimeClass@CComboBox@@UEBAPEAUCRuntimeClass@@XZ @ 3257 NONAME
 ?GetRuntimeClass@CComboBoxEx@@UEBAPEAUCRuntimeClass@@XZ @ 3258 NONAME
 ?GetRuntimeClass@CCommonDialog@@UEBAPEAUCRuntimeClass@@XZ @ 3259 NONAME
 ?GetRuntimeClass@CControlBar@@UEBAPEAUCRuntimeClass@@XZ @ 3260 NONAME
 ?GetRuntimeClass@CCriticalSection@@UEBAPEAUCRuntimeClass@@XZ @ 3261 NONAME
 ?GetRuntimeClass@CCtrlView@@UEBAPEAUCRuntimeClass@@XZ @ 3262 NONAME
 ?GetRuntimeClass@CDatabase@@UEBAPEAUCRuntimeClass@@XZ @ 3263 NONAME
 ?GetRuntimeClass@CDataPathProperty@@UEBAPEAUCRuntimeClass@@XZ @ 3264 NONAME
 ?GetRuntimeClass@CDateTimeCtrl@@UEBAPEAUCRuntimeClass@@XZ @ 3265 NONAME
 ?GetRuntimeClass@CDBException@@UEBAPEAUCRuntimeClass@@XZ @ 3266 NONAME
 ?GetRuntimeClass@CDC@@UEBAPEAUCRuntimeClass@@XZ @ 3267 NONAME
 ?GetRuntimeClass@CDHtmlDialog@@UEBAPEAUCRuntimeClass@@XZ @ 3268 NONAME
 ?GetRuntimeClass@CDialog@@UEBAPEAUCRuntimeClass@@XZ @ 3269 NONAME
 ?GetRuntimeClass@CDialogBar@@UEBAPEAUCRuntimeClass@@XZ @ 3270 NONAME
 ?GetRuntimeClass@CDocItem@@UEBAPEAUCRuntimeClass@@XZ @ 3271 NONAME
 ?GetRuntimeClass@CDockBar@@UEBAPEAUCRuntimeClass@@XZ @ 3272 NONAME
 ?GetRuntimeClass@CDockState@@UEBAPEAUCRuntimeClass@@XZ @ 3273 NONAME
 ?GetRuntimeClass@CDocManager@@UEBAPEAUCRuntimeClass@@XZ @ 3274 NONAME
 ?GetRuntimeClass@CDocObjectServer@@UEBAPEAUCRuntimeClass@@XZ @ 3275 NONAME
 ?GetRuntimeClass@CDocObjectServerItem@@UEBAPEAUCRuntimeClass@@XZ @ 3276 NONAME
 ?GetRuntimeClass@CDocTemplate@@UEBAPEAUCRuntimeClass@@XZ @ 3277 NONAME
 ?GetRuntimeClass@CDocument@@UEBAPEAUCRuntimeClass@@XZ @ 3278 NONAME
 ?GetRuntimeClass@CDragListBox@@UEBAPEAUCRuntimeClass@@XZ @ 3279 NONAME
 ?GetRuntimeClass@CDWordArray@@UEBAPEAUCRuntimeClass@@XZ @ 3280 NONAME
 ?GetRuntimeClass@CDynLinkLibrary@@UEBAPEAUCRuntimeClass@@XZ @ 3281 NONAME
 ?GetRuntimeClass@CEdit@@UEBAPEAUCRuntimeClass@@XZ @ 3282 NONAME
 ?GetRuntimeClass@CEditView@@UEBAPEAUCRuntimeClass@@XZ @ 3283 NONAME
 ?GetRuntimeClass@CEvent@@UEBAPEAUCRuntimeClass@@XZ @ 3284 NONAME
 ?GetRuntimeClass@CException@@UEBAPEAUCRuntimeClass@@XZ @ 3285 NONAME
 ?GetRuntimeClass@CFile@@UEBAPEAUCRuntimeClass@@XZ @ 3286 NONAME
 ?GetRuntimeClass@CFileDialog@@UEBAPEAUCRuntimeClass@@XZ @ 3287 NONAME
 ?GetRuntimeClass@CFileException@@UEBAPEAUCRuntimeClass@@XZ @ 3288 NONAME
 ?GetRuntimeClass@CFileFind@@UEBAPEAUCRuntimeClass@@XZ @ 3289 NONAME
 ?GetRuntimeClass@CFindReplaceDialog@@UEBAPEAUCRuntimeClass@@XZ @ 3290 NONAME
 ?GetRuntimeClass@CFont@@UEBAPEAUCRuntimeClass@@XZ @ 3291 NONAME
 ?GetRuntimeClass@CFontDialog@@UEBAPEAUCRuntimeClass@@XZ @ 3292 NONAME
 ?GetRuntimeClass@CFormView@@UEBAPEAUCRuntimeClass@@XZ @ 3293 NONAME
 ?GetRuntimeClass@CFrameWnd@@UEBAPEAUCRuntimeClass@@XZ @ 3294 NONAME
 ?GetRuntimeClass@CFtpConnection@@UEBAPEAUCRuntimeClass@@XZ @ 3295 NONAME
 ?GetRuntimeClass@CFtpFileFind@@UEBAPEAUCRuntimeClass@@XZ @ 3296 NONAME
 ?GetRuntimeClass@CGdiObject@@UEBAPEAUCRuntimeClass@@XZ @ 3297 NONAME
 ?GetRuntimeClass@CGopherConnection@@UEBAPEAUCRuntimeClass@@XZ @ 3298 NONAME
 ?GetRuntimeClass@CGopherFile@@UEBAPEAUCRuntimeClass@@XZ @ 3299 NONAME
 ?GetRuntimeClass@CGopherFileFind@@UEBAPEAUCRuntimeClass@@XZ @ 3300 NONAME
 ?GetRuntimeClass@CHeaderCtrl@@UEBAPEAUCRuntimeClass@@XZ @ 3301 NONAME
 ?GetRuntimeClass@CHotKeyCtrl@@UEBAPEAUCRuntimeClass@@XZ @ 3302 NONAME
 ?GetRuntimeClass@CHtmlEditDoc@@UEBAPEAUCRuntimeClass@@XZ @ 3303 NONAME
 ?GetRuntimeClass@CHtmlEditView@@UEBAPEAUCRuntimeClass@@XZ @ 3304 NONAME
 ?GetRuntimeClass@CHtmlView@@UEBAPEAUCRuntimeClass@@XZ @ 3305 NONAME
 ?GetRuntimeClass@CHttpConnection@@UEBAPEAUCRuntimeClass@@XZ @ 3306 NONAME
 ?GetRuntimeClass@CHttpFile@@UEBAPEAUCRuntimeClass@@XZ @ 3307 NONAME
 ?GetRuntimeClass@CImageList@@UEBAPEAUCRuntimeClass@@XZ @ 3308 NONAME
 ?GetRuntimeClass@CInternetConnection@@UEBAPEAUCRuntimeClass@@XZ @ 3309 NONAME
 ?GetRuntimeClass@CInternetException@@UEBAPEAUCRuntimeClass@@XZ @ 3310 NONAME
 ?GetRuntimeClass@CInternetFile@@UEBAPEAUCRuntimeClass@@XZ @ 3311 NONAME
 ?GetRuntimeClass@CInternetSession@@UEBAPEAUCRuntimeClass@@XZ @ 3312 NONAME
 ?GetRuntimeClass@CInvalidArgException@@UEBAPEAUCRuntimeClass@@XZ @ 3313 NONAME
 ?GetRuntimeClass@CIPAddressCtrl@@UEBAPEAUCRuntimeClass@@XZ @ 3314 NONAME
 ?GetRuntimeClass@CLinkCtrl@@UEBAPEAUCRuntimeClass@@XZ @ 3315 NONAME
 ?GetRuntimeClass@CListBox@@UEBAPEAUCRuntimeClass@@XZ @ 3316 NONAME
 ?GetRuntimeClass@CListCtrl@@UEBAPEAUCRuntimeClass@@XZ @ 3317 NONAME
 ?GetRuntimeClass@CListView@@UEBAPEAUCRuntimeClass@@XZ @ 3318 NONAME
 ?GetRuntimeClass@CLongBinary@@UEBAPEAUCRuntimeClass@@XZ @ 3319 NONAME
 ?GetRuntimeClass@CMapPtrToPtr@@UEBAPEAUCRuntimeClass@@XZ @ 3320 NONAME
 ?GetRuntimeClass@CMapPtrToWord@@UEBAPEAUCRuntimeClass@@XZ @ 3321 NONAME
 ?GetRuntimeClass@CMapStringToOb@@UEBAPEAUCRuntimeClass@@XZ @ 3322 NONAME
 ?GetRuntimeClass@CMapStringToPtr@@UEBAPEAUCRuntimeClass@@XZ @ 3323 NONAME
 ?GetRuntimeClass@CMapStringToString@@UEBAPEAUCRuntimeClass@@XZ @ 3324 NONAME
 ?GetRuntimeClass@CMapWordToOb@@UEBAPEAUCRuntimeClass@@XZ @ 3325 NONAME
 ?GetRuntimeClass@CMapWordToPtr@@UEBAPEAUCRuntimeClass@@XZ @ 3326 NONAME
 ?GetRuntimeClass@CMDIChildWnd@@UEBAPEAUCRuntimeClass@@XZ @ 3327 NONAME
 ?GetRuntimeClass@CMDIFrameWnd@@UEBAPEAUCRuntimeClass@@XZ @ 3328 NONAME
 ?GetRuntimeClass@CMemFile@@UEBAPEAUCRuntimeClass@@XZ @ 3329 NONAME
 ?GetRuntimeClass@CMemoryException@@UEBAPEAUCRuntimeClass@@XZ @ 3330 NONAME
 ?GetRuntimeClass@CMenu@@UEBAPEAUCRuntimeClass@@XZ @ 3331 NONAME
 ?GetRuntimeClass@CMetaFileDC@@UEBAPEAUCRuntimeClass@@XZ @ 3332 NONAME
 ?GetRuntimeClass@CMiniDockFrameWnd@@UEBAPEAUCRuntimeClass@@XZ @ 3333 NONAME
 ?GetRuntimeClass@CMiniFrameWnd@@UEBAPEAUCRuntimeClass@@XZ @ 3334 NONAME
 ?GetRuntimeClass@CMonikerFile@@UEBAPEAUCRuntimeClass@@XZ @ 3335 NONAME
 ?GetRuntimeClass@CMonthCalCtrl@@UEBAPEAUCRuntimeClass@@XZ @ 3336 NONAME
 ?GetRuntimeClass@CMultiDocTemplate@@UEBAPEAUCRuntimeClass@@XZ @ 3337 NONAME
 ?GetRuntimeClass@CMultiPageDHtmlDialog@@UEBAPEAUCRuntimeClass@@XZ @ 3338 NONAME
 ?GetRuntimeClass@CMutex@@UEBAPEAUCRuntimeClass@@XZ @ 3339 NONAME
 ?GetRuntimeClass@CNetAddressCtrl@@UEBAPEAUCRuntimeClass@@XZ @ 3340 NONAME
 ?GetRuntimeClass@CNotSupportedException@@UEBAPEAUCRuntimeClass@@XZ @ 3341 NONAME
 ?GetRuntimeClass@CObArray@@UEBAPEAUCRuntimeClass@@XZ @ 3342 NONAME
 ?GetRuntimeClass@CObject@@UEBAPEAUCRuntimeClass@@XZ @ 3343 NONAME
 ?GetRuntimeClass@CObList@@UEBAPEAUCRuntimeClass@@XZ @ 3344 NONAME
 ?GetRuntimeClass@COleBusyDialog@@UEBAPEAUCRuntimeClass@@XZ @ 3345 NONAME
 ?GetRuntimeClass@COleChangeIconDialog@@UEBAPEAUCRuntimeClass@@XZ @ 3346 NONAME
 ?GetRuntimeClass@COleChangeSourceDialog@@UEBAPEAUCRuntimeClass@@XZ @ 3347 NONAME
 ?GetRuntimeClass@COleClientItem@@UEBAPEAUCRuntimeClass@@XZ @ 3348 NONAME
 ?GetRuntimeClass@COleControl@@UEBAPEAUCRuntimeClass@@XZ @ 3349 NONAME
 ?GetRuntimeClass@COleControlModule@@UEBAPEAUCRuntimeClass@@XZ @ 3350 NONAME
 ?GetRuntimeClass@COleConvertDialog@@UEBAPEAUCRuntimeClass@@XZ @ 3351 NONAME
 ?GetRuntimeClass@COleDBRecordView@@UEBAPEAUCRuntimeClass@@XZ @ 3352 NONAME
 ?GetRuntimeClass@COleDialog@@UEBAPEAUCRuntimeClass@@XZ @ 3353 NONAME
 ?GetRuntimeClass@COleDispatchException@@UEBAPEAUCRuntimeClass@@XZ @ 3354 NONAME
 ?GetRuntimeClass@COleDocIPFrameWnd@@UEBAPEAUCRuntimeClass@@XZ @ 3355 NONAME
 ?GetRuntimeClass@COleDocObjectItem@@UEBAPEAUCRuntimeClass@@XZ @ 3356 NONAME
 ?GetRuntimeClass@COleDocument@@UEBAPEAUCRuntimeClass@@XZ @ 3357 NONAME
 ?GetRuntimeClass@COleException@@UEBAPEAUCRuntimeClass@@XZ @ 3358 NONAME
 ?GetRuntimeClass@COleInsertDialog@@UEBAPEAUCRuntimeClass@@XZ @ 3359 NONAME
 ?GetRuntimeClass@COleIPFrameWnd@@UEBAPEAUCRuntimeClass@@XZ @ 3360 NONAME
 ?GetRuntimeClass@COleLinkingDoc@@UEBAPEAUCRuntimeClass@@XZ @ 3361 NONAME
 ?GetRuntimeClass@COleLinksDialog@@UEBAPEAUCRuntimeClass@@XZ @ 3362 NONAME
 ?GetRuntimeClass@COleObjectFactory@@UEBAPEAUCRuntimeClass@@XZ @ 3363 NONAME
 ?GetRuntimeClass@COlePasteSpecialDialog@@UEBAPEAUCRuntimeClass@@XZ @ 3364 NONAME
 ?GetRuntimeClass@COlePropertiesDialog@@UEBAPEAUCRuntimeClass@@XZ @ 3365 NONAME
 ?GetRuntimeClass@COlePropertyPage@@UEBAPEAUCRuntimeClass@@XZ @ 3366 NONAME
 ?GetRuntimeClass@COleResizeBar@@UEBAPEAUCRuntimeClass@@XZ @ 3367 NONAME
 ?GetRuntimeClass@COleServerDoc@@UEBAPEAUCRuntimeClass@@XZ @ 3368 NONAME
 ?GetRuntimeClass@COleServerItem@@UEBAPEAUCRuntimeClass@@XZ @ 3369 NONAME
 ?GetRuntimeClass@COleStreamFile@@UEBAPEAUCRuntimeClass@@XZ @ 3370 NONAME
 ?GetRuntimeClass@COleUpdateDialog@@UEBAPEAUCRuntimeClass@@XZ @ 3371 NONAME
 ?GetRuntimeClass@CPagerCtrl@@UEBAPEAUCRuntimeClass@@XZ @ 3372 NONAME
 ?GetRuntimeClass@CPageSetupDialog@@UEBAPEAUCRuntimeClass@@XZ @ 3373 NONAME
 ?GetRuntimeClass@CPaintDC@@UEBAPEAUCRuntimeClass@@XZ @ 3374 NONAME
 ?GetRuntimeClass@CPalette@@UEBAPEAUCRuntimeClass@@XZ @ 3375 NONAME
 ?GetRuntimeClass@CPen@@UEBAPEAUCRuntimeClass@@XZ @ 3376 NONAME
 ?GetRuntimeClass@CPreviewDC@@UEBAPEAUCRuntimeClass@@XZ @ 3377 NONAME
 ?GetRuntimeClass@CPreviewView@@UEBAPEAUCRuntimeClass@@XZ @ 3378 NONAME
 ?GetRuntimeClass@CPrintDialog@@UEBAPEAUCRuntimeClass@@XZ @ 3379 NONAME
 ?GetRuntimeClass@CPrintDialogEx@@UEBAPEAUCRuntimeClass@@XZ @ 3380 NONAME
 ?GetRuntimeClass@CProgressCtrl@@UEBAPEAUCRuntimeClass@@XZ @ 3381 NONAME
 ?GetRuntimeClass@CPropertyPage@@UEBAPEAUCRuntimeClass@@XZ @ 3382 NONAME
 ?GetRuntimeClass@CPropertySheet@@UEBAPEAUCRuntimeClass@@XZ @ 3383 NONAME
 ?GetRuntimeClass@CPtrArray@@UEBAPEAUCRuntimeClass@@XZ @ 3384 NONAME
 ?GetRuntimeClass@CPtrList@@UEBAPEAUCRuntimeClass@@XZ @ 3385 NONAME
 ?GetRuntimeClass@CReBar@@UEBAPEAUCRuntimeClass@@XZ @ 3386 NONAME
 ?GetRuntimeClass@CReBarCtrl@@UEBAPEAUCRuntimeClass@@XZ @ 3387 NONAME
 ?GetRuntimeClass@CRecordset@@UEBAPEAUCRuntimeClass@@XZ @ 3388 NONAME
 ?GetRuntimeClass@CRecordView@@UEBAPEAUCRuntimeClass@@XZ @ 3389 NONAME
 ?GetRuntimeClass@CResourceException@@UEBAPEAUCRuntimeClass@@XZ @ 3390 NONAME
 ?GetRuntimeClass@CRgn@@UEBAPEAUCRuntimeClass@@XZ @ 3391 NONAME
 ?GetRuntimeClass@CRichEditCntrItem@@UEBAPEAUCRuntimeClass@@XZ @ 3392 NONAME
 ?GetRuntimeClass@CRichEditCtrl@@UEBAPEAUCRuntimeClass@@XZ @ 3393 NONAME
 ?GetRuntimeClass@CRichEditDoc@@UEBAPEAUCRuntimeClass@@XZ @ 3394 NONAME
 ?GetRuntimeClass@CRichEditView@@UEBAPEAUCRuntimeClass@@XZ @ 3395 NONAME
 ?GetRuntimeClass@CScrollBar@@UEBAPEAUCRuntimeClass@@XZ @ 3396 NONAME
 ?GetRuntimeClass@CScrollView@@UEBAPEAUCRuntimeClass@@XZ @ 3397 NONAME
 ?GetRuntimeClass@CSemaphore@@UEBAPEAUCRuntimeClass@@XZ @ 3398 NONAME
 ?GetRuntimeClass@CSharedFile@@UEBAPEAUCRuntimeClass@@XZ @ 3399 NONAME
 ?GetRuntimeClass@CSimpleException@@UEBAPEAUCRuntimeClass@@XZ @ 3400 NONAME
 ?GetRuntimeClass@CSingleDocTemplate@@UEBAPEAUCRuntimeClass@@XZ @ 3401 NONAME
 ?GetRuntimeClass@CSliderCtrl@@UEBAPEAUCRuntimeClass@@XZ @ 3402 NONAME
 ?GetRuntimeClass@CSocket@@UEBAPEAUCRuntimeClass@@XZ @ 3403 NONAME
 ?GetRuntimeClass@CSocketFile@@UEBAPEAUCRuntimeClass@@XZ @ 3404 NONAME
 ?GetRuntimeClass@CSpinButtonCtrl@@UEBAPEAUCRuntimeClass@@XZ @ 3405 NONAME
 ?GetRuntimeClass@CSplitButton@@UEBAPEAUCRuntimeClass@@XZ @ 3406 NONAME
 ?GetRuntimeClass@CSplitterWnd@@UEBAPEAUCRuntimeClass@@XZ @ 3407 NONAME
 ?GetRuntimeClass@CStatic@@UEBAPEAUCRuntimeClass@@XZ @ 3408 NONAME
 ?GetRuntimeClass@CStatusBar@@UEBAPEAUCRuntimeClass@@XZ @ 3409 NONAME
 ?GetRuntimeClass@CStatusBarCtrl@@UEBAPEAUCRuntimeClass@@XZ @ 3410 NONAME
 ?GetRuntimeClass@CStdioFile@@UEBAPEAUCRuntimeClass@@XZ @ 3411 NONAME
 ?GetRuntimeClass@CStringArray@@UEBAPEAUCRuntimeClass@@XZ @ 3412 NONAME
 ?GetRuntimeClass@CStringList@@UEBAPEAUCRuntimeClass@@XZ @ 3413 NONAME
 ?GetRuntimeClass@CSyncObject@@UEBAPEAUCRuntimeClass@@XZ @ 3414 NONAME
 ?GetRuntimeClass@CTabCtrl@@UEBAPEAUCRuntimeClass@@XZ @ 3415 NONAME
 ?GetRuntimeClass@CToolBar@@UEBAPEAUCRuntimeClass@@XZ @ 3416 NONAME
 ?GetRuntimeClass@CToolBarCtrl@@UEBAPEAUCRuntimeClass@@XZ @ 3417 NONAME
 ?GetRuntimeClass@CToolTipCtrl@@UEBAPEAUCRuntimeClass@@XZ @ 3418 NONAME
 ?GetRuntimeClass@CTreeCtrl@@UEBAPEAUCRuntimeClass@@XZ @ 3419 NONAME
 ?GetRuntimeClass@CTreeView@@UEBAPEAUCRuntimeClass@@XZ @ 3420 NONAME
 ?GetRuntimeClass@CUIntArray@@UEBAPEAUCRuntimeClass@@XZ @ 3421 NONAME
 ?GetRuntimeClass@CUserException@@UEBAPEAUCRuntimeClass@@XZ @ 3422 NONAME
 ?GetRuntimeClass@CView@@UEBAPEAUCRuntimeClass@@XZ @ 3423 NONAME
 ?GetRuntimeClass@CWinApp@@UEBAPEAUCRuntimeClass@@XZ @ 3424 NONAME
 ?GetRuntimeClass@CWindowDC@@UEBAPEAUCRuntimeClass@@XZ @ 3425 NONAME
 ?GetRuntimeClass@CWindowlessDC@@UEBAPEAUCRuntimeClass@@XZ @ 3426 NONAME
 ?GetRuntimeClass@CWinThread@@UEBAPEAUCRuntimeClass@@XZ @ 3427 NONAME
 ?GetRuntimeClass@CWnd@@UEBAPEAUCRuntimeClass@@XZ @ 3428 NONAME
 ?GetRuntimeClass@CWordArray@@UEBAPEAUCRuntimeClass@@XZ @ 3429 NONAME
 ?GetSafeOwner@CWnd@@SAPEAV1@PEAV1@PEAPEAUHWND__@@@Z @ 3430 NONAME
 ?GetSafeOwner_@CWnd@@SAPEAUHWND__@@PEAU2@PEAPEAU2@@Z @ 3431 NONAME
 ?GetSavedCustomColors@CColorDialog@@SAPEAKXZ @ 3432 NONAME
 ?GetScreenName@CGopherFileFind@@QEBA?AV?$CStringT@_WV?$StrTraitMFC_DLL@_WV?$ChTraitsCRT@_W@ATL@@@@@ATL@@XZ @ 3433 NONAME
 ?GetScreenSize@CDockState@@QEAA?AVCSize@@XZ @ 3434 NONAME
 ?GetScrollBarCtrl@CView@@UEBAPEAVCScrollBar@@H@Z @ 3435 NONAME
 ?GetScrollBarCtrl@CWnd@@UEBAPEAVCScrollBar@@H@Z @ 3436 NONAME
 ?GetScrollBarSizes@CScrollView@@IEAAXAEAVCSize@@@Z @ 3437 NONAME
 ?GetScrollBarState@CScrollView@@IEAAXVCSize@@AEAV2@1AEAVCPoint@@H@Z @ 3438 NONAME
 ?GetScrollInfo@CWnd@@QEAAHHPEAUtagSCROLLINFO@@I@Z @ 3439 NONAME
 ?GetScrollLimit@CWnd@@QEAAHH@Z @ 3440 NONAME
 ?GetScrollPos@CWnd@@QEBAHH@Z @ 3441 NONAME
 ?GetScrollPosition@CScrollView@@QEBA?AVCPoint@@XZ @ 3442 NONAME
 ?GetScrollRange@CWnd@@QEBAXHPEAH0@Z @ 3443 NONAME
 ?GetScrollStyle@CSplitterWnd@@QEBAKXZ @ 3444 NONAME
 ?GetSection@CPropertySet@@QEAAPEAVCPropertySection@@U_GUID@@@Z @ 3445 NONAME
 ?GetSectionKey@CWinApp@@QEAAPEAUHKEY__@@PEB_W@Z @ 3446 NONAME
 ?GetSectionName@CPropertySection@@QEAAPEB_WXZ @ 3447 NONAME
 ?GetSel@CRichEditCtrl@@QEBAXAEAJ0@Z @ 3448 NONAME
 ?GetSelectedItem@CRichEditView@@QEBAPEAVCRichEditCntrItem@@XZ @ 3449 NONAME
 ?GetSelectedText@CEditView@@QEBAXAEAV?$CStringT@_WV?$StrTraitMFC_DLL@_WV?$ChTraitsCRT@_W@ATL@@@@@ATL@@@Z @ 3450 NONAME
 ?GetSelection@CSliderCtrl@@QEBAXAEAH0@Z @ 3451 NONAME
 ?GetSelectionCharFormat@CRichEditCtrl@@QEBAKAEAU_charformatw@@@Z @ 3452 NONAME
 ?GetSelectionCharFormat@CRichEditCtrl@@QEBAKAEAUCHARFORMAT2W@@@Z @ 3453 NONAME
 ?GetSelectionType@COleConvertDialog@@QEBAIXZ @ 3454 NONAME
 ?GetSelectionType@COleInsertDialog@@QEBAIXZ @ 3455 NONAME
 ?GetSelectionType@COlePasteSpecialDialog@@QEBAIXZ @ 3456 NONAME
 ?GetSelRange@CMonthCalCtrl@@QEBAHAEAVCOleDateTime@ATL@@0@Z @ 3457 NONAME
 ?GetSelRange@CMonthCalCtrl@@QEBAHAEAVCTime@ATL@@0@Z @ 3458 NONAME
 ?GetSelRange@CMonthCalCtrl@@QEBAHPEAU_SYSTEMTIME@@0@Z @ 3459 NONAME
 ?GetSelText@CRichEditCtrl@@QEBA?AV?$CStringT@_WV?$StrTraitMFC_DLL@_WV?$ChTraitsCRT@_W@ATL@@@@@ATL@@XZ @ 3460 NONAME
 ?GetSilent@CHtmlView@@QEBAHXZ @ 3461 NONAME
 ?GetSite@CPrintDialogEx@@UEAAJAEBU_GUID@@PEAPEAX@Z @ 3462 NONAME
 ?GetSize@CPropertySection@@QEAAKXZ @ 3463 NONAME
 ?GetSizeInDialogUnits@CDialogTemplate@@QEBAXPEAUtagSIZE@@@Z @ 3464 NONAME
 ?GetSizeInPixels@CDialogTemplate@@QEBAXPEAUtagSIZE@@@Z @ 3465 NONAME
 ?GetSizeMax@CBlobProperty@@UEAAJPEAT_ULARGE_INTEGER@@@Z @ 3466 NONAME
 ?GetSizeMax@XPersistMemory@COleControl@@UEAAJPEAK@Z @ 3467 NONAME
 ?GetSizeMax@XPersistStreamInit@COleControl@@UEAAJPEAT_ULARGE_INTEGER@@@Z @ 3468 NONAME
 ?GetSizingParent@CSplitterWnd@@IEAAPEAVCWnd@@XZ @ 3469 NONAME
 ?GetSockName@CAsyncSocket@@QEAAHAEAV?$CStringT@_WV?$StrTraitMFC_DLL@_WV?$ChTraitsCRT@_W@ATL@@@@@ATL@@AEAI@Z @ 3470 NONAME
 ?GetSource@CHtmlView@@QEAAHAEAV?$CStringT@_WV?$StrTraitMFC_DLL@_WV?$ChTraitsCRT@_W@ATL@@@@@ATL@@@Z @ 3471 NONAME
 ?GetStackSize@CCmdTarget@@KAIPEBEG@Z @ 3472 NONAME
 ?GetStandardProp@CCmdTarget@@IEAAXPEBUAFX_DISPMAP_ENTRY@@PEAUtagVARIANT@@PEAI@Z @ 3473 NONAME
 ?GetStartDocument@CHtmlEditCtrl@@UEAAPEB_WXZ @ 3474 NONAME
 ?GetStartDocument@CHtmlEditView@@UEAAPEB_WXZ @ 3475 NONAME
 ?GetStartPosition@CConnectionPoint@@QEBAPEAU__POSITION@@XZ @ 3476 NONAME
 ?GetStartPosition@COleDocument@@UEBAPEAU__POSITION@@XZ @ 3477 NONAME
 ?GetStartPosition@CRichEditDoc@@UEBAPEAU__POSITION@@XZ @ 3478 NONAME
 ?GetStatus@CFile@@QEBAHAEAUCFileStatus@@@Z @ 3479 NONAME
 ?GetStatus@CFile@@SAHPEB_WAEAUCFileStatus@@@Z @ 3480 NONAME
 ?GetStatus@CMemFile@@QEBAHAEAUCFileStatus@@@Z @ 3481 NONAME
 ?GetStatus@COleStreamFile@@QEBAHAEAUCFileStatus@@@Z @ 3482 NONAME
 ?GetStatusBar@CHtmlView@@QEBAHXZ @ 3483 NONAME
 ?GetStockTextMetrics@COleControl@@QEAAXPEAUtagTEXTMETRICW@@@Z @ 3484 NONAME
 ?GetStorageName@COleStreamFile@@UEBA?BV?$CStringT@_WV?$StrTraitMFC_DLL@_WV?$ChTraitsCRT@_W@ATL@@@@@ATL@@XZ @ 3485 NONAME
 ?GetStream@COleStreamFile@@QEBAPEAUIStream@@XZ @ 3486 NONAME
 ?GetString@?$CSimpleStringT@_W$00@ATL@@QEBAPEB_WXZ @ 3487 NONAME
 ?GetString@?$CSimpleStringT@D$00@ATL@@QEBAPEBDXZ @ 3488 NONAME
 ?GetString@CToolBarCtrl@@QEBAHHAEAV?$CStringT@_WV?$StrTraitMFC_DLL@_WV?$ChTraitsCRT@_W@ATL@@@@@ATL@@@Z @ 3489 NONAME
 ?GetStyle@COleControlSite@@UEBAKXZ @ 3490 NONAME
 ?GetStyle@COleControlSiteOrWnd@@QEBAKXZ @ 3491 NONAME
 ?GetStyle@CWnd@@QEBAKXZ @ 3492 NONAME
 ?GetSubItemRect@CListCtrl@@QEBAHHHHAEAVCRect@@@Z @ 3493 NONAME
 ?GetSuperWndProcAddr@CWnd@@MEAAPEAP6A_JPEAUHWND__@@I_K_J@ZXZ @ 3494 NONAME
 ?GetSysPolicyValue@CWinApp@@QEAAHKPEAH@Z @ 3495 NONAME
 ?GetTemplateSize@CDialogTemplate@@KAIPEBUDLGTEMPLATE@@@Z @ 3496 NONAME
 ?GetText@CListBox@@QEBAXHAEAV?$CStringT@_WV?$StrTraitMFC_DLL@_WV?$ChTraitsCRT@_W@ATL@@@@@ATL@@@Z @ 3497 NONAME
 ?GetText@COleControl@@QEAAPEA_WXZ @ 3498 NONAME
 ?GetText@CStatusBarCtrl@@QEBA?AV?$CStringT@_WV?$StrTraitMFC_DLL@_WV?$ChTraitsCRT@_W@ATL@@@@@ATL@@HPEAH@Z @ 3499 NONAME
 ?GetText@CStatusBarCtrl@@QEBAHPEA_WHPEAH@Z @ 3500 NONAME
 ?GetText@CToolTipCtrl@@QEBAXAEAV?$CStringT@_WV?$StrTraitMFC_DLL@_WV?$ChTraitsCRT@_W@ATL@@@@@ATL@@PEAVCWnd@@_K@Z @ 3501 NONAME
 ?GetTextLen@CRecordset@@SA_JF_K@Z @ 3502 NONAME
 ?GetTextLength@CStatusBarCtrl@@QEBAHHPEAH@Z @ 3503 NONAME
 ?GetTextLengthEx@CRichEditCtrl@@QEBAJKI@Z @ 3504 NONAME
 ?GetTextRange@CRichEditCtrl@@QEBAHHHAEAV?$CStringT@_WV?$StrTraitMFC_DLL@_WV?$ChTraitsCRT@_W@ATL@@@@@ATL@@@Z @ 3505 NONAME
 ?GetTheaterMode@CHtmlView@@QEBAHXZ @ 3506 NONAME
 ?GetThemePartSize@CThemeHelper@@SAJPEAXPEAUHDC__@@HHPEAUtagRECT@@W4THEMESIZE@@PEAUtagSIZE@@@Z @ 3507 NONAME
 ?GetThemePartSizeFail@CThemeHelper@@CAJPEAXPEAUHDC__@@HHPEAUtagRECT@@W4THEMESIZE@@PEAUtagSIZE@@@Z @ 3508 NONAME
 ?GetThisClass@CAnimateCtrl@@SAPEAUCRuntimeClass@@XZ @ 3509 NONAME
 ?GetThisClass@CArchiveException@@SAPEAUCRuntimeClass@@XZ @ 3510 NONAME
 ?GetThisClass@CAsyncMonikerFile@@SAPEAUCRuntimeClass@@XZ @ 3511 NONAME
 ?GetThisClass@CAsyncSocket@@SAPEAUCRuntimeClass@@XZ @ 3512 NONAME
 ?GetThisClass@CBitmap@@SAPEAUCRuntimeClass@@XZ @ 3513 NONAME
 ?GetThisClass@CBitmapButton@@SAPEAUCRuntimeClass@@XZ @ 3514 NONAME
 ?GetThisClass@CBrush@@SAPEAUCRuntimeClass@@XZ @ 3515 NONAME
 ?GetThisClass@CButton@@SAPEAUCRuntimeClass@@XZ @ 3516 NONAME
 ?GetThisClass@CByteArray@@SAPEAUCRuntimeClass@@XZ @ 3517 NONAME
 ?GetThisClass@CCachedDataPathProperty@@SAPEAUCRuntimeClass@@XZ @ 3518 NONAME
 ?GetThisClass@CCheckListBox@@SAPEAUCRuntimeClass@@XZ @ 3519 NONAME
 ?GetThisClass@CClientDC@@SAPEAUCRuntimeClass@@XZ @ 3520 NONAME
 ?GetThisClass@CCmdTarget@@SAPEAUCRuntimeClass@@XZ @ 3521 NONAME
 ?GetThisClass@CColorDialog@@SAPEAUCRuntimeClass@@XZ @ 3522 NONAME
 ?GetThisClass@CComboBox@@SAPEAUCRuntimeClass@@XZ @ 3523 NONAME
 ?GetThisClass@CComboBoxEx@@SAPEAUCRuntimeClass@@XZ @ 3524 NONAME
 ?GetThisClass@CCommonDialog@@SAPEAUCRuntimeClass@@XZ @ 3525 NONAME
 ?GetThisClass@CControlBar@@SAPEAUCRuntimeClass@@XZ @ 3526 NONAME
 ?GetThisClass@CCriticalSection@@SAPEAUCRuntimeClass@@XZ @ 3527 NONAME
 ?GetThisClass@CCtrlView@@SAPEAUCRuntimeClass@@XZ @ 3528 NONAME
 ?GetThisClass@CDatabase@@SAPEAUCRuntimeClass@@XZ @ 3529 NONAME
 ?GetThisClass@CDataPathProperty@@SAPEAUCRuntimeClass@@XZ @ 3530 NONAME
 ?GetThisClass@CDateTimeCtrl@@SAPEAUCRuntimeClass@@XZ @ 3531 NONAME
 ?GetThisClass@CDBException@@SAPEAUCRuntimeClass@@XZ @ 3532 NONAME
 ?GetThisClass@CDC@@SAPEAUCRuntimeClass@@XZ @ 3533 NONAME
 ?GetThisClass@CDHtmlDialog@@SAPEAUCRuntimeClass@@XZ @ 3534 NONAME
 ?GetThisClass@CDialog@@SAPEAUCRuntimeClass@@XZ @ 3535 NONAME
 ?GetThisClass@CDialogBar@@SAPEAUCRuntimeClass@@XZ @ 3536 NONAME
 ?GetThisClass@CDocItem@@SAPEAUCRuntimeClass@@XZ @ 3537 NONAME
 ?GetThisClass@CDockBar@@SAPEAUCRuntimeClass@@XZ @ 3538 NONAME
 ?GetThisClass@CDockState@@SAPEAUCRuntimeClass@@XZ @ 3539 NONAME
 ?GetThisClass@CDocManager@@SAPEAUCRuntimeClass@@XZ @ 3540 NONAME
 ?GetThisClass@CDocObjectServer@@SAPEAUCRuntimeClass@@XZ @ 3541 NONAME
 ?GetThisClass@CDocObjectServerItem@@SAPEAUCRuntimeClass@@XZ @ 3542 NONAME
 ?GetThisClass@CDocTemplate@@SAPEAUCRuntimeClass@@XZ @ 3543 NONAME
 ?GetThisClass@CDocument@@SAPEAUCRuntimeClass@@XZ @ 3544 NONAME
 ?GetThisClass@CDragListBox@@SAPEAUCRuntimeClass@@XZ @ 3545 NONAME
 ?GetThisClass@CDWordArray@@SAPEAUCRuntimeClass@@XZ @ 3546 NONAME
 ?GetThisClass@CDynLinkLibrary@@SAPEAUCRuntimeClass@@XZ @ 3547 NONAME
 ?GetThisClass@CEdit@@SAPEAUCRuntimeClass@@XZ @ 3548 NONAME
 ?GetThisClass@CEditView@@SAPEAUCRuntimeClass@@XZ @ 3549 NONAME
 ?GetThisClass@CEvent@@SAPEAUCRuntimeClass@@XZ @ 3550 NONAME
 ?GetThisClass@CException@@SAPEAUCRuntimeClass@@XZ @ 3551 NONAME
 ?GetThisClass@CFile@@SAPEAUCRuntimeClass@@XZ @ 3552 NONAME
 ?GetThisClass@CFileDialog@@SAPEAUCRuntimeClass@@XZ @ 3553 NONAME
 ?GetThisClass@CFileException@@SAPEAUCRuntimeClass@@XZ @ 3554 NONAME
 ?GetThisClass@CFileFind@@SAPEAUCRuntimeClass@@XZ @ 3555 NONAME
 ?GetThisClass@CFindReplaceDialog@@SAPEAUCRuntimeClass@@XZ @ 3556 NONAME
 ?GetThisClass@CFont@@SAPEAUCRuntimeClass@@XZ @ 3557 NONAME
 ?GetThisClass@CFontDialog@@SAPEAUCRuntimeClass@@XZ @ 3558 NONAME
 ?GetThisClass@CFormView@@SAPEAUCRuntimeClass@@XZ @ 3559 NONAME
 ?GetThisClass@CFrameWnd@@SAPEAUCRuntimeClass@@XZ @ 3560 NONAME
 ?GetThisClass@CFtpConnection@@SAPEAUCRuntimeClass@@XZ @ 3561 NONAME
 ?GetThisClass@CFtpFileFind@@SAPEAUCRuntimeClass@@XZ @ 3562 NONAME
 ?GetThisClass@CGdiObject@@SAPEAUCRuntimeClass@@XZ @ 3563 NONAME
 ?GetThisClass@CGopherConnection@@SAPEAUCRuntimeClass@@XZ @ 3564 NONAME
 ?GetThisClass@CGopherFile@@SAPEAUCRuntimeClass@@XZ @ 3565 NONAME
 ?GetThisClass@CGopherFileFind@@SAPEAUCRuntimeClass@@XZ @ 3566 NONAME
 ?GetThisClass@CHeaderCtrl@@SAPEAUCRuntimeClass@@XZ @ 3567 NONAME
 ?GetThisClass@CHotKeyCtrl@@SAPEAUCRuntimeClass@@XZ @ 3568 NONAME
 ?GetThisClass@CHtmlEditDoc@@SAPEAUCRuntimeClass@@XZ @ 3569 NONAME
 ?GetThisClass@CHtmlEditView@@SAPEAUCRuntimeClass@@XZ @ 3570 NONAME
 ?GetThisClass@CHtmlView@@SAPEAUCRuntimeClass@@XZ @ 3571 NONAME
 ?GetThisClass@CHttpConnection@@SAPEAUCRuntimeClass@@XZ @ 3572 NONAME
 ?GetThisClass@CHttpFile@@SAPEAUCRuntimeClass@@XZ @ 3573 NONAME
 ?GetThisClass@CImageList@@SAPEAUCRuntimeClass@@XZ @ 3574 NONAME
 ?GetThisClass@CInternetConnection@@SAPEAUCRuntimeClass@@XZ @ 3575 NONAME
 ?GetThisClass@CInternetException@@SAPEAUCRuntimeClass@@XZ @ 3576 NONAME
 ?GetThisClass@CInternetFile@@SAPEAUCRuntimeClass@@XZ @ 3577 NONAME
 ?GetThisClass@CInternetSession@@SAPEAUCRuntimeClass@@XZ @ 3578 NONAME
 ?GetThisClass@CInvalidArgException@@SAPEAUCRuntimeClass@@XZ @ 3579 NONAME
 ?GetThisClass@CIPAddressCtrl@@SAPEAUCRuntimeClass@@XZ @ 3580 NONAME
 ?GetThisClass@CLinkCtrl@@SAPEAUCRuntimeClass@@XZ @ 3581 NONAME
 ?GetThisClass@CListBox@@SAPEAUCRuntimeClass@@XZ @ 3582 NONAME
 ?GetThisClass@CListCtrl@@SAPEAUCRuntimeClass@@XZ @ 3583 NONAME
 ?GetThisClass@CListView@@SAPEAUCRuntimeClass@@XZ @ 3584 NONAME
 ?GetThisClass@CLongBinary@@SAPEAUCRuntimeClass@@XZ @ 3585 NONAME
 ?GetThisClass@CMapPtrToPtr@@SAPEAUCRuntimeClass@@XZ @ 3586 NONAME
 ?GetThisClass@CMapPtrToWord@@SAPEAUCRuntimeClass@@XZ @ 3587 NONAME
 ?GetThisClass@CMapStringToOb@@SAPEAUCRuntimeClass@@XZ @ 3588 NONAME
 ?GetThisClass@CMapStringToPtr@@SAPEAUCRuntimeClass@@XZ @ 3589 NONAME
 ?GetThisClass@CMapStringToString@@SAPEAUCRuntimeClass@@XZ @ 3590 NONAME
 ?GetThisClass@CMapWordToOb@@SAPEAUCRuntimeClass@@XZ @ 3591 NONAME
 ?GetThisClass@CMapWordToPtr@@SAPEAUCRuntimeClass@@XZ @ 3592 NONAME
 ?GetThisClass@CMDIChildWnd@@SAPEAUCRuntimeClass@@XZ @ 3593 NONAME
 ?GetThisClass@CMDIFrameWnd@@SAPEAUCRuntimeClass@@XZ @ 3594 NONAME
 ?GetThisClass@CMemFile@@SAPEAUCRuntimeClass@@XZ @ 3595 NONAME
 ?GetThisClass@CMemoryException@@SAPEAUCRuntimeClass@@XZ @ 3596 NONAME
 ?GetThisClass@CMenu@@SAPEAUCRuntimeClass@@XZ @ 3597 NONAME
 ?GetThisClass@CMetaFileDC@@SAPEAUCRuntimeClass@@XZ @ 3598 NONAME
 ?GetThisClass@CMiniDockFrameWnd@@SAPEAUCRuntimeClass@@XZ @ 3599 NONAME
 ?GetThisClass@CMiniFrameWnd@@SAPEAUCRuntimeClass@@XZ @ 3600 NONAME
 ?GetThisClass@CMonikerFile@@SAPEAUCRuntimeClass@@XZ @ 3601 NONAME
 ?GetThisClass@CMonthCalCtrl@@SAPEAUCRuntimeClass@@XZ @ 3602 NONAME
 ?GetThisClass@CMultiDocTemplate@@SAPEAUCRuntimeClass@@XZ @ 3603 NONAME
 ?GetThisClass@CMultiPageDHtmlDialog@@SAPEAUCRuntimeClass@@XZ @ 3604 NONAME
 ?GetThisClass@CMutex@@SAPEAUCRuntimeClass@@XZ @ 3605 NONAME
 ?GetThisClass@CNetAddressCtrl@@SAPEAUCRuntimeClass@@XZ @ 3606 NONAME
 ?GetThisClass@CNotSupportedException@@SAPEAUCRuntimeClass@@XZ @ 3607 NONAME
 ?GetThisClass@CObArray@@SAPEAUCRuntimeClass@@XZ @ 3608 NONAME
 ?GetThisClass@CObject@@SAPEAUCRuntimeClass@@XZ @ 3609 NONAME
 ?GetThisClass@CObList@@SAPEAUCRuntimeClass@@XZ @ 3610 NONAME
 ?GetThisClass@COleBusyDialog@@SAPEAUCRuntimeClass@@XZ @ 3611 NONAME
 ?GetThisClass@COleChangeIconDialog@@SAPEAUCRuntimeClass@@XZ @ 3612 NONAME
 ?GetThisClass@COleChangeSourceDialog@@SAPEAUCRuntimeClass@@XZ @ 3613 NONAME
 ?GetThisClass@COleClientItem@@SAPEAUCRuntimeClass@@XZ @ 3614 NONAME
 ?GetThisClass@COleControl@@SAPEAUCRuntimeClass@@XZ @ 3615 NONAME
 ?GetThisClass@COleControlModule@@SAPEAUCRuntimeClass@@XZ @ 3616 NONAME
 ?GetThisClass@COleConvertDialog@@SAPEAUCRuntimeClass@@XZ @ 3617 NONAME
 ?GetThisClass@COleDBRecordView@@SAPEAUCRuntimeClass@@XZ @ 3618 NONAME
 ?GetThisClass@COleDialog@@SAPEAUCRuntimeClass@@XZ @ 3619 NONAME
 ?GetThisClass@COleDispatchException@@SAPEAUCRuntimeClass@@XZ @ 3620 NONAME
 ?GetThisClass@COleDocIPFrameWnd@@SAPEAUCRuntimeClass@@XZ @ 3621 NONAME
 ?GetThisClass@COleDocObjectItem@@SAPEAUCRuntimeClass@@XZ @ 3622 NONAME
 ?GetThisClass@COleDocument@@SAPEAUCRuntimeClass@@XZ @ 3623 NONAME
 ?GetThisClass@COleException@@SAPEAUCRuntimeClass@@XZ @ 3624 NONAME
 ?GetThisClass@COleInsertDialog@@SAPEAUCRuntimeClass@@XZ @ 3625 NONAME
 ?GetThisClass@COleIPFrameWnd@@SAPEAUCRuntimeClass@@XZ @ 3626 NONAME
 ?GetThisClass@COleLinkingDoc@@SAPEAUCRuntimeClass@@XZ @ 3627 NONAME
 ?GetThisClass@COleLinksDialog@@SAPEAUCRuntimeClass@@XZ @ 3628 NONAME
 ?GetThisClass@COleObjectFactory@@SAPEAUCRuntimeClass@@XZ @ 3629 NONAME
 ?GetThisClass@COlePasteSpecialDialog@@SAPEAUCRuntimeClass@@XZ @ 3630 NONAME
 ?GetThisClass@COlePropertiesDialog@@SAPEAUCRuntimeClass@@XZ @ 3631 NONAME
 ?GetThisClass@COlePropertyPage@@SAPEAUCRuntimeClass@@XZ @ 3632 NONAME
 ?GetThisClass@COleResizeBar@@SAPEAUCRuntimeClass@@XZ @ 3633 NONAME
 ?GetThisClass@COleServerDoc@@SAPEAUCRuntimeClass@@XZ @ 3634 NONAME
 ?GetThisClass@COleServerItem@@SAPEAUCRuntimeClass@@XZ @ 3635 NONAME
 ?GetThisClass@COleStreamFile@@SAPEAUCRuntimeClass@@XZ @ 3636 NONAME
 ?GetThisClass@COleUpdateDialog@@SAPEAUCRuntimeClass@@XZ @ 3637 NONAME
 ?GetThisClass@CPagerCtrl@@SAPEAUCRuntimeClass@@XZ @ 3638 NONAME
 ?GetThisClass@CPageSetupDialog@@SAPEAUCRuntimeClass@@XZ @ 3639 NONAME
 ?GetThisClass@CPaintDC@@SAPEAUCRuntimeClass@@XZ @ 3640 NONAME
 ?GetThisClass@CPalette@@SAPEAUCRuntimeClass@@XZ @ 3641 NONAME
 ?GetThisClass@CPen@@SAPEAUCRuntimeClass@@XZ @ 3642 NONAME
 ?GetThisClass@CPreviewDC@@SAPEAUCRuntimeClass@@XZ @ 3643 NONAME
 ?GetThisClass@CPreviewView@@SAPEAUCRuntimeClass@@XZ @ 3644 NONAME
 ?GetThisClass@CPrintDialog@@SAPEAUCRuntimeClass@@XZ @ 3645 NONAME
 ?GetThisClass@CPrintDialogEx@@SAPEAUCRuntimeClass@@XZ @ 3646 NONAME
 ?GetThisClass@CProgressCtrl@@SAPEAUCRuntimeClass@@XZ @ 3647 NONAME
 ?GetThisClass@CPropertyPage@@SAPEAUCRuntimeClass@@XZ @ 3648 NONAME
 ?GetThisClass@CPropertySheet@@SAPEAUCRuntimeClass@@XZ @ 3649 NONAME
 ?GetThisClass@CPtrArray@@SAPEAUCRuntimeClass@@XZ @ 3650 NONAME
 ?GetThisClass@CPtrList@@SAPEAUCRuntimeClass@@XZ @ 3651 NONAME
 ?GetThisClass@CReBar@@SAPEAUCRuntimeClass@@XZ @ 3652 NONAME
 ?GetThisClass@CReBarCtrl@@SAPEAUCRuntimeClass@@XZ @ 3653 NONAME
 ?GetThisClass@CRecordset@@SAPEAUCRuntimeClass@@XZ @ 3654 NONAME
 ?GetThisClass@CRecordView@@SAPEAUCRuntimeClass@@XZ @ 3655 NONAME
 ?GetThisClass@CResourceException@@SAPEAUCRuntimeClass@@XZ @ 3656 NONAME
 ?GetThisClass@CRgn@@SAPEAUCRuntimeClass@@XZ @ 3657 NONAME
 ?GetThisClass@CRichEditCntrItem@@SAPEAUCRuntimeClass@@XZ @ 3658 NONAME
 ?GetThisClass@CRichEditCtrl@@SAPEAUCRuntimeClass@@XZ @ 3659 NONAME
 ?GetThisClass@CRichEditDoc@@SAPEAUCRuntimeClass@@XZ @ 3660 NONAME
 ?GetThisClass@CRichEditView@@SAPEAUCRuntimeClass@@XZ @ 3661 NONAME
 ?GetThisClass@CScrollBar@@SAPEAUCRuntimeClass@@XZ @ 3662 NONAME
 ?GetThisClass@CScrollView@@SAPEAUCRuntimeClass@@XZ @ 3663 NONAME
 ?GetThisClass@CSemaphore@@SAPEAUCRuntimeClass@@XZ @ 3664 NONAME
 ?GetThisClass@CSharedFile@@SAPEAUCRuntimeClass@@XZ @ 3665 NONAME
 ?GetThisClass@CSimpleException@@SAPEAUCRuntimeClass@@XZ @ 3666 NONAME
 ?GetThisClass@CSingleDocTemplate@@SAPEAUCRuntimeClass@@XZ @ 3667 NONAME
 ?GetThisClass@CSliderCtrl@@SAPEAUCRuntimeClass@@XZ @ 3668 NONAME
 ?GetThisClass@CSocket@@SAPEAUCRuntimeClass@@XZ @ 3669 NONAME
 ?GetThisClass@CSocketFile@@SAPEAUCRuntimeClass@@XZ @ 3670 NONAME
 ?GetThisClass@CSpinButtonCtrl@@SAPEAUCRuntimeClass@@XZ @ 3671 NONAME
 ?GetThisClass@CSplitButton@@SAPEAUCRuntimeClass@@XZ @ 3672 NONAME
 ?GetThisClass@CSplitterWnd@@SAPEAUCRuntimeClass@@XZ @ 3673 NONAME
 ?GetThisClass@CStatic@@SAPEAUCRuntimeClass@@XZ @ 3674 NONAME
 ?GetThisClass@CStatusBar@@SAPEAUCRuntimeClass@@XZ @ 3675 NONAME
 ?GetThisClass@CStatusBarCtrl@@SAPEAUCRuntimeClass@@XZ @ 3676 NONAME
 ?GetThisClass@CStdioFile@@SAPEAUCRuntimeClass@@XZ @ 3677 NONAME
 ?GetThisClass@CStringArray@@SAPEAUCRuntimeClass@@XZ @ 3678 NONAME
 ?GetThisClass@CStringList@@SAPEAUCRuntimeClass@@XZ @ 3679 NONAME
 ?GetThisClass@CSyncObject@@SAPEAUCRuntimeClass@@XZ @ 3680 NONAME
 ?GetThisClass@CTabCtrl@@SAPEAUCRuntimeClass@@XZ @ 3681 NONAME
 ?GetThisClass@CToolBar@@SAPEAUCRuntimeClass@@XZ @ 3682 NONAME
 ?GetThisClass@CToolBarCtrl@@SAPEAUCRuntimeClass@@XZ @ 3683 NONAME
 ?GetThisClass@CToolTipCtrl@@SAPEAUCRuntimeClass@@XZ @ 3684 NONAME
 ?GetThisClass@CTreeCtrl@@SAPEAUCRuntimeClass@@XZ @ 3685 NONAME
 ?GetThisClass@CTreeView@@SAPEAUCRuntimeClass@@XZ @ 3686 NONAME
 ?GetThisClass@CUIntArray@@SAPEAUCRuntimeClass@@XZ @ 3687 NONAME
 ?GetThisClass@CUserException@@SAPEAUCRuntimeClass@@XZ @ 3688 NONAME
 ?GetThisClass@CView@@SAPEAUCRuntimeClass@@XZ @ 3689 NONAME
 ?GetThisClass@CWinApp@@SAPEAUCRuntimeClass@@XZ @ 3690 NONAME
 ?GetThisClass@CWindowDC@@SAPEAUCRuntimeClass@@XZ @ 3691 NONAME
 ?GetThisClass@CWindowlessDC@@SAPEAUCRuntimeClass@@XZ @ 3692 NONAME
 ?GetThisClass@CWinThread@@SAPEAUCRuntimeClass@@XZ @ 3693 NONAME
 ?GetThisClass@CWnd@@SAPEAUCRuntimeClass@@XZ @ 3694 NONAME
 ?GetThisClass@CWordArray@@SAPEAUCRuntimeClass@@XZ @ 3695 NONAME
 ?GetThisCommandMap@CCmdTarget@@KAPEBUAFX_OLECMDMAP@@XZ @ 3696 NONAME
 ?GetThisCommandMap@COleDocObjectItem@@KAPEBUAFX_OLECMDMAP@@XZ @ 3697 NONAME
 ?GetThisConnectionMap@CCmdTarget@@KAPEBUAFX_CONNECTIONMAP@@XZ @ 3698 NONAME
 ?GetThisConnectionMap@COleControl@@KAPEBUAFX_CONNECTIONMAP@@XZ @ 3699 NONAME
 ?GetThisDispatchMap@CCmdTarget@@KAPEBUAFX_DISPMAP@@XZ @ 3700 NONAME
 ?GetThisDispatchMap@COleControlContainer@@KAPEBUAFX_DISPMAP@@XZ @ 3701 NONAME
 ?GetThisEventMap@COleControl@@KAPEBUAFX_EVENTMAP@@XZ @ 3702 NONAME
 ?GetThisEventSinkMap@CCmdTarget@@KAPEBUAFX_EVENTSINKMAP@@XZ @ 3703 NONAME
 ?GetThisEventSinkMap@CDHtmlDialog@@KAPEBUAFX_EVENTSINKMAP@@XZ @ 3704 NONAME
 ?GetThisEventSinkMap@CHtmlEditCtrl@@KAPEBUAFX_EVENTSINKMAP@@XZ @ 3705 NONAME
 ?GetThisEventSinkMap@CHtmlView@@KAPEBUAFX_EVENTSINKMAP@@XZ @ 3706 NONAME
 ?GetThisInterfaceMap@CCmdTarget@@KAPEBUAFX_INTERFACEMAP@@XZ @ 3707 NONAME
 ?GetThisInterfaceMap@CDocObjectServer@@KAPEBUAFX_INTERFACEMAP@@XZ @ 3708 NONAME
 ?GetThisInterfaceMap@CEnumConnections@@KAPEBUAFX_INTERFACEMAP@@XZ @ 3709 NONAME
 ?GetThisInterfaceMap@CEnumConnPoints@@KAPEBUAFX_INTERFACEMAP@@XZ @ 3710 NONAME
 ?GetThisInterfaceMap@CEnumFormatEtc@@KAPEBUAFX_INTERFACEMAP@@XZ @ 3711 NONAME
 ?GetThisInterfaceMap@CEnumOleVerb@@KAPEBUAFX_INTERFACEMAP@@XZ @ 3712 NONAME
 ?GetThisInterfaceMap@CEnumUnknown@@KAPEBUAFX_INTERFACEMAP@@XZ @ 3713 NONAME
 ?GetThisInterfaceMap@CFileDialog@@KAPEBUAFX_INTERFACEMAP@@XZ @ 3714 NONAME
 ?GetThisInterfaceMap@CHtmlControlSite@@KAPEBUAFX_INTERFACEMAP@@XZ @ 3715 NONAME
 ?GetThisInterfaceMap@COleClientItem@@KAPEBUAFX_INTERFACEMAP@@XZ @ 3716 NONAME
 ?GetThisInterfaceMap@COleControl@@KAPEBUAFX_INTERFACEMAP@@XZ @ 3717 NONAME
 ?GetThisInterfaceMap@COleControlContainer@@KAPEBUAFX_INTERFACEMAP@@XZ @ 3718 NONAME
 ?GetThisInterfaceMap@COleControlSite@@KAPEBUAFX_INTERFACEMAP@@XZ @ 3719 NONAME
 ?GetThisInterfaceMap@COleDataSource@@KAPEBUAFX_INTERFACEMAP@@XZ @ 3720 NONAME
 ?GetThisInterfaceMap@COleDocObjectItem@@KAPEBUAFX_INTERFACEMAP@@XZ @ 3721 NONAME
 ?GetThisInterfaceMap@COleDropSource@@KAPEBUAFX_INTERFACEMAP@@XZ @ 3722 NONAME
 ?GetThisInterfaceMap@COleDropTarget@@KAPEBUAFX_INTERFACEMAP@@XZ @ 3723 NONAME
 ?GetThisInterfaceMap@COleFrameHook@@KAPEBUAFX_INTERFACEMAP@@XZ @ 3724 NONAME
 ?GetThisInterfaceMap@COleLinkingDoc@@KAPEBUAFX_INTERFACEMAP@@XZ @ 3725 NONAME
 ?GetThisInterfaceMap@COleMessageFilter@@KAPEBUAFX_INTERFACEMAP@@XZ @ 3726 NONAME
 ?GetThisInterfaceMap@COleObjectFactory@@KAPEBUAFX_INTERFACEMAP@@XZ @ 3727 NONAME
 ?GetThisInterfaceMap@COlePropertyPage@@KAPEBUAFX_INTERFACEMAP@@XZ @ 3728 NONAME
 ?GetThisInterfaceMap@COleServerDoc@@KAPEBUAFX_INTERFACEMAP@@XZ @ 3729 NONAME
 ?GetThisInterfaceMap@COleServerItem@@KAPEBUAFX_INTERFACEMAP@@XZ @ 3730 NONAME
 ?GetThisInterfaceMap@CRichEditView@@KAPEBUAFX_INTERFACEMAP@@XZ @ 3731 NONAME
 ?GetThisInterfaceMap@CWnd@@KAPEBUAFX_INTERFACEMAP@@XZ @ 3732 NONAME
 ?GetThisMessageMap@CCheckListBox@@KAPEBUAFX_MSGMAP@@XZ @ 3733 NONAME
 ?GetThisMessageMap@CCmdTarget@@KAPEBUAFX_MSGMAP@@XZ @ 3734 NONAME
 ?GetThisMessageMap@CCommonDialog@@KAPEBUAFX_MSGMAP@@XZ @ 3735 NONAME
 ?GetThisMessageMap@CControlBar@@KAPEBUAFX_MSGMAP@@XZ @ 3736 NONAME
 ?GetThisMessageMap@CControlFrameWnd@@KAPEBUAFX_MSGMAP@@XZ @ 3737 NONAME
 ?GetThisMessageMap@CCtrlView@@KAPEBUAFX_MSGMAP@@XZ @ 3738 NONAME
 ?GetThisMessageMap@CDHtmlDialog@@KAPEBUAFX_MSGMAP@@XZ @ 3739 NONAME
 ?GetThisMessageMap@CDialog@@KAPEBUAFX_MSGMAP@@XZ @ 3740 NONAME
 ?GetThisMessageMap@CDialogBar@@KAPEBUAFX_MSGMAP@@XZ @ 3741 NONAME
 ?GetThisMessageMap@CDockBar@@KAPEBUAFX_MSGMAP@@XZ @ 3742 NONAME
 ?GetThisMessageMap@CDocObjectServer@@KAPEBUAFX_MSGMAP@@XZ @ 3743 NONAME
 ?GetThisMessageMap@CDocument@@KAPEBUAFX_MSGMAP@@XZ @ 3744 NONAME
 ?GetThisMessageMap@CEditView@@KAPEBUAFX_MSGMAP@@XZ @ 3745 NONAME
 ?GetThisMessageMap@CFormView@@KAPEBUAFX_MSGMAP@@XZ @ 3746 NONAME
 ?GetThisMessageMap@CFrameWnd@@KAPEBUAFX_MSGMAP@@XZ @ 3747 NONAME
 ?GetThisMessageMap@CHtmlEditView@@KAPEBUAFX_MSGMAP@@XZ @ 3748 NONAME
 ?GetThisMessageMap@CHtmlView@@KAPEBUAFX_MSGMAP@@XZ @ 3749 NONAME
 ?GetThisMessageMap@CListCtrl@@KAPEBUAFX_MSGMAP@@XZ @ 3750 NONAME
 ?GetThisMessageMap@CListView@@KAPEBUAFX_MSGMAP@@XZ @ 3751 NONAME
 ?GetThisMessageMap@CMDIChildWnd@@KAPEBUAFX_MSGMAP@@XZ @ 3752 NONAME
 ?GetThisMessageMap@CMDIFrameWnd@@KAPEBUAFX_MSGMAP@@XZ @ 3753 NONAME
 ?GetThisMessageMap@CMiniDockFrameWnd@@KAPEBUAFX_MSGMAP@@XZ @ 3754 NONAME
 ?GetThisMessageMap@CMiniFrameWnd@@KAPEBUAFX_MSGMAP@@XZ @ 3755 NONAME
 ?GetThisMessageMap@COleControl@@KAPEBUAFX_MSGMAP@@XZ @ 3756 NONAME
 ?GetThisMessageMap@COleDBRecordView@@KAPEBUAFX_MSGMAP@@XZ @ 3757 NONAME
 ?GetThisMessageMap@COleDocIPFrameWnd@@KAPEBUAFX_MSGMAP@@XZ @ 3758 NONAME
 ?GetThisMessageMap@COleIPFrameWnd@@KAPEBUAFX_MSGMAP@@XZ @ 3759 NONAME
 ?GetThisMessageMap@COlePropertyPage@@KAPEBUAFX_MSGMAP@@XZ @ 3760 NONAME
 ?GetThisMessageMap@COleResizeBar@@KAPEBUAFX_MSGMAP@@XZ @ 3761 NONAME
 ?GetThisMessageMap@COleServerDoc@@KAPEBUAFX_MSGMAP@@XZ @ 3762 NONAME
 ?GetThisMessageMap@CPreviewView@@KAPEBUAFX_MSGMAP@@XZ @ 3763 NONAME
 ?GetThisMessageMap@CPrintDialog@@KAPEBUAFX_MSGMAP@@XZ @ 3764 NONAME
 ?GetThisMessageMap@CPrintDialogEx@@KAPEBUAFX_MSGMAP@@XZ @ 3765 NONAME
 ?GetThisMessageMap@CPropertyPage@@KAPEBUAFX_MSGMAP@@XZ @ 3766 NONAME
 ?GetThisMessageMap@CPropertySheet@@KAPEBUAFX_MSGMAP@@XZ @ 3767 NONAME
 ?GetThisMessageMap@CReBar@@KAPEBUAFX_MSGMAP@@XZ @ 3768 NONAME
 ?GetThisMessageMap@CRecordView@@KAPEBUAFX_MSGMAP@@XZ @ 3769 NONAME
 ?GetThisMessageMap@CRichEditView@@KAPEBUAFX_MSGMAP@@XZ @ 3770 NONAME
 ?GetThisMessageMap@CScrollView@@KAPEBUAFX_MSGMAP@@XZ @ 3771 NONAME
 ?GetThisMessageMap@CSocketWnd@@KAPEBUAFX_MSGMAP@@XZ @ 3772 NONAME
 ?GetThisMessageMap@CSplitButton@@KAPEBUAFX_MSGMAP@@XZ @ 3773 NONAME
 ?GetThisMessageMap@CSplitterWnd@@KAPEBUAFX_MSGMAP@@XZ @ 3774 NONAME
 ?GetThisMessageMap@CStatusBar@@KAPEBUAFX_MSGMAP@@XZ @ 3775 NONAME
 ?GetThisMessageMap@CTabCtrl@@KAPEBUAFX_MSGMAP@@XZ @ 3776 NONAME
 ?GetThisMessageMap@CToolBar@@KAPEBUAFX_MSGMAP@@XZ @ 3777 NONAME
 ?GetThisMessageMap@CToolBarCtrl@@KAPEBUAFX_MSGMAP@@XZ @ 3778 NONAME
 ?GetThisMessageMap@CToolTipCtrl@@KAPEBUAFX_MSGMAP@@XZ @ 3779 NONAME
 ?GetThisMessageMap@CTreeCtrl@@KAPEBUAFX_MSGMAP@@XZ @ 3780 NONAME
 ?GetThisMessageMap@CTreeView@@KAPEBUAFX_MSGMAP@@XZ @ 3781 NONAME
 ?GetThisMessageMap@CView@@KAPEBUAFX_MSGMAP@@XZ @ 3782 NONAME
 ?GetThisMessageMap@CWinApp@@KAPEBUAFX_MSGMAP@@XZ @ 3783 NONAME
 ?GetThisMessageMap@CWnd@@KAPEBUAFX_MSGMAP@@XZ @ 3784 NONAME
 ?GetTime@CDateTimeCtrl@@QEBAHAEAVCOleDateTime@ATL@@@Z @ 3785 NONAME
 ?GetTime@CDateTimeCtrl@@QEBAKAEAVCTime@ATL@@@Z @ 3786 NONAME
 ?GetTipText@CStatusBarCtrl@@QEBA?AV?$CStringT@_WV?$StrTraitMFC_DLL@_WV?$ChTraitsCRT@_W@ATL@@@@@ATL@@H@Z @ 3787 NONAME
 ?GetToday@CMonthCalCtrl@@QEBAHAEAVCOleDateTime@ATL@@@Z @ 3788 NONAME
 ?GetToday@CMonthCalCtrl@@QEBAHAEAVCTime@ATL@@@Z @ 3789 NONAME
 ?GetToolBar@CHtmlView@@QEBAHXZ @ 3790 NONAME
 ?GetToolInfo@CToolTipCtrl@@QEBAHAEAVCToolInfo@@PEAVCWnd@@_K@Z @ 3791 NONAME
 ?GetTop@CHtmlView@@QEBAJXZ @ 3792 NONAME
 ?GetTopLevelContainer@CHtmlView@@QEBAHXZ @ 3793 NONAME
 ?GetTopLevelFrame@CWnd@@QEBAPEAVCFrameWnd@@XZ @ 3794 NONAME
 ?GetTopLevelOwner@CWnd@@QEBAPEAV1@XZ @ 3795 NONAME
 ?GetTopLevelParent@CWnd@@QEBAPEAV1@XZ @ 3796 NONAME
 ?GetTrueClientSize@CScrollView@@IEAAHAEAVCSize@@0@Z @ 3797 NONAME
 ?GetTrueRect@CRectTracker@@QEBAXPEAUtagRECT@@@Z @ 3798 NONAME
 ?GetType@CHtmlView@@QEBA?AV?$CStringT@_WV?$StrTraitMFC_DLL@_WV?$ChTraitsCRT@_W@ATL@@@@@ATL@@XZ @ 3799 NONAME
 ?GetType@CPictureHolder@@QEAAFXZ @ 3800 NONAME
 ?GetType@CProperty@@QEAAKXZ @ 3801 NONAME
 ?GetTypeInfo@CDHtmlControlSink@@UEAAJIKPEAPEAUITypeInfo@@@Z @ 3802 NONAME
 ?GetTypeInfo@CDHtmlElementEventSink@@UEAAJIKPEAPEAUITypeInfo@@@Z @ 3803 NONAME
 ?GetTypeInfo@CDHtmlEventSink@@UEAAJIKPEAPEAUITypeInfo@@@Z @ 3804 NONAME
 ?GetTypeInfo@COleDispatchImpl@@UEAAJIKPEAPEAUITypeInfo@@@Z @ 3805 NONAME
 ?GetTypeInfo@XAccessible@CWnd@@UEAAJIKPEAPEAUITypeInfo@@@Z @ 3806 NONAME
 ?GetTypeInfo@XAmbientProps@COleControlSite@@UEAAJIKPEAPEAUITypeInfo@@@Z @ 3807 NONAME
 ?GetTypeInfo@XEventSink@COleControlSite@@UEAAJIKPEAPEAUITypeInfo@@@Z @ 3808 NONAME
 ?GetTypeInfoCount@CCmdTarget@@UEAAIXZ @ 3809 NONAME
 ?GetTypeInfoCount@CDHtmlControlSink@@UEAAJPEAI@Z @ 3810 NONAME
 ?GetTypeInfoCount@CDHtmlElementEventSink@@UEAAJPEAI@Z @ 3811 NONAME
 ?GetTypeInfoCount@CDHtmlEventSink@@UEAAJPEAI@Z @ 3812 NONAME
 ?GetTypeInfoCount@COleDispatchImpl@@UEAAJPEAI@Z @ 3813 NONAME
 ?GetTypeInfoCount@XAccessible@CWnd@@UEAAJPEAI@Z @ 3814 NONAME
 ?GetTypeInfoCount@XAmbientProps@COleControlSite@@UEAAJPEAI@Z @ 3815 NONAME
 ?GetTypeInfoCount@XEventSink@COleControlSite@@UEAAJPEAI@Z @ 3816 NONAME
 ?GetTypeInfoOfGuid@CCmdTarget@@QEAAJKAEBU_GUID@@PEAPEAUITypeInfo@@@Z @ 3817 NONAME
 ?GetTypeLib@CCmdTarget@@UEAAJKPEAPEAUITypeLib@@@Z @ 3818 NONAME
 ?GetTypeLibCache@CCmdTarget@@UEAAPEAVCTypeLibCache@@XZ @ 3819 NONAME
 ?GetUBound@COleSafeArray@@QEAAXKPEAJ@Z @ 3820 NONAME
 ?GetUserClassID@XOleObject@CDocObjectServer@@UEAAJPEAU_GUID@@@Z @ 3821 NONAME
 ?GetUserClassID@XOleObject@COleControl@@UEAAJPEAU_GUID@@@Z @ 3822 NONAME
 ?GetUserClassID@XOleObject@COleServerDoc@@UEAAJPEAU_GUID@@@Z @ 3823 NONAME
 ?GetUserClassID@XOleObject@COleServerItem@@UEAAJPEAU_GUID@@@Z @ 3824 NONAME
 ?GetUserDefinedType@CDHtmlControlSink@@QEAAGPEAUITypeInfo@@K@Z @ 3825 NONAME
 ?GetUserType@COleClientItem@@QEAAXW4tagUSERCLASSTYPE@@AEAV?$CStringT@_WV?$StrTraitMFC_DLL@_WV?$ChTraitsCRT@_W@ATL@@@@@ATL@@@Z @ 3826 NONAME
 ?GetUserType@COleControl@@IEAAXPEA_W@Z @ 3827 NONAME
 ?GetUserType@XOleObject@CDocObjectServer@@UEAAJKPEAPEA_W@Z @ 3828 NONAME
 ?GetUserType@XOleObject@COleControl@@UEAAJKPEAPEA_W@Z @ 3829 NONAME
 ?GetUserType@XOleObject@COleServerDoc@@UEAAJKPEAPEA_W@Z @ 3830 NONAME
 ?GetUserType@XOleObject@COleServerItem@@UEAAJKPEAPEA_W@Z @ 3831 NONAME
 ?GetValueAt@CMapPtrToPtr@@QEBAPEAXPEAX@Z @ 3832 NONAME
 ?GetVerb@CHttpFile@@QEBA?AV?$CStringT@_WV?$StrTraitMFC_DLL@_WV?$ChTraitsCRT@_W@ATL@@@@@ATL@@XZ @ 3833 NONAME
 ?GetVersion@CDockState@@QEAAKXZ @ 3834 NONAME
 ?GetView@CHtmlEditDoc@@UEBAPEAVCHtmlEditView@@XZ @ 3835 NONAME
 ?GetView@CRichEditDoc@@UEBAPEAVCRichEditView@@XZ @ 3836 NONAME
 ?GetViewInfo@XOleUIObjInfo@COlePropertiesDialog@@UEAAJKPEAPEAXPEAKPEAH@Z @ 3837 NONAME
 ?GetViewStatus@XViewObject@COleControl@@UEAAJPEAK@Z @ 3838 NONAME
 ?GetVisible@CHtmlView@@QEBAHXZ @ 3839 NONAME
 ?GetWheelScrollDistance@CScrollView@@UEAA?AVCSize@@V2@HH@Z @ 3840 NONAME
 ?GetWidth@CHtmlView@@QEBAJXZ @ 3841 NONAME
 ?GetWindow@XOleInPlaceActiveObject@COleControl@@UEAAJPEAPEAUHWND__@@@Z @ 3842 NONAME
 ?GetWindow@XOleInPlaceActiveObject@COleServerDoc@@UEAAJPEAPEAUHWND__@@@Z @ 3843 NONAME
 ?GetWindow@XOleInPlaceFrame@COleFrameHook@@UEAAJPEAPEAUHWND__@@@Z @ 3844 NONAME
 ?GetWindow@XOleInPlaceObject@COleControl@@UEAAJPEAPEAUHWND__@@@Z @ 3845 NONAME
 ?GetWindow@XOleInPlaceObject@COleServerDoc@@UEAAJPEAPEAUHWND__@@@Z @ 3846 NONAME
 ?GetWindow@XOleIPFrame@COleControlContainer@@UEAAJPEAPEAUHWND__@@@Z @ 3847 NONAME
 ?GetWindow@XOleIPSite@COleClientItem@@UEAAJPEAPEAUHWND__@@@Z @ 3848 NONAME
 ?GetWindow@XOleIPSite@COleControlSite@@UEAAJPEAPEAUHWND__@@@Z @ 3849 NONAME
 ?GetWindowContext@CRichEditCntrItem@@QEAAJPEAPEAUIOleInPlaceFrame@@PEAPEAUIOleInPlaceUIWindow@@PEAUtagOIFI@@@Z @ 3850 NONAME
 ?GetWindowContext@CRichEditView@@QEAAJPEAPEAUIOleInPlaceFrame@@PEAPEAUIOleInPlaceUIWindow@@PEAUtagOIFI@@@Z @ 3851 NONAME
 ?GetWindowContext@XOleIPSite@COleClientItem@@UEAAJPEAPEAUIOleInPlaceFrame@@PEAPEAUIOleInPlaceUIWindow@@PEAUtagRECT@@2PEAUtagOIFI@@@Z @ 3852 NONAME
 ?GetWindowContext@XOleIPSite@COleControlSite@@UEAAJPEAPEAUIOleInPlaceFrame@@PEAPEAUIOleInPlaceUIWindow@@PEAUtagRECT@@2PEAUtagOIFI@@@Z @ 3853 NONAME
 ?GetWindowedChildCount@CWnd@@QEAAJXZ @ 3854 NONAME
 ?GetWindowLessChildCount@CWnd@@QEAAJXZ @ 3855 NONAME
 ?GetWindowlessDropTarget@COleControl@@UEAAPEAUIDropTarget@@XZ @ 3856 NONAME
 ?GetWindowMenuPopup@CMDIFrameWnd@@UEAAPEAUHMENU__@@PEAU2@@Z @ 3857 NONAME
 ?GetWindowPlacement@CWnd@@QEBAHPEAUtagWINDOWPLACEMENT@@@Z @ 3858 NONAME
 ?GetWindowTextLengthW@CWnd@@QEBAHXZ @ 3859 NONAME
 ?GetWindowTextW@COleControlSite@@UEBAXAEAV?$CStringT@_WV?$StrTraitMFC_DLL@_WV?$ChTraitsCRT@_W@ATL@@@@@ATL@@@Z @ 3860 NONAME
 ?GetWindowTextW@CWnd@@QEBAHPEA_WH@Z @ 3861 NONAME
 ?GetWindowTextW@CWnd@@QEBAXAEAV?$CStringT@_WV?$StrTraitMFC_DLL@_WV?$ChTraitsCRT@_W@ATL@@@@@ATL@@@Z @ 3862 NONAME
 ?GetZoomFactor@COleServerDoc@@QEBAHPEAUtagSIZE@@0PEBUtagRECT@@@Z @ 3863 NONAME
 ?GiveFeedback@COleDropSource@@UEAAJK@Z @ 3864 NONAME
 ?GiveFeedback@XDropSource@COleDropSource@@UEAAJK@Z @ 3865 NONAME
 ?GrayCtlColor@CWnd@@SAHPEAUHDC__@@PEAUHWND__@@IPEAUHBRUSH__@@K@Z @ 3866 NONAME
 ?GrayStringW@CPreviewDC@@UEAAHPEAVCBrush@@P6AHPEAUHDC__@@_JH@Z2HHHHH@Z @ 3867 NONAME
 ?GrowFile@CMemFile@@MEAAX_K@Z @ 3868 NONAME
 ?HandleFloatingSysCommand@CWnd@@QEAAHI_J@Z @ 3869 NONAME
 ?HandleInComingCall@XMessageFilter@COleMessageFilter@@UEAAKKPEAUHTASK__@@KPEAUtagINTERFACEINFO@@@Z @ 3870 NONAME
 ?HandleInitDialog@CDialog@@IEAA_J_K_J@Z @ 3871 NONAME
 ?HandleInitDialog@CDialogBar@@IEAA_J_K_J@Z @ 3872 NONAME
 ?HandleInitDialog@CFormView@@IEAA_J_K_J@Z @ 3873 NONAME
 ?HandleInitDialog@CPrintDialogEx@@QEAA_J_K_J@Z @ 3874 NONAME
 ?HandleInitDialog@CPropertySheet@@IEAA_J_K_J@Z @ 3875 NONAME
 ?HandleMButtonDown@CScrollView@@QEAA_J_K_J@Z @ 3876 NONAME
 ?HandleMessage@CPrintDialogEx@@UEAAJPEAUHWND__@@I_K_JPEA_J@Z @ 3877 NONAME
 ?HandleSetFocus@COleControlContainer@@UEAAHXZ @ 3878 NONAME
 ?HandleSetFont@CDialog@@IEAA_J_K_J@Z @ 3879 NONAME
 ?HandleWindowlessMessage@COleControlContainer@@UEAAHI_K_JPEA_J@Z @ 3880 NONAME
 ?HandsOffStorage@XPersistStorage@COleControl@@UEAAJXZ @ 3881 NONAME
 ?HandsOffStorage@XPersistStorage@COleServerDoc@@UEAAJXZ @ 3882 NONAME
 ?HasBlankItems@COleDocument@@QEBAHXZ @ 3883 NONAME
 ?HasFont@CDialogTemplate@@QEBAHXZ @ 3884 NONAME
 ?Help@XPropertyPage@COlePropertyPage@@UEAAJPEB_W@Z @ 3885 NONAME
 ?HexDump@CDumpContext@@QEAAXPEB_WPEAEHH@Z @ 3886 NONAME
 ?hFileNull@CFile@@2QEAXEA @ 3887 NONAME DATA
 ?HideApplication@CWinApp@@QEAAXXZ @ 3888 NONAME
 ?HideControl@CFileDialog@@QEAAXH@Z @ 3889 NONAME
 ?HideUI@CBrowserControlSite@@MEAAJXZ @ 3890 NONAME
 ?HideUI@CDHtmlDialog@@UEAAJXZ @ 3891 NONAME
 ?HideUI@XDocHostUIHandler@CHtmlControlSite@@UEAAJXZ @ 3892 NONAME
 ?HIMETRICtoDP@CDC@@QEBAXPEAUtagSIZE@@@Z @ 3893 NONAME
 ?HIMETRICtoLP@CDC@@QEBAXPEAUtagSIZE@@@Z @ 3894 NONAME
 ?HitTest@CListCtrl@@QEBAHVCPoint@@PEAI@Z @ 3895 NONAME
 ?HitTest@CRectTracker@@QEBAHVCPoint@@@Z @ 3896 NONAME
 ?HitTest@CSplitterWnd@@MEBAHVCPoint@@@Z @ 3897 NONAME
 ?HitTest@CToolTipCtrl@@QEBAHPEAVCWnd@@VCPoint@@PEAUtagTOOLINFOW@@@Z @ 3898 NONAME
 ?HitTest@CTreeCtrl@@QEBAPEAU_TREEITEM@@VCPoint@@PEAI@Z @ 3899 NONAME
 ?HitTestHandles@CRectTracker@@IEBAHVCPoint@@@Z @ 3900 NONAME
 ?HtmlHelpW@CWinApp@@UEAAX_KI@Z @ 3901 NONAME
 ?HtmlHelpW@CWnd@@UEAAX_KI@Z @ 3902 NONAME
 ?IdFromRowCol@CSplitterWnd@@QEBAHHH@Z @ 3903 NONAME
 ?IgnoreApply@COlePropertyPage@@QEAAXI@Z @ 3904 NONAME
 ?IgnoreWindowMessage@COleControl@@IEAAHI_K_JPEA_J@Z @ 3905 NONAME
 ?InitApplication@CWinApp@@UEAAHXZ @ 3906 NONAME
 ?InitCache@XOleCache@COleControl@@UEAAJPEAUIDataObject@@@Z @ 3907 NONAME
 ?InitControlContainer@CWnd@@IEAAHH@Z @ 3908 NONAME
 ?InitDialogInfo@CPropertyPage@@IEAAPEBUDLGTEMPLATE@@PEBU2@@Z @ 3909 NONAME
 ?InitDone@CPrintDialogEx@@UEAAJXZ @ 3910 NONAME
 ?InitFromData@XOleObject@CDocObjectServer@@UEAAJPEAUIDataObject@@HK@Z @ 3911 NONAME
 ?InitFromData@XOleObject@COleControl@@UEAAJPEAUIDataObject@@HK@Z @ 3912 NONAME
 ?InitFromData@XOleObject@COleServerDoc@@UEAAJPEAUIDataObject@@HK@Z @ 3913 NONAME
 ?InitFromData@XOleObject@COleServerItem@@UEAAJPEAUIDataObject@@HK@Z @ 3914 NONAME
 ?InitHashTable@CMapPtrToPtr@@QEAAXIH@Z @ 3915 NONAME
 ?InitHashTable@CMapPtrToWord@@QEAAXIH@Z @ 3916 NONAME
 ?InitHashTable@CMapStringToOb@@QEAAXIH@Z @ 3917 NONAME
 ?InitHashTable@CMapStringToPtr@@QEAAXIH@Z @ 3918 NONAME
 ?InitHashTable@CMapStringToString@@QEAAXIH@Z @ 3919 NONAME
 ?InitHashTable@CMapWordToOb@@QEAAXIH@Z @ 3920 NONAME
 ?InitHashTable@CMapWordToPtr@@QEAAXIH@Z @ 3921 NONAME
 ?Initialize@CDataSourceControl@@QEAAJXZ @ 3922 NONAME
 ?Initialize@CDHtmlDialog@@IEAAXXZ @ 3923 NONAME
 ?InitializeFont@CFontHolder@@QEAAXPEBUtagFONTDESC@@PEAUIDispatch@@@Z @ 3924 NONAME
 ?InitializeIIDs@COleControl@@QEAAXPEBU_GUID@@0@Z @ 3925 NONAME
 ?InitializeReplace@CEditView@@IEAAHXZ @ 3926 NONAME
 ?InitialUpdateFrame@CDocTemplate@@UEAAXPEAVCFrameWnd@@PEAVCDocument@@H@Z @ 3927 NONAME
 ?InitialUpdateFrame@CFrameWnd@@QEAAXPEAVCDocument@@H@Z @ 3928 NONAME
 ?InitInstance@COleControlModule@@UEAAHXZ @ 3929 NONAME
 ?InitInstance@CWinApp@@UEAAHXZ @ 3930 NONAME
 ?InitInstance@CWinThread@@UEAAHXZ @ 3931 NONAME
 ?InitLibId@CWinApp@@UEAAXXZ @ 3932 NONAME
 ?InitLoop@CDockContext@@QEAAXXZ @ 3933 NONAME
 ?InitModalIndirect@CDialog@@QEAAHPEAXPEAVCWnd@@@Z @ 3934 NONAME
 ?InitModalIndirect@CDialog@@QEAAHPEBUDLGTEMPLATE@@PEAVCWnd@@PEAX@Z @ 3935 NONAME
 ?InitNew@XPersistMemory@COleControl@@UEAAJXZ @ 3936 NONAME
 ?InitNew@XPersistPropertyBag@COleControl@@UEAAJXZ @ 3937 NONAME
 ?InitNew@XPersistStorage@COleControl@@UEAAJPEAUIStorage@@@Z @ 3938 NONAME
 ?InitNew@XPersistStorage@COleServerDoc@@UEAAJPEAUIStorage@@@Z @ 3939 NONAME
 ?InitNew@XPersistStreamInit@COleControl@@UEAAJXZ @ 3940 NONAME
 ?InitRecord@CRecordset@@QEAAXXZ @ 3941 NONAME
 ?InitStockEventMask@COleControl@@IEAAXXZ @ 3942 NONAME
 ?InitStockPropMask@COleControl@@IEAAXXZ @ 3943 NONAME
 ?InitString@CSimpleException@@QEAAXXZ @ 3944 NONAME
 ?InPlaceDeactivate@XOleInPlaceObject@COleControl@@UEAAJXZ @ 3945 NONAME
 ?InPlaceDeactivate@XOleInPlaceObject@COleServerDoc@@UEAAJXZ @ 3946 NONAME
 ?Insert@?$CStringT@_WV?$StrTraitMFC_DLL@_WV?$ChTraitsCRT@_W@ATL@@@@@ATL@@QEAAHH_W@Z @ 3947 NONAME
 ?Insert@?$CStringT@_WV?$StrTraitMFC_DLL@_WV?$ChTraitsCRT@_W@ATL@@@@@ATL@@QEAAHHPEB_W@Z @ 3948 NONAME
 ?Insert@?$CStringT@DV?$StrTraitMFC_DLL@DV?$ChTraitsCRT@D@ATL@@@@@ATL@@QEAAHHD@Z @ 3949 NONAME
 ?Insert@?$CStringT@DV?$StrTraitMFC_DLL@DV?$ChTraitsCRT@D@ATL@@@@@ATL@@QEAAHHPEBD@Z @ 3950 NONAME
 ?Insert@CDockBar@@IEAAHPEAVCControlBar@@VCRect@@VCPoint@@@Z @ 3951 NONAME
 ?InsertAfter@CObList@@QEAAPEAU__POSITION@@PEAU2@PEAVCObject@@@Z @ 3952 NONAME
 ?InsertAfter@CPtrList@@QEAAPEAU__POSITION@@PEAU2@PEAX@Z @ 3953 NONAME
 ?InsertAfter@CStringList@@QEAAPEAU__POSITION@@PEAU2@AEBV?$CStringT@_WV?$StrTraitMFC_DLL@_WV?$ChTraitsCRT@_W@ATL@@@@@ATL@@@Z @ 3954 NONAME
 ?InsertAfter@CStringList@@QEAAPEAU__POSITION@@PEAU2@PEB_W@Z @ 3955 NONAME
 ?InsertAt@CByteArray@@QEAAX_JE0@Z @ 3956 NONAME
 ?InsertAt@CByteArray@@QEAAX_JPEAV1@@Z @ 3957 NONAME
 ?InsertAt@CDWordArray@@QEAAX_JK0@Z @ 3958 NONAME
 ?InsertAt@CDWordArray@@QEAAX_JPEAV1@@Z @ 3959 NONAME
 ?InsertAt@CObArray@@QEAAX_JPEAV1@@Z @ 3960 NONAME
 ?InsertAt@CObArray@@QEAAX_JPEAVCObject@@0@Z @ 3961 NONAME
 ?InsertAt@CPtrArray@@QEAAX_JPEAV1@@Z @ 3962 NONAME
 ?InsertAt@CPtrArray@@QEAAX_JPEAX0@Z @ 3963 NONAME
 ?InsertAt@CStringArray@@QEAAX_JAEBV?$CStringT@_WV?$StrTraitMFC_DLL@_WV?$ChTraitsCRT@_W@ATL@@@@@ATL@@0@Z @ 3964 NONAME
 ?InsertAt@CStringArray@@QEAAX_JPEB_W0@Z @ 3965 NONAME
 ?InsertAt@CStringArray@@QEAAX_JPEBV1@@Z @ 3966 NONAME
 ?InsertAt@CUIntArray@@QEAAX_JI0@Z @ 3967 NONAME
 ?InsertAt@CUIntArray@@QEAAX_JPEAV1@@Z @ 3968 NONAME
 ?InsertAt@CWordArray@@QEAAX_JG0@Z @ 3969 NONAME
 ?InsertAt@CWordArray@@QEAAX_JPEAV1@@Z @ 3970 NONAME
 ?InsertBefore@CObList@@QEAAPEAU__POSITION@@PEAU2@PEAVCObject@@@Z @ 3971 NONAME
 ?InsertBefore@CPtrList@@QEAAPEAU__POSITION@@PEAU2@PEAX@Z @ 3972 NONAME
 ?InsertBefore@CStringList@@QEAAPEAU__POSITION@@PEAU2@AEBV?$CStringT@_WV?$StrTraitMFC_DLL@_WV?$ChTraitsCRT@_W@ATL@@@@@ATL@@@Z @ 3973 NONAME
 ?InsertBefore@CStringList@@QEAAPEAU__POSITION@@PEAU2@PEB_W@Z @ 3974 NONAME
 ?InsertColumn@CListCtrl@@QEAAHHPEB_WHHH@Z @ 3975 NONAME
 ?InsertEmpty@CStringArray@@IEAAX_J0@Z @ 3976 NONAME
 ?InsertFileAsObject@CRichEditView@@QEAAXPEB_W@Z @ 3977 NONAME
 ?InsertItem@CComboBoxEx@@QEAAHPEBUtagCOMBOBOXEXITEMW@@@Z @ 3978 NONAME
 ?InsertItem@CListCtrl@@QEAAHIHPEB_WIIH_J@Z @ 3979 NONAME
 ?InsertItem@CRichEditView@@QEAAJPEAVCRichEditCntrItem@@@Z @ 3980 NONAME
 ?InsertItem@CTabCtrl@@QEAAJIHPEB_WH_J@Z @ 3981 NONAME
 ?InsertItem@CTabCtrl@@QEAAJIHPEB_WH_JKK@Z @ 3982 NONAME
 ?InsertItem@CTreeCtrl@@QEAAPEAU_TREEITEM@@IPEB_WHHII_JPEAU2@2@Z @ 3983 NONAME
 ?InsertMenus@XOleInPlaceFrame@COleFrameHook@@UEAAJPEAUHMENU__@@PEAUtagOleMenuGroupWidths@@@Z @ 3984 NONAME
 ?InsertMenus@XOleIPFrame@COleControlContainer@@UEAAJPEAUHMENU__@@PEAUtagOleMenuGroupWidths@@@Z @ 3985 NONAME
 ?InternalGetFont@COleControl@@QEAAAEAVCFontHolder@@XZ @ 3986 NONAME
 ?InternalGetText@COleControl@@QEAAAEBV?$CStringT@_WV?$StrTraitMFC_DLL@_WV?$ChTraitsCRT@_W@ATL@@@@@ATL@@XZ @ 3987 NONAME
 ?InternalQueryInterface@CCmdTarget@@QEAAKPEBXPEAPEAX@Z @ 3988 NONAME
 ?InternalRelease@CCmdTarget@@QEAAKXZ @ 3989 NONAME
 ?IntersectClipRect@CDC@@QEAAHHHHH@Z @ 3990 NONAME
 ?IntersectClipRect@CDC@@QEAAHPEBUtagRECT@@@Z @ 3991 NONAME
 ?InvalidateCheck@CCheckListBox@@IEAAXH@Z @ 3992 NONAME
 ?InvalidateControl@COleControl@@QEAAXPEBUtagRECT@@H@Z @ 3993 NONAME
 ?InvalidateItem@CCheckListBox@@IEAAXH@Z @ 3994 NONAME
 ?InvalidateRect@XOleIPSite@COleControlSite@@UEAAJPEBUtagRECT@@H@Z @ 3995 NONAME
 ?InvalidateRgn@COleControl@@QEAAXPEAVCRgn@@H@Z @ 3996 NONAME
 ?InvalidateRgn@XOleIPSite@COleControlSite@@UEAAJPEAUHRGN__@@H@Z @ 3997 NONAME
 ?Invoke@CDHtmlControlSink@@UEAAJJAEBU_GUID@@KGPEAUtagDISPPARAMS@@PEAUtagVARIANT@@PEAUtagEXCEPINFO@@PEAI@Z @ 3998 NONAME
 ?Invoke@CDHtmlElementEventSink@@UEAAJJAEBU_GUID@@KGPEAUtagDISPPARAMS@@PEAUtagVARIANT@@PEAUtagEXCEPINFO@@PEAI@Z @ 3999 NONAME
 ?Invoke@CDHtmlEventSink@@UEAAJJAEBU_GUID@@KGPEAUtagDISPPARAMS@@PEAUtagVARIANT@@PEAUtagEXCEPINFO@@PEAI@Z @ 4000 NONAME
 ?Invoke@COleDispatchImpl@@UEAAJJAEBU_GUID@@KGPEAUtagDISPPARAMS@@PEAUtagVARIANT@@PEAUtagEXCEPINFO@@PEAI@Z @ 4001 NONAME
 ?Invoke@XAccessible@CWnd@@UEAAJJAEBU_GUID@@KGPEAUtagDISPPARAMS@@PEAUtagVARIANT@@PEAUtagEXCEPINFO@@PEAI@Z @ 4002 NONAME
 ?Invoke@XAmbientProps@COleControlSite@@UEAAJJAEBU_GUID@@KGPEAUtagDISPPARAMS@@PEAUtagVARIANT@@PEAUtagEXCEPINFO@@PEAI@Z @ 4003 NONAME
 ?Invoke@XEventSink@COleControlSite@@UEAAJJAEBU_GUID@@KGPEAUtagDISPPARAMS@@PEAUtagVARIANT@@PEAUtagEXCEPINFO@@PEAI@Z @ 4004 NONAME
 ?InvokeFromFuncInfo@CDHtmlControlSink@@QEAAJP8CDHtmlSinkHandler@@EAAXXZAEAU_ATL_FUNC_INFO@ATL@@PEAUtagDISPPARAMS@@PEAUtagVARIANT@@@Z @ 4005 NONAME
 ?InvokeHelper@COleControlSite@@UEAAXJGGPEAXPEBEZZ @ 4006 NONAME
 ?InvokeHelper@COleDispatchDriver@@QEAAXJGGPEAXPEBEZZ @ 4007 NONAME
 ?InvokeHelper@CWnd@@QEAAXJGGPEAXPEBEZZ @ 4008 NONAME
 ?InvokeHelperV@COleControlSite@@UEAAXJGGPEAXPEBEPEAD@Z @ 4009 NONAME
 ?InvokeHelperV@COleDispatchDriver@@QEAAXJGGPEAXPEBEPEAD@Z @ 4010 NONAME
 ?IsAppThemed@CThemeHelper@@SAHXZ @ 4011 NONAME
 ?IsAppThemedFail@CThemeHelper@@CAHXZ @ 4012 NONAME
 ?IsBlank@CDocItem@@UEBAHXZ @ 4013 NONAME
 ?IsBlank@COleServerItem@@MEBAHXZ @ 4014 NONAME
 ?IsButtonEnabled@CPropertyPage@@IEAAHH@Z @ 4015 NONAME
 ?IsChildPane@CSplitterWnd@@QEAAHPEAVCWnd@@PEAH1@Z @ 4016 NONAME
 ?IsConnected@COleServerItem@@QEBAHXZ @ 4017 NONAME
 ?IsDataAvailable@COleDataObject@@QEAAHGPEAUtagFORMATETC@@@Z @ 4018 NONAME
 ?IsDefaultButton@COleControlSite@@QEAAHXZ @ 4019 NONAME
 ?IsDerivedFrom@CRuntimeClass@@QEBAHPEBU1@@Z @ 4020 NONAME
 ?IsDialogMessageW@COccManager@@UEAAHPEAVCWnd@@PEAUtagMSG@@@Z @ 4021 NONAME
 ?IsDialogMessageW@CWnd@@QEAAHPEAUtagMSG@@@Z @ 4022 NONAME
 ?IsDirty@CBlobProperty@@UEAAJXZ @ 4023 NONAME
 ?IsDirty@XPersistFile@COleLinkingDoc@@UEAAJXZ @ 4024 NONAME
 ?IsDirty@XPersistMemory@COleControl@@UEAAJXZ @ 4025 NONAME
 ?IsDirty@XPersistStorage@COleControl@@UEAAJXZ @ 4026 NONAME
 ?IsDirty@XPersistStorage@COleServerDoc@@UEAAJXZ @ 4027 NONAME
 ?IsDirty@XPersistStreamInit@COleControl@@UEAAJXZ @ 4028 NONAME
 ?IsDlgButtonChecked@COleControlContainer@@UEBAIH@Z @ 4029 NONAME
 ?IsDlgButtonChecked@CWnd@@QEBAIH@Z @ 4030 NONAME
 ?IsDockBar@CControlBar@@UEBAHXZ @ 4031 NONAME
 ?IsDockBar@CDockBar@@UEBAHXZ @ 4032 NONAME
 ?IsDots@CFileFind@@UEBAHXZ @ 4033 NONAME
 ?IsDots@CGopherFileFind@@UEBAHXZ @ 4034 NONAME
 ?IsEmpty@?$CSimpleStringT@_W$00@ATL@@QEBA_NXZ @ 4035 NONAME
 ?IsEmpty@?$CSimpleStringT@D$00@ATL@@QEBA_NXZ @ 4036 NONAME
 ?IsEnabled@CCheckListBox@@QEAAHH@Z @ 4037 NONAME
 ?IsExternalDispatchSafe@CDHtmlDialog@@UEAAHXZ @ 4038 NONAME
 ?IsFieldDirty@CRecordset@@QEAAHPEAX@Z @ 4039 NONAME
 ?IsFieldNull@CRecordset@@QEAAHPEAX@Z @ 4040 NONAME
 ?IsFieldNullable@CRecordset@@QEAAHPEAX@Z @ 4041 NONAME
 ?IsFieldNullable@CRecordset@@QEBAHK@Z @ 4042 NONAME
 ?IsFieldStatusDirty@CRecordset@@QEBAHK@Z @ 4043 NONAME
 ?IsFieldStatusNull@CRecordset@@QEBAHK@Z @ 4044 NONAME
 ?IsFieldType@CFieldExchange@@QEAAHPEAI@Z @ 4045 NONAME
 ?IsFloating@CControlBar@@QEBAHXZ @ 4046 NONAME
 ?IsFrameWnd@CFrameWnd@@UEBAHXZ @ 4047 NONAME
 ?IsFrameWnd@CWnd@@UEBAHXZ @ 4048 NONAME
 ?IsHelpKey@@YAHPEAUtagMSG@@@Z @ 4049 NONAME
 ?IsIdleMessage@CWinThread@@UEAAHPEAUtagMSG@@@Z @ 4050 NONAME
 ?IsInvokeAllowed@CCmdTarget@@UEAAHJ@Z @ 4051 NONAME
 ?IsInvokeAllowed@COleControl@@MEAAHJ@Z @ 4052 NONAME
 ?IsJoin@CRecordset@@SAHPEB_W@Z @ 4053 NONAME
 ?IsKindOf@CObject@@QEBAHPEBUCRuntimeClass@@@Z @ 4054 NONAME
 ?IsLabelControl@COccManager@@SAHPEAUCOleControlSiteOrWnd@@@Z @ 4055 NONAME
 ?IsLabelControl@COccManager@@SAHPEAVCWnd@@@Z @ 4056 NONAME
 ?IsLicenseValid@COleObjectFactory@@QEAAHXZ @ 4057 NONAME
 ?IsManaged@CControlCreationInfo@@QEBAHXZ @ 4058 NONAME
 ?IsMatchingMnemonic@COccManager@@SAHPEAUCOleControlSiteOrWnd@@PEAUtagMSG@@@Z @ 4059 NONAME
 ?IsMatchingMnemonic@COccManager@@SAHPEAVCWnd@@PEAUtagMSG@@@Z @ 4060 NONAME
 ?IsMatchingMnemonic@COleControlSite@@QEAAHPEAUtagMSG@@@Z @ 4061 NONAME
 ?IsModified@CHtmlEditDoc@@UEAAHXZ @ 4062 NONAME
 ?IsModified@COleClientItem@@QEBAHXZ @ 4063 NONAME
 ?IsModified@COleControl@@QEAAHXZ @ 4064 NONAME
 ?IsModified@COlePropertyPage@@QEAAHXZ @ 4065 NONAME
 ?IsModified@CRichEditDoc@@UEAAHXZ @ 4066 NONAME
 ?IsOnFirstRecord@CRecordView@@QEAAHXZ @ 4067 NONAME
 ?IsOnLastRecord@CRecordView@@QEAAHXZ @ 4068 NONAME
 ?IsOpen@CRecordset@@QEBAHXZ @ 4069 NONAME
 ?IsPageDirty@XPropertyPage@COlePropertyPage@@UEAAJXZ @ 4070 NONAME
 ?IsParamStatusNull@CRecordset@@QEBAHK@Z @ 4071 NONAME
 ?IsRecordsetUpdatable@CRecordset@@IEAAHXZ @ 4072 NONAME
 ?IsResultExpected@CCmdTarget@@QEAAHXZ @ 4073 NONAME
 ?IsRichEditFormat@CRichEditView@@SAHG@Z @ 4074 NONAME
 ?IsRunning@XOleItemContainer@COleLinkingDoc@@UEAAJPEA_W@Z @ 4075 NONAME
 ?IsSelected@CRichEditView@@MEBAHPEBVCObject@@@Z @ 4076 NONAME
 ?IsSelected@CView@@UEBAHPEBVCObject@@@Z @ 4077 NONAME
 ?IsSelectQueryUpdatable@CRecordset@@QEAAHPEB_W@Z @ 4078 NONAME
 ?IsSerializable@CObject@@QEBAHXZ @ 4079 NONAME
 ?IsSignificantMessage@COleMessageFilter@@UEAAHPEAUtagMSG@@@Z @ 4080 NONAME
 ?IsSinkedElement@CDHtmlDialog@@IEAAHPEAUIDispatch@@@Z @ 4081 NONAME
 ?IsSQLUpdatable@CRecordset@@QEAAHPEB_W@Z @ 4082 NONAME
 ?IsSubclassedControl@COleControl@@UEAAHXZ @ 4083 NONAME
 ?IsThemeBackgroundPartiallyTransparent@CThemeHelper@@SAHPEAXHH@Z @ 4084 NONAME
 ?IsThemeBackgroundPartiallyTransparentFail@CThemeHelper@@CAHPEAXHH@Z @ 4085 NONAME
 ?IsThemePartDefined@CThemeHelper@@SAHPEAXHH@Z @ 4086 NONAME
 ?IsThemePartDefinedFail@CThemeHelper@@CAHPEAXHH@Z @ 4087 NONAME
 ?IsTopParentActive@CWnd@@QEBAHXZ @ 4088 NONAME
 ?IsTracking@CFrameWnd@@QEBAHXZ @ 4089 NONAME
 ?IsUpToDate@XOleObject@CDocObjectServer@@UEAAJXZ @ 4090 NONAME
 ?IsUpToDate@XOleObject@COleControl@@UEAAJXZ @ 4091 NONAME
 ?IsUpToDate@XOleObject@COleServerDoc@@UEAAJXZ @ 4092 NONAME
 ?IsUpToDate@XOleObject@COleServerItem@@UEAAJXZ @ 4093 NONAME
 ?IsVisible@CControlBar@@UEBAHXZ @ 4094 NONAME
 ?IsWindowEnabled@COleControlSite@@UEBAHXZ @ 4095 NONAME
 ?IsWindowEnabled@CWnd@@QEBAHXZ @ 4096 NONAME
 ?ItemFromPoint@CListBox@@QEBAIVCPoint@@AEAH@Z @ 4097 NONAME
 ?ItemHasChildren@CTreeCtrl@@QEBAHPEAU_TREEITEM@@@Z @ 4098 NONAME
 ?KeyDown@COleControl@@IEAAXPEAG@Z @ 4099 NONAME
 ?KeyUp@COleControl@@IEAAXPEAG@Z @ 4100 NONAME
 ?KillSocket@CAsyncSocket@@SAX_KPEAV1@@Z @ 4101 NONAME
 ?Layout@CToolBar@@IEAAXXZ @ 4102 NONAME
 ?Left@?$CStringT@_WV?$StrTraitMFC_DLL@_WV?$ChTraitsCRT@_W@ATL@@@@@ATL@@QEBA?AV12@H@Z @ 4103 NONAME
 ?Left@?$CStringT@DV?$StrTraitMFC_DLL@DV?$ChTraitsCRT@D@ATL@@@@@ATL@@QEBA?AV12@H@Z @ 4104 NONAME
 ?LineIndex@CRichEditCtrl@@QEBAHH@Z @ 4105 NONAME
 ?LineLength@CRichEditCtrl@@QEBAHH@Z @ 4106 NONAME
 ?LineScroll@CRichEditCtrl@@QEAAXHH@Z @ 4107 NONAME
 ?LineTo@CDC@@QEAAHHH@Z @ 4108 NONAME
 ?lMaxSize@CRichEditView@@2KA @ 4109 NONAME DATA
 ?Load@CBlobProperty@@UEAAJPEAUIStream@@@Z @ 4110 NONAME
 ?Load@CDialogTemplate@@QEAAHPEB_W@Z @ 4111 NONAME
 ?Load@COleControl@@QEAAXPEB_WAEAVCDataPathProperty@@@Z @ 4112 NONAME
 ?Load@CRuntimeClass@@SAPEAU1@AEAVCArchive@@PEAI@Z @ 4113 NONAME
 ?Load@XPersistFile@COleLinkingDoc@@UEAAJPEB_WK@Z @ 4114 NONAME
 ?Load@XPersistMemory@COleControl@@UEAAJPEAXK@Z @ 4115 NONAME
 ?Load@XPersistPropertyBag@COleControl@@UEAAJPEAUIPropertyBag@@PEAUIErrorLog@@@Z @ 4116 NONAME
 ?Load@XPersistStorage@COleControl@@UEAAJPEAUIStorage@@@Z @ 4117 NONAME
 ?Load@XPersistStorage@COleServerDoc@@UEAAJPEAUIStorage@@@Z @ 4118 NONAME
 ?Load@XPersistStreamInit@COleControl@@UEAAJPEAUIStream@@@Z @ 4119 NONAME
 ?LoadAccelTable@CFrameWnd@@QEAAHPEB_W@Z @ 4120 NONAME
 ?LoadAppLangResourceDLL@CWinApp@@UEAAPEAUHINSTANCE__@@XZ @ 4121 NONAME
 ?LoadBarState@CFrameWnd@@QEAAXPEB_W@Z @ 4122 NONAME
 ?LoadBitmaps@CBitmapButton@@QEAAHPEB_W000@Z @ 4123 NONAME
 ?LoadBitmapW@CToolBar@@QEAAHPEB_W@Z @ 4124 NONAME
 ?LoadFields@CRecordset@@QEAAXXZ @ 4125 NONAME
 ?LoadFrame@CFrameWnd@@UEAAHIKPEAVCWnd@@PEAUCCreateContext@@@Z @ 4126 NONAME
 ?LoadFrame@CMDIChildWnd@@UEAAHIKPEAVCWnd@@PEAUCCreateContext@@@Z @ 4127 NONAME
 ?LoadFrame@CMDIFrameWnd@@UEAAHIKPEAVCWnd@@PEAUCCreateContext@@@Z @ 4128 NONAME
 ?LoadFrame@COleIPFrameWnd@@UEAAHIKPEAVCWnd@@PEAUCCreateContext@@@Z @ 4129 NONAME
 ?LoadFromResource@CDHtmlDialog@@QEAAHI@Z @ 4130 NONAME
 ?LoadFromResource@CDHtmlDialog@@QEAAHPEB_W@Z @ 4131 NONAME
 ?LoadFromResource@CHtmlView@@QEAAHI@Z @ 4132 NONAME
 ?LoadFromResource@CHtmlView@@QEAAHPEB_W@Z @ 4133 NONAME
 ?LoadFromStorage@COleDocument@@MEAAXXZ @ 4134 NONAME
 ?LoadState@CControlBarInfo@@QEAAHPEB_WHPEAVCDockState@@@Z @ 4135 NONAME
 ?LoadState@CDockState@@QEAAXPEB_W@Z @ 4136 NONAME
 ?LoadState@COleControl@@IEAAJPEAUIStream@@@Z @ 4137 NONAME
 ?LoadStdProfileSettings@CWinApp@@IEAAXI@Z @ 4138 NONAME
 ?LoadStringW@?$CStringT@_WV?$StrTraitMFC_DLL@_WV?$ChTraitsCRT@_W@ATL@@@@@ATL@@QEAAHI@Z @ 4139 NONAME
 ?LoadStringW@?$CStringT@_WV?$StrTraitMFC_DLL@_WV?$ChTraitsCRT@_W@ATL@@@@@ATL@@QEAAHPEAUHINSTANCE__@@I@Z @ 4140 NONAME
 ?LoadStringW@?$CStringT@_WV?$StrTraitMFC_DLL@_WV?$ChTraitsCRT@_W@ATL@@@@@ATL@@QEAAHPEAUHINSTANCE__@@IG@Z @ 4141 NONAME
 ?LoadStringW@?$CStringT@DV?$StrTraitMFC_DLL@DV?$ChTraitsCRT@D@ATL@@@@@ATL@@QEAAHI@Z @ 4142 NONAME
 ?LoadStringW@?$CStringT@DV?$StrTraitMFC_DLL@DV?$ChTraitsCRT@D@ATL@@@@@ATL@@QEAAHPEAUHINSTANCE__@@I@Z @ 4143 NONAME
 ?LoadStringW@?$CStringT@DV?$StrTraitMFC_DLL@DV?$ChTraitsCRT@D@ATL@@@@@ATL@@QEAAHPEAUHINSTANCE__@@IG@Z @ 4144 NONAME
 ?LoadSysPolicies@CWinApp@@UEAAHXZ @ 4145 NONAME
 ?LoadTemplate@CDocTemplate@@UEAAXXZ @ 4146 NONAME
 ?LoadTemplate@CMultiDocTemplate@@UEAAXXZ @ 4147 NONAME
 ?LoadToolBar@CToolBar@@QEAAHPEB_W@Z @ 4148 NONAME
 ?Lock@CMultiLock@@QEAAKKHK@Z @ 4149 NONAME
 ?Lock@COleSafeArray@@QEAAXXZ @ 4150 NONAME
 ?Lock@CSingleLock@@QEAAHK@Z @ 4151 NONAME
 ?Lock@CSyncObject@@UEAAHK@Z @ 4152 NONAME
 ?Lock@CTypeLibCache@@QEAAXXZ @ 4153 NONAME
 ?LockBuffer@?$CSimpleStringT@_W$00@ATL@@QEAAPEA_WXZ @ 4154 NONAME
 ?LockBuffer@?$CSimpleStringT@D$00@ATL@@QEAAPEADXZ @ 4155 NONAME
 ?LockBuffer@CEditView@@QEBAPEB_WXZ @ 4156 NONAME
 ?LockContainer@XOleContainer@COleControlContainer@@UEAAJH@Z @ 4157 NONAME
 ?LockContainer@XOleItemContainer@COleLinkingDoc@@UEAAJH@Z @ 4158 NONAME
 ?LockExternal@COleLinkingDoc@@IEAAXHH@Z @ 4159 NONAME
 ?LockInPlaceActive@COleControl@@QEAAHH@Z @ 4160 NONAME
 ?LockInPlaceActive@XOleControlSite@COleControlSite@@UEAAJH@Z @ 4161 NONAME
 ?LockRange@CFile@@UEAAX_K0@Z @ 4162 NONAME
 ?LockRange@CInternetFile@@UEAAX_K0@Z @ 4163 NONAME
 ?LockRange@CMemFile@@UEAAX_K0@Z @ 4164 NONAME
 ?LockRange@COleStreamFile@@UEAAX_K0@Z @ 4165 NONAME
 ?LockRange@CSocketFile@@UEAAX_K0@Z @ 4166 NONAME
 ?LockRange@CStdioFile@@UEAAX_K0@Z @ 4167 NONAME
 ?LockRegion@CArchiveStream@@UEAAJT_ULARGE_INTEGER@@0K@Z @ 4168 NONAME
 ?LockServer@XClassFactory@COleObjectFactory@@UEAAJH@Z @ 4169 NONAME
 ?Lookup@CMapPtrToPtr@@QEBAHPEAXAEAPEAX@Z @ 4170 NONAME
 ?Lookup@CMapPtrToWord@@QEBAHPEAXAEAG@Z @ 4171 NONAME
 ?Lookup@CMapStringToOb@@QEBAHPEB_WAEAPEAVCObject@@@Z @ 4172 NONAME
 ?Lookup@CMapStringToPtr@@QEBAHPEB_WAEAPEAX@Z @ 4173 NONAME
 ?Lookup@CMapStringToString@@QEBAHPEB_WAEAV?$CStringT@_WV?$StrTraitMFC_DLL@_WV?$ChTraitsCRT@_W@ATL@@@@@ATL@@@Z @ 4174 NONAME
 ?Lookup@CMapWordToOb@@QEBAHGAEAPEAVCObject@@@Z @ 4175 NONAME
 ?Lookup@CMapWordToPtr@@QEBAHGAEAPEAX@Z @ 4176 NONAME
 ?Lookup@COleDataSource@@IEBAPEAUAFX_DATACACHE_ENTRY@@PEAUtagFORMATETC@@W4tagDATADIR@@@Z @ 4177 NONAME
 ?Lookup@CTypeLibCache@@QEAAHKPEAPEAUITypeLib@@@Z @ 4178 NONAME
 ?LookupHandle@CAsyncSocket@@SAPEAV1@_KH@Z @ 4179 NONAME
 ?LookupItem@CRichEditDoc@@QEBAPEAVCRichEditCntrItem@@PEAUIOleObject@@@Z @ 4180 NONAME
 ?LookupKey@CMapStringToOb@@QEBAHPEB_WAEAPEB_W@Z @ 4181 NONAME
 ?LookupKey@CMapStringToPtr@@QEBAHPEB_WAEAPEB_W@Z @ 4182 NONAME
 ?LookupKey@CMapStringToString@@QEBAHPEB_WAEAPEB_W@Z @ 4183 NONAME
 ?LookupTypeInfo@CTypeLibCache@@QEAAHKAEBU_GUID@@PEAPEAUITypeInfo@@@Z @ 4184 NONAME
 ?LPtoDP@CDC@@QEBAXPEAUtagSIZE@@@Z @ 4185 NONAME
 ?LPtoHIMETRIC@CDC@@QEBAXPEAUtagSIZE@@@Z @ 4186 NONAME
 ?MakeLower@?$CStringT@_WV?$StrTraitMFC_DLL@_WV?$ChTraitsCRT@_W@ATL@@@@@ATL@@QEAAAEAV12@XZ @ 4187 NONAME
 ?MakeLower@?$CStringT@DV?$StrTraitMFC_DLL@DV?$ChTraitsCRT@D@ATL@@@@@ATL@@QEAAAEAV12@XZ @ 4188 NONAME
 ?MakeReverse@?$CStringT@_WV?$StrTraitMFC_DLL@_WV?$ChTraitsCRT@_W@ATL@@@@@ATL@@QEAAAEAV12@XZ @ 4189 NONAME
 ?MakeReverse@?$CStringT@DV?$StrTraitMFC_DLL@DV?$ChTraitsCRT@D@ATL@@@@@ATL@@QEAAAEAV12@XZ @ 4190 NONAME
 ?MakeUpper@?$CStringT@_WV?$StrTraitMFC_DLL@_WV?$ChTraitsCRT@_W@ATL@@@@@ATL@@QEAAAEAV12@XZ @ 4191 NONAME
 ?MakeUpper@?$CStringT@DV?$StrTraitMFC_DLL@DV?$ChTraitsCRT@D@ATL@@@@@ATL@@QEAAAEAV12@XZ @ 4192 NONAME
 ?MapObject@CArchive@@QEAAXPEBVCObject@@@Z @ 4193 NONAME
 ?MapPropertyToPage@XPerPropertyBrowsing@COleControl@@UEAAJJPEAU_GUID@@@Z @ 4194 NONAME
 ?MapResult@COleDialog@@QEAAHI@Z @ 4195 NONAME
 ?MapWizardResult@CPropertyPage@@IEAA_J_J@Z @ 4196 NONAME
 ?MarkForAddNew@CRecordset@@QEAAXXZ @ 4197 NONAME
 ?MarkForUpdate@CRecordset@@QEAAXXZ @ 4198 NONAME
 ?MarkItemsClear@CRichEditDoc@@IEBAXXZ @ 4199 NONAME
 ?MatchDocType@CDocTemplate@@UEAA?AW4Confidence@1@PEB_WAEAPEAVCDocument@@@Z @ 4200 NONAME
 ?MatchesMask@CFileFind@@UEBAHK@Z @ 4201 NONAME
 ?MDIGetActive@CMDIFrameWnd@@QEBAPEAVCMDIChildWnd@@PEAH@Z @ 4202 NONAME
 ?MeasureItem@CCheckListBox@@UEAAXPEAUtagMEASUREITEMSTRUCT@@@Z @ 4203 NONAME
 ?MeasureItem@CChevronOwnerDrawMenu@@UEAAXPEAUtagMEASUREITEMSTRUCT@@@Z @ 4204 NONAME
 ?MeasureItem@CComboBox@@UEAAXPEAUtagMEASUREITEMSTRUCT@@@Z @ 4205 NONAME
 ?MeasureItem@CListBox@@UEAAXPEAUtagMEASUREITEMSTRUCT@@@Z @ 4206 NONAME
 ?MeasureItem@CMenu@@UEAAXPEAUtagMEASUREITEMSTRUCT@@@Z @ 4207 NONAME
 ?MemberIDFromName@CCmdTarget@@KAJPEBUAFX_DISPMAP@@PEB_W@Z @ 4208 NONAME
 ?Memcpy@CMemFile@@MEAAPEAEPEAEPEBE_K@Z @ 4209 NONAME
 ?MessageBoxW@COlePropertyPage@@QEAAHPEB_W0I@Z @ 4210 NONAME
 ?MessageBoxW@CWnd@@QEAAHPEB_W0I@Z @ 4211 NONAME
 ?MessagePending@XMessageFilter@COleMessageFilter@@UEAAKPEAUHTASK__@@KK@Z @ 4212 NONAME
 ?Mid@?$CStringT@_WV?$StrTraitMFC_DLL@_WV?$ChTraitsCRT@_W@ATL@@@@@ATL@@QEBA?AV12@H@Z @ 4213 NONAME
 ?Mid@?$CStringT@_WV?$StrTraitMFC_DLL@_WV?$ChTraitsCRT@_W@ATL@@@@@ATL@@QEBA?AV12@HH@Z @ 4214 NONAME
 ?Mid@?$CStringT@DV?$StrTraitMFC_DLL@DV?$ChTraitsCRT@D@ATL@@@@@ATL@@QEBA?AV12@H@Z @ 4215 NONAME
 ?Mid@?$CStringT@DV?$StrTraitMFC_DLL@DV?$ChTraitsCRT@D@ATL@@@@@ATL@@QEBA?AV12@HH@Z @ 4216 NONAME
 ?MirrorAttributes@CPreviewDC@@IEAAXXZ @ 4217 NONAME
 ?MirrorFont@CPreviewDC@@IEAAXXZ @ 4218 NONAME
 ?MirrorMappingMode@CPreviewDC@@IEAAXH@Z @ 4219 NONAME
 ?MirrorViewportOrg@CPreviewDC@@IEAAXXZ @ 4220 NONAME
 ?ModifyStyle@COleControlSite@@UEAAHKKI@Z @ 4221 NONAME
 ?ModifyStyle@CWnd@@QEAAHKKI@Z @ 4222 NONAME
 ?ModifyStyle@CWnd@@SAHPEAUHWND__@@KKI@Z @ 4223 NONAME
 ?ModifyStyleEx@COleControlSite@@UEAAHKKI@Z @ 4224 NONAME
 ?ModifyStyleEx@CWnd@@QEAAHKKI@Z @ 4225 NONAME
 ?ModifyStyleEx@CWnd@@SAHPEAUHWND__@@KKI@Z @ 4226 NONAME
 ?ModifyWorldTransform@CDC@@QEAAHPEBUtagXFORM@@K@Z @ 4227 NONAME
 ?Move@CDockContext@@QEAAXVCPoint@@@Z @ 4228 NONAME
 ?Move@CRecordset@@UEAAXJG@Z @ 4229 NONAME
 ?Move@XPropertyPage@COlePropertyPage@@UEAAJPEBUtagRECT@@@Z @ 4230 NONAME
 ?MoveTo@CDC@@QEAA?AVCPoint@@HH@Z @ 4231 NONAME
 ?MoveWindow@COleControlSite@@UEAAXHHHH@Z @ 4232 NONAME
 ?MoveWindow@CWnd@@QEAAXHHHHH@Z @ 4233 NONAME
 ?Navigate@CDHtmlDialog@@QEAAXPEB_WK00PEAXK@Z @ 4234 NONAME
 ?Navigate@CHtmlView@@QEAAXPEB_WK00PEAXK@Z @ 4235 NONAME
 ?Navigate2@CHtmlView@@QEAAXPEB_WK00PEAXK@Z @ 4236 NONAME
 ?Navigate2@CHtmlView@@QEAAXPEB_WKAEAVCByteArray@@00@Z @ 4237 NONAME
 ?Navigate2@CHtmlView@@QEAAXPEFAU_ITEMIDLIST@@KPEB_W@Z @ 4238 NONAME
 ?NavigateComplete2@CHtmlView@@MEAAXPEAUIDispatch@@PEAUtagVARIANT@@@Z @ 4239 NONAME
 ?NavigateError@CHtmlView@@MEAAXPEAUIDispatch@@PEAUtagVARIANT@@11PEAF@Z @ 4240 NONAME
 ?nDragDelay@COleDropSource@@1IA @ 4241 NONAME DATA
 ?nDragMinDist@COleDropSource@@1IA @ 4242 NONAME DATA
 ?NegotiateBorderSpace@CFrameWnd@@UEAAHIPEAUtagRECT@@@Z @ 4243 NONAME
 ?NewAssoc@CMapPtrToPtr@@IEAAPEAUCAssoc@1@XZ @ 4244 NONAME
 ?NewAssoc@CMapPtrToWord@@IEAAPEAUCAssoc@1@XZ @ 4245 NONAME
 ?NewAssoc@CMapStringToOb@@IEAAPEAUCAssoc@1@XZ @ 4246 NONAME
 ?NewAssoc@CMapStringToPtr@@IEAAPEAUCAssoc@1@XZ @ 4247 NONAME
 ?NewAssoc@CMapStringToString@@IEAAPEAVCAssoc@1@PEB_W@Z @ 4248 NONAME
 ?NewAssoc@CMapWordToOb@@IEAAPEAUCAssoc@1@XZ @ 4249 NONAME
 ?NewAssoc@CMapWordToPtr@@IEAAPEAUCAssoc@1@XZ @ 4250 NONAME
 ?NewNode@CObList@@IEAAPEAUCNode@1@PEAU21@0@Z @ 4251 NONAME
 ?NewNode@CPtrList@@IEAAPEAUCNode@1@PEAU21@0@Z @ 4252 NONAME
 ?NewNode@CStringList@@IEAAPEAUCNode@1@PEAU21@0@Z @ 4253 NONAME
 ?Next@XEnumVOID@CEnumArray@@UEAAJKPEAXPEAK@Z @ 4254 NONAME
 ?nMaxSize@CEditView@@2IB @ 4255 NONAME DATA
 ?NormalizeHit@CRectTracker@@QEBAHH@Z @ 4256 NONAME
 ?Notify@CDataBoundProperty@@QEAAXXZ @ 4257 NONAME
 ?NotifyAllInPlace@COleFrameHook@@QEAAHHP81@EAAHH@Z@Z @ 4258 NONAME
 ?NotifyAllItems@COleServerDoc@@IEAAXW4OLE_NOTIFICATION@@_K@Z @ 4259 NONAME
 ?NotifyClient@COleServerItem@@QEAAXW4OLE_NOTIFICATION@@_K@Z @ 4260 NONAME
 ?NotifyFloatingWindows@CFrameWnd@@QEAAXK@Z @ 4261 NONAME
 ?NotifyRename@COleServerDoc@@QEAAXPEB_W@Z @ 4262 NONAME
 ?nScrollDelay@COleDropTarget@@1IA @ 4263 NONAME DATA
 ?nScrollInset@COleDropTarget@@1HA @ 4264 NONAME DATA
 ?nScrollInterval@COleDropTarget@@1IA @ 4265 NONAME DATA
 ?OemToCharA@?$CStringT@_WV?$StrTraitMFC_DLL@_WV?$ChTraitsCRT@_W@ATL@@@@@ATL@@QEAAXXZ @ 4266 NONAME
 ?OemToCharA@?$CStringT@DV?$StrTraitMFC_DLL@DV?$ChTraitsCRT@D@ATL@@@@@ATL@@QEAAXXZ @ 4267 NONAME
 ?OffsetClipRgn@CDC@@QEAAHHH@Z @ 4268 NONAME
 ?OffsetClipRgn@CDC@@QEAAHUtagSIZE@@@Z @ 4269 NONAME
 ?OffsetViewportOrg@CDC@@UEAA?AVCPoint@@HH@Z @ 4270 NONAME
 ?OffsetViewportOrg@CMetaFileDC@@UEAA?AVCPoint@@HH@Z @ 4271 NONAME
 ?OffsetViewportOrg@CPreviewDC@@UEAA?AVCPoint@@HH@Z @ 4272 NONAME
 ?OffsetWindowOrg@CDC@@QEAA?AVCPoint@@HH@Z @ 4273 NONAME
 ?OKToDo@XNotifyDBEvents@COleControlSite@@UEAAJKKQEAUtagDBNOTIFYREASON@@@Z @ 4274 NONAME
 ?OnAccept@CAsyncSocket@@MEAAXH@Z @ 4275 NONAME
 ?OnActivate@CControlFrameWnd@@IEAAXIPEAVCWnd@@H@Z @ 4276 NONAME
 ?OnActivate@CFrameWnd@@IEAAXIPEAVCWnd@@H@Z @ 4277 NONAME
 ?OnActivate@COleClientItem@@UEAAXXZ @ 4278 NONAME
 ?OnActivate@COleFrameHook@@UEAAXH@Z @ 4279 NONAME
 ?OnActivateFrame@CFormView@@MEAAXIPEAVCFrameWnd@@@Z @ 4280 NONAME
 ?OnActivateFrame@CView@@MEAAXIPEAVCFrameWnd@@@Z @ 4281 NONAME
 ?OnActivateInPlace@COleControl@@MEAAJHPEAUtagMSG@@@Z @ 4282 NONAME
 ?OnActivateTopLevel@CFrameWnd@@IEAA_J_K_J@Z @ 4283 NONAME
 ?OnActivateTopLevel@CWnd@@IEAA_J_K_J@Z @ 4284 NONAME
 ?OnActivateUI@COleClientItem@@UEAAXXZ @ 4285 NONAME
 ?OnActivateView@CDocObjectServer@@MEAAJXZ @ 4286 NONAME
 ?OnActivateView@CFormView@@MEAAXHPEAVCView@@0@Z @ 4287 NONAME
 ?OnActivateView@CPreviewView@@MEAAXHPEAVCView@@0@Z @ 4288 NONAME
 ?OnActivateView@CRichEditView@@MEAAXHPEAVCView@@0@Z @ 4289 NONAME
 ?OnActivateView@CView@@MEAAXHPEAV1@0@Z @ 4290 NONAME
 ?OnAddTool@CToolTipCtrl@@IEAA_J_K_J@Z @ 4291 NONAME
 ?OnAdvise@CConnectionPoint@@UEAAXH@Z @ 4292 NONAME
 ?OnAdvise@XEventConnPt@COleControl@@UEAAXH@Z @ 4293 NONAME
 ?OnAmbientProperty@CWnd@@UEAAHPEAVCOleControlSite@@JPEAUtagVARIANT@@@Z @ 4294 NONAME
 ?OnAmbientPropertyChange@COleControl@@UEAAXJ@Z @ 4295 NONAME
 ?OnAmbientPropertyChange@XOleControl@COleControl@@UEAAJJ@Z @ 4296 NONAME
 ?OnAppearanceChanged@COleControl@@UEAAXXZ @ 4297 NONAME
 ?OnAppExit@CWinApp@@IEAAXXZ @ 4298 NONAME
 ?OnApply@CPropertyPage@@UEAAHXZ @ 4299 NONAME
 ?OnApplyScale@COlePropertiesDialog@@UEAAHPEAVCOleClientItem@@HH@Z @ 4300 NONAME
 ?OnApplyViewState@CDocObjectServer@@MEAAXAEAVCArchive@@@Z @ 4301 NONAME
 ?OnBackColorChanged@COleControl@@UEAAXXZ @ 4302 NONAME
 ?OnBarCheck@CFrameWnd@@QEAAHI@Z @ 4303 NONAME
 ?OnBarCheck@COleIPFrameWnd@@IEAAHI@Z @ 4304 NONAME
 ?OnBarStyleChange@CControlBar@@UEAAXKK@Z @ 4305 NONAME
 ?OnBarStyleChange@CStatusBar@@UEAAXKK@Z @ 4306 NONAME
 ?OnBarStyleChange@CToolBar@@UEAAXKK@Z @ 4307 NONAME
 ?OnBeforeNavigate@CDHtmlDialog@@UEAAXPEAUIDispatch@@PEB_W@Z @ 4308 NONAME
 ?OnBeforeNavigate2@CHtmlView@@UEAAXPEB_WK0AEAVCByteArray@@0PEAH@Z @ 4309 NONAME
 ?OnBeginDrag@COleDropSource@@UEAAHPEAVCWnd@@@Z @ 4310 NONAME
 ?OnBeginPrinting@CEditView@@MEAAXPEAVCDC@@PEAUCPrintInfo@@@Z @ 4311 NONAME
 ?OnBeginPrinting@CRichEditView@@MEAAXPEAVCDC@@PEAUCPrintInfo@@@Z @ 4312 NONAME
 ?OnBeginPrinting@CView@@MEAAXPEAVCDC@@PEAUCPrintInfo@@@Z @ 4313 NONAME
 ?OnBorderStyleChanged@COleControl@@UEAAXXZ @ 4314 NONAME
 ?OnBullet@CRichEditView@@IEAAXXZ @ 4315 NONAME
 ?OnBusyDialog@COleMessageFilter@@UEAAHPEAUHTASK__@@@Z @ 4316 NONAME
 ?OnButtonClicked@XFileDialogControlEvents@CFileDialog@@UEAAJPEAUIFileDialogCustomize@@K@Z @ 4317 NONAME
 ?OnButtonDblClk@COleControl@@IEAAXGIVCPoint@@@Z @ 4318 NONAME
 ?OnButtonDown@COleControl@@IEAAXGIVCPoint@@@Z @ 4319 NONAME
 ?OnButtonUp@COleControl@@IEAAXGIVCPoint@@@Z @ 4320 NONAME
 ?OnCancel@CCommonDialog@@MEAAXXZ @ 4321 NONAME
 ?OnCancel@CDialog@@MEAAXXZ @ 4322 NONAME
 ?OnCancel@CPropertyPage@@UEAAXXZ @ 4323 NONAME
 ?OnCancelEditCntr@CRichEditView@@IEAAXXZ @ 4324 NONAME
 ?OnCancelMode@COleControl@@IEAAXXZ @ 4325 NONAME
 ?OnCancelMode@CSplitterWnd@@IEAAXXZ @ 4326 NONAME
 ?OnChange@COleClientItem@@UEAAXW4OLE_NOTIFICATION@@K@Z @ 4327 NONAME
 ?OnChanged@XFontNotification@COleControl@@UEAAJJ@Z @ 4328 NONAME
 ?OnChanged@XPropertyNotifySink@COleControlSite@@UEAAJJ@Z @ 4329 NONAME
 ?OnChanged@XPropNotifySink@COlePropertyPage@@UEAAJJ@Z @ 4330 NONAME
 ?OnChangedRect@CRectTracker@@UEAAXAEBVCRect@@@Z @ 4331 NONAME
 ?OnChangedViewList@CDocument@@UEAAXXZ @ 4332 NONAME
 ?OnChangeItemPosition@COleClientItem@@MEAAHAEBVCRect@@@Z @ 4333 NONAME
 ?OnChangeItemPosition@CRichEditCntrItem@@MEAAHAEBVCRect@@@Z @ 4334 NONAME
 ?OnChar@COleControl@@IEAAXIII@Z @ 4335 NONAME
 ?OnCharBold@CRichEditView@@IEAAXXZ @ 4336 NONAME
 ?OnCharEffect@CRichEditView@@QEAAXKK@Z @ 4337 NONAME
 ?OnCharItalic@CRichEditView@@IEAAXXZ @ 4338 NONAME
 ?OnCharToItem@CWnd@@IEAAHIPEAVCListBox@@I@Z @ 4339 NONAME
 ?OnCharUnderline@CRichEditView@@IEAAXXZ @ 4340 NONAME
 ?OnCheckButtonToggled@XFileDialogControlEvents@CFileDialog@@UEAAJPEAUIFileDialogCustomize@@KH@Z @ 4341 NONAME
 ?OnChevronPushed@CFrameWnd@@IEAAHIPEAUtagNMHDR@@PEA_J@Z @ 4342 NONAME
 ?OnChildNotify@CButton@@MEAAHI_K_JPEA_J@Z @ 4343 NONAME
 ?OnChildNotify@CCheckListBox@@MEAAHI_K_JPEA_J@Z @ 4344 NONAME
 ?OnChildNotify@CComboBox@@MEAAHI_K_JPEA_J@Z @ 4345 NONAME
 ?OnChildNotify@CDragListBox@@MEAAHI_K_JPEA_J@Z @ 4346 NONAME
 ?OnChildNotify@CHeaderCtrl@@MEAAHI_K_JPEA_J@Z @ 4347 NONAME
 ?OnChildNotify@CListBox@@MEAAHI_K_JPEA_J@Z @ 4348 NONAME
 ?OnChildNotify@CListCtrl@@MEAAHI_K_JPEA_J@Z @ 4349 NONAME
 ?OnChildNotify@CListView@@MEAAHI_K_JPEA_J@Z @ 4350 NONAME
 ?OnChildNotify@CStatic@@MEAAHI_K_JPEA_J@Z @ 4351 NONAME
 ?OnChildNotify@CStatusBar@@MEAAHI_K_JPEA_J@Z @ 4352 NONAME
 ?OnChildNotify@CStatusBarCtrl@@MEAAHI_K_JPEA_J@Z @ 4353 NONAME
 ?OnChildNotify@CTabCtrl@@MEAAHI_K_JPEA_J@Z @ 4354 NONAME
 ?OnChildNotify@CWnd@@MEAAHI_K_JPEA_J@Z @ 4355 NONAME
 ?OnClick@COleControl@@UEAAXG@Z @ 4356 NONAME
 ?OnClone@CEnumArray@@MEAAPEAV1@XZ @ 4357 NONAME
 ?OnClone@CEnumConnections@@MEAAPEAVCEnumArray@@XZ @ 4358 NONAME
 ?OnClose@CAsyncSocket@@MEAAXH@Z @ 4359 NONAME
 ?OnClose@CControlFrameWnd@@IEAAXXZ @ 4360 NONAME
 ?OnClose@CFrameWnd@@IEAAXXZ @ 4361 NONAME
 ?OnClose@CMiniDockFrameWnd@@QEAAXXZ @ 4362 NONAME
 ?OnClose@COleControl@@UEAAXK@Z @ 4363 NONAME
 ?OnClose@COleServerDoc@@MEAAXW4tagOLECLOSE@@@Z @ 4364 NONAME
 ?OnClose@CPropertySheet@@IEAAXXZ @ 4365 NONAME
 ?OnClose@XAdviseSink@COleClientItem@@UEAAXXZ @ 4366 NONAME
 ?OnCloseDocument@CDocObjectServer@@UEAAXXZ @ 4367 NONAME
 ?OnCloseDocument@CDocument@@UEAAXXZ @ 4368 NONAME
 ?OnCloseDocument@COleDocument@@UEAAXXZ @ 4369 NONAME
 ?OnCloseDocument@COleLinkingDoc@@UEAAXXZ @ 4370 NONAME
 ?OnCloseDocument@COleServerDoc@@UEAAXXZ @ 4371 NONAME
 ?OnCmdMsg@CCmdTarget@@UEAAHIHPEAXPEAUAFX_CMDHANDLERINFO@@@Z @ 4372 NONAME
 ?OnCmdMsg@CDialog@@UEAAHIHPEAXPEAUAFX_CMDHANDLERINFO@@@Z @ 4373 NONAME
 ?OnCmdMsg@CDocTemplate@@UEAAHIHPEAXPEAUAFX_CMDHANDLERINFO@@@Z @ 4374 NONAME
 ?OnCmdMsg@CDocument@@UEAAHIHPEAXPEAUAFX_CMDHANDLERINFO@@@Z @ 4375 NONAME
 ?OnCmdMsg@CFrameWnd@@UEAAHIHPEAXPEAUAFX_CMDHANDLERINFO@@@Z @ 4376 NONAME
 ?OnCmdMsg@CHtmlEditView@@UEAAHIHPEAXPEAUAFX_CMDHANDLERINFO@@@Z @ 4377 NONAME
 ?OnCmdMsg@CMDIFrameWnd@@UEAAHIHPEAXPEAUAFX_CMDHANDLERINFO@@@Z @ 4378 NONAME
 ?OnCmdMsg@COleCntrFrameWnd@@UEAAHIHPEAXPEAUAFX_CMDHANDLERINFO@@@Z @ 4379 NONAME
 ?OnCmdMsg@COleDocObjectItem@@MEAAHIHPEAXPEAUAFX_CMDHANDLERINFO@@@Z @ 4380 NONAME
 ?OnCmdMsg@COleDocument@@UEAAHIHPEAXPEAUAFX_CMDHANDLERINFO@@@Z @ 4381 NONAME
 ?OnCmdMsg@COleTemplateServer@@MEAAHIHPEAXPEAUAFX_CMDHANDLERINFO@@@Z @ 4382 NONAME
 ?OnCmdMsg@CPropertySheet@@UEAAHIHPEAXPEAUAFX_CMDHANDLERINFO@@@Z @ 4383 NONAME
 ?OnCmdMsg@CView@@UEAAHIHPEAXPEAUAFX_CMDHANDLERINFO@@@Z @ 4384 NONAME
 ?OnColorDefault@CRichEditView@@IEAAXXZ @ 4385 NONAME
 ?OnColorOK@CColorDialog@@MEAAHXZ @ 4386 NONAME
 ?OnColorPick@CRichEditView@@IEAAXK@Z @ 4387 NONAME
 ?OnCommand@CFrameWnd@@MEAAH_K_J@Z @ 4388 NONAME
 ?OnCommand@CMDIFrameWnd@@MEAAH_K_J@Z @ 4389 NONAME
 ?OnCommand@COlePropertyPage@@MEAAH_K_J@Z @ 4390 NONAME
 ?OnCommand@CPropertySheet@@UEAAH_K_J@Z @ 4391 NONAME
 ?OnCommand@CSplitterWnd@@MEAAH_K_J@Z @ 4392 NONAME
 ?OnCommand@CWnd@@MEAAH_K_J@Z @ 4393 NONAME
 ?OnCommandHelp@CDialog@@IEAA_J_K_J@Z @ 4394 NONAME
 ?OnCommandHelp@CFrameWnd@@IEAA_J_K_J@Z @ 4395 NONAME
 ?OnCommandHelp@CMDIFrameWnd@@IEAA_J_K_J@Z @ 4396 NONAME
 ?OnCommandHelp@CPropertySheet@@IEAA_J_K_J@Z @ 4397 NONAME
 ?OnCommandStateChange@CHtmlView@@UEAAXJH@Z @ 4398 NONAME
 ?OnCompareItem@CWnd@@IEAAHHPEAUtagCOMPAREITEMSTRUCT@@@Z @ 4399 NONAME
 ?OnConnect@CAsyncSocket@@MEAAXH@Z @ 4400 NONAME
 ?OnContextHelp@CFrameWnd@@QEAAXXZ @ 4401 NONAME
 ?OnContextHelp@COleFrameHook@@UEAAHH@Z @ 4402 NONAME
 ?OnContextHelp@COleIPFrameWnd@@IEAAXXZ @ 4403 NONAME
 ?OnContextHelp@CWinApp@@IEAAXXZ @ 4404 NONAME
 ?OnControlActivating@XFileDialogControlEvents@CFileDialog@@UEAAJPEAUIFileDialogCustomize@@K@Z @ 4405 NONAME
 ?OnControlInfoChanged@XOleControlSite@COleControlSite@@UEAAJXZ @ 4406 NONAME
 ?OnCreate@CCheckListBox@@IEAAHPEAUtagCREATESTRUCTW@@@Z @ 4407 NONAME
 ?OnCreate@CControlBar@@QEAAHPEAUtagCREATESTRUCTW@@@Z @ 4408 NONAME
 ?OnCreate@CEditView@@IEAAHPEAUtagCREATESTRUCTW@@@Z @ 4409 NONAME
 ?OnCreate@CFormView@@IEAAHPEAUtagCREATESTRUCTW@@@Z @ 4410 NONAME
 ?OnCreate@CFrameWnd@@IEAAHPEAUtagCREATESTRUCTW@@@Z @ 4411 NONAME
 ?OnCreate@CMDIChildWnd@@IEAAHPEAUtagCREATESTRUCTW@@@Z @ 4412 NONAME
 ?OnCreate@COleControl@@IEAAHPEAUtagCREATESTRUCTW@@@Z @ 4413 NONAME
 ?OnCreate@COleIPFrameWnd@@IEAAHPEAUtagCREATESTRUCTW@@@Z @ 4414 NONAME
 ?OnCreate@CPreviewView@@IEAAHPEAUtagCREATESTRUCTW@@@Z @ 4415 NONAME
 ?OnCreate@CRichEditView@@IEAAHPEAUtagCREATESTRUCTW@@@Z @ 4416 NONAME
 ?OnCreate@CToolBarCtrl@@IEAAHPEAUtagCREATESTRUCTW@@@Z @ 4417 NONAME
 ?OnCreate@CView@@IEAAHPEAUtagCREATESTRUCTW@@@Z @ 4418 NONAME
 ?OnCreateAggregates@CCmdTarget@@UEAAHXZ @ 4419 NONAME
 ?OnCreateAggregates@COleControl@@MEAAHXZ @ 4420 NONAME
 ?OnCreateClient@CFrameWnd@@MEAAHPEAUtagCREATESTRUCTW@@PEAUCCreateContext@@@Z @ 4421 NONAME
 ?OnCreateClient@CMDIFrameWnd@@UEAAHPEAUtagCREATESTRUCTW@@PEAUCCreateContext@@@Z @ 4422 NONAME
 ?OnCreateControlBars@COleIPFrameWnd@@UEAAHPEAVCFrameWnd@@0@Z @ 4423 NONAME
 ?OnCreateControlBars@COleIPFrameWnd@@UEAAHPEAVCWnd@@0@Z @ 4424 NONAME
 ?OnCreateHelper@CFrameWnd@@IEAAHPEAUtagCREATESTRUCTW@@PEAUCCreateContext@@@Z @ 4425 NONAME
 ?OnCreateObject@COleObjectFactory@@MEAAPEAVCCmdTarget@@XZ @ 4426 NONAME
 ?OnCreateObject@COleTemplateServer@@MEAAPEAVCCmdTarget@@XZ @ 4427 NONAME
 ?OnCtlColor@CControlBar@@QEAAPEAUHBRUSH__@@PEAVCDC@@PEAVCWnd@@I@Z @ 4428 NONAME
 ?OnCtlColor@COlePropertyPage@@IEAAPEAUHBRUSH__@@PEAVCDC@@PEAVCWnd@@I@Z @ 4429 NONAME
 ?OnCtlColor@CPropertyPage@@IEAAPEAUHBRUSH__@@PEAVCDC@@PEAVCWnd@@I@Z @ 4430 NONAME
 ?OnCtlColor@CPropertySheet@@IEAAPEAUHBRUSH__@@PEAVCDC@@PEAVCWnd@@I@Z @ 4431 NONAME
 ?OnCtlColor@CWnd@@IEAAPEAUHBRUSH__@@PEAVCDC@@PEAV1@I@Z @ 4432 NONAME
 ?OnDataAvailable@CAsyncMonikerFile@@MEAAXKK@Z @ 4433 NONAME
 ?OnDataAvailable@CCachedDataPathProperty@@UEAAXKK@Z @ 4434 NONAME
 ?OnDataChange@COleClientItem@@MEAAXPEAUtagFORMATETC@@PEAUtagSTGMEDIUM@@@Z @ 4435 NONAME
 ?OnDataChange@XAdviseSink@COleClientItem@@UEAAXPEAUtagFORMATETC@@PEAUtagSTGMEDIUM@@@Z @ 4436 NONAME
 ?OnDDECommand@CDocManager@@UEAAHPEA_W@Z @ 4437 NONAME
 ?OnDDECommand@CWinApp@@UEAAHPEA_W@Z @ 4438 NONAME
 ?OnDDEExecute@CFrameWnd@@IEAA_J_K_J@Z @ 4439 NONAME
 ?OnDDEInitiate@CFrameWnd@@IEAA_J_K_J@Z @ 4440 NONAME
 ?OnDDETerminate@CFrameWnd@@IEAA_J_K_J@Z @ 4441 NONAME
 ?OnDDXError@CDHtmlDialog@@IEAAXPEB_WIH@Z @ 4442 NONAME
 ?OnDeactivate@COleClientItem@@UEAAXXZ @ 4443 NONAME
 ?OnDeactivate@COleServerDoc@@UEAAXXZ @ 4444 NONAME
 ?OnDeactivateAndUndo@COleClientItem@@MEAAXXZ @ 4445 NONAME
 ?OnDeactivateUI@COleClientItem@@UEAAXH@Z @ 4446 NONAME
 ?OnDeactivateUI@COleServerDoc@@UEAAXH@Z @ 4447 NONAME
 ?OnDeactivateUI@CRichEditCntrItem@@UEAAXH@Z @ 4448 NONAME
 ?OnDefWindowMessage@XOleIPSite@COleControlSite@@UEAAJI_K_JPEA_J@Z @ 4449 NONAME
 ?OnDeleteItem@CWnd@@IEAAXHPEAUtagDELETEITEMSTRUCT@@@Z @ 4450 NONAME
 ?OnDestroy@CControlBar@@QEAAXXZ @ 4451 NONAME
 ?OnDestroy@CDHtmlDialog@@IEAAXXZ @ 4452 NONAME
 ?OnDestroy@CEditView@@IEAAXXZ @ 4453 NONAME
 ?OnDestroy@CFrameWnd@@IEAAXXZ @ 4454 NONAME
 ?OnDestroy@CHtmlView@@IEAAXXZ @ 4455 NONAME
 ?OnDestroy@CMDIChildWnd@@IEAAXXZ @ 4456 NONAME
 ?OnDestroy@CMDIFrameWnd@@IEAAXXZ @ 4457 NONAME
 ?OnDestroy@COleControl@@IEAAXXZ @ 4458 NONAME
 ?OnDestroy@COleIPFrameWnd@@IEAAXXZ @ 4459 NONAME
 ?OnDestroy@CRichEditView@@IEAAXXZ @ 4460 NONAME
 ?OnDestroy@CTabCtrl@@IEAAXXZ @ 4461 NONAME
 ?OnDestroy@CTreeCtrl@@QEAAXXZ @ 4462 NONAME
 ?OnDestroy@CTreeView@@QEAAXXZ @ 4463 NONAME
 ?OnDestroy@CView@@IEAAXXZ @ 4464 NONAME
 ?OnDestroy@CWnd@@IEAAXXZ @ 4465 NONAME
 ?OnDestroyModeless@CDHtmlDialog@@IEAA_J_K_J@Z @ 4466 NONAME
 ?OnDevModeChange@CRichEditView@@IEAAXPEA_W@Z @ 4467 NONAME
 ?OnDevModeChange@CWnd@@IEAAXPEA_W@Z @ 4468 NONAME
 ?OnDisableModal@CToolTipCtrl@@IEAA_J_K_J@Z @ 4469 NONAME
 ?OnDiscardUndoState@COleClientItem@@MEAAXXZ @ 4470 NONAME
 ?OnDisplayChange@CSplitterWnd@@IEAAXXZ @ 4471 NONAME
 ?OnDisplayChange@CWnd@@IEAA_J_K_J@Z @ 4472 NONAME
 ?OnDisplayPageNumber@CPreviewView@@MEAAXII@Z @ 4473 NONAME
 ?OnDocActivate@COleFrameHook@@UEAAHH@Z @ 4474 NONAME
 ?OnDocumentComplete@CDHtmlDialog@@UEAAXPEAUIDispatch@@PEB_W@Z @ 4475 NONAME
 ?OnDocumentComplete@CHtmlView@@UEAAXPEB_W@Z @ 4476 NONAME
 ?OnDocumentReadyStateChange@CDHtmlDialog@@QEAAJPEAUIHTMLElement@@@Z @ 4477 NONAME
 ?OnDocWindowActivate@CBrowserControlSite@@MEAAJH@Z @ 4478 NONAME
 ?OnDocWindowActivate@CDHtmlDialog@@UEAAJH@Z @ 4479 NONAME
 ?OnDocWindowActivate@CHtmlView@@UEAAJH@Z @ 4480 NONAME
 ?OnDocWindowActivate@COleServerDoc@@UEAAXH@Z @ 4481 NONAME
 ?OnDocWindowActivate@XDocHostUIHandler@CHtmlControlSite@@UEAAJH@Z @ 4482 NONAME
 ?OnDocWindowActivate@XOleInPlaceActiveObject@COleControl@@UEAAJH@Z @ 4483 NONAME
 ?OnDocWindowActivate@XOleInPlaceActiveObject@COleServerDoc@@UEAAJH@Z @ 4484 NONAME
 ?OnDoVerb@CDocObjectServerItem@@MEAAXJ@Z @ 4485 NONAME
 ?OnDoVerb@COleControl@@UEAAHJPEAUtagMSG@@PEAUHWND__@@PEBUtagRECT@@@Z @ 4486 NONAME
 ?OnDoVerb@COleServerItem@@UEAAXJ@Z @ 4487 NONAME
 ?OnDownloadBegin@CHtmlView@@UEAAXXZ @ 4488 NONAME
 ?OnDownloadComplete@CHtmlView@@UEAAXXZ @ 4489 NONAME
 ?OnDragEnter@COleDropTarget@@UEAAKPEAVCWnd@@PEAVCOleDataObject@@KVCPoint@@@Z @ 4490 NONAME
 ?OnDragEnter@CView@@UEAAKPEAVCOleDataObject@@KVCPoint@@@Z @ 4491 NONAME
 ?OnDragLeave@COleDropTarget@@UEAAXPEAVCWnd@@@Z @ 4492 NONAME
 ?OnDragLeave@CView@@UEAAXXZ @ 4493 NONAME
 ?OnDragList@CWnd@@IEAA_J_K_J@Z @ 4494 NONAME
 ?OnDragOver@COleDropTarget@@UEAAKPEAVCWnd@@PEAVCOleDataObject@@KVCPoint@@@Z @ 4495 NONAME
 ?OnDragOver@CView@@UEAAKPEAVCOleDataObject@@KVCPoint@@@Z @ 4496 NONAME
 ?OnDragScroll@COleDropTarget@@UEAAKPEAVCWnd@@KVCPoint@@@Z @ 4497 NONAME
 ?OnDragScroll@CView@@UEAAKKVCPoint@@@Z @ 4498 NONAME
 ?OnDraw@CCtrlView@@MEAAXPEAVCDC@@@Z @ 4499 NONAME
 ?OnDraw@CFormView@@MEAAXPEAVCDC@@@Z @ 4500 NONAME
 ?OnDraw@CHtmlView@@UEAAXPEAVCDC@@@Z @ 4501 NONAME
 ?OnDraw@COleControl@@UEAAXPEAVCDC@@AEBVCRect@@1@Z @ 4502 NONAME
 ?OnDraw@CPreviewView@@MEAAXPEAVCDC@@@Z @ 4503 NONAME
 ?OnDraw@CView@@MEAAXPEAVCDC@@@Z @ 4504 NONAME
 ?OnDrawEx@COleServerItem@@UEAAHPEAVCDC@@W4tagDVASPECT@@AEAVCSize@@@Z @ 4505 NONAME
 ?OnDrawItem@CWnd@@IEAAXHPEAUtagDRAWITEMSTRUCT@@@Z @ 4506 NONAME
 ?OnDrawMetafile@COleControl@@UEAAXPEAVCDC@@AEBVCRect@@@Z @ 4507 NONAME
 ?OnDrawPage@CPageSetupDialog@@UEAAIPEAVCDC@@IPEAUtagRECT@@@Z @ 4508 NONAME
 ?OnDrawSplitter@CSplitterWnd@@MEAAXPEAVCDC@@W4ESplitType@1@AEBVCRect@@@Z @ 4509 NONAME
 ?OnDrop@COleDropTarget@@UEAAHPEAVCWnd@@PEAVCOleDataObject@@KVCPoint@@@Z @ 4510 NONAME
 ?OnDrop@CView@@UEAAHPEAVCOleDataObject@@KVCPoint@@@Z @ 4511 NONAME
 ?OnDropDown@CSplitButton@@IEAAXPEAUtagNMHDR@@PEA_J@Z @ 4512 NONAME
 ?OnDropEx@COleDropTarget@@UEAAKPEAVCWnd@@PEAVCOleDataObject@@KKVCPoint@@@Z @ 4513 NONAME
 ?OnDropEx@CView@@UEAAKPEAVCOleDataObject@@KKVCPoint@@@Z @ 4514 NONAME
 ?OnDropFiles@CFrameWnd@@IEAAXPEAUHDROP__@@@Z @ 4515 NONAME
 ?OnDropFiles@CRichEditView@@IEAAXPEAUHDROP__@@@Z @ 4516 NONAME
 ?OnEdit@COleControl@@UEAAHPEAUtagMSG@@PEAUHWND__@@PEBUtagRECT@@@Z @ 4517 NONAME
 ?OnEditChange@CEditView@@IEAAHXZ @ 4518 NONAME
 ?OnEditChangeIcon@COleDocument@@IEAAXXZ @ 4519 NONAME
 ?OnEditClear@CEditView@@IEAAXXZ @ 4520 NONAME
 ?OnEditClear@CRichEditView@@IEAAXXZ @ 4521 NONAME
 ?OnEditConvert@COleDocument@@IEAAXXZ @ 4522 NONAME
 ?OnEditCopy@CEditView@@IEAAXXZ @ 4523 NONAME
 ?OnEditCopy@CHtmlView@@IEAAXXZ @ 4524 NONAME
 ?OnEditCopy@CRichEditView@@IEAAXXZ @ 4525 NONAME
 ?OnEditCut@CEditView@@IEAAXXZ @ 4526 NONAME
 ?OnEditCut@CHtmlView@@IEAAXXZ @ 4527 NONAME
 ?OnEditCut@CRichEditView@@IEAAXXZ @ 4528 NONAME
 ?OnEditFind@CEditView@@IEAAXXZ @ 4529 NONAME
 ?OnEditFind@CRichEditView@@IEAAXXZ @ 4530 NONAME
 ?OnEditFindReplace@CEditView@@IEAAXH@Z @ 4531 NONAME
 ?OnEditFindReplace@CRichEditView@@IEAAXH@Z @ 4532 NONAME
 ?OnEditLinks@COleDocument@@IEAAXXZ @ 4533 NONAME
 ?OnEditPaste@CEditView@@IEAAXXZ @ 4534 NONAME
 ?OnEditPaste@CHtmlView@@IEAAXXZ @ 4535 NONAME
 ?OnEditPaste@CRichEditView@@IEAAXXZ @ 4536 NONAME
 ?OnEditPasteSpecial@CRichEditView@@IEAAXXZ @ 4537 NONAME
 ?OnEditProperties@CRichEditView@@IEAAXXZ @ 4538 NONAME
 ?OnEditProperty@COlePropertyPage@@UEAAHJ@Z @ 4539 NONAME
 ?OnEditRedo@CRichEditView@@IEAAXXZ @ 4540 NONAME
 ?OnEditRepeat@CEditView@@IEAAXXZ @ 4541 NONAME
 ?OnEditRepeat@CRichEditView@@IEAAXXZ @ 4542 NONAME
 ?OnEditReplace@CEditView@@IEAAXXZ @ 4543 NONAME
 ?OnEditReplace@CRichEditView@@IEAAXXZ @ 4544 NONAME
 ?OnEditSelectAll@CEditView@@IEAAXXZ @ 4545 NONAME
 ?OnEditSelectAll@CRichEditView@@IEAAXXZ @ 4546 NONAME
 ?OnEditUndo@CEditView@@IEAAXXZ @ 4547 NONAME
 ?OnEditUndo@CRichEditView@@IEAAXXZ @ 4548 NONAME
 ?OnEnable@CFrameWnd@@IEAAXH@Z @ 4549 NONAME
 ?OnEnable@CToolTipCtrl@@IEAAXH@Z @ 4550 NONAME
 ?OnEnabledChanged@COleControl@@UEAAXXZ @ 4551 NONAME
 ?OnEnableModeless@CHtmlView@@UEAAJH@Z @ 4552 NONAME
 ?OnEnableModeless@COleFrameHook@@UEAAXH@Z @ 4553 NONAME
 ?OnEndPrinting@CEditView@@MEAAXPEAVCDC@@PEAUCPrintInfo@@@Z @ 4554 NONAME
 ?OnEndPrinting@CRichEditView@@MEAAXPEAVCDC@@PEAUCPrintInfo@@@Z @ 4555 NONAME
 ?OnEndPrinting@CView@@MEAAXPEAVCDC@@PEAUCPrintInfo@@@Z @ 4556 NONAME
 ?OnEndPrintPreview@CView@@MEAAXPEAVCDC@@PEAUCPrintInfo@@UtagPOINT@@PEAVCPreviewView@@@Z @ 4557 NONAME
 ?OnEndSession@CFrameWnd@@IEAAXH@Z @ 4558 NONAME
 ?OnEnterIdle@CFrameWnd@@IEAAXIPEAVCWnd@@@Z @ 4559 NONAME
 ?OnEnterIdle@COleControl@@IEAAXIPEAVCWnd@@@Z @ 4560 NONAME
 ?OnEnterIdle@CWnd@@IEAAXIPEAV1@@Z @ 4561 NONAME
 ?OnEnumVerbs@COleControl@@UEAAHPEAPEAUIEnumOLEVERB@@@Z @ 4562 NONAME
 ?OnEraseBkgnd@CDockBar@@IEAAHPEAVCDC@@@Z @ 4563 NONAME
 ?OnEraseBkgnd@CFrameWnd@@IEAAHPEAVCDC@@@Z @ 4564 NONAME
 ?OnEraseBkgnd@COleControl@@IEAAHPEAVCDC@@@Z @ 4565 NONAME
 ?OnEraseBkgnd@COleResizeBar@@IEAAHPEAVCDC@@@Z @ 4566 NONAME
 ?OnEraseBkgnd@CPreviewView@@IEAAHPEAVCDC@@@Z @ 4567 NONAME
 ?OnEraseBkgnd@CReBar@@IEAAHPEAVCDC@@@Z @ 4568 NONAME
 ?OnEraseBkgnd@CToolBar@@IEAAHPEAVCDC@@@Z @ 4569 NONAME
 ?OnEvent@CCmdTarget@@QEAAHIPEAUAFX_EVENT@@PEAUAFX_CMDHANDLERINFO@@@Z @ 4570 NONAME
 ?OnEvent@COccManager@@UEAAHPEAVCCmdTarget@@IPEAUAFX_EVENT@@PEAUAFX_CMDHANDLERINFO@@@Z @ 4571 NONAME
 ?OnEvent@COleControlSite@@IEAAHPEAUAFX_EVENT@@@Z @ 4572 NONAME
 ?OnEventAdvise@COleControl@@UEAAXH@Z @ 4573 NONAME
 ?OnExecOleCmd@CDocObjectServer@@IEAAJPEBU_GUID@@KKPEAUtagVARIANT@@1@Z @ 4574 NONAME
 ?OnExecOleCmd@COleServerDoc@@MEAAJPEBU_GUID@@KKPEAUtagVARIANT@@1@Z @ 4575 NONAME
 ?OnFieldChange@XRowsetNotify@COleControlSite@@UEAAJPEAUIRowset@@_K1QEA_KKKH@Z @ 4576 NONAME
 ?OnFileClose@CDocument@@IEAAXXZ @ 4577 NONAME
 ?OnFileNameChange@CFileDialog@@MEAAXXZ @ 4578 NONAME
 ?OnFileNameOK@CFileDialog@@MEAAHXZ @ 4579 NONAME
 ?OnFileNew@CDocManager@@UEAAXXZ @ 4580 NONAME
 ?OnFileNew@CWinApp@@IEAAXXZ @ 4581 NONAME
 ?OnFileOk@XFileDialogEvents@CFileDialog@@UEAAJPEAUIFileDialog@@@Z @ 4582 NONAME
 ?OnFileOpen@CDocManager@@UEAAXXZ @ 4583 NONAME
 ?OnFileOpen@CWinApp@@IEAAXXZ @ 4584 NONAME
 ?OnFilePrint@CHtmlView@@QEAAXXZ @ 4585 NONAME
 ?OnFilePrint@CView@@IEAAXXZ @ 4586 NONAME
 ?OnFilePrintPreview@CView@@IEAAXXZ @ 4587 NONAME
 ?OnFilePrintSetup@CWinApp@@IEAAXXZ @ 4588 NONAME
 ?OnFileSave@CDocument@@IEAAXXZ @ 4589 NONAME
 ?OnFileSaveAs@CDocument@@IEAAXXZ @ 4590 NONAME
 ?OnFileSaveCopyAs@COleServerDoc@@IEAAXXZ @ 4591 NONAME
 ?OnFileSendMail@CDocument@@IEAAXXZ @ 4592 NONAME
 ?OnFileSendMail@COleDocument@@IEAAXXZ @ 4593 NONAME
 ?OnFileUpdate@COleServerDoc@@IEAAXXZ @ 4594 NONAME
 ?OnFilterDataObject@CHtmlView@@UEAAJPEAUIDataObject@@PEAPEAU2@@Z @ 4595 NONAME
 ?OnFinalRelease@CCmdTarget@@UEAAXXZ @ 4596 NONAME
 ?OnFinalRelease@CDocument@@UEAAXXZ @ 4597 NONAME
 ?OnFinalRelease@COleControl@@MEAAXXZ @ 4598 NONAME
 ?OnFinalRelease@COlePropertyPage@@MEAAXXZ @ 4599 NONAME
 ?OnFinalRelease@COleServerItem@@UEAAXXZ @ 4600 NONAME
 ?OnFinalRelease@CWnd@@UEAAXXZ @ 4601 NONAME
 ?OnFindEmbeddedItem@COleLinkingDoc@@MEAAPEAVCOleClientItem@@PEB_W@Z @ 4602 NONAME
 ?OnFindNext@CEditView@@MEAAXPEB_WHH@Z @ 4603 NONAME
 ?OnFindNext@CRichEditView@@MEAAXPEB_WHHH@Z @ 4604 NONAME
 ?OnFindReplaceCmd@CEditView@@IEAA_J_K_J@Z @ 4605 NONAME
 ?OnFindReplaceCmd@CRichEditView@@IEAA_J_K_J@Z @ 4606 NONAME
 ?OnFloatStatus@CMiniFrameWnd@@QEAA_J_K_J@Z @ 4607 NONAME
 ?OnFocus@XOleControlSite@COleControlSite@@UEAAJH@Z @ 4608 NONAME
 ?OnFolderChange@CFileDialog@@MEAAXXZ @ 4609 NONAME
 ?OnFolderChange@XFileDialogEvents@CFileDialog@@UEAAJPEAUIFileDialog@@@Z @ 4610 NONAME
 ?OnFolderChanging@XFileDialogEvents@CFileDialog@@UEAAJPEAUIFileDialog@@PEAUIShellItem@@@Z @ 4611 NONAME
 ?OnFontChanged@COleControl@@UEAAXXZ @ 4612 NONAME
 ?OnForeColorChanged@COleControl@@UEAAXXZ @ 4613 NONAME
 ?OnFormatFont@CRichEditView@@IEAAXXZ @ 4614 NONAME
 ?OnFrameClose@COleControl@@MEAAXXZ @ 4615 NONAME
 ?OnFrameWindowActivate@CBrowserControlSite@@MEAAJH@Z @ 4616 NONAME
 ?OnFrameWindowActivate@CDHtmlDialog@@UEAAJH@Z @ 4617 NONAME
 ?OnFrameWindowActivate@CHtmlView@@UEAAJH@Z @ 4618 NONAME
 ?OnFrameWindowActivate@COleServerDoc@@MEAAXH@Z @ 4619 NONAME
 ?OnFrameWindowActivate@XDocHostUIHandler@CHtmlControlSite@@UEAAJH@Z @ 4620 NONAME
 ?OnFrameWindowActivate@XOleInPlaceActiveObject@COleControl@@UEAAJH@Z @ 4621 NONAME
 ?OnFrameWindowActivate@XOleInPlaceActiveObject@COleServerDoc@@UEAAJH@Z @ 4622 NONAME
 ?OnFreezeEvents@COleControl@@UEAAXH@Z @ 4623 NONAME
 ?OnFullScreen@CHtmlView@@UEAAXH@Z @ 4624 NONAME
 ?OnGetCheckPosition@CCheckListBox@@UEAA?AVCRect@@V2@0@Z @ 4625 NONAME
 ?OnGetClipboardData@COleClientItem@@UEAAPEAVCOleDataSource@@HPEAUtagPOINT@@PEAUtagSIZE@@@Z @ 4626 NONAME
 ?OnGetClipboardData@COleServerItem@@UEAAPEAVCOleDataSource@@HPEAUtagPOINT@@PEAUtagSIZE@@@Z @ 4627 NONAME
 ?OnGetClipRect@COleClientItem@@MEAAXAEAVCRect@@@Z @ 4628 NONAME
 ?OnGetColorSet@COleControl@@UEAAHPEAUtagDVTARGETDEVICE@@PEAUHDC__@@PEAPEAUtagLOGPALETTE@@@Z @ 4629 NONAME
 ?OnGetControlInfo@COleControl@@UEAAXPEAUtagCONTROLINFO@@@Z @ 4630 NONAME
 ?OnGetDisplayString@COleControl@@UEAAHJAEAV?$CStringT@_WV?$StrTraitMFC_DLL@_WV?$ChTraitsCRT@_W@ATL@@@@@ATL@@@Z @ 4631 NONAME
 ?OnGetDlgCode@COleControl@@IEAAIXZ @ 4632 NONAME
 ?OnGetDropTarget@CHtmlView@@UEAAJPEAUIDropTarget@@PEAPEAU2@@Z @ 4633 NONAME
 ?OnGetEmbeddedItem@CRichEditDoc@@MEAAPEAVCOleServerItem@@XZ @ 4634 NONAME
 ?OnGetExtent@COleServerItem@@UEAAHW4tagDVASPECT@@AEAVCSize@@@Z @ 4635 NONAME
 ?OnGetExternal@CHtmlView@@UEAAJPEAPEAUIDispatch@@@Z @ 4636 NONAME
 ?OnGetHostInfo@CHtmlView@@UEAAJPEAU_DOCHOSTUIINFO@@@Z @ 4637 NONAME
 ?OnGetInPlaceMenu@COleControl@@UEAAPEAUHMENU__@@XZ @ 4638 NONAME
 ?OnGetItemPosition@COleClientItem@@MEAAXAEAVCRect@@@Z @ 4639 NONAME
 ?OnGetItemPosition@COleDocObjectItem@@MEAAXAEAVCRect@@@Z @ 4640 NONAME
 ?OnGetLinkedItem@COleLinkingDoc@@MEAAPEAVCOleServerItem@@PEB_W@Z @ 4641 NONAME
 ?OnGetLinkedItem@COleServerDoc@@UEAAPEAVCOleServerItem@@PEB_W@Z @ 4642 NONAME
 ?OnGetMinMaxInfo@CMiniFrameWnd@@QEAAXPEAUtagMINMAXINFO@@@Z @ 4643 NONAME
 ?OnGetNaturalExtent@COleControl@@UEAAHKJPEAUtagDVTARGETDEVICE@@PEAUHDC__@@PEAUtagExtentInfo@@PEAUtagSIZE@@@Z @ 4644 NONAME
 ?OnGetObject@CWnd@@IEAA_J_K_J@Z @ 4645 NONAME
 ?OnGetOptionKeyPath@CHtmlView@@UEAAJPEAPEA_WK@Z @ 4646 NONAME
 ?OnGetPredefinedStrings@COleControl@@UEAAHJPEAVCStringArray@@PEAVCDWordArray@@@Z @ 4647 NONAME
 ?OnGetPredefinedValue@COleControl@@UEAAHJKPEAUtagVARIANT@@@Z @ 4648 NONAME
 ?OnGetText@CStatusBar@@IEAA_J_K_J@Z @ 4649 NONAME
 ?OnGetTextLength@CStatusBar@@IEAA_J_K_J@Z @ 4650 NONAME
 ?OnGetViewExtent@COleControl@@UEAAHKJPEAUtagDVTARGETDEVICE@@PEAUtagSIZE@@@Z @ 4651 NONAME
 ?OnGetViewRect@COleControl@@UEAAHKPEAU_RECTL@@@Z @ 4652 NONAME
 ?OnGetViewStatus@COleControl@@UEAAKXZ @ 4653 NONAME
 ?OnGetWindowContext@COleClientItem@@MEAAHPEAPEAVCFrameWnd@@0PEAUtagOIFI@@@Z @ 4654 NONAME
 ?OnHeightChange@CReBar@@IEAAXPEAUtagNMHDR@@PEA_J@Z @ 4655 NONAME
 ?OnHelp@CFrameWnd@@IEAAXXZ @ 4656 NONAME
 ?OnHelp@COlePropertyPage@@UEAAHPEB_W@Z @ 4657 NONAME
 ?OnHelp@CWinApp@@IEAAXXZ @ 4658 NONAME
 ?OnHelp@CWnd@@QEAAXXZ @ 4659 NONAME
 ?OnHelp@XFileDialogEvents@CFileDialog@@UEAAJPEAUIFileDialog@@@Z @ 4660 NONAME
 ?OnHelpFinder@CWinApp@@IEAAXXZ @ 4661 NONAME
 ?OnHelpFinder@CWnd@@QEAAXXZ @ 4662 NONAME
 ?OnHelpHitTest@CControlBar@@QEAA_J_K_J@Z @ 4663 NONAME
 ?OnHelpHitTest@CDialog@@IEAA_J_K_J@Z @ 4664 NONAME
 ?OnHelpHitTest@CFrameWnd@@IEAA_J_K_J@Z @ 4665 NONAME
 ?OnHelpIndex@CWinApp@@IEAAXXZ @ 4666 NONAME
 ?OnHelpIndex@CWnd@@QEAAXXZ @ 4667 NONAME
 ?OnHelpInfo@CCommonDialog@@IEAAHPEAUtagHELPINFO@@@Z @ 4668 NONAME
 ?OnHelpInfo@CWnd@@IEAAHPEAUtagHELPINFO@@@Z @ 4669 NONAME
 ?OnHelpPromptAddr@CFrameWnd@@IEAA_J_K_J@Z @ 4670 NONAME
 ?OnHelpUsing@CWinApp@@IEAAXXZ @ 4671 NONAME
 ?OnHelpUsing@CWnd@@QEAAXXZ @ 4672 NONAME
 ?OnHide@CDocObjectServerItem@@MEAAXXZ @ 4673 NONAME
 ?OnHide@COleControl@@MEAAJXZ @ 4674 NONAME
 ?OnHide@COleServerItem@@MEAAXXZ @ 4675 NONAME
 ?OnHideMenuBar@CFrameWnd@@MEAAXXZ @ 4676 NONAME
 ?OnHideToolBars@COleControl@@UEAAXXZ @ 4677 NONAME
 ?OnHideUI@CHtmlView@@UEAAJXZ @ 4678 NONAME
 ?OnHScroll@CFrameWnd@@IEAAXIIPEAVCScrollBar@@@Z @ 4679 NONAME
 ?OnHScroll@CPreviewView@@IEAAXIIPEAVCScrollBar@@@Z @ 4680 NONAME
 ?OnHScroll@CScrollView@@QEAAXIIPEAVCScrollBar@@@Z @ 4681 NONAME
 ?OnHScroll@CSplitterWnd@@IEAAXIIPEAVCScrollBar@@@Z @ 4682 NONAME
 ?OnHScroll@CWnd@@IEAAXIIPEAVCScrollBar@@@Z @ 4683 NONAME
 ?OnIdle@CDocTemplate@@UEAAXXZ @ 4684 NONAME
 ?OnIdle@CDocument@@UEAAXXZ @ 4685 NONAME
 ?OnIdle@COleDocument@@UEAAXXZ @ 4686 NONAME
 ?OnIdle@CWinApp@@UEAAHJ@Z @ 4687 NONAME
 ?OnIdle@CWinThread@@UEAAHJ@Z @ 4688 NONAME
 ?OnIdleUpdateCmdUI@CControlBar@@QEAA_J_K_J@Z @ 4689 NONAME
 ?OnIdleUpdateCmdUI@CFrameWnd@@IEAAXXZ @ 4690 NONAME
 ?OnIdleUpdateCmdUI@CMDIFrameWnd@@IEAAXXZ @ 4691 NONAME
 ?OnIdleUpdateCmdUI@COleCntrFrameWnd@@QEAAXXZ @ 4692 NONAME
 ?OnIdleUpdateCmdUI@COleIPFrameWnd@@IEAAXXZ @ 4693 NONAME
 ?OnInactiveMouseMove@COleControl@@UEAAXPEBUtagRECT@@JJK@Z @ 4694 NONAME
 ?OnInactiveMouseMove@XPointerInactive@COleControl@@UEAAJPEBUtagRECT@@JJK@Z @ 4695 NONAME
 ?OnInactiveSetCursor@COleControl@@UEAAHPEBUtagRECT@@JJKH@Z @ 4696 NONAME
 ?OnInactiveSetCursor@XPointerInactive@COleControl@@UEAAJPEBUtagRECT@@JJKH@Z @ 4697 NONAME
 ?OnInitDialog@CDHtmlDialog@@UEAAHXZ @ 4698 NONAME
 ?OnInitDialog@CDialog@@UEAAHXZ @ 4699 NONAME
 ?OnInitDialog@COlePropertiesDialog@@UEAAHXZ @ 4700 NONAME
 ?OnInitDialog@COlePropertyPage@@UEAAHXZ @ 4701 NONAME
 ?OnInitDialog@CPropertySheet@@UEAAHXZ @ 4702 NONAME
 ?OnInitDone@CFileDialog@@MEAAXXZ @ 4703 NONAME
 ?OnInitFromData@COleServerItem@@UEAAHPEAVCOleDataObject@@H@Z @ 4704 NONAME
 ?OnInitialUpdate@CControlBar@@QEAAXXZ @ 4705 NONAME
 ?OnInitialUpdate@CFormView@@UEAAXXZ @ 4706 NONAME
 ?OnInitialUpdate@COleDBRecordView@@UEAAXXZ @ 4707 NONAME
 ?OnInitialUpdate@CRecordView@@UEAAXXZ @ 4708 NONAME
 ?OnInitialUpdate@CRichEditView@@MEAAXXZ @ 4709 NONAME
 ?OnInitialUpdate@CView@@UEAAXXZ @ 4710 NONAME
 ?OnInitMenu@CFrameWnd@@IEAAXPEAVCMenu@@@Z @ 4711 NONAME
 ?OnInitMenu@COleFrameHook@@UEAAXPEAVCMenu@@@Z @ 4712 NONAME
 ?OnInitMenuPopup@CFrameWnd@@IEAAXPEAVCMenu@@IH@Z @ 4713 NONAME
 ?OnInitMenuPopup@COleControl@@IEAAXPEAVCMenu@@IH@Z @ 4714 NONAME
 ?OnInitMenuPopup@COleFrameHook@@UEAAHPEAVCMenu@@HH@Z @ 4715 NONAME
 ?OnInPlaceActivate@XOleIPSite@COleClientItem@@UEAAJXZ @ 4716 NONAME
 ?OnInPlaceActivate@XOleIPSite@COleControlSite@@UEAAJXZ @ 4717 NONAME
 ?OnInPlaceActivateEx@XOleIPSite@COleControlSite@@UEAAJPEAHK@Z @ 4718 NONAME
 ?OnInPlaceDeactivate@XOleIPSite@COleClientItem@@UEAAJXZ @ 4719 NONAME
 ?OnInPlaceDeactivate@XOleIPSite@COleControlSite@@UEAAJXZ @ 4720 NONAME
 ?OnInPlaceDeactivateEx@XOleIPSite@COleControlSite@@UEAAJH@Z @ 4721 NONAME
 ?OnInsertMenus@COleClientItem@@UEAAXPEAVCMenu@@PEAUtagOleMenuGroupWidths@@@Z @ 4722 NONAME
 ?OnInsertMenus@COleDocObjectItem@@UEAAXPEAVCMenu@@PEAUtagOleMenuGroupWidths@@@Z @ 4723 NONAME
 ?OnInsertObject@CRichEditView@@IEAAXXZ @ 4724 NONAME
 ?OnInvertTracker@CSplitterWnd@@MEAAXAEBVCRect@@@Z @ 4725 NONAME
 ?OnItemSelected@XFileDialogControlEvents@CFileDialog@@UEAAJPEAUIFileDialogCustomize@@KK@Z @ 4726 NONAME
 ?OnKey@CDockContext@@QEAAXHH@Z @ 4727 NONAME
 ?OnKeyDown@CCheckListBox@@IEAAXIII@Z @ 4728 NONAME
 ?OnKeyDown@COleControl@@IEAAXIII@Z @ 4729 NONAME
 ?OnKeyDown@CRichEditView@@IEAAXIII@Z @ 4730 NONAME
 ?OnKeyDown@CSplitterWnd@@IEAAXIII@Z @ 4731 NONAME
 ?OnKeyDownEvent@COleControl@@UEAAXGG@Z @ 4732 NONAME
 ?OnKeyPressEvent@COleControl@@UEAAXG@Z @ 4733 NONAME
 ?OnKeyUp@COleControl@@IEAAXIII@Z @ 4734 NONAME
 ?OnKeyUpEvent@COleControl@@UEAAXGG@Z @ 4735 NONAME
 ?OnKickIdle@CPropertySheet@@IEAA_J_K_J@Z @ 4736 NONAME
 ?OnKillActive@CPropertyPage@@UEAAHXZ @ 4737 NONAME
 ?OnKillFocus@COleControl@@IEAAXPEAVCWnd@@@Z @ 4738 NONAME
 ?OnLBAddString@CCheckListBox@@IEAA_J_K_J@Z @ 4739 NONAME
 ?OnLBFindString@CCheckListBox@@IEAA_J_K_J@Z @ 4740 NONAME
 ?OnLBFindStringExact@CCheckListBox@@IEAA_J_K_J@Z @ 4741 NONAME
 ?OnLBGetItemData@CCheckListBox@@IEAA_J_K_J@Z @ 4742 NONAME
 ?OnLBGetText@CCheckListBox@@IEAA_J_K_J@Z @ 4743 NONAME
 ?OnLBInsertString@CCheckListBox@@IEAA_J_K_J@Z @ 4744 NONAME
 ?OnLBSelChangedNotify@CFileDialog@@MEAAXIII@Z @ 4745 NONAME
 ?OnLBSelectString@CCheckListBox@@IEAA_J_K_J@Z @ 4746 NONAME
 ?OnLBSetItemData@CCheckListBox@@IEAA_J_K_J@Z @ 4747 NONAME
 ?OnLBSetItemHeight@CCheckListBox@@IEAA_J_K_J@Z @ 4748 NONAME
 ?OnLButtonDblClk@CCheckListBox@@IEAAXIVCPoint@@@Z @ 4749 NONAME
 ?OnLButtonDblClk@CControlBar@@QEAAXIVCPoint@@@Z @ 4750 NONAME
 ?OnLButtonDblClk@COleControl@@IEAAXIVCPoint@@@Z @ 4751 NONAME
 ?OnLButtonDblClk@CSplitterWnd@@IEAAXIVCPoint@@@Z @ 4752 NONAME
 ?OnLButtonDown@CCheckListBox@@IEAAXIVCPoint@@@Z @ 4753 NONAME
 ?OnLButtonDown@CControlBar@@QEAAXIVCPoint@@@Z @ 4754 NONAME
 ?OnLButtonDown@COleControl@@IEAAXIVCPoint@@@Z @ 4755 NONAME
 ?OnLButtonDown@COleResizeBar@@IEAAXIVCPoint@@@Z @ 4756 NONAME
 ?OnLButtonDown@CPreviewView@@IEAAXIVCPoint@@@Z @ 4757 NONAME
 ?OnLButtonDown@CSplitterWnd@@IEAAXIVCPoint@@@Z @ 4758 NONAME
 ?OnLButtonUp@COleControl@@IEAAXIVCPoint@@@Z @ 4759 NONAME
 ?OnLButtonUp@CSplitterWnd@@IEAAXIVCPoint@@@Z @ 4760 NONAME
 ?OnLowResource@CAsyncMonikerFile@@MEAAXXZ @ 4761 NONAME
 ?OnMapPropertyToPage@COleControl@@UEAAHJPEAU_GUID@@PEAH@Z @ 4762 NONAME
 ?OnMButtonDblClk@COleControl@@IEAAXIVCPoint@@@Z @ 4763 NONAME
 ?OnMButtonDown@COleControl@@IEAAXIVCPoint@@@Z @ 4764 NONAME
 ?OnMButtonUp@COleControl@@IEAAXIVCPoint@@@Z @ 4765 NONAME
 ?OnMDIActivate@CMDIChildWnd@@IEAAXHPEAVCWnd@@0@Z @ 4766 NONAME
 ?OnMDIWindowCmd@CMDIFrameWnd@@IEAAHI@Z @ 4767 NONAME
 ?OnMeasureItem@CWnd@@IEAAXHPEAUtagMEASUREITEMSTRUCT@@@Z @ 4768 NONAME
 ?OnMenuBar@CHtmlView@@UEAAXH@Z @ 4769 NONAME
 ?OnMenuChar@CFrameWnd@@IEAA_JIIPEAVCMenu@@@Z @ 4770 NONAME
 ?OnMenuChar@CMDIFrameWnd@@IEAA_JIIPEAVCMenu@@@Z @ 4771 NONAME
 ?OnMenuSelect@CFrameWnd@@IEAAXIIPEAUHMENU__@@@Z @ 4772 NONAME
 ?OnMenuSelect@COleControl@@IEAAXIIPEAUHMENU__@@@Z @ 4773 NONAME
 ?OnMenuSelect@COleFrameHook@@UEAAHIIPEAUHMENU__@@@Z @ 4774 NONAME
 ?OnMessagePending@COleMessageFilter@@UEAAHPEBUtagMSG@@@Z @ 4775 NONAME
 ?OnMessagePending@CSocket@@MEAAHXZ @ 4776 NONAME
 ?OnMnemonic@COleControl@@UEAAXPEAUtagMSG@@@Z @ 4777 NONAME
 ?OnMnemonic@XOleControl@COleControl@@UEAAJPEAUtagMSG@@@Z @ 4778 NONAME
 ?OnMouseActivate@CControlBar@@QEAAHPEAVCWnd@@II@Z @ 4779 NONAME
 ?OnMouseActivate@CMDIChildWnd@@IEAAHPEAVCWnd@@II@Z @ 4780 NONAME
 ?OnMouseActivate@CMiniDockFrameWnd@@QEAAHPEAVCWnd@@II@Z @ 4781 NONAME
 ?OnMouseActivate@COleControl@@IEAAHPEAVCWnd@@II@Z @ 4782 NONAME
 ?OnMouseActivate@CView@@IEAAHPEAVCWnd@@II@Z @ 4783 NONAME
 ?OnMouseMove@COleControl@@IEAAXIVCPoint@@@Z @ 4784 NONAME
 ?OnMouseMove@CSplitterWnd@@IEAAXIVCPoint@@@Z @ 4785 NONAME
 ?OnMouseWheel@CScrollView@@QEAAHIFVCPoint@@@Z @ 4786 NONAME
 ?OnMouseWheel@CSplitterWnd@@IEAAHIFVCPoint@@@Z @ 4787 NONAME
 ?OnMove@COleControl@@IEAAXHH@Z @ 4788 NONAME
 ?OnMove@COleDBRecordView@@UEAAHI@Z @ 4789 NONAME
 ?OnMove@CRecordView@@UEAAHI@Z @ 4790 NONAME
 ?OnNavigateComplete@CDHtmlDialog@@UEAAXPEAUIDispatch@@PEB_W@Z @ 4791 NONAME
 ?OnNavigateComplete@CMultiPageDHtmlDialog@@MEAAXPEAUIDispatch@@PEB_W@Z @ 4792 NONAME
 ?OnNavigateComplete2@CHtmlEditView@@UEAAXPEB_W@Z @ 4793 NONAME
 ?OnNavigateComplete2@CHtmlView@@UEAAXPEB_W@Z @ 4794 NONAME
 ?OnNavigateError@CHtmlView@@UEAAXPEB_W0KPEAH@Z @ 4795 NONAME
 ?OnNcActivate@CFrameWnd@@IEAAHH@Z @ 4796 NONAME
 ?OnNcActivate@CMDIChildWnd@@IEAAHH@Z @ 4797 NONAME
 ?OnNcActivate@CMiniFrameWnd@@QEAAHH@Z @ 4798 NONAME
 ?OnNcCalcSize@CDockBar@@IEAAXHPEAUtagNCCALCSIZE_PARAMS@@@Z @ 4799 NONAME
 ?OnNcCalcSize@COleControl@@IEAAXHPEAUtagNCCALCSIZE_PARAMS@@@Z @ 4800 NONAME
 ?OnNcCalcSize@CReBar@@IEAAXHPEAUtagNCCALCSIZE_PARAMS@@@Z @ 4801 NONAME
 ?OnNcCalcSize@CStatusBar@@IEAAXHPEAUtagNCCALCSIZE_PARAMS@@@Z @ 4802 NONAME
 ?OnNcCalcSize@CToolBar@@IEAAXHPEAUtagNCCALCSIZE_PARAMS@@@Z @ 4803 NONAME
 ?OnNcCreate@CMDIChildWnd@@IEAAHPEAUtagCREATESTRUCTW@@@Z @ 4804 NONAME
 ?OnNcCreate@CMiniFrameWnd@@QEAAHPEAUtagCREATESTRUCTW@@@Z @ 4805 NONAME
 ?OnNcCreate@COleControl@@IEAAHPEAUtagCREATESTRUCTW@@@Z @ 4806 NONAME
 ?OnNcCreate@CPropertySheet@@IEAAHPEAUtagCREATESTRUCTW@@@Z @ 4807 NONAME
 ?OnNcCreate@CReBar@@IEAAHPEAUtagCREATESTRUCTW@@@Z @ 4808 NONAME
 ?OnNcCreate@CSplitterWnd@@IEAAHPEAUtagCREATESTRUCTW@@@Z @ 4809 NONAME
 ?OnNcCreate@CToolBar@@IEAAHPEAUtagCREATESTRUCTW@@@Z @ 4810 NONAME
 ?OnNcDestroy@CListCtrl@@IEAAXXZ @ 4811 NONAME
 ?OnNcDestroy@CListView@@QEAAXXZ @ 4812 NONAME
 ?OnNcDestroy@CWnd@@IEAAXXZ @ 4813 NONAME
 ?OnNcHitTest@CMiniFrameWnd@@QEAA_JVCPoint@@@Z @ 4814 NONAME
 ?OnNcHitTest@COleControl@@IEAA_JVCPoint@@@Z @ 4815 NONAME
 ?OnNcHitTest@CStatusBar@@IEAA_JVCPoint@@@Z @ 4816 NONAME
 ?OnNcHitTest@CToolBar@@IEAA_JVCPoint@@@Z @ 4817 NONAME
 ?OnNcLButtonDblClk@CMiniDockFrameWnd@@QEAAXIVCPoint@@@Z @ 4818 NONAME
 ?OnNcLButtonDown@CMiniDockFrameWnd@@QEAAXIVCPoint@@@Z @ 4819 NONAME
 ?OnNcLButtonDown@COleControl@@IEAAXIVCPoint@@@Z @ 4820 NONAME
 ?OnNcPaint@CDockBar@@IEAAXXZ @ 4821 NONAME
 ?OnNcPaint@COleControl@@IEAAXXZ @ 4822 NONAME
 ?OnNcPaint@CReBar@@IEAAXXZ @ 4823 NONAME
 ?OnNcPaint@CStatusBar@@IEAAXXZ @ 4824 NONAME
 ?OnNcPaint@CToolBar@@IEAAXXZ @ 4825 NONAME
 ?OnNewDocument@CDocument@@UEAAHXZ @ 4826 NONAME
 ?OnNewDocument@CHtmlEditDoc@@UEAAHXZ @ 4827 NONAME
 ?OnNewDocument@COleDocument@@UEAAHXZ @ 4828 NONAME
 ?OnNewDocument@COleLinkingDoc@@UEAAHXZ @ 4829 NONAME
 ?OnNewEmbedding@COleServerDoc@@MEAAXPEAUIStorage@@@Z @ 4830 NONAME
 ?OnNewWindow2@CHtmlView@@UEAAXPEAPEAUIDispatch@@PEAH@Z @ 4831 NONAME
 ?OnNext@CEnumArray@@MEAAHPEAX@Z @ 4832 NONAME
 ?OnNext@CEnumConnections@@MEAAHPEAX@Z @ 4833 NONAME
 ?OnNext@CEnumConnPoints@@MEAAHPEAX@Z @ 4834 NONAME
 ?OnNext@CEnumFormatEtc@@MEAAHPEAX@Z @ 4835 NONAME
 ?OnNext@CEnumOleVerb@@MEAAHPEAX@Z @ 4836 NONAME
 ?OnNext@CEnumUnknown@@MEAAHPEAX@Z @ 4837 NONAME
 ?OnNextPage@CPreviewView@@IEAAXXZ @ 4838 NONAME
 ?OnNextPaneCmd@CView@@IEAAHI@Z @ 4839 NONAME
 ?OnNotify@CFileDialog@@MEAAH_K_JPEA_J@Z @ 4840 NONAME
 ?OnNotify@CPropertyPage@@MEAAH_K_JPEA_J@Z @ 4841 NONAME
 ?OnNotify@CSplitterWnd@@MEAAH_K_JPEA_J@Z @ 4842 NONAME
 ?OnNotify@CWnd@@MEAAH_K_JPEA_J@Z @ 4843 NONAME
 ?OnNotRespondingDialog@COleMessageFilter@@UEAAHPEAUHTASK__@@@Z @ 4844 NONAME
 ?OnNTCtlColor@CWnd@@IEAA_J_K_J@Z @ 4845 NONAME
 ?OnNumPageChange@CPreviewView@@IEAAXXZ @ 4846 NONAME
 ?OnObjectsChanged@COlePropertyPage@@UEAAXXZ @ 4847 NONAME
 ?OnOcmCtlColorBtn@COleControl@@IEAA_J_K_J@Z @ 4848 NONAME
 ?OnOcmCtlColorDlg@COleControl@@IEAA_J_K_J@Z @ 4849 NONAME
 ?OnOcmCtlColorEdit@COleControl@@IEAA_J_K_J@Z @ 4850 NONAME
 ?OnOcmCtlColorListBox@COleControl@@IEAA_J_K_J@Z @ 4851 NONAME
 ?OnOcmCtlColorMsgBox@COleControl@@IEAA_J_K_J@Z @ 4852 NONAME
 ?OnOcmCtlColorScrollBar@COleControl@@IEAA_J_K_J@Z @ 4853 NONAME
 ?OnOcmCtlColorStatic@COleControl@@IEAA_J_K_J@Z @ 4854 NONAME
 ?OnOK@CCommonDialog@@MEAAXXZ @ 4855 NONAME
 ?OnOK@CDialog@@MEAAXXZ @ 4856 NONAME
 ?OnOK@CPropertyPage@@UEAAXXZ @ 4857 NONAME
 ?OnOpen@COleControl@@MEAAJHPEAUtagMSG@@@Z @ 4858 NONAME
 ?OnOpen@COleServerItem@@MEAAXXZ @ 4859 NONAME
 ?OnOpenDocument@CDocument@@UEAAHPEB_W@Z @ 4860 NONAME
 ?OnOpenDocument@CHtmlEditDoc@@UEAAHPEB_W@Z @ 4861 NONAME
 ?OnOpenDocument@COleDocument@@UEAAHPEB_W@Z @ 4862 NONAME
 ?OnOpenDocument@COleLinkingDoc@@UEAAHPEB_W@Z @ 4863 NONAME
 ?OnOpenEmbedding@COleServerDoc@@MEAAXPEAUIStorage@@@Z @ 4864 NONAME
 ?OnOpenRecentFile@CWinApp@@IEAAHI@Z @ 4865 NONAME
 ?OnOutOfBandData@CAsyncSocket@@MEAAXH@Z @ 4866 NONAME
 ?OnOverwrite@XFileDialogEvents@CFileDialog@@UEAAJPEAUIFileDialog@@PEAUIShellItem@@PEAW4tagFDE_OVERWRITE_RESPONSE@@@Z @ 4867 NONAME
 ?OnPaint@CCommonDialog@@IEAAXXZ @ 4868 NONAME
 ?OnPaint@CControlBar@@QEAAXXZ @ 4869 NONAME
 ?OnPaint@CCtrlView@@IEAAXXZ @ 4870 NONAME
 ?OnPaint@CDialog@@IEAAXXZ @ 4871 NONAME
 ?OnPaint@CDockBar@@IEAAXXZ @ 4872 NONAME
 ?OnPaint@CHtmlEditView@@QEAAXXZ @ 4873 NONAME
 ?OnPaint@CHtmlView@@IEAAXXZ @ 4874 NONAME
 ?OnPaint@COleControl@@IEAAXPEAVCDC@@@Z @ 4875 NONAME
 ?OnPaint@COleControlContainer@@UEAAHPEAVCDC@@@Z @ 4876 NONAME
 ?OnPaint@COleResizeBar@@IEAAXXZ @ 4877 NONAME
 ?OnPaint@CReBar@@IEAAXXZ @ 4878 NONAME
 ?OnPaint@CSplitterWnd@@IEAAXXZ @ 4879 NONAME
 ?OnPaint@CStatusBar@@IEAAXXZ @ 4880 NONAME
 ?OnPaint@CToolBar@@IEAAXXZ @ 4881 NONAME
 ?OnPaint@CView@@IEAAXXZ @ 4882 NONAME
 ?OnPaint@CWnd@@IEAAXXZ @ 4883 NONAME
 ?OnPaletteChanged@CFrameWnd@@IEAAXPEAVCWnd@@@Z @ 4884 NONAME
 ?OnPaletteChanged@COleFrameHook@@UEAAXPEAVCWnd@@@Z @ 4885 NONAME
 ?OnParaAlign@CRichEditView@@QEAAXG@Z @ 4886 NONAME
 ?OnParaCenter@CRichEditView@@IEAAXXZ @ 4887 NONAME
 ?OnParaLeft@CRichEditView@@IEAAXXZ @ 4888 NONAME
 ?OnParaRight@CRichEditView@@IEAAXXZ @ 4889 NONAME
 ?OnParentNotify@CWnd@@IEAAXI_J@Z @ 4890 NONAME
 ?OnPasteNativeObject@CRichEditView@@MEAAHPEAUIStorage@@@Z @ 4891 NONAME
 ?OnPopMessageString@CFrameWnd@@IEAA_J_K_J@Z @ 4892 NONAME
 ?OnPosRectChange@XOleIPSite@COleClientItem@@UEAAJPEBUtagRECT@@@Z @ 4893 NONAME
 ?OnPosRectChange@XOleIPSite@COleControlSite@@UEAAJPEBUtagRECT@@@Z @ 4894 NONAME
 ?OnPrepareDC@CEditView@@UEAAXPEAVCDC@@PEAUCPrintInfo@@@Z @ 4895 NONAME
 ?OnPrepareDC@CPreviewView@@UEAAXPEAVCDC@@PEAUCPrintInfo@@@Z @ 4896 NONAME
 ?OnPrepareDC@CRichEditView@@UEAAXPEAVCDC@@PEAUCPrintInfo@@@Z @ 4897 NONAME
 ?OnPrepareDC@CScrollView@@UEAAXPEAVCDC@@PEAUCPrintInfo@@@Z @ 4898 NONAME
 ?OnPrepareDC@CView@@UEAAXPEAVCDC@@PEAUCPrintInfo@@@Z @ 4899 NONAME
 ?OnPreparePrinting@CEditView@@MEAAHPEAUCPrintInfo@@@Z @ 4900 NONAME
 ?OnPreparePrinting@CHtmlEditView@@UEAAHPEAUCPrintInfo@@@Z @ 4901 NONAME
 ?OnPreparePrinting@COleDocObjectItem@@SAHPEAVCView@@PEAUCPrintInfo@@H@Z @ 4902 NONAME
 ?OnPreparePrinting@CView@@MEAAHPEAUCPrintInfo@@@Z @ 4903 NONAME
 ?OnPreserveSizingPolicyHelper@CToolBar@@IEAA_J_K_J@Z @ 4904 NONAME
 ?OnPreserveZeroBorderHelper@CToolBar@@IEAA_J_K_J@Z @ 4905 NONAME
 ?OnPreTranslateMessage@COleFrameHook@@UEAAHPEAUtagMSG@@@Z @ 4906 NONAME
 ?OnPreviewClose@CPreviewView@@IEAAXXZ @ 4907 NONAME
 ?OnPreviewPrint@CPreviewView@@IEAAXXZ @ 4908 NONAME
 ?OnPrevPage@CPreviewView@@IEAAXXZ @ 4909 NONAME
 ?OnPrint@CEditView@@MEAAXPEAVCDC@@PEAUCPrintInfo@@@Z @ 4910 NONAME
 ?OnPrint@COleDocObjectItem@@SAXPEAVCView@@PEAUCPrintInfo@@H@Z @ 4911 NONAME
 ?OnPrint@CRichEditView@@MEAAXPEAVCDC@@PEAUCPrintInfo@@@Z @ 4912 NONAME
 ?OnPrint@CView@@MEAAXPEAVCDC@@PEAUCPrintInfo@@@Z @ 4913 NONAME
 ?OnPrinterChanged@CRichEditView@@MEAAXAEBVCDC@@@Z @ 4914 NONAME
 ?OnPrintSetup@CPrintDialog@@IEAAXXZ @ 4915 NONAME
 ?OnProgress@CAsyncMonikerFile@@MEAAXKKKPEB_W@Z @ 4916 NONAME
 ?OnProgressChange@CHtmlView@@UEAAXJJ@Z @ 4917 NONAME
 ?OnProperties@COleControl@@UEAAHPEAUtagMSG@@PEAUHWND__@@PEBUtagRECT@@@Z @ 4918 NONAME
 ?OnPropertyChange@CHtmlView@@UEAAXPEB_W@Z @ 4919 NONAME
 ?OnQueryCancel@CPropertyPage@@UEAAHXZ @ 4920 NONAME
 ?OnQueryCenterWnd@CMiniFrameWnd@@QEAA_J_K_J@Z @ 4921 NONAME
 ?OnQueryEndSession@CFrameWnd@@IEAAHXZ @ 4922 NONAME
 ?OnQueryHitPoint@COleControl@@UEAAHKPEBUtagRECT@@UtagPOINT@@JPEAK@Z @ 4923 NONAME
 ?OnQueryHitRect@COleControl@@UEAAHKPEBUtagRECT@@0JPEAK@Z @ 4924 NONAME
 ?OnQueryNewPalette@CFrameWnd@@IEAAHXZ @ 4925 NONAME
 ?OnQueryNewPalette@COleFrameHook@@UEAAHXZ @ 4926 NONAME
 ?OnQueryUpdateItems@COleServerItem@@UEAAHXZ @ 4927 NONAME
 ?OnQuit@CHtmlView@@UEAAXXZ @ 4928 NONAME
 ?OnRButtonDblClk@COleControl@@IEAAXIVCPoint@@@Z @ 4929 NONAME
 ?OnRButtonDown@COleControl@@IEAAXIVCPoint@@@Z @ 4930 NONAME
 ?OnRButtonUp@COleControl@@IEAAXIVCPoint@@@Z @ 4931 NONAME
 ?OnReactivateAndUndo@COleServerDoc@@MEAAHXZ @ 4932 NONAME
 ?OnRecalcLayout@COleFrameHook@@UEAAXXZ @ 4933 NONAME
 ?OnRecalcParent@COleIPFrameWnd@@IEAA_J_K_J@Z @ 4934 NONAME
 ?OnRecalcParent@CReBar@@IEAAXXZ @ 4935 NONAME
 ?OnReceive@CAsyncSocket@@MEAAXH@Z @ 4936 NONAME
 ?OnReflectorDestroyed@COleControl@@MEAAXXZ @ 4937 NONAME
 ?OnRemoveMenus@COleClientItem@@UEAAXPEAVCMenu@@@Z @ 4938 NONAME
 ?OnRemoveMenus@COleDocObjectItem@@UEAAXPEAVCMenu@@@Z @ 4939 NONAME
 ?OnRename@XAdviseSink@COleClientItem@@UEAAXPEAUIMoniker@@@Z @ 4940 NONAME
 ?OnRenderData@CControlDataSource@COleControl@@MEAAHPEAUtagFORMATETC@@PEAUtagSTGMEDIUM@@@Z @ 4941 NONAME
 ?OnRenderData@CItemDataSource@COleServerItem@@MEAAHPEAUtagFORMATETC@@PEAUtagSTGMEDIUM@@@Z @ 4942 NONAME
 ?OnRenderData@COleControl@@UEAAHPEAUtagFORMATETC@@PEAUtagSTGMEDIUM@@@Z @ 4943 NONAME
 ?OnRenderData@COleDataSource@@UEAAHPEAUtagFORMATETC@@PEAUtagSTGMEDIUM@@@Z @ 4944 NONAME
 ?OnRenderData@COleServerItem@@UEAAHPEAUtagFORMATETC@@PEAUtagSTGMEDIUM@@@Z @ 4945 NONAME
 ?OnRenderFileData@CControlDataSource@COleControl@@MEAAHPEAUtagFORMATETC@@PEAVCFile@@@Z @ 4946 NONAME
 ?OnRenderFileData@CItemDataSource@COleServerItem@@MEAAHPEAUtagFORMATETC@@PEAVCFile@@@Z @ 4947 NONAME
 ?OnRenderFileData@COleControl@@UEAAHPEAUtagFORMATETC@@PEAVCFile@@@Z @ 4948 NONAME
 ?OnRenderFileData@COleDataSource@@UEAAHPEAUtagFORMATETC@@PEAVCFile@@@Z @ 4949 NONAME
 ?OnRenderFileData@COleServerItem@@UEAAHPEAUtagFORMATETC@@PEAVCFile@@@Z @ 4950 NONAME
 ?OnRenderGlobalData@CControlDataSource@COleControl@@MEAAHPEAUtagFORMATETC@@PEAPEAX@Z @ 4951 NONAME
 ?OnRenderGlobalData@CItemDataSource@COleServerItem@@MEAAHPEAUtagFORMATETC@@PEAPEAX@Z @ 4952 NONAME
 ?OnRenderGlobalData@COleControl@@UEAAHPEAUtagFORMATETC@@PEAPEAX@Z @ 4953 NONAME
 ?OnRenderGlobalData@COleDataSource@@UEAAHPEAUtagFORMATETC@@PEAPEAX@Z @ 4954 NONAME
 ?OnRenderGlobalData@COleServerItem@@UEAAHPEAUtagFORMATETC@@PEAPEAX@Z @ 4955 NONAME
 ?OnReplaceAll@CEditView@@MEAAXPEB_W0H@Z @ 4956 NONAME
 ?OnReplaceAll@CRichEditView@@MEAAXPEB_W0HH@Z @ 4957 NONAME
 ?OnReplaceSel@CEditView@@MEAAXPEB_WHH0@Z @ 4958 NONAME
 ?OnReplaceSel@CRichEditView@@MEAAXPEB_WHHH0@Z @ 4959 NONAME
 ?OnRequestEdit@XFontNotification@COleControl@@UEAAJJ@Z @ 4960 NONAME
 ?OnRequestEdit@XPropertyNotifySink@COleControlSite@@UEAAJJ@Z @ 4961 NONAME
 ?OnRequestEdit@XPropNotifySink@COlePropertyPage@@UEAAJJ@Z @ 4962 NONAME
 ?OnRequestPositionChange@COleDocIPFrameWnd@@MEAAXPEBUtagRECT@@@Z @ 4963 NONAME
 ?OnRequestPositionChange@COleIPFrameWnd@@MEAAXPEBUtagRECT@@@Z @ 4964 NONAME
 ?OnReset@CEnumArray@@MEAAXXZ @ 4965 NONAME
 ?OnReset@CPropertyPage@@UEAAXXZ @ 4966 NONAME
 ?OnResetState@COleControl@@UEAAXXZ @ 4967 NONAME
 ?OnResizeBorder@CHtmlView@@UEAAJPEBUtagRECT@@PEAUIOleInPlaceUIWindow@@H@Z @ 4968 NONAME
 ?OnResizeBorder@COleServerDoc@@UEAAXPEBUtagRECT@@PEAUIOleInPlaceUIWindow@@H@Z @ 4969 NONAME
 ?OnResizeChild@COleIPFrameWnd@@IEAA_J_K_J@Z @ 4970 NONAME
 ?OnRowChange@XRowsetNotify@COleControlSite@@UEAAJPEAUIRowset@@_KQEB_KKKH@Z @ 4971 NONAME
 ?OnRowsetChange@XRowsetNotify@COleControlSite@@UEAAJPEAUIRowset@@KKH@Z @ 4972 NONAME
 ?OnSave@XAdviseSink@COleClientItem@@UEAAXXZ @ 4973 NONAME
 ?OnSaveDocument@CDocument@@UEAAHPEB_W@Z @ 4974 NONAME
 ?OnSaveDocument@CHtmlEditDoc@@UEAAHPEB_W@Z @ 4975 NONAME
 ?OnSaveDocument@COleDocument@@UEAAHPEB_W@Z @ 4976 NONAME
 ?OnSaveDocument@COleLinkingDoc@@UEAAHPEB_W@Z @ 4977 NONAME
 ?OnSaveDocument@COleServerDoc@@UEAAHPEB_W@Z @ 4978 NONAME
 ?OnSaveEmbedding@COleServerDoc@@MEAAXPEAUIStorage@@@Z @ 4979 NONAME
 ?OnSaveEmbedding@COleServerItem@@MEAAXPEAUIStorage@@@Z @ 4980 NONAME
 ?OnSaveViewState@CDocObjectServer@@MEAAXAEAVCArchive@@@Z @ 4981 NONAME
 ?OnScroll@CScrollView@@UEAAHIIH@Z @ 4982 NONAME
 ?OnScroll@CView@@UEAAHIIH@Z @ 4983 NONAME
 ?OnScrollBy@COleClientItem@@MEAAHVCSize@@@Z @ 4984 NONAME
 ?OnScrollBy@CScrollView@@UEAAHVCSize@@H@Z @ 4985 NONAME
 ?OnScrollBy@CView@@UEAAHVCSize@@H@Z @ 4986 NONAME
 ?OnSelChange@CRichEditView@@IEAAXPEAUtagNMHDR@@PEA_J@Z @ 4987 NONAME
 ?OnSelectionChange@XFileDialogEvents@CFileDialog@@UEAAJPEAUIFileDialog@@@Z @ 4988 NONAME
 ?OnSend@CAsyncSocket@@MEAAXH@Z @ 4989 NONAME
 ?OnSetActive@CPropertyPage@@UEAAHXZ @ 4990 NONAME
 ?OnSetBitmapSize@CToolBar@@IEAA_J_K_J@Z @ 4991 NONAME
 ?OnSetButtonSize@CToolBar@@IEAA_J_K_J@Z @ 4992 NONAME
 ?OnSetClientSite@COleControl@@UEAAXXZ @ 4993 NONAME
 ?OnSetColorScheme@COleServerItem@@UEAAHPEBUtagLOGPALETTE@@@Z @ 4994 NONAME
 ?OnSetCursor@CFrameWnd@@IEAAHPEAVCWnd@@II@Z @ 4995 NONAME
 ?OnSetCursor@COleControl@@IEAAHPEAVCWnd@@II@Z @ 4996 NONAME
 ?OnSetCursor@COleResizeBar@@IEAAHPEAVCWnd@@II@Z @ 4997 NONAME
 ?OnSetCursor@CPreviewView@@IEAAHPEAVCWnd@@II@Z @ 4998 NONAME
 ?OnSetCursor@CSplitterWnd@@IEAAHPEAVCWnd@@II@Z @ 4999 NONAME
 ?OnSetData@CControlDataSource@COleControl@@MEAAHPEAUtagFORMATETC@@PEAUtagSTGMEDIUM@@H@Z @ 5000 NONAME
 ?OnSetData@CItemDataSource@COleServerItem@@MEAAHPEAUtagFORMATETC@@PEAUtagSTGMEDIUM@@H@Z @ 5001 NONAME
 ?OnSetData@COleControl@@UEAAHPEAUtagFORMATETC@@PEAUtagSTGMEDIUM@@H@Z @ 5002 NONAME
 ?OnSetData@COleDataSource@@UEAAHPEAUtagFORMATETC@@PEAUtagSTGMEDIUM@@H@Z @ 5003 NONAME
 ?OnSetData@COleServerItem@@UEAAHPEAUtagFORMATETC@@PEAUtagSTGMEDIUM@@H@Z @ 5004 NONAME
 ?OnSetDefID@CPropertySheet@@IEAA_J_K_J@Z @ 5005 NONAME
 ?OnSetExtent@COleControl@@UEAAHPEAUtagSIZE@@@Z @ 5006 NONAME
 ?OnSetExtent@COleServerItem@@UEAAHW4tagDVASPECT@@AEBVCSize@@@Z @ 5007 NONAME
 ?OnSetFocus@CFormView@@IEAAXPEAVCWnd@@@Z @ 5008 NONAME
 ?OnSetFocus@CFrameWnd@@IEAAXPEAVCWnd@@@Z @ 5009 NONAME
 ?OnSetFocus@COleControl@@IEAAXPEAVCWnd@@@Z @ 5010 NONAME
 ?OnSetFocus@CWnd@@IEAAXPEAV1@@Z @ 5011 NONAME
 ?OnSetFont@CCheckListBox@@IEAA_J_K_J@Z @ 5012 NONAME
 ?OnSetFont@CDialog@@UEAAXPEAVCFont@@@Z @ 5013 NONAME
 ?OnSetFont@CEditView@@IEAA_J_K_J@Z @ 5014 NONAME
 ?OnSetHostNames@COleServerDoc@@MEAAXPEB_W0@Z @ 5015 NONAME
 ?OnSetItemRects@CDocObjectServer@@IEAAXPEAUtagRECT@@0@Z @ 5016 NONAME
 ?OnSetItemRects@COleServerDoc@@MEAAXPEBUtagRECT@@0@Z @ 5017 NONAME
 ?OnSetMenu@COleClientItem@@UEAAXPEAVCMenu@@PEAXPEAUHWND__@@@Z @ 5018 NONAME
 ?OnSetMessageString@CFrameWnd@@IEAA_J_K_J@Z @ 5019 NONAME
 ?OnSetMessageString@COleControl@@IEAA_J_K_J@Z @ 5020 NONAME
 ?OnSetMessageString@COleIPFrameWnd@@UEAA_J_K_J@Z @ 5021 NONAME
 ?OnSetMinHeight@CStatusBar@@IEAA_J_K_J@Z @ 5022 NONAME
 ?OnSetObjectRects@COleControl@@UEAAHPEBUtagRECT@@0@Z @ 5023 NONAME
 ?OnSetOptions@CDatabase@@UEAAXPEAX@Z @ 5024 NONAME
 ?OnSetOptions@CRecordset@@UEAAXPEAX@Z @ 5025 NONAME
 ?OnSetPageSite@COlePropertyPage@@UEAAXXZ @ 5026 NONAME
 ?OnSetPreviewMode@CFrameWnd@@UEAAXHPEAUCPrintPreviewState@@@Z @ 5027 NONAME
 ?OnSetSizeHelper@CToolBar@@IEAA_JAEAVCSize@@_J@Z @ 5028 NONAME
 ?OnSetText@COleControl@@IEAA_J_K_J@Z @ 5029 NONAME
 ?OnSetText@CStatusBar@@IEAA_J_K_J@Z @ 5030 NONAME
 ?OnSettingChange@CWnd@@IEAAXIPEB_W@Z @ 5031 NONAME
 ?OnSetUpdateOptions@CRecordset@@UEAAXPEAX@Z @ 5032 NONAME
 ?OnShareViolation@CFileDialog@@MEAAIPEB_W@Z @ 5033 NONAME
 ?OnShareViolation@XFileDialogEvents@CFileDialog@@UEAAJPEAUIFileDialog@@PEAUIShellItem@@PEAW4tagFDE_SHAREVIOLATION_RESPONSE@@@Z @ 5034 NONAME
 ?OnShow@CDocObjectServerItem@@MEAAXXZ @ 5035 NONAME
 ?OnShow@COleServerItem@@MEAAXXZ @ 5036 NONAME
 ?OnShowBand@CReBar@@IEAA_J_K_J@Z @ 5037 NONAME
 ?OnShowContextMenu@CHtmlView@@UEAAJKPEAUtagPOINT@@PEAUIUnknown@@PEAUIDispatch@@@Z @ 5038 NONAME
 ?OnShowControlBars@COleClientItem@@UEAAHPEAVCFrameWnd@@H@Z @ 5039 NONAME
 ?OnShowControlBars@COleServerDoc@@UEAAXPEAVCFrameWnd@@H@Z @ 5040 NONAME
 ?OnShowDocument@COleServerDoc@@MEAAXH@Z @ 5041 NONAME
 ?OnShowItem@COleClientItem@@MEAAXXZ @ 5042 NONAME
 ?OnShowMenuBar@CFrameWnd@@MEAAXXZ @ 5043 NONAME
 ?OnShowToolBars@COleControl@@UEAAXXZ @ 5044 NONAME
 ?OnShowUI@CHtmlView@@UEAAJKPEAUIOleInPlaceActiveObject@@PEAUIOleCommandTarget@@PEAUIOleInPlaceFrame@@PEAUIOleInPlaceUIWindow@@@Z @ 5045 NONAME
 ?OnShowViews@COleDocument@@UEAAXH@Z @ 5046 NONAME
 ?OnShowViews@COleLinkingDoc@@MEAAXH@Z @ 5047 NONAME
 ?OnShowWindow@COleControl@@IEAAXHI@Z @ 5048 NONAME
 ?OnShowWindow@XOleClientSite@COleClientItem@@UEAAJH@Z @ 5049 NONAME
 ?OnShowWindow@XOleClientSite@COleControlSite@@UEAAJH@Z @ 5050 NONAME
 ?OnSize@CDHtmlDialog@@IEAAXIHH@Z @ 5051 NONAME
 ?OnSize@CFrameWnd@@IEAAXIHH@Z @ 5052 NONAME
 ?OnSize@CHtmlView@@IEAAXIHH@Z @ 5053 NONAME
 ?OnSize@CMDIChildWnd@@IEAAXIHH@Z @ 5054 NONAME
 ?OnSize@CMDIFrameWnd@@IEAAXIHH@Z @ 5055 NONAME
 ?OnSize@COleControl@@IEAAXIHH@Z @ 5056 NONAME
 ?OnSize@COleIPFrameWnd@@IEAAXIHH@Z @ 5057 NONAME
 ?OnSize@COleResizeBar@@IEAAXIHH@Z @ 5058 NONAME
 ?OnSize@CPreviewView@@IEAAXIHH@Z @ 5059 NONAME
 ?OnSize@CScrollView@@QEAAXIHH@Z @ 5060 NONAME
 ?OnSize@CSplitterWnd@@IEAAXIHH@Z @ 5061 NONAME
 ?OnSize@CStatusBar@@IEAAXIHH@Z @ 5062 NONAME
 ?OnSizeParent@CControlBar@@QEAA_J_K_J@Z @ 5063 NONAME
 ?OnSizeParent@CDockBar@@IEAA_J_K_J@Z @ 5064 NONAME
 ?OnSizeParent@COleResizeBar@@IEAA_J_K_J@Z @ 5065 NONAME
 ?OnSkip@CEnumArray@@MEAAHXZ @ 5066 NONAME
 ?OnSocketDead@CSocketWnd@@IEAA_J_K_J@Z @ 5067 NONAME
 ?OnSocketNotify@CSocketWnd@@IEAA_J_K_J@Z @ 5068 NONAME
 ?OnSplitCmd@CView@@IEAAHI@Z @ 5069 NONAME
 ?OnStartBinding@CAsyncMonikerFile@@MEAAXXZ @ 5070 NONAME
 ?OnStatusBar@CHtmlView@@UEAAXH@Z @ 5071 NONAME
 ?OnStatusCallback@CInternetSession@@UEAAX_KKPEAXK@Z @ 5072 NONAME
 ?OnStatusTextChange@CHtmlView@@UEAAXPEB_W@Z @ 5073 NONAME
 ?OnStopBinding@CAsyncMonikerFile@@MEAAXJPEB_W@Z @ 5074 NONAME
 ?OnSysColorChange@CToolBar@@IEAAXXZ @ 5075 NONAME
 ?OnSysColorChange@CWnd@@IEAAXXZ @ 5076 NONAME
 ?OnSysCommand@CFrameWnd@@IEAAXI_J@Z @ 5077 NONAME
 ?OnSysCommand@CMiniFrameWnd@@QEAAXI_J@Z @ 5078 NONAME
 ?OnSysCommand@CPropertySheet@@IEAAXI_J@Z @ 5079 NONAME
 ?OnSysCommand@CSplitterWnd@@IEAAXI_J@Z @ 5080 NONAME
 ?OnSysKeyDown@COleControl@@IEAAXIII@Z @ 5081 NONAME
 ?OnSysKeyUp@COleControl@@IEAAXIII@Z @ 5082 NONAME
 ?OnTextChanged@COleControl@@UEAAXXZ @ 5083 NONAME
 ?OnTextNotFound@CEditView@@MEAAXPEB_W@Z @ 5084 NONAME
 ?OnTextNotFound@CRichEditView@@MEAAXPEB_W@Z @ 5085 NONAME
 ?OnTheaterMode@CHtmlView@@UEAAXH@Z @ 5086 NONAME
 ?OnThemeChanged@CControlBar@@QEAA_JXZ @ 5087 NONAME
 ?OnTimer@CControlBar@@QEAAX_K@Z @ 5088 NONAME
 ?OnTitleChange@CHtmlView@@UEAAXPEB_W@Z @ 5089 NONAME
 ?OnToolBar@CHtmlView@@UEAAXH@Z @ 5090 NONAME
 ?OnToolHitTest@CReBar@@UEBA_JVCPoint@@PEAUtagTOOLINFOW@@@Z @ 5091 NONAME
 ?OnToolHitTest@CToolBar@@UEBA_JVCPoint@@PEAUtagTOOLINFOW@@@Z @ 5092 NONAME
 ?OnToolHitTest@CWnd@@UEBA_JVCPoint@@PEAUtagTOOLINFOW@@@Z @ 5093 NONAME
 ?OnToolTipText@CFrameWnd@@IEAAHIPEAUtagNMHDR@@PEA_J@Z @ 5094 NONAME
 ?OnToolTipText@CMDIChildWnd@@IEAAHIPEAUtagNMHDR@@PEA_J@Z @ 5095 NONAME
 ?OnTranslateAccelerator@CHtmlView@@UEAAJPEAUtagMSG@@PEBU_GUID@@K@Z @ 5096 NONAME
 ?OnTranslateUrl@CHtmlView@@UEAAJKPEA_WPEAPEA_W@Z @ 5097 NONAME
 ?OnTypeChange@CFileDialog@@MEAAXXZ @ 5098 NONAME
 ?OnTypeChange@XFileDialogEvents@CFileDialog@@UEAAJPEAUIFileDialog@@@Z @ 5099 NONAME
 ?OnUIActivate@COleControlContainer@@UEAAXPEAVCOleControlSite@@@Z @ 5100 NONAME
 ?OnUIActivate@XOleIPSite@COleClientItem@@UEAAJXZ @ 5101 NONAME
 ?OnUIActivate@XOleIPSite@COleControlSite@@UEAAJXZ @ 5102 NONAME
 ?OnUIDeactivate@COleControlContainer@@UEAAXPEAVCOleControlSite@@@Z @ 5103 NONAME
 ?OnUIDeactivate@XOleIPSite@COleClientItem@@UEAAJH@Z @ 5104 NONAME
 ?OnUIDeactivate@XOleIPSite@COleControlSite@@UEAAJH@Z @ 5105 NONAME
 ?OnUpdate@COleServerItem@@UEAAXPEAV1@_JPEAVCObject@@W4tagDVASPECT@@@Z @ 5106 NONAME
 ?OnUpdate@CView@@MEAAXPEAV1@_JPEAVCObject@@@Z @ 5107 NONAME
 ?OnUpdateBullet@CRichEditView@@IEAAXPEAVCCmdUI@@@Z @ 5108 NONAME
 ?OnUpdateCharBold@CRichEditView@@IEAAXPEAVCCmdUI@@@Z @ 5109 NONAME
 ?OnUpdateCharEffect@CRichEditView@@QEAAXPEAVCCmdUI@@KK@Z @ 5110 NONAME
 ?OnUpdateCharItalic@CRichEditView@@IEAAXPEAVCCmdUI@@@Z @ 5111 NONAME
 ?OnUpdateCharUnderline@CRichEditView@@IEAAXPEAVCCmdUI@@@Z @ 5112 NONAME
 ?OnUpdateCmdUI@CDialogBar@@UEAAXPEAVCFrameWnd@@H@Z @ 5113 NONAME
 ?OnUpdateCmdUI@CDockBar@@MEAAXPEAVCFrameWnd@@H@Z @ 5114 NONAME
 ?OnUpdateCmdUI@COleResizeBar@@UEAAXPEAVCFrameWnd@@H@Z @ 5115 NONAME
 ?OnUpdateCmdUI@CReBar@@UEAAXPEAVCFrameWnd@@H@Z @ 5116 NONAME
 ?OnUpdateCmdUI@CStatusBar@@UEAAXPEAVCFrameWnd@@H@Z @ 5117 NONAME
 ?OnUpdateCmdUI@CToolBar@@UEAAXPEAVCFrameWnd@@H@Z @ 5118 NONAME
 ?OnUpdateContextHelp@CFrameWnd@@IEAAXPEAVCCmdUI@@@Z @ 5119 NONAME
 ?OnUpdateControlBarMenu@CFrameWnd@@QEAAXPEAVCCmdUI@@@Z @ 5120 NONAME
 ?OnUpdateControlBarMenu@COleIPFrameWnd@@IEAAXPEAVCCmdUI@@@Z @ 5121 NONAME
 ?OnUpdateDocument@COleServerDoc@@UEAAHXZ @ 5122 NONAME
 ?OnUpdateEditChangeIcon@COleDocument@@IEAAXPEAVCCmdUI@@@Z @ 5123 NONAME
 ?OnUpdateEditCopy@CHtmlView@@IEAAXPEAVCCmdUI@@@Z @ 5124 NONAME
 ?OnUpdateEditCut@CHtmlView@@IEAAXPEAVCCmdUI@@@Z @ 5125 NONAME
 ?OnUpdateEditLinksMenu@COleDocument@@IEAAXPEAVCCmdUI@@@Z @ 5126 NONAME
 ?OnUpdateEditPaste@CHtmlView@@IEAAXPEAVCCmdUI@@@Z @ 5127 NONAME
 ?OnUpdateEditPasteSpecial@CRichEditView@@IEAAXPEAVCCmdUI@@@Z @ 5128 NONAME
 ?OnUpdateEditProperties@CRichEditView@@IEAAXPEAVCCmdUI@@@Z @ 5129 NONAME
 ?OnUpdateEditRedo@CRichEditView@@IEAAXPEAVCCmdUI@@@Z @ 5130 NONAME
 ?OnUpdateEditUndo@CEditView@@IEAAXPEAVCCmdUI@@@Z @ 5131 NONAME
 ?OnUpdateEditUndo@CRichEditView@@IEAAXPEAVCCmdUI@@@Z @ 5132 NONAME
 ?OnUpdateFileExit@COleServerDoc@@IEAAXPEAVCCmdUI@@@Z @ 5133 NONAME
 ?OnUpdateFileSendMail@CDocument@@IEAAXPEAVCCmdUI@@@Z @ 5134 NONAME
 ?OnUpdateFileUpdate@COleServerDoc@@IEAAXPEAVCCmdUI@@@Z @ 5135 NONAME
 ?OnUpdateFrameMenu@CFrameWnd@@UEAAXPEAUHMENU__@@@Z @ 5136 NONAME
 ?OnUpdateFrameMenu@CMDIChildWnd@@UEAAXHPEAVCWnd@@PEAUHMENU__@@@Z @ 5137 NONAME
 ?OnUpdateFrameMenu@CMDIFrameWnd@@UEAAXPEAUHMENU__@@@Z @ 5138 NONAME
 ?OnUpdateFrameTitle@CFrameWnd@@UEAAXH@Z @ 5139 NONAME
 ?OnUpdateFrameTitle@CMDIChildWnd@@MEAAXH@Z @ 5140 NONAME
 ?OnUpdateFrameTitle@CMDIFrameWnd@@UEAAXH@Z @ 5141 NONAME
 ?OnUpdateFrameTitle@COleClientItem@@UEAAHXZ @ 5142 NONAME
 ?OnUpdateFrameTitle@COleFrameHook@@UEAAHXZ @ 5143 NONAME
 ?OnUpdateItems@COleServerItem@@UEAAXXZ @ 5144 NONAME
 ?OnUpdateKeyIndicator@CFrameWnd@@IEAAXPEAVCCmdUI@@@Z @ 5145 NONAME
 ?OnUpdateMDIWindowCmd@CMDIFrameWnd@@IEAAXPEAVCCmdUI@@@Z @ 5146 NONAME
 ?OnUpdateNeedClip@CEditView@@IEAAXPEAVCCmdUI@@@Z @ 5147 NONAME
 ?OnUpdateNeedClip@CRichEditView@@IEAAXPEAVCCmdUI@@@Z @ 5148 NONAME
 ?OnUpdateNeedFind@CEditView@@IEAAXPEAVCCmdUI@@@Z @ 5149 NONAME
 ?OnUpdateNeedFind@CRichEditView@@IEAAXPEAVCCmdUI@@@Z @ 5150 NONAME
 ?OnUpdateNeedSel@CEditView@@IEAAXPEAVCCmdUI@@@Z @ 5151 NONAME
 ?OnUpdateNeedSel@CRichEditView@@IEAAXPEAVCCmdUI@@@Z @ 5152 NONAME
 ?OnUpdateNeedText@CEditView@@IEAAXPEAVCCmdUI@@@Z @ 5153 NONAME
 ?OnUpdateNeedText@CRichEditView@@IEAAXPEAVCCmdUI@@@Z @ 5154 NONAME
 ?OnUpdateNextPage@CPreviewView@@IEAAXPEAVCCmdUI@@@Z @ 5155 NONAME
 ?OnUpdateNextPaneMenu@CView@@IEAAXPEAVCCmdUI@@@Z @ 5156 NONAME
 ?OnUpdateNumPageChange@CPreviewView@@IEAAXPEAVCCmdUI@@@Z @ 5157 NONAME
 ?OnUpdateObjectVerbMenu@COleDocument@@IEAAXPEAVCCmdUI@@@Z @ 5158 NONAME
 ?OnUpdateParaAlign@CRichEditView@@QEAAXPEAVCCmdUI@@G@Z @ 5159 NONAME
 ?OnUpdateParaCenter@CRichEditView@@IEAAXPEAVCCmdUI@@@Z @ 5160 NONAME
 ?OnUpdateParaLeft@CRichEditView@@IEAAXPEAVCCmdUI@@@Z @ 5161 NONAME
 ?OnUpdateParaRight@CRichEditView@@IEAAXPEAVCCmdUI@@@Z @ 5162 NONAME
 ?OnUpdatePasteLinkMenu@COleDocument@@IEAAXPEAVCCmdUI@@@Z @ 5163 NONAME
 ?OnUpdatePasteMenu@COleDocument@@IEAAXPEAVCCmdUI@@@Z @ 5164 NONAME
 ?OnUpdatePrevPage@CPreviewView@@IEAAXPEAVCCmdUI@@@Z @ 5165 NONAME
 ?OnUpdateRecentFileMenu@CWinApp@@IEAAXPEAVCCmdUI@@@Z @ 5166 NONAME
 ?OnUpdateRecordFirst@COleDBRecordView@@IEAAXPEAVCCmdUI@@@Z @ 5167 NONAME
 ?OnUpdateRecordFirst@CRecordView@@IEAAXPEAVCCmdUI@@@Z @ 5168 NONAME
 ?OnUpdateRecordLast@COleDBRecordView@@IEAAXPEAVCCmdUI@@@Z @ 5169 NONAME
 ?OnUpdateRecordLast@CRecordView@@IEAAXPEAVCCmdUI@@@Z @ 5170 NONAME
 ?OnUpdateRecordNext@COleDBRecordView@@IEAAXPEAVCCmdUI@@@Z @ 5171 NONAME
 ?OnUpdateRecordNext@CRecordView@@IEAAXPEAVCCmdUI@@@Z @ 5172 NONAME
 ?OnUpdateRecordPrev@COleDBRecordView@@IEAAXPEAVCCmdUI@@@Z @ 5173 NONAME
 ?OnUpdateRecordPrev@CRecordView@@IEAAXPEAVCCmdUI@@@Z @ 5174 NONAME
 ?OnUpdateSplitCmd@CView@@IEAAXPEAVCCmdUI@@@Z @ 5175 NONAME
 ?OnUpdateUI@CHtmlView@@UEAAJXZ @ 5176 NONAME
 ?OnUpdateZoomIn@CPreviewView@@IEAAXPEAVCCmdUI@@@Z @ 5177 NONAME
 ?OnUpdateZoomOut@CPreviewView@@IEAAXPEAVCCmdUI@@@Z @ 5178 NONAME
 ?OnViewChange@XAdviseSink@COleClientItem@@UEAAXKJ@Z @ 5179 NONAME
 ?OnVisible@CHtmlView@@UEAAXH@Z @ 5180 NONAME
 ?OnVKeyToItem@CWnd@@IEAAHIPEAVCListBox@@I@Z @ 5181 NONAME
 ?OnVScroll@CFrameWnd@@IEAAXIIPEAVCScrollBar@@@Z @ 5182 NONAME
 ?OnVScroll@CPreviewView@@IEAAXIIPEAVCScrollBar@@@Z @ 5183 NONAME
 ?OnVScroll@CScrollView@@QEAAXIIPEAVCScrollBar@@@Z @ 5184 NONAME
 ?OnVScroll@CSplitterWnd@@IEAAXIIPEAVCScrollBar@@@Z @ 5185 NONAME
 ?OnVScroll@CWnd@@IEAAXIIPEAVCScrollBar@@@Z @ 5186 NONAME
 ?OnWindowFromPoint@CToolTipCtrl@@IEAA_J_K_J@Z @ 5187 NONAME
 ?OnWindowlessMessage@COleControl@@UEAAHI_K_JPEA_J@Z @ 5188 NONAME
 ?OnWindowMessage@XOleInPlaceObject@COleControl@@UEAAJI_K_JPEA_J@Z @ 5189 NONAME
 ?OnWindowNew@CMDIFrameWnd@@IEAAXXZ @ 5190 NONAME
 ?OnWindowPosChanging@CControlBar@@QEAAXPEAUtagWINDOWPOS@@@Z @ 5191 NONAME
 ?OnWindowPosChanging@CDockBar@@IEAAXPEAUtagWINDOWPOS@@@Z @ 5192 NONAME
 ?OnWindowPosChanging@CMDIChildWnd@@IEAAXPEAUtagWINDOWPOS@@@Z @ 5193 NONAME
 ?OnWindowPosChanging@COleIPFrameWnd@@IEAAXPEAUtagWINDOWPOS@@@Z @ 5194 NONAME
 ?OnWindowPosChanging@CStatusBar@@IEAAXPEAUtagWINDOWPOS@@@Z @ 5195 NONAME
 ?OnWindowPosChanging@CToolBar@@IEAAXPEAUtagWINDOWPOS@@@Z @ 5196 NONAME
 ?OnWizardBack@CPropertyPage@@UEAA_JXZ @ 5197 NONAME
 ?OnWizardFinish@CPropertyPage@@UEAAHXZ @ 5198 NONAME
 ?OnWizardFinishEx@CPropertyPage@@UEAAPEAUHWND__@@XZ @ 5199 NONAME
 ?OnWizardNext@CPropertyPage@@UEAA_JXZ @ 5200 NONAME
 ?OnWndMsg@CWnd@@MEAAHI_K_JPEA_J@Z @ 5201 NONAME
 ?OnZoomIn@CPreviewView@@IEAAXXZ @ 5202 NONAME
 ?OnZoomOut@CPreviewView@@IEAAXXZ @ 5203 NONAME
 ?Open@CAsyncMonikerFile@@UEAAHPEAUIMoniker@@PEAUIBindHost@@PEAVCFileException@@@Z @ 5204 NONAME
 ?Open@CAsyncMonikerFile@@UEAAHPEAUIMoniker@@PEAUIServiceProvider@@PEAVCFileException@@@Z @ 5205 NONAME
 ?Open@CAsyncMonikerFile@@UEAAHPEAUIMoniker@@PEAUIUnknown@@PEAVCFileException@@@Z @ 5206 NONAME
 ?Open@CAsyncMonikerFile@@UEAAHPEAUIMoniker@@PEAVCFileException@@@Z @ 5207 NONAME
 ?Open@CAsyncMonikerFile@@UEAAHPEB_WPEAUIBindHost@@PEAVCFileException@@@Z @ 5208 NONAME
 ?Open@CAsyncMonikerFile@@UEAAHPEB_WPEAUIServiceProvider@@PEAVCFileException@@@Z @ 5209 NONAME
 ?Open@CAsyncMonikerFile@@UEAAHPEB_WPEAUIUnknown@@PEAVCFileException@@@Z @ 5210 NONAME
 ?Open@CAsyncMonikerFile@@UEAAHPEB_WPEAVCFileException@@@Z @ 5211 NONAME
 ?Open@CDatabase@@UEAAHPEB_WHH0H@Z @ 5212 NONAME
 ?Open@CDataPathProperty@@UEAAHPEAVCFileException@@@Z @ 5213 NONAME
 ?Open@CDataPathProperty@@UEAAHPEAVCOleControl@@PEAVCFileException@@@Z @ 5214 NONAME
 ?Open@CDataPathProperty@@UEAAHPEB_WPEAVCFileException@@@Z @ 5215 NONAME
 ?Open@CDataPathProperty@@UEAAHPEB_WPEAVCOleControl@@PEAVCFileException@@@Z @ 5216 NONAME
 ?Open@CFile@@UEAAHPEB_WIPEAVCFileException@@@Z @ 5217 NONAME
 ?Open@CMirrorFile@@UEAAHPEB_WIPEAVCFileException@@@Z @ 5218 NONAME
 ?Open@CMonikerFile@@MEAAHPEAUIMoniker@@PEAUIBindHost@@PEAUIBindStatusCallback@@PEAUIBindCtx@@PEAVCFileException@@@Z @ 5219 NONAME
 ?Open@CMonikerFile@@MEAAHPEB_WPEAUIBindHost@@PEAUIBindStatusCallback@@PEAUIBindCtx@@PEAVCFileException@@@Z @ 5220 NONAME
 ?Open@CMonikerFile@@UEAAHPEAUIMoniker@@PEAVCFileException@@@Z @ 5221 NONAME
 ?Open@CMonikerFile@@UEAAHPEB_WPEAVCFileException@@@Z @ 5222 NONAME
 ?Open@CRecordset@@UEAAHIPEB_WK@Z @ 5223 NONAME
 ?Open@CSocketFile@@UEAAHPEB_WIPEAVCFileException@@@Z @ 5224 NONAME
 ?Open@CStdioFile@@UEAAHPEB_WIPEAVCFileException@@@Z @ 5225 NONAME
 ?Open@XOleDocumentView@CDocObjectServer@@UEAAJXZ @ 5226 NONAME
 ?OpenDocumentFile@CDocManager@@UEAAPEAVCDocument@@PEB_W@Z @ 5227 NONAME
 ?OpenDocumentFile@CMultiDocTemplate@@UEAAPEAVCDocument@@PEB_WH@Z @ 5228 NONAME
 ?OpenDocumentFile@CSingleDocTemplate@@UEAAPEAVCDocument@@PEB_WH@Z @ 5229 NONAME
 ?OpenDocumentFile@CWinApp@@UEAAPEAVCDocument@@PEB_W@Z @ 5230 NONAME
 ?OpenEx@CDatabase@@UEAAHPEB_WK@Z @ 5231 NONAME
 ?OpenFile@CFtpConnection@@QEAAPEAVCInternetFile@@PEB_WKK_K@Z @ 5232 NONAME
 ?OpenFile@CGopherConnection@@QEAAPEAVCGopherFile@@AEAVCGopherLocator@@KPEB_W_K@Z @ 5233 NONAME
 ?OpenLinkSource@COleUILinkInfo@@UEAAJK@Z @ 5234 NONAME
 ?OpenRequest@CHttpConnection@@QEAAPEAVCHttpFile@@HPEB_W0_KPEAPEB_W0K@Z @ 5235 NONAME
 ?OpenRequest@CHttpConnection@@QEAAPEAVCHttpFile@@PEB_W00_KPEAPEB_W0K@Z @ 5236 NONAME
 ?OpenStream@COleStreamFile@@QEAAHPEAUIStorage@@PEB_WKPEAVCFileException@@@Z @ 5237 NONAME
 ?OpenThemeData@CThemeHelper@@SAPEAXPEAUHWND__@@PEB_W@Z @ 5238 NONAME
 ?OpenThemeDataFail@CThemeHelper@@CAPEAXPEAUHWND__@@PEB_W@Z @ 5239 NONAME
 ?OpenURL@CHtmlEditDoc@@UEAAHPEB_W@Z @ 5240 NONAME
 ?OpenURL@CInternetSession@@QEAAPEAVCStdioFile@@PEB_W_KK0K@Z @ 5241 NONAME
 ?OsErrorToException@CFileException@@SAHJ@Z @ 5242 NONAME
 ?OutputString@CDumpContext@@IEAAXPEB_W@Z @ 5243 NONAME
 ?PaginateTo@CEditView@@IEAAHPEAVCDC@@PEAUCPrintInfo@@@Z @ 5244 NONAME
 ?PaginateTo@CRichEditView@@IEAAHPEAVCDC@@PEAUCPrintInfo@@@Z @ 5245 NONAME
 ?PaintHookProc@CPageSetupDialog@@KAIPEAUHWND__@@I_K_J@Z @ 5246 NONAME
 ?PaintWindowlessControls@CWnd@@QEAAHPEAVCDC@@@Z @ 5247 NONAME
 ?ParentToClient@COleControl@@UEBAIPEBUtagRECT@@PEAUtagPOINT@@H@Z @ 5248 NONAME
 ?ParseCommandLine@CWinApp@@QEAAXAEAVCCommandLineInfo@@@Z @ 5249 NONAME
 ?ParseCurrency@COleCurrency@@QEAAHPEB_WKK@Z @ 5250 NONAME
 ?ParseDisplayName@XOleContainer@COleControlContainer@@UEAAJPEAUIBindCtx@@PEA_WPEAKPEAPEAUIMoniker@@@Z @ 5251 NONAME
 ?ParseDisplayName@XOleItemContainer@COleLinkingDoc@@UEAAJPEAUIBindCtx@@PEA_WPEAKPEAPEAUIMoniker@@@Z @ 5252 NONAME
 ?ParseLast@CCommandLineInfo@@IEAAXH@Z @ 5253 NONAME
 ?ParseParam@CCommandLineInfo@@UEAAXPEB_WHH@Z @ 5254 NONAME
 ?ParseParam@CCommandLineInfo@@UEAAXPEBDHH@Z @ 5255 NONAME
 ?ParseParamFlag@CCommandLineInfo@@IEAAXPEBD@Z @ 5256 NONAME
 ?ParseParamNotFlag@CCommandLineInfo@@IEAAXPEB_W@Z @ 5257 NONAME
 ?ParseParamNotFlag@CCommandLineInfo@@IEAAXPEBD@Z @ 5258 NONAME
 ?PasteSpecial@CRichEditCtrl@@QEAAXIKPEAUHMETAFILE__@@@Z @ 5259 NONAME
 ?PGetFirstAssoc@CMapStringToString@@QEAAPEAUCPair@1@XZ @ 5260 NONAME
 ?PGetFirstAssoc@CMapStringToString@@QEBAPEBUCPair@1@XZ @ 5261 NONAME
 ?PGetNextAssoc@CMapStringToString@@QEAAPEAUCPair@1@PEBU21@@Z @ 5262 NONAME
 ?PGetNextAssoc@CMapStringToString@@QEBAPEBUCPair@1@PEBU21@@Z @ 5263 NONAME
 ?PlayMetaFile@CDC@@QEAAHPEAUHMETAFILE__@@@Z @ 5264 NONAME
 ?PLookup@CMapStringToString@@QEAAPEAUCPair@1@PEB_W@Z @ 5265 NONAME
 ?PLookup@CMapStringToString@@QEBAPEBUCPair@1@PEB_W@Z @ 5266 NONAME
 ?PolyBezierTo@CDC@@QEAAHPEBUtagPOINT@@H@Z @ 5267 NONAME
 ?PolyDraw@CDC@@QEAAHPEBUtagPOINT@@PEBEH@Z @ 5268 NONAME
 ?PolylineTo@CDC@@QEAAHPEBUtagPOINT@@H@Z @ 5269 NONAME
 ?PositionPage@CPreviewView@@MEAAXI@Z @ 5270 NONAME
 ?PostBindToStream@CAsyncMonikerFile@@MEAAHPEAVCFileException@@@Z @ 5271 NONAME
 ?PostBindToStream@CMonikerFile@@MEAAHPEAVCFileException@@@Z @ 5272 NONAME
 ?PostCreateDialog@COccManager@@UEAAXPEAU_AFX_OCC_DIALOG_INFO@@@Z @ 5273 NONAME
 ?PostModal@CDialog@@IEAAXXZ @ 5274 NONAME
 ?PostModal@CPrintDialogEx@@QEAAXXZ @ 5275 NONAME
 ?PostModalDialog@COleControl@@QEAAXPEAUHWND__@@@Z @ 5276 NONAME
 ?PostNcDestroy@CControlBar@@UEAAXXZ @ 5277 NONAME
 ?PostNcDestroy@CControlFrameWnd@@MEAAXXZ @ 5278 NONAME
 ?PostNcDestroy@CFindReplaceDialog@@MEAAXXZ @ 5279 NONAME
 ?PostNcDestroy@CFrameWnd@@MEAAXXZ @ 5280 NONAME
 ?PostNcDestroy@COleCntrFrameWnd@@MEAAXXZ @ 5281 NONAME
 ?PostNcDestroy@CReflectorWnd@@MEAAXXZ @ 5282 NONAME
 ?PostNcDestroy@CView@@MEAAXXZ @ 5283 NONAME
 ?PostNcDestroy@CWnd@@MEAAXXZ @ 5284 NONAME
 ?Preallocate@?$CSimpleStringT@_W$00@ATL@@QEAAXH@Z @ 5285 NONAME
 ?Preallocate@?$CSimpleStringT@D$00@ATL@@QEAAXH@Z @ 5286 NONAME
 ?PreBindFields@CRecordset@@UEAAXXZ @ 5287 NONAME
 ?PreCloseFrame@CDocument@@UEAAXPEAVCFrameWnd@@@Z @ 5288 NONAME
 ?PreCloseFrame@COleDocument@@UEAAXPEAVCFrameWnd@@@Z @ 5289 NONAME
 ?PreCloseFrame@CRichEditDoc@@UEAAXPEAVCFrameWnd@@@Z @ 5290 NONAME
 ?PreCompareItem@CCheckListBox@@IEAAHPEAUtagCOMPAREITEMSTRUCT@@@Z @ 5291 NONAME
 ?PreCreateDialog@COccManager@@UEAAPEBUDLGTEMPLATE@@PEAU_AFX_OCC_DIALOG_INFO@@PEBU2@@Z @ 5292 NONAME
 ?PreCreateWindow@CControlBar@@UEAAHAEAUtagCREATESTRUCTW@@@Z @ 5293 NONAME
 ?PreCreateWindow@CControlFrameWnd@@UEAAHAEAUtagCREATESTRUCTW@@@Z @ 5294 NONAME
 ?PreCreateWindow@CCtrlView@@MEAAHAEAUtagCREATESTRUCTW@@@Z @ 5295 NONAME
 ?PreCreateWindow@CEditView@@MEAAHAEAUtagCREATESTRUCTW@@@Z @ 5296 NONAME
 ?PreCreateWindow@CFrameWnd@@MEAAHAEAUtagCREATESTRUCTW@@@Z @ 5297 NONAME
 ?PreCreateWindow@CHtmlView@@UEAAHAEAUtagCREATESTRUCTW@@@Z @ 5298 NONAME
 ?PreCreateWindow@CListView@@UEAAHAEAUtagCREATESTRUCTW@@@Z @ 5299 NONAME
 ?PreCreateWindow@CMDIChildWnd@@UEAAHAEAUtagCREATESTRUCTW@@@Z @ 5300 NONAME
 ?PreCreateWindow@CMDIFrameWnd@@UEAAHAEAUtagCREATESTRUCTW@@@Z @ 5301 NONAME
 ?PreCreateWindow@CMiniFrameWnd@@MEAAHAEAUtagCREATESTRUCTW@@@Z @ 5302 NONAME
 ?PreCreateWindow@CRichEditView@@MEAAHAEAUtagCREATESTRUCTW@@@Z @ 5303 NONAME
 ?PreCreateWindow@CStatusBar@@UEAAHAEAUtagCREATESTRUCTW@@@Z @ 5304 NONAME
 ?PreCreateWindow@CTreeView@@UEAAHAEAUtagCREATESTRUCTW@@@Z @ 5305 NONAME
 ?PreCreateWindow@CView@@MEAAHAEAUtagCREATESTRUCTW@@@Z @ 5306 NONAME
 ?PreCreateWindow@CWnd@@UEAAHAEAUtagCREATESTRUCTW@@@Z @ 5307 NONAME
 ?PreDeleteItem@CCheckListBox@@IEAAXPEAUtagDELETEITEMSTRUCT@@@Z @ 5308 NONAME
 ?PreDrawItem@CCheckListBox@@IEAAXPEAUtagDRAWITEMSTRUCT@@@Z @ 5309 NONAME
 ?PreDrawItemHelper@CCheckListBox@@IEAAXPEAUtagDRAWITEMSTRUCT@@@Z @ 5310 NONAME
 ?PreDrawItemNonThemed@CCheckListBox@@IEAAXPEAVCDC@@AEAUtagDRAWITEMSTRUCT@@HH@Z @ 5311 NONAME
 ?PreDrawItemThemed@CCheckListBox@@IEAA_NPEAVCDC@@AEAUtagDRAWITEMSTRUCT@@HH@Z @ 5312 NONAME
 ?PreDrawPage@CPageSetupDialog@@UEAAIGGPEAUtagPSDW@@@Z @ 5313 NONAME
 ?PreInitDialog@CDialog@@MEAAXXZ @ 5314 NONAME
 ?PreInitDialog@COleChangeSourceDialog@@UEAAXXZ @ 5315 NONAME
 ?PreMeasureItem@CCheckListBox@@IEAAXPEAUtagMEASUREITEMSTRUCT@@@Z @ 5316 NONAME
 ?PreModal@CDialog@@IEAAPEAUHWND__@@XZ @ 5317 NONAME
 ?PreModal@CPrintDialogEx@@QEAAPEAUHWND__@@XZ @ 5318 NONAME
 ?PreModalDialog@COleControl@@QEAAXPEAUHWND__@@@Z @ 5319 NONAME
 ?PrepareAndExecute@CRecordset@@IEAAXXZ @ 5320 NONAME
 ?PrepareCtrl@CDataExchange@@QEAAPEAUHWND__@@H@Z @ 5321 NONAME
 ?PrepareEditCtrl@CDataExchange@@QEAAPEAUHWND__@@H@Z @ 5322 NONAME
 ?PrepareForHelp@CWnd@@QEAAXXZ @ 5323 NONAME
 ?PrepareOleCtrl@CDataExchange@@QEAAPEAVCOleControlSite@@H@Z @ 5324 NONAME
 ?PrepareUpdateHstmt@CRecordset@@IEAAXXZ @ 5325 NONAME
 ?PrepareWrite@?$CSimpleStringT@_W$00@ATL@@AEAAPEA_WH@Z @ 5326 NONAME
 ?PrepareWrite@?$CSimpleStringT@D$00@ATL@@AEAAPEADH@Z @ 5327 NONAME
 ?PrepareWrite2@?$CSimpleStringT@_W$00@ATL@@AEAAXH@Z @ 5328 NONAME
 ?PrepareWrite2@?$CSimpleStringT@D$00@ATL@@AEAAXH@Z @ 5329 NONAME
 ?PreProcessPageTemplate@CPropertyPage@@IEAAXAEAU_PROPSHEETPAGEW@@H@Z @ 5330 NONAME
 ?PreSubclassWindow@CDragListBox@@UEAAXXZ @ 5331 NONAME
 ?PreSubclassWindow@CWnd@@UEAAXXZ @ 5332 NONAME
 ?PreTranslateInput@CWnd@@QEAAHPEAUtagMSG@@@Z @ 5333 NONAME
 ?PreTranslateMessage@CControlBar@@UEAAHPEAUtagMSG@@@Z @ 5334 NONAME
 ?PreTranslateMessage@CDialog@@UEAAHPEAUtagMSG@@@Z @ 5335 NONAME
 ?PreTranslateMessage@CFormView@@MEAAHPEAUtagMSG@@@Z @ 5336 NONAME
 ?PreTranslateMessage@CFrameWnd@@UEAAHPEAUtagMSG@@@Z @ 5337 NONAME
 ?PreTranslateMessage@CHtmlView@@UEAAHPEAUtagMSG@@@Z @ 5338 NONAME
 ?PreTranslateMessage@CMDIChildWnd@@UEAAHPEAUtagMSG@@@Z @ 5339 NONAME
 ?PreTranslateMessage@CMDIFrameWnd@@UEAAHPEAUtagMSG@@@Z @ 5340 NONAME
 ?PreTranslateMessage@COleIPFrameWnd@@UEAAHPEAUtagMSG@@@Z @ 5341 NONAME
 ?PreTranslateMessage@COlePropertyPage@@MEAAHPEAUtagMSG@@@Z @ 5342 NONAME
 ?PreTranslateMessage@CPropertyPage@@MEAAHPEAUtagMSG@@@Z @ 5343 NONAME
 ?PreTranslateMessage@CPropertySheet@@UEAAHPEAUtagMSG@@@Z @ 5344 NONAME
 ?PreTranslateMessage@CWinThread@@UEAAHPEAUtagMSG@@@Z @ 5345 NONAME
 ?PreTranslateMessage@CWnd@@UEAAHPEAUtagMSG@@@Z @ 5346 NONAME
 ?Print@XPrint@CDocObjectServer@@UEAAJKPEAPEAUtagDVTARGETDEVICE@@PEAPEAUtagPAGESET@@PEAUtagSTGMEDIUM@@PEAUIContinueCallback@@JPEAJ4@Z @ 5347 NONAME
 ?PrinterDPtoScreenDP@CPreviewDC@@QEBAXPEAUtagPOINT@@@Z @ 5348 NONAME
 ?PrintInsideRect@CEditView@@QEAAIPEAVCDC@@AEAUtagRECT@@II@Z @ 5349 NONAME
 ?PrintInsideRect@CRichEditView@@QEAAJPEAVCDC@@AEAUtagRECT@@JJH@Z @ 5350 NONAME
 ?PrintPage@CRichEditView@@QEAAJPEAVCDC@@JJ@Z @ 5351 NONAME
 ?Process@COleDispatchException@@SAXPEAUtagEXCEPINFO@@PEBVCException@@@Z @ 5352 NONAME
 ?Process@COleException@@SAJPEBVCException@@@Z @ 5353 NONAME
 ?ProcessAuxQueue@CSocket@@SAHXZ @ 5354 NONAME
 ?ProcessHelpMsg@CFrameWnd@@IEAAHAEAUtagMSG@@PEAK@Z @ 5355 NONAME
 ?ProcessMessageFilter@CWinThread@@UEAAHHPEAUtagMSG@@@Z @ 5356 NONAME
 ?ProcessShellCommand@CWinApp@@QEAAHAEAVCCommandLineInfo@@@Z @ 5357 NONAME
 ?ProcessWndProcException@CWinApp@@UEAA_JPEAVCException@@PEBUtagMSG@@@Z @ 5358 NONAME
 ?ProcessWndProcException@CWinThread@@UEAA_JPEAVCException@@PEBUtagMSG@@@Z @ 5359 NONAME
 ?PtrOfIndex@COleSafeArray@@QEAAXPEAJPEAPEAX@Z @ 5360 NONAME
 ?PtVisible@CMetaFileDC@@UEBAHHH@Z @ 5361 NONAME
 ?PumpMessage@CWinThread@@UEAAHXZ @ 5362 NONAME
 ?PumpMessages@CSocket@@MEAAHI@Z @ 5363 NONAME
 ?PushStackArgs@CCmdTarget@@IEAAJPEAEPEBEPEAXGPEAUtagDISPPARAMS@@PEAIPEAUtagVARIANT@@PEAVCVariantBoolConverter@@@Z @ 5364 NONAME
 ?put_accName@CWnd@@UEAAJUtagVARIANT@@PEA_W@Z @ 5365 NONAME
 ?put_accName@XAccessible@CWnd@@UEAAJUtagVARIANT@@PEA_W@Z @ 5366 NONAME
 ?put_accValue@CWnd@@UEAAJUtagVARIANT@@PEA_W@Z @ 5367 NONAME
 ?put_accValue@XAccessible@CWnd@@UEAAJUtagVARIANT@@PEA_W@Z @ 5368 NONAME
 ?PutElement@COleSafeArray@@QEAAXPEAJPEAX@Z @ 5369 NONAME
 ?PutFile@CFtpConnection@@QEAAHPEB_W0K_K@Z @ 5370 NONAME
 ?PutProperty@CHtmlView@@QEAAXPEB_WAEBUtagVARIANT@@@Z @ 5371 NONAME
 ?PX_Blob@@YAHPEAVCPropExchange@@PEB_WAEAPEAXPEAX@Z @ 5372 NONAME
 ?PX_Bool@@YAHPEAVCPropExchange@@PEB_WAEAH@Z @ 5373 NONAME
 ?PX_Bool@@YAHPEAVCPropExchange@@PEB_WAEAHH@Z @ 5374 NONAME
 ?PX_Color@@YAHPEAVCPropExchange@@PEB_WAEAK@Z @ 5375 NONAME
 ?PX_Color@@YAHPEAVCPropExchange@@PEB_WAEAKK@Z @ 5376 NONAME
 ?PX_Currency@@YAHPEAVCPropExchange@@PEB_WAEATtagCY@@@Z @ 5377 NONAME
 ?PX_Currency@@YAHPEAVCPropExchange@@PEB_WAEATtagCY@@T2@@Z @ 5378 NONAME
 ?PX_DataPath@@YAHPEAVCPropExchange@@PEB_WAEAVCDataPathProperty@@1@Z @ 5379 NONAME
 ?PX_DataPath@@YAHPEAVCPropExchange@@PEB_WAEAVCDataPathProperty@@AEBV?$CStringT@_WV?$StrTraitMFC_DLL@_WV?$ChTraitsCRT@_W@ATL@@@@@ATL@@@Z @ 5380 NONAME
 ?PX_Double@@YAHPEAVCPropExchange@@PEB_WAEAN@Z @ 5381 NONAME
 ?PX_Double@@YAHPEAVCPropExchange@@PEB_WAEANN@Z @ 5382 NONAME
 ?PX_Float@@YAHPEAVCPropExchange@@PEB_WAEAM@Z @ 5383 NONAME
 ?PX_Float@@YAHPEAVCPropExchange@@PEB_WAEAMM@Z @ 5384 NONAME
 ?PX_Font@@YAHPEAVCPropExchange@@PEB_WAEAVCFontHolder@@PEBUtagFONTDESC@@PEAUIFontDisp@@@Z @ 5385 NONAME
 ?PX_IUnknown@@YAHPEAVCPropExchange@@PEB_WAEAPEAUIUnknown@@AEBU_GUID@@PEAU2@@Z @ 5386 NONAME
 ?PX_Long@@YAHPEAVCPropExchange@@PEB_WAEAJ@Z @ 5387 NONAME
 ?PX_Long@@YAHPEAVCPropExchange@@PEB_WAEAJJ@Z @ 5388 NONAME
 ?PX_Picture@@YAHPEAVCPropExchange@@PEB_WAEAVCPictureHolder@@@Z @ 5389 NONAME
 ?PX_Picture@@YAHPEAVCPropExchange@@PEB_WAEAVCPictureHolder@@2@Z @ 5390 NONAME
 ?PX_Short@@YAHPEAVCPropExchange@@PEB_WAEAF@Z @ 5391 NONAME
 ?PX_Short@@YAHPEAVCPropExchange@@PEB_WAEAFF@Z @ 5392 NONAME
 ?PX_String@@YAHPEAVCPropExchange@@PEB_WAEAV?$CStringT@_WV?$StrTraitMFC_DLL@_WV?$ChTraitsCRT@_W@ATL@@@@@ATL@@@Z @ 5393 NONAME
 ?PX_String@@YAHPEAVCPropExchange@@PEB_WAEAV?$CStringT@_WV?$StrTraitMFC_DLL@_WV?$ChTraitsCRT@_W@ATL@@@@@ATL@@1@Z @ 5394 NONAME
 ?PX_String@@YAHPEAVCPropExchange@@PEB_WAEAV?$CStringT@_WV?$StrTraitMFC_DLL@_WV?$ChTraitsCRT@_W@ATL@@@@@ATL@@AEBV23@@Z @ 5395 NONAME
 ?PX_ULong@@YAHPEAVCPropExchange@@PEB_WAEAK@Z @ 5396 NONAME
 ?PX_ULong@@YAHPEAVCPropExchange@@PEB_WAEAKK@Z @ 5397 NONAME
 ?PX_UShort@@YAHPEAVCPropExchange@@PEB_WAEAG@Z @ 5398 NONAME
 ?PX_UShort@@YAHPEAVCPropExchange@@PEB_WAEAGG@Z @ 5399 NONAME
 ?PX_VBXFontConvert@@YAHPEAVCPropExchange@@AEAVCFontHolder@@@Z @ 5400 NONAME
 ?QueryAcceptData@CRichEditView@@MEAAJPEAUIDataObject@@PEAGKHPEAX@Z @ 5401 NONAME
 ?QueryAcceptData@XRichEditOleCallback@CRichEditView@@UEAAJPEAUIDataObject@@PEAGKHPEAX@Z @ 5402 NONAME
 ?QueryAggregates@CCmdTarget@@QEAAPEAUIUnknown@@PEBX@Z @ 5403 NONAME
 ?QueryCommand@COleDocObjectItem@@QEAAJKPEAKPEAU_tagOLECMDTEXT@@PEBU_GUID@@@Z @ 5404 NONAME
 ?QueryContinueDrag@COleDropSource@@UEAAJHK@Z @ 5405 NONAME
 ?QueryContinueDrag@XDropSource@COleDropSource@@UEAAJHK@Z @ 5406 NONAME
 ?QueryDefHandler@COleControl@@IEAAPEAXAEBU_GUID@@@Z @ 5407 NONAME
 ?QueryFormsCommand@CHtmlView@@QEAAJKPEAH00@Z @ 5408 NONAME
 ?QueryGetData@XDataObject@COleControl@@UEAAJPEAUtagFORMATETC@@@Z @ 5409 NONAME
 ?QueryGetData@XDataObject@COleDataSource@@UEAAJPEAUtagFORMATETC@@@Z @ 5410 NONAME
 ?QueryGetData@XDataObject@COleServerDoc@@UEAAJPEAUtagFORMATETC@@@Z @ 5411 NONAME
 ?QueryGetData@XDataObject@COleServerItem@@UEAAJPEAUtagFORMATETC@@@Z @ 5412 NONAME
 ?QueryHitPoint@XViewObject@COleControl@@UEAAJKPEBUtagRECT@@UtagPOINT@@JPEAK@Z @ 5413 NONAME
 ?QueryHitRect@XViewObject@COleControl@@UEAAJKPEBUtagRECT@@0JPEAK@Z @ 5414 NONAME
 ?QueryInfo@CHttpFile@@QEBAHKAEAKPEAK@Z @ 5415 NONAME
 ?QueryInfo@CHttpFile@@QEBAHKAEAV?$CStringT@_WV?$StrTraitMFC_DLL@_WV?$ChTraitsCRT@_W@ATL@@@@@ATL@@PEAK@Z @ 5416 NONAME
 ?QueryInfo@CHttpFile@@QEBAHKPEAU_SYSTEMTIME@@PEAK@Z @ 5417 NONAME
 ?QueryInfo@CHttpFile@@QEBAHKPEAXPEAK1@Z @ 5418 NONAME
 ?QueryInfoStatusCode@CHttpFile@@QEBAHAEAK@Z @ 5419 NONAME
 ?QueryInsertObject@XRichEditOleCallback@CRichEditView@@UEAAJPEAU_GUID@@PEAUIStorage@@J@Z @ 5420 NONAME
 ?QueryInterface@CArchiveStream@@UEAAJAEBU_GUID@@PEAPEAX@Z @ 5421 NONAME
 ?QueryInterface@CBlobProperty@@UEAAJAEBU_GUID@@PEAPEAX@Z @ 5422 NONAME
 ?QueryInterface@CBrowserControlSite@@MEAAJAEBU_GUID@@PEAPEAX@Z @ 5423 NONAME
 ?QueryInterface@CDHtmlControlSink@@UEAAJAEBU_GUID@@PEAPEAX@Z @ 5424 NONAME
 ?QueryInterface@CDHtmlElementEventSink@@UEAAJAEBU_GUID@@PEAPEAX@Z @ 5425 NONAME
 ?QueryInterface@CInnerUnknown@@UEAAJAEBU_GUID@@PEAPEAX@Z @ 5426 NONAME
 ?QueryInterface@COleConnPtContainer@@UEAAJAEBU_GUID@@PEAPEAX@Z @ 5427 NONAME
 ?QueryInterface@COleDispatchImpl@@UEAAJAEBU_GUID@@PEAPEAX@Z @ 5428 NONAME
 ?QueryInterface@COleUILinkInfo@@UEAAJAEBU_GUID@@PEAPEAX@Z @ 5429 NONAME
 ?QueryInterface@CPrintDialogEx@@UEAAJAEBU_GUID@@PEAPEAX@Z @ 5430 NONAME
 ?QueryOption@CInternetConnection@@QEBAHKAEAK@Z @ 5431 NONAME
 ?QueryOption@CInternetConnection@@QEBAHKPEAXPEAK@Z @ 5432 NONAME
 ?QueryOption@CInternetFile@@QEBAHKAEAK@Z @ 5433 NONAME
 ?QueryOption@CInternetFile@@QEBAHKPEAXPEAK@Z @ 5434 NONAME
 ?QueryOption@CInternetSession@@QEBAHKAEAK@Z @ 5435 NONAME
 ?QueryOption@CInternetSession@@QEBAHKPEAXPEAK@Z @ 5436 NONAME
 ?QuerySiblings@CPropertyPage@@QEAA_J_K_J@Z @ 5437 NONAME
 ?QuerySinkInterface@CConnectionPoint@@UEAAJPEAUIUnknown@@PEAPEAX@Z @ 5438 NONAME
 ?QuerySinkInterface@XEventConnPt@COleControl@@UEAAJPEAUIUnknown@@PEAPEAX@Z @ 5439 NONAME
 ?QueryStatus@XOleCommandTarget@CDocObjectServer@@UEAAJPEBU_GUID@@KQEAU_tagOLECMD@@PEAU_tagOLECMDTEXT@@@Z @ 5440 NONAME
 ?QueryStatus@XOleCommandTarget@COleFrameHook@@UEAAJPEBU_GUID@@KQEAU_tagOLECMD@@PEAU_tagOLECMDTEXT@@@Z @ 5441 NONAME
 ?QueryStatusWB@CHtmlView@@QEBA?AW4OLECMDF@@W4OLECMDID@@@Z @ 5442 NONAME
 ?QueryTextMetrics@CFontHolder@@QEAAXPEAUtagTEXTMETRICW@@@Z @ 5443 NONAME
 ?QuickActivate@COleControlSite@@UEAAHXZ @ 5444 NONAME
 ?QuickActivate@XQuickActivate@COleControl@@UEAAJPEAUtagQACONTAINER@@PEAUtagQACONTROL@@@Z @ 5445 NONAME
 ?ReactivateAndUndo@COleClientItem@@QEAAHXZ @ 5446 NONAME
 ?ReactivateAndUndo@XOleInPlaceObject@COleControl@@UEAAJXZ @ 5447 NONAME
 ?ReactivateAndUndo@XOleInPlaceObject@COleServerDoc@@UEAAJXZ @ 5448 NONAME
 ?Read@CArchive@@QEAAIPEAXI@Z @ 5449 NONAME
 ?Read@CArchiveStream@@UEAAJPEAXKPEAK@Z @ 5450 NONAME
 ?Read@CAsyncMonikerFile@@UEAAIPEAXI@Z @ 5451 NONAME
 ?Read@CFile@@UEAAIPEAXI@Z @ 5452 NONAME
 ?Read@CImageList@@QEAAHPEAVCArchive@@@Z @ 5453 NONAME
 ?Read@CInternetFile@@UEAAIPEAXI@Z @ 5454 NONAME
 ?Read@CMemFile@@UEAAIPEAXI@Z @ 5455 NONAME
 ?Read@COleStreamFile@@UEAAIPEAXI@Z @ 5456 NONAME
 ?Read@CSocketFile@@UEAAIPEAXI@Z @ 5457 NONAME
 ?Read@CStdioFile@@UEAAIPEAXI@Z @ 5458 NONAME
 ?ReadClass@CArchive@@QEAAPEAUCRuntimeClass@@PEBU2@PEAIPEAK@Z @ 5459 NONAME
 ?ReadCount@CArchive@@QEAA_KXZ @ 5460 NONAME
 ?ReadFromArchive@CEditView@@QEAAXAEAVCArchive@@I@Z @ 5461 NONAME
 ?ReadFromStream@CProperty@@QEAAHPEAUIStream@@@Z @ 5462 NONAME
 ?ReadFromStream@CPropertySection@@QEAAHPEAUIStream@@T_LARGE_INTEGER@@@Z @ 5463 NONAME
 ?ReadFromStream@CPropertySet@@QEAAHPEAUIStream@@@Z @ 5464 NONAME
 ?ReadItem@COleClientItem@@UEAAXAEAVCArchive@@@Z @ 5465 NONAME
 ?ReadItemCompound@COleClientItem@@QEAAXAEAVCArchive@@@Z @ 5466 NONAME
 ?ReadItemFlat@COleClientItem@@QEAAXAEAVCArchive@@@Z @ 5467 NONAME
 ?ReadList@CRecentFileList@@UEAAXXZ @ 5468 NONAME
 ?ReadNameDictFromStream@CPropertySection@@QEAAHPEAUIStream@@@Z @ 5469 NONAME
 ?ReadObject@CArchive@@QEAAPEAVCObject@@PEBUCRuntimeClass@@@Z @ 5470 NONAME
 ?ReadString@CArchive@@QEAAHAEAV?$CStringT@_WV?$StrTraitMFC_DLL@_WV?$ChTraitsCRT@_W@ATL@@@@@ATL@@@Z @ 5471 NONAME
 ?ReadString@CArchive@@QEAAPEA_WPEA_WI@Z @ 5472 NONAME
 ?ReadString@CInternetFile@@UEAAHAEAV?$CStringT@_WV?$StrTraitMFC_DLL@_WV?$ChTraitsCRT@_W@ATL@@@@@ATL@@@Z @ 5473 NONAME
 ?ReadString@CInternetFile@@UEAAPEA_WPEA_WI@Z @ 5474 NONAME
 ?ReadString@CStdioFile@@UEAAHAEAV?$CStringT@_WV?$StrTraitMFC_DLL@_WV?$ChTraitsCRT@_W@ATL@@@@@ATL@@@Z @ 5475 NONAME
 ?ReadString@CStdioFile@@UEAAPEA_WPEA_WI@Z @ 5476 NONAME
 ?Realloc@CMemFile@@MEAAPEAEPEAE_K@Z @ 5477 NONAME
 ?Realloc@CSharedFile@@MEAAPEAEPEAE_K@Z @ 5478 NONAME
 ?Reallocate@?$CSimpleStringT@_W$00@ATL@@AEAAXH@Z @ 5479 NONAME
 ?Reallocate@?$CSimpleStringT@D$00@ATL@@AEAAXH@Z @ 5480 NONAME
 ?Reallocate@CAfxStringMgr@@UEAAPEAUCStringData@ATL@@PEAU23@HH@Z @ 5481 NONAME
 ?ReallocLongBinary@CFieldExchange@@QEAAPEAEAEAVCLongBinary@@_J1@Z @ 5482 NONAME
 ?RebindParams@CRecordset@@QEAAXPEAX@Z @ 5483 NONAME
 ?RecalcDelayShow@CControlBar@@UEAAKPEAUAFX_SIZEPARENTPARAMS@@@Z @ 5484 NONAME
 ?RecalcLayout@CFrameWnd@@UEAAXH@Z @ 5485 NONAME
 ?RecalcLayout@CMiniDockFrameWnd@@UEAAXH@Z @ 5486 NONAME
 ?RecalcLayout@COleCntrFrameWnd@@UEAAXH@Z @ 5487 NONAME
 ?RecalcLayout@COleDocIPFrameWnd@@MEAAXH@Z @ 5488 NONAME
 ?RecalcLayout@COleIPFrameWnd@@UEAAXH@Z @ 5489 NONAME
 ?RecalcLayout@CSplitterWnd@@UEAAXXZ @ 5490 NONAME
 ?Receive@CAsyncSocket@@UEAAHPEAXHH@Z @ 5491 NONAME
 ?Receive@CSocket@@UEAAHPEAXHH@Z @ 5492 NONAME
 ?ReceiveFrom@CAsyncSocket@@QEAAHPEAXHAEAV?$CStringT@_WV?$StrTraitMFC_DLL@_WV?$ChTraitsCRT@_W@ATL@@@@@ATL@@AEAIH@Z @ 5493 NONAME
 ?ReceiveFromHelper@CAsyncSocket@@MEAAHPEAXHPEAUsockaddr@@PEAHH@Z @ 5494 NONAME
 ?ReceiveFromHelper@CSocket@@MEAAHPEAXHPEAUsockaddr@@PEAHH@Z @ 5495 NONAME
 ?RecreateControlWindow@COleControl@@QEAAXXZ @ 5496 NONAME
 ?rectDefault@CFrameWnd@@2VCRect@@B @ 5497 NONAME DATA
 ?RectVisible@CMetaFileDC@@UEBAHPEBUtagRECT@@@Z @ 5498 NONAME
 ?Redim@COleSafeArray@@QEAAXPEAUtagSAFEARRAYBOUND@@@Z @ 5499 NONAME
 ?ReDockControlBar@CDockBar@@QEAAXPEAVCControlBar@@PEBUtagRECT@@@Z @ 5500 NONAME
 ?ReDockControlBar@CFrameWnd@@QEAAXPEAVCControlBar@@PEAVCDockBar@@PEBUtagRECT@@@Z @ 5501 NONAME
 ?ReflectChildNotify@CWnd@@IEAAHI_K_JPEA_J@Z @ 5502 NONAME
 ?ReflectLastMsg@CWnd@@KAHPEAUHWND__@@PEA_J@Z @ 5503 NONAME
 ?Refresh@COleControl@@QEAAXXZ @ 5504 NONAME
 ?RefreshRowset@CRecordset@@QEAAXGG@Z @ 5505 NONAME
 ?Register@COleDropTarget@@QEAAHPEAVCWnd@@@Z @ 5506 NONAME
 ?Register@COleLinkingDoc@@QEAAHPEAVCOleObjectFactory@@PEB_W@Z @ 5507 NONAME
 ?Register@COleMessageFilter@@QEAAHXZ @ 5508 NONAME
 ?Register@COleObjectFactory@@UEAAHXZ @ 5509 NONAME
 ?Register@COleTemplateServer@@UEAAHXZ @ 5510 NONAME
 ?Register@CWinApp@@UEAAHXZ @ 5511 NONAME
 ?RegisterAll@COleObjectFactory@@SAHXZ @ 5512 NONAME
 ?RegisterIfServerAttached@COleLinkingDoc@@MEAAHPEB_WH@Z @ 5513 NONAME
 ?RegisterShellFileTypes@CDocManager@@UEAAXH@Z @ 5514 NONAME
 ?RegisterShellFileTypes@CWinApp@@IEAAXH@Z @ 5515 NONAME
 ?RegisterSiteFactory@CControlSiteFactoryMgr@@QEAAHPEAVIControlSiteFactory@@@Z @ 5516 NONAME
 ?Release@CArchiveStream@@UEAAKXZ @ 5517 NONAME
 ?Release@CBlobProperty@@UEAAKXZ @ 5518 NONAME
 ?Release@CBrowserControlSite@@MEAAKXZ @ 5519 NONAME
 ?Release@CDHtmlControlSink@@UEAAKXZ @ 5520 NONAME
 ?Release@CDHtmlElementEventSink@@UEAAKXZ @ 5521 NONAME
 ?Release@CDHtmlEventSink@@UEAAKXZ @ 5522 NONAME
 ?Release@CInnerUnknown@@UEAAKXZ @ 5523 NONAME
 ?Release@COleClientItem@@UEAAXW4tagOLECLOSE@@@Z @ 5524 NONAME
 ?Release@COleConnPtContainer@@UEAAKXZ @ 5525 NONAME
 ?Release@COleDataObject@@QEAAXXZ @ 5526 NONAME
 ?Release@COleDispatchImpl@@UEAAKXZ @ 5527 NONAME
 ?Release@COleDocObjectItem@@UEAAXW4tagOLECLOSE@@@Z @ 5528 NONAME
 ?Release@COleUILinkInfo@@UEAAKXZ @ 5529 NONAME
 ?Release@CPrintDialogEx@@UEAAKXZ @ 5530 NONAME
 ?ReleaseAttribDC@CDC@@UEAAXXZ @ 5531 NONAME
 ?ReleaseBuffer@?$CSimpleStringT@_W$00@ATL@@QEAAXH@Z @ 5532 NONAME
 ?ReleaseBuffer@?$CSimpleStringT@D$00@ATL@@QEAAXH@Z @ 5533 NONAME
 ?ReleaseBufferSetLength@?$CSimpleStringT@_W$00@ATL@@QEAAXH@Z @ 5534 NONAME
 ?ReleaseBufferSetLength@?$CSimpleStringT@D$00@ATL@@QEAAXH@Z @ 5535 NONAME
 ?ReleaseCaches@COleControl@@IEAAXXZ @ 5536 NONAME
 ?ReleaseCapture@COleControl@@QEAAHXZ @ 5537 NONAME
 ?ReleaseDC@COleControl@@QEAAHPEAVCDC@@@Z @ 5538 NONAME
 ?ReleaseDC@XOleIPSite@COleControlSite@@UEAAJPEAUHDC__@@@Z @ 5539 NONAME
 ?ReleaseDispatch@COleDispatchDriver@@QEAAXXZ @ 5540 NONAME
 ?ReleaseDocSite@CDocObjectServer@@QEAAXXZ @ 5541 NONAME
 ?ReleaseFile@CDocument@@UEAAXPEAVCFile@@H@Z @ 5542 NONAME
 ?ReleaseFont@CFontHolder@@QEAAXXZ @ 5543 NONAME
 ?ReleaseOutputDC@CDC@@UEAAXXZ @ 5544 NONAME
 ?ReleaseOutputDC@CMetaFileDC@@MEAAXXZ @ 5545 NONAME
 ?ReleaseOutputDC@CPreviewDC@@UEAAXXZ @ 5546 NONAME
 ?Reload@COleClientItem@@QEAAHXZ @ 5547 NONAME
 ?Remove@?$CStringT@_WV?$StrTraitMFC_DLL@_WV?$ChTraitsCRT@_W@ATL@@@@@ATL@@QEAAH_W@Z @ 5548 NONAME
 ?Remove@?$CStringT@DV?$StrTraitMFC_DLL@DV?$ChTraitsCRT@D@ATL@@@@@ATL@@QEAAHD@Z @ 5549 NONAME
 ?Remove@CFile@@SAXPEB_W@Z @ 5550 NONAME
 ?Remove@CFtpConnection@@QEAAHPEB_W@Z @ 5551 NONAME
 ?Remove@CPropertySection@@QEAAXK@Z @ 5552 NONAME
 ?Remove@CPropertySet@@QEAAXU_GUID@@@Z @ 5553 NONAME
 ?Remove@CPropertySet@@QEAAXU_GUID@@K@Z @ 5554 NONAME
 ?Remove@CRecentFileList@@UEAAXH@Z @ 5555 NONAME
 ?Remove@CSimpleList@@QEAAHPEAX@Z @ 5556 NONAME
 ?RemoveAll@CMapPtrToPtr@@QEAAXXZ @ 5557 NONAME
 ?RemoveAll@CMapPtrToWord@@QEAAXXZ @ 5558 NONAME
 ?RemoveAll@CMapStringToOb@@QEAAXXZ @ 5559 NONAME
 ?RemoveAll@CMapStringToPtr@@QEAAXXZ @ 5560 NONAME
 ?RemoveAll@CMapStringToString@@QEAAXXZ @ 5561 NONAME
 ?RemoveAll@CMapWordToOb@@QEAAXXZ @ 5562 NONAME
 ?RemoveAll@CMapWordToPtr@@QEAAXXZ @ 5563 NONAME
 ?RemoveAll@CObList@@QEAAXXZ @ 5564 NONAME
 ?RemoveAll@CPropertySection@@QEAAXXZ @ 5565 NONAME
 ?RemoveAll@CPropertySet@@QEAAXXZ @ 5566 NONAME
 ?RemoveAll@CPtrList@@QEAAXXZ @ 5567 NONAME
 ?RemoveAll@CStringList@@QEAAXXZ @ 5568 NONAME
 ?RemoveAll@CTypeLibCacheMap@@UEAAXPEAX@Z @ 5569 NONAME
 ?RemoveAt@CByteArray@@QEAAX_J0@Z @ 5570 NONAME
 ?RemoveAt@CDWordArray@@QEAAX_J0@Z @ 5571 NONAME
 ?RemoveAt@CObArray@@QEAAX_J0@Z @ 5572 NONAME
 ?RemoveAt@CObList@@QEAAXPEAU__POSITION@@@Z @ 5573 NONAME
 ?RemoveAt@CPtrArray@@QEAAX_J0@Z @ 5574 NONAME
 ?RemoveAt@CPtrList@@QEAAXPEAU__POSITION@@@Z @ 5575 NONAME
 ?RemoveAt@CStringArray@@QEAAX_J0@Z @ 5576 NONAME
 ?RemoveAt@CStringList@@QEAAXPEAU__POSITION@@@Z @ 5577 NONAME
 ?RemoveAt@CUIntArray@@QEAAX_J0@Z @ 5578 NONAME
 ?RemoveAt@CWordArray@@QEAAX_J0@Z @ 5579 NONAME
 ?RemoveControlBar@CDockBar@@QEAAHPEAVCControlBar@@HH@Z @ 5580 NONAME
 ?RemoveControlBar@CFrameWnd@@QEAAXPEAVCControlBar@@@Z @ 5581 NONAME
 ?RemoveDirectoryW@CFtpConnection@@QEAAHPEB_W@Z @ 5582 NONAME
 ?RemoveDocument@CDocTemplate@@UEAAXPEAVCDocument@@@Z @ 5583 NONAME
 ?RemoveDocument@CMultiDocTemplate@@UEAAXPEAVCDocument@@@Z @ 5584 NONAME
 ?RemoveDocument@CSingleDocTemplate@@UEAAXPEAVCDocument@@@Z @ 5585 NONAME
 ?RemoveFrameLevelUI@COleControl@@MEAAXXZ @ 5586 NONAME
 ?RemoveFrameWnd@CFrameWnd@@IEAAXXZ @ 5587 NONAME
 ?RemoveHead@CObList@@QEAAPEAVCObject@@XZ @ 5588 NONAME
 ?RemoveHead@CPtrList@@QEAAPEAXXZ @ 5589 NONAME
 ?RemoveHead@CStringList@@QEAA?AV?$CStringT@_WV?$StrTraitMFC_DLL@_WV?$ChTraitsCRT@_W@ATL@@@@@ATL@@XZ @ 5590 NONAME
 ?RemoveImageList@CListCtrl@@IEAAXH@Z @ 5591 NONAME
 ?RemoveImageList@CListView@@IEAAXH@Z @ 5592 NONAME
 ?RemoveImageList@CTreeCtrl@@IEAAXH@Z @ 5593 NONAME
 ?RemoveImageList@CTreeView@@IEAAXH@Z @ 5594 NONAME
 ?RemoveItem@COleDocument@@UEAAXPEAVCDocItem@@@Z @ 5595 NONAME
 ?RemoveKey@CMapPtrToPtr@@QEAAHPEAX@Z @ 5596 NONAME
 ?RemoveKey@CMapPtrToWord@@QEAAHPEAX@Z @ 5597 NONAME
 ?RemoveKey@CMapStringToOb@@QEAAHPEB_W@Z @ 5598 NONAME
 ?RemoveKey@CMapStringToPtr@@QEAAHPEB_W@Z @ 5599 NONAME
 ?RemoveKey@CMapStringToString@@QEAAHPEB_W@Z @ 5600 NONAME
 ?RemoveKey@CMapWordToOb@@QEAAHG@Z @ 5601 NONAME
 ?RemoveKey@CMapWordToPtr@@QEAAHG@Z @ 5602 NONAME
 ?RemoveMenus@XOleInPlaceFrame@COleFrameHook@@UEAAJPEAUHMENU__@@@Z @ 5603 NONAME
 ?RemoveMenus@XOleIPFrame@COleControlContainer@@UEAAJPEAUHMENU__@@@Z @ 5604 NONAME
 ?RemovePage@CPropertySheet@@QEAAXH@Z @ 5605 NONAME
 ?RemovePage@CPropertySheet@@QEAAXPEAVCPropertyPage@@@Z @ 5606 NONAME
 ?RemovePlaceHolder@CDockBar@@QEAAXPEAVCControlBar@@@Z @ 5607 NONAME
 ?RemoveRadioCheckFromGroup@CWnd@@QEBAXPEBUCOleControlSiteOrWnd@@@Z @ 5608 NONAME
 ?RemoveSource@CDataBoundProperty@@QEAAXXZ @ 5609 NONAME
 ?RemoveTail@CObList@@QEAAPEAVCObject@@XZ @ 5610 NONAME
 ?RemoveTail@CPtrList@@QEAAPEAXXZ @ 5611 NONAME
 ?RemoveTail@CStringList@@QEAA?AV?$CStringT@_WV?$StrTraitMFC_DLL@_WV?$ChTraitsCRT@_W@ATL@@@@@ATL@@XZ @ 5612 NONAME
 ?RemoveView@CDocument@@QEAAXPEAVCView@@@Z @ 5613 NONAME
 ?Rename@CFile@@SAXPEB_W0@Z @ 5614 NONAME
 ?Rename@CFtpConnection@@QEAAHPEB_W0@Z @ 5615 NONAME
 ?Render@CPictureHolder@@QEAAXPEAVCDC@@AEBVCRect@@1@Z @ 5616 NONAME
 ?ReparentControlWindow@COleControl@@UEAAXPEAUHWND__@@0@Z @ 5617 NONAME
 ?Replace@?$CStringT@_WV?$StrTraitMFC_DLL@_WV?$ChTraitsCRT@_W@ATL@@@@@ATL@@QEAAH_W0@Z @ 5618 NONAME
 ?Replace@?$CStringT@_WV?$StrTraitMFC_DLL@_WV?$ChTraitsCRT@_W@ATL@@@@@ATL@@QEAAHPEB_W0@Z @ 5619 NONAME
 ?Replace@?$CStringT@DV?$StrTraitMFC_DLL@DV?$ChTraitsCRT@D@ATL@@@@@ATL@@QEAAHDD@Z @ 5620 NONAME
 ?Replace@?$CStringT@DV?$StrTraitMFC_DLL@DV?$ChTraitsCRT@D@ATL@@@@@ATL@@QEAAHPEBD0@Z @ 5621 NONAME
 ?ReplaceBrackets@CDatabase@@QEAAXPEA_W@Z @ 5622 NONAME
 ?ReportError@CException@@UEAAHII@Z @ 5623 NONAME
 ?ReportError@COleClientItem@@UEBAHJ@Z @ 5624 NONAME
 ?ReportSaveLoadException@CDocument@@UEAAXPEB_WPEAVCException@@HI@Z @ 5625 NONAME
 ?ReportSaveLoadException@COleLinkingDoc@@UEAAXPEB_WPEAVCException@@HI@Z @ 5626 NONAME
 ?RepositionBars@CWnd@@QEAAXIIIIPEAUtagRECT@@PEBU2@H@Z @ 5627 NONAME
 ?RepositionFrame@COleIPFrameWnd@@UEAAXPEBUtagRECT@@0@Z @ 5628 NONAME
 ?Requery@CRecordset@@UEAAHXZ @ 5629 NONAME
 ?RequestBorderSpace@XOleInPlaceFrame@COleFrameHook@@UEAAJPEBUtagRECT@@@Z @ 5630 NONAME
 ?RequestBorderSpace@XOleIPFrame@COleControlContainer@@UEAAJPEBUtagRECT@@@Z @ 5631 NONAME
 ?RequestLicKey@XClassFactory@COleObjectFactory@@UEAAJKPEAPEA_W@Z @ 5632 NONAME
 ?RequestNewObjectLayout@XOleClientSite@COleClientItem@@UEAAJXZ @ 5633 NONAME
 ?RequestNewObjectLayout@XOleClientSite@COleControlSite@@UEAAJXZ @ 5634 NONAME
 ?RequestPositionChange@COleServerDoc@@QEAAXPEBUtagRECT@@@Z @ 5635 NONAME
 ?RequestUIActivate@XOleIPSite@COleControlSite@@UEAAJXZ @ 5636 NONAME
 ?Reset@XEnumVOID@CEnumArray@@UEAAJXZ @ 5637 NONAME
 ?ResetCursor@CRecordset@@QEAAXXZ @ 5638 NONAME
 ?ResetData@CCachedDataPathProperty@@UEAAXXZ @ 5639 NONAME
 ?ResetData@CDataPathProperty@@UEAAXXZ @ 5640 NONAME
 ?ResetStockProps@COleControl@@QEAAXXZ @ 5641 NONAME
 ?ResetTimer@CControlBar@@QEAAX_KI@Z @ 5642 NONAME
 ?ResetVersion@COleControl@@QEAAXK@Z @ 5643 NONAME
 ?ResizeBorder@CBrowserControlSite@@MEAAJPEBUtagRECT@@PEAUIOleInPlaceUIWindow@@H@Z @ 5644 NONAME
 ?ResizeBorder@CDHtmlDialog@@UEAAJPEBUtagRECT@@PEAUIOleInPlaceUIWindow@@H@Z @ 5645 NONAME
 ?ResizeBorder@XDocHostUIHandler@CHtmlControlSite@@UEAAJPEBUtagRECT@@PEAUIOleInPlaceUIWindow@@H@Z @ 5646 NONAME
 ?ResizeBorder@XOleInPlaceActiveObject@COleControl@@UEAAJPEBUtagRECT@@PEAUIOleInPlaceUIWindow@@H@Z @ 5647 NONAME
 ?ResizeBorder@XOleInPlaceActiveObject@COleServerDoc@@UEAAJPEBUtagRECT@@PEAUIOleInPlaceUIWindow@@H@Z @ 5648 NONAME
 ?ResizeFrameWindow@COleControl@@MEAAXHH@Z @ 5649 NONAME
 ?ResizeOneDim@COleSafeArray@@QEAAXK@Z @ 5650 NONAME
 ?ResizeOpenControl@COleControl@@IEAAXHH@Z @ 5651 NONAME
 ?ResizeParentToFit@CScrollView@@QEAAXH@Z @ 5652 NONAME
 ?RestoreDC@CDC@@UEAAHH@Z @ 5653 NONAME
 ?RestoreDC@CPreviewDC@@UEAAHH@Z @ 5654 NONAME
 ?RestoreState@CToolBarCtrl@@QEAAXPEAUHKEY__@@PEB_W1@Z @ 5655 NONAME
 ?RestoreWaitCursor@CCmdTarget@@QEAAXXZ @ 5656 NONAME
 ?RetryRejectedCall@XMessageFilter@COleMessageFilter@@UEAAKPEAUHTASK__@@KK@Z @ 5657 NONAME
 ?ReverseFind@?$CStringT@_WV?$StrTraitMFC_DLL@_WV?$ChTraitsCRT@_W@ATL@@@@@ATL@@QEBAH_W@Z @ 5658 NONAME
 ?ReverseFind@?$CStringT@DV?$StrTraitMFC_DLL@DV?$ChTraitsCRT@D@ATL@@@@@ATL@@QEBAHD@Z @ 5659 NONAME
 ?Revert@CArchiveStream@@UEAAJXZ @ 5660 NONAME
 ?Revoke@COleDropTarget@@UEAAXXZ @ 5661 NONAME
 ?Revoke@COleLinkingDoc@@QEAAXXZ @ 5662 NONAME
 ?Revoke@COleMessageFilter@@QEAAXXZ @ 5663 NONAME
 ?Revoke@COleObjectFactory@@QEAAXXZ @ 5664 NONAME
 ?RevokeAll@COleObjectFactory@@SAXXZ @ 5665 NONAME
 ?RFX_BigInt@@YAXPEAVCFieldExchange@@PEB_WAEA_J@Z @ 5666 NONAME
 ?RFX_Binary@@YAXPEAVCFieldExchange@@PEB_WAEAVCByteArray@@_J@Z @ 5667 NONAME
 ?RFX_Binary_Bulk@@YAXPEAVCFieldExchange@@PEB_WPEAPEAEPEAPEA_JH@Z @ 5668 NONAME
 ?RFX_Bool@@YAXPEAVCFieldExchange@@PEB_WAEAH@Z @ 5669 NONAME
 ?RFX_Bool_Bulk@@YAXPEAVCFieldExchange@@PEB_WPEAPEAHPEAPEA_J@Z @ 5670 NONAME
 ?RFX_Byte@@YAXPEAVCFieldExchange@@PEB_WAEAE@Z @ 5671 NONAME
 ?RFX_Byte_Bulk@@YAXPEAVCFieldExchange@@PEB_WPEAPEAEPEAPEA_J@Z @ 5672 NONAME
 ?RFX_Date@@YAXPEAVCFieldExchange@@PEB_WAEAUtagTIMESTAMP_STRUCT@@@Z @ 5673 NONAME
 ?RFX_Date@@YAXPEAVCFieldExchange@@PEB_WAEAVCOleDateTime@ATL@@@Z @ 5674 NONAME
 ?RFX_Date@@YAXPEAVCFieldExchange@@PEB_WAEAVCTime@ATL@@@Z @ 5675 NONAME
 ?RFX_Date_Bulk@@YAXPEAVCFieldExchange@@PEB_WPEAPEAUtagTIMESTAMP_STRUCT@@PEAPEA_J@Z @ 5676 NONAME
 ?RFX_Double@@YAXPEAVCFieldExchange@@PEB_WAEAN@Z @ 5677 NONAME
 ?RFX_Double_Bulk@@YAXPEAVCFieldExchange@@PEB_WPEAPEANPEAPEA_J@Z @ 5678 NONAME
 ?RFX_Int@@YAXPEAVCFieldExchange@@PEB_WAEAH@Z @ 5679 NONAME
 ?RFX_Int_Bulk@@YAXPEAVCFieldExchange@@PEB_WPEAPEAHPEAPEA_J@Z @ 5680 NONAME
 ?RFX_Long@@YAXPEAVCFieldExchange@@PEB_WAEAJ@Z @ 5681 NONAME
 ?RFX_Long_Bulk@@YAXPEAVCFieldExchange@@PEB_WPEAPEAJPEAPEA_J@Z @ 5682 NONAME
 ?RFX_LongBinary@@YAXPEAVCFieldExchange@@PEB_WAEAVCLongBinary@@@Z @ 5683 NONAME
 ?RFX_Single@@YAXPEAVCFieldExchange@@PEB_WAEAM@Z @ 5684 NONAME
 ?RFX_Single_Bulk@@YAXPEAVCFieldExchange@@PEB_WPEAPEAMPEAPEA_J@Z @ 5685 NONAME
 ?RFX_Text@@YAXPEAVCFieldExchange@@PEB_WAEAV?$CStringT@_WV?$StrTraitMFC_DLL@_WV?$ChTraitsCRT@_W@ATL@@@@@ATL@@HHF@Z @ 5686 NONAME
 ?RFX_Text@@YAXPEAVCFieldExchange@@PEB_WAEAV?$CStringT@DV?$StrTraitMFC_DLL@DV?$ChTraitsCRT@D@ATL@@@@@ATL@@HHF@Z @ 5687 NONAME
 ?RFX_Text@@YAXPEAVCFieldExchange@@PEB_WPEA_WHHF@Z @ 5688 NONAME
 ?RFX_Text@@YAXPEAVCFieldExchange@@PEB_WPEADHHF@Z @ 5689 NONAME
 ?RFX_Text_Bulk@@YAXPEAVCFieldExchange@@PEB_WPEAPEA_WPEAPEA_JH@Z @ 5690 NONAME
 ?RFX_Text_Bulk@@YAXPEAVCFieldExchange@@PEB_WPEAPEADPEAPEA_JH@Z @ 5691 NONAME
 ?Right@?$CStringT@_WV?$StrTraitMFC_DLL@_WV?$ChTraitsCRT@_W@ATL@@@@@ATL@@QEBA?AV12@H@Z @ 5692 NONAME
 ?Right@?$CStringT@DV?$StrTraitMFC_DLL@DV?$ChTraitsCRT@D@ATL@@@@@ATL@@QEBA?AV12@H@Z @ 5693 NONAME
 ?Rollback@CDatabase@@QEAAHXZ @ 5694 NONAME
 ?Run@COleClientItem@@QEAAXXZ @ 5695 NONAME
 ?Run@CWinApp@@UEAAHXZ @ 5696 NONAME
 ?Run@CWinThread@@UEAAHXZ @ 5697 NONAME
 ?RunAutomated@CWinApp@@QEAAHXZ @ 5698 NONAME
 ?RunEmbedded@CWinApp@@QEAAHXZ @ 5699 NONAME
 ?RunModalLoop@CWnd@@QEAAHK@Z @ 5700 NONAME
 ?SafeSetProperty@COleControlSite@@UEAAHJGZZ @ 5701 NONAME
 ?SameAsSelected@CEditView@@IEAAHPEB_WH@Z @ 5702 NONAME
 ?SameAsSelected@CRichEditView@@IEAAHPEB_WHH@Z @ 5703 NONAME
 ?Save@CBlobProperty@@UEAAJPEAUIStream@@H@Z @ 5704 NONAME
 ?Save@XPersistFile@COleLinkingDoc@@UEAAJPEB_WH@Z @ 5705 NONAME
 ?Save@XPersistMemory@COleControl@@UEAAJPEAXHK@Z @ 5706 NONAME
 ?Save@XPersistPropertyBag@COleControl@@UEAAJPEAUIPropertyBag@@HH@Z @ 5707 NONAME
 ?Save@XPersistStorage@COleControl@@UEAAJPEAUIStorage@@H@Z @ 5708 NONAME
 ?Save@XPersistStorage@COleServerDoc@@UEAAJPEAUIStorage@@H@Z @ 5709 NONAME
 ?Save@XPersistStreamInit@COleControl@@UEAAJPEAUIStream@@H@Z @ 5710 NONAME
 ?SaveAllModified@CDocManager@@UEAAHXZ @ 5711 NONAME
 ?SaveAllModified@CDocTemplate@@UEAAHXZ @ 5712 NONAME
 ?SaveAllModified@CWinApp@@UEAAHXZ @ 5713 NONAME
 ?SaveBarState@CFrameWnd@@QEBAXPEB_W@Z @ 5714 NONAME
 ?SaveCompleted@XPersistFile@COleLinkingDoc@@UEAAJPEB_W@Z @ 5715 NONAME
 ?SaveCompleted@XPersistStorage@COleControl@@UEAAJPEAUIStorage@@@Z @ 5716 NONAME
 ?SaveCompleted@XPersistStorage@COleServerDoc@@UEAAJPEAUIStorage@@@Z @ 5717 NONAME
 ?SaveDC@CDC@@UEAAHXZ @ 5718 NONAME
 ?SaveDC@CPreviewDC@@UEAAHXZ @ 5719 NONAME
 ?SaveEmbedding@COleServerDoc@@QEAAXXZ @ 5720 NONAME
 ?SaveFocusControl@CFormView@@IEAAHXZ @ 5721 NONAME
 ?SaveModified@CDocument@@UEAAHXZ @ 5722 NONAME
 ?SaveModified@COleDocument@@UEAAHXZ @ 5723 NONAME
 ?SaveModified@COleServerDoc@@MEAAHXZ @ 5724 NONAME
 ?SaveModifiedPrompt@COleServerDoc@@IEAAHXZ @ 5725 NONAME
 ?SaveObject@XOleClientSite@COleClientItem@@UEAAJXZ @ 5726 NONAME
 ?SaveObject@XOleClientSite@COleControlSite@@UEAAJXZ @ 5727 NONAME
 ?SaveState@CControlBarInfo@@QEAAHPEB_WH@Z @ 5728 NONAME
 ?SaveState@CDockState@@QEAAXPEB_W@Z @ 5729 NONAME
 ?SaveState@COleControl@@IEAAJPEAUIStream@@@Z @ 5730 NONAME
 ?SaveState@CToolBarCtrl@@QEAAXPEAUHKEY__@@PEB_W1@Z @ 5731 NONAME
 ?SaveStdProfileSettings@CWinApp@@IEAAXXZ @ 5732 NONAME
 ?SaveToStorage@COleDocument@@MEAAXPEAVCObject@@@Z @ 5733 NONAME
 ?SaveToStorage@COleLinkingDoc@@MEAAXPEAVCObject@@@Z @ 5734 NONAME
 ?SaveViewState@XOleDocumentView@CDocObjectServer@@UEAAJPEAUIStream@@@Z @ 5735 NONAME
 ?ScalePoint@CDockState@@QEAAXAEAVCPoint@@@Z @ 5736 NONAME
 ?ScaleRectPos@CDockState@@QEAAXAEAVCRect@@@Z @ 5737 NONAME
 ?ScaleViewportExt@CDC@@UEAA?AVCSize@@HHHH@Z @ 5738 NONAME
 ?ScaleViewportExt@CMetaFileDC@@UEAA?AVCSize@@HHHH@Z @ 5739 NONAME
 ?ScaleViewportExt@CPreviewDC@@UEAA?AVCSize@@HHHH@Z @ 5740 NONAME
 ?ScaleWindowExt@CDC@@UEAA?AVCSize@@HHHH@Z @ 5741 NONAME
 ?ScaleWindowExt@CPreviewDC@@UEAA?AVCSize@@HHHH@Z @ 5742 NONAME
 ?ScreenToClient@CWnd@@QEBAXPEAUtagRECT@@@Z @ 5743 NONAME
 ?Scroll@XOleIPSite@COleClientItem@@UEAAJUtagSIZE@@@Z @ 5744 NONAME
 ?Scroll@XOleIPSite@COleControlSite@@UEAAJUtagSIZE@@@Z @ 5745 NONAME
 ?ScrollChildren@COleControlContainer@@UEAAXHH@Z @ 5746 NONAME
 ?ScrollContainerBy@COleServerDoc@@QEAAHVCSize@@@Z @ 5747 NONAME
 ?ScrollRect@XOleIPSite@COleControlSite@@UEAAJHHPEBUtagRECT@@0@Z @ 5748 NONAME
 ?ScrollToDevicePosition@CScrollView@@IEAAXUtagPOINT@@@Z @ 5749 NONAME
 ?ScrollToPosition@CScrollView@@QEAAXUtagPOINT@@@Z @ 5750 NONAME
 ?ScrollWindow@COleControl@@QEAAXHHPEBUtagRECT@@0@Z @ 5751 NONAME
 ?ScrollWindow@CWnd@@QEAAXHHPEBUtagRECT@@0@Z @ 5752 NONAME
 ?ScrollWindowEx@CWnd@@QEAAHHHPEBUtagRECT@@0PEAVCRgn@@PEAU2@I@Z @ 5753 NONAME
 ?Seek@CArchiveStream@@UEAAJT_LARGE_INTEGER@@KPEAT_ULARGE_INTEGER@@@Z @ 5754 NONAME
 ?Seek@CFile@@UEAA_K_JI@Z @ 5755 NONAME
 ?Seek@CInternetFile@@UEAA_K_JI@Z @ 5756 NONAME
 ?Seek@CMemFile@@UEAA_K_JI@Z @ 5757 NONAME
 ?Seek@COleStreamFile@@UEAA_K_JI@Z @ 5758 NONAME
 ?Seek@CSocketFile@@UEAA_K_JI@Z @ 5759 NONAME
 ?Seek@CStdioFile@@UEAA_K_JI@Z @ 5760 NONAME
 ?Select@CFontHolder@@QEAAPEAVCFont@@PEAVCDC@@JJ@Z @ 5761 NONAME
 ?Select_FindString@CDHtmlDialog@@IEAAJPEAUIHTMLSelectElement@@PEA_WH@Z @ 5762 NONAME
 ?SelectClipPath@CDC@@QEAAHH@Z @ 5763 NONAME
 ?SelectClipRgn@CDC@@QEAAHPEAVCRgn@@@Z @ 5764 NONAME
 ?SelectClipRgn@CDC@@QEAAHPEAVCRgn@@H@Z @ 5765 NONAME
 ?SelectFontObject@COleControl@@QEAAPEAVCFont@@PEAVCDC@@AEAVCFontHolder@@@Z @ 5766 NONAME
 ?SelectGdiObject@CDC@@KAPEAVCGdiObject@@PEAUHDC__@@PEAX@Z @ 5767 NONAME
 ?SelectionChange@CPrintDialogEx@@UEAAJXZ @ 5768 NONAME
 ?SelectObject@CDC@@QEAAHPEAVCRgn@@@Z @ 5769 NONAME
 ?SelectObject@CDC@@QEAAPEAVCBrush@@PEAV2@@Z @ 5770 NONAME
 ?SelectObject@CDC@@QEAAPEAVCPen@@PEAV2@@Z @ 5771 NONAME
 ?SelectObject@CDC@@UEAAPEAVCFont@@PEAV2@@Z @ 5772 NONAME
 ?SelectObject@CPreviewDC@@UEAAPEAVCFont@@PEAV2@@Z @ 5773 NONAME
 ?SelectPalette@CDC@@QEAAPEAVCPalette@@PEAV2@H@Z @ 5774 NONAME
 ?SelectPrinter@CWinApp@@QEAAXPEAX0H@Z @ 5775 NONAME
 ?SelectStockFont@COleControl@@QEAAPEAVCFont@@PEAVCDC@@@Z @ 5776 NONAME
 ?SelectStockObject@CDC@@UEAAPEAVCGdiObject@@H@Z @ 5777 NONAME
 ?SelectStockObject@CPreviewDC@@UEAAPEAVCGdiObject@@H@Z @ 5778 NONAME
 ?Send@CAsyncSocket@@UEAAHPEBXHH@Z @ 5779 NONAME
 ?Send@CSocket@@UEAAHPEBXHH@Z @ 5780 NONAME
 ?SendAdvise@COleControl@@IEAAXI@Z @ 5781 NONAME
 ?SendChildNotifyLastMsg@CWnd@@QEAAHPEA_J@Z @ 5782 NONAME
 ?SendChunk@CSocket@@QEAAHPEBXHH@Z @ 5783 NONAME
 ?SendDlgItemMessageW@COleControlContainer@@UEAA_JHI_K_J@Z @ 5784 NONAME
 ?SendDlgItemMessageW@CWnd@@QEAA_JHI_K_J@Z @ 5785 NONAME
 ?SendInitialUpdate@CDocument@@QEAAXXZ @ 5786 NONAME
 ?SendLongBinaryData@CRecordset@@IEAAXPEAX@Z @ 5787 NONAME
 ?SendMessageToDescendants@CWnd@@SAXPEAUHWND__@@I_K_JHH@Z @ 5788 NONAME
 ?SendMnemonic@COleControlSite@@QEAAXPEAUtagMSG@@@Z @ 5789 NONAME
 ?SendRequest@CHttpFile@@QEAAHAEAV?$CStringT@_WV?$StrTraitMFC_DLL@_WV?$ChTraitsCRT@_W@ATL@@@@@ATL@@PEAXK@Z @ 5790 NONAME
 ?SendRequest@CHttpFile@@QEAAHPEB_WKPEAXK@Z @ 5791 NONAME
 ?SendRequestEx@CHttpFile@@QEAAHKK_K@Z @ 5792 NONAME
 ?SendRequestEx@CHttpFile@@QEAAHPEAU_INTERNET_BUFFERSW@@0K_K@Z @ 5793 NONAME
 ?SendTo@CAsyncSocket@@QEAAHPEBXHIPEB_WH@Z @ 5794 NONAME
 ?SendToHelper@CAsyncSocket@@MEAAHPEBXHPEBUsockaddr@@HH@Z @ 5795 NONAME
 ?SendToHelper@CSocket@@MEAAHPEBXHPEBUsockaddr@@HH@Z @ 5796 NONAME
 ?Serialize@CByteArray@@UEAAXAEAVCArchive@@@Z @ 5797 NONAME
 ?Serialize@CControlBarInfo@@QEAAXAEAVCArchive@@PEAVCDockState@@@Z @ 5798 NONAME
 ?Serialize@CDocItem@@UEAAXAEAVCArchive@@@Z @ 5799 NONAME
 ?Serialize@CDockState@@UEAAXAEAVCArchive@@@Z @ 5800 NONAME
 ?Serialize@CDWordArray@@UEAAXAEAVCArchive@@@Z @ 5801 NONAME
 ?Serialize@CEditView@@UEAAXAEAVCArchive@@@Z @ 5802 NONAME
 ?Serialize@CMapStringToOb@@UEAAXAEAVCArchive@@@Z @ 5803 NONAME
 ?Serialize@CMapStringToString@@UEAAXAEAVCArchive@@@Z @ 5804 NONAME
 ?Serialize@CMapWordToOb@@UEAAXAEAVCArchive@@@Z @ 5805 NONAME
 ?Serialize@CObArray@@UEAAXAEAVCArchive@@@Z @ 5806 NONAME
 ?Serialize@CObList@@UEAAXAEAVCArchive@@@Z @ 5807 NONAME
 ?Serialize@COleClientItem@@UEAAXAEAVCArchive@@@Z @ 5808 NONAME
 ?Serialize@COleControl@@MEAAXAEAVCArchive@@@Z @ 5809 NONAME
 ?Serialize@COleDocument@@UEAAXAEAVCArchive@@@Z @ 5810 NONAME
 ?Serialize@CRichEditDoc@@UEAAXAEAVCArchive@@@Z @ 5811 NONAME
 ?Serialize@CRichEditView@@UEAAXAEAVCArchive@@@Z @ 5812 NONAME
 ?Serialize@CStringArray@@UEAAXAEAVCArchive@@@Z @ 5813 NONAME
 ?Serialize@CStringList@@UEAAXAEAVCArchive@@@Z @ 5814 NONAME
 ?Serialize@CWordArray@@UEAAXAEAVCArchive@@@Z @ 5815 NONAME
 ?Serialize64@CTime@ATL@@QEAAAEAVCArchive@@AEAV3@@Z @ 5816 NONAME
 ?Serialize64@CTimeSpan@ATL@@QEAAAEAVCArchive@@AEAV3@@Z @ 5817 NONAME
 ?SerializeClass@CArchive@@QEAAXPEBUCRuntimeClass@@@Z @ 5818 NONAME
 ?SerializeExtent@COleControl@@QEAAXAEAVCArchive@@@Z @ 5819 NONAME
 ?SerializeRaw@CEditView@@QEAAXAEAVCArchive@@@Z @ 5820 NONAME
 ?SerializeStockProps@COleControl@@QEAAXAEAVCArchive@@@Z @ 5821 NONAME
 ?SerializeVersion@COleControl@@QEAAKAEAVCArchive@@KH@Z @ 5822 NONAME
 ?Set@CProperty@@QEAAHKQEAXK@Z @ 5823 NONAME
 ?Set@CProperty@@QEAAHQEAX@Z @ 5824 NONAME
 ?Set@CProperty@@QEAAHQEAXK@Z @ 5825 NONAME
 ?Set@CPropertySection@@QEAAHKPEAX@Z @ 5826 NONAME
 ?Set@CPropertySection@@QEAAHKPEAXK@Z @ 5827 NONAME
 ?Set@CPropertySet@@QEAAHU_GUID@@KPEAX@Z @ 5828 NONAME
 ?Set@CPropertySet@@QEAAHU_GUID@@KPEAXK@Z @ 5829 NONAME
 ?SetActiveObject@XOleInPlaceFrame@COleFrameHook@@UEAAJPEAUIOleInPlaceActiveObject@@PEB_W@Z @ 5830 NONAME
 ?SetActiveObject@XOleIPFrame@COleControlContainer@@UEAAJPEAUIOleInPlaceActiveObject@@PEB_W@Z @ 5831 NONAME
 ?SetActivePage@CPropertySheet@@QEAAHH@Z @ 5832 NONAME
 ?SetActivePage@CPropertySheet@@QEAAHPEAVCPropertyPage@@@Z @ 5833 NONAME
 ?SetActivePane@CSplitterWnd@@UEAAXHHPEAVCWnd@@@Z @ 5834 NONAME
 ?SetActiveView@CFrameWnd@@QEAAXPEAVCView@@H@Z @ 5835 NONAME
 ?SetAdvise@XViewObject@COleControl@@UEAAJKKPEAUIAdviseSink@@@Z @ 5836 NONAME
 ?SetAppearance@COleControl@@QEAAXF@Z @ 5837 NONAME
 ?SetArcDirection@CDC@@QEAAHH@Z @ 5838 NONAME
 ?SetAt@?$CSimpleStringT@_W$00@ATL@@QEAAXH_W@Z @ 5839 NONAME
 ?SetAt@?$CSimpleStringT@D$00@ATL@@QEAAXHD@Z @ 5840 NONAME
 ?SetAtGrow@CByteArray@@QEAAX_JE@Z @ 5841 NONAME
 ?SetAtGrow@CDWordArray@@QEAAX_JK@Z @ 5842 NONAME
 ?SetAtGrow@CObArray@@QEAAX_JPEAVCObject@@@Z @ 5843 NONAME
 ?SetAtGrow@CPtrArray@@QEAAX_JPEAX@Z @ 5844 NONAME
 ?SetAtGrow@CStringArray@@QEAAX_JAEBV?$CStringT@_WV?$StrTraitMFC_DLL@_WV?$ChTraitsCRT@_W@ATL@@@@@ATL@@@Z @ 5845 NONAME
 ?SetAtGrow@CStringArray@@QEAAX_JPEB_W@Z @ 5846 NONAME
 ?SetAtGrow@CUIntArray@@QEAAX_JI@Z @ 5847 NONAME
 ?SetAtGrow@CWordArray@@QEAAX_JG@Z @ 5848 NONAME
 ?SetAttribDC@CDC@@UEAAXPEAUHDC__@@@Z @ 5849 NONAME
 ?SetAttribDC@CMetaFileDC@@UEAAXPEAUHDC__@@@Z @ 5850 NONAME
 ?SetAttribDC@CPreviewDC@@UEAAXPEAUHDC__@@@Z @ 5851 NONAME
 ?SetBackColor@COleControl@@QEAAXK@Z @ 5852 NONAME
 ?SetBarInfo@CControlBar@@QEAAXPEAVCControlBarInfo@@PEAVCFrameWnd@@@Z @ 5853 NONAME
 ?SetBarInfo@CDockBar@@QEAAXPEAVCControlBarInfo@@PEAVCFrameWnd@@@Z @ 5854 NONAME
 ?SetBarStyle@CControlBar@@QEAAXK@Z @ 5855 NONAME
 ?SetBitmap@CToolBar@@QEAAHPEAUHBITMAP__@@@Z @ 5856 NONAME
 ?SetBkColor@CDC@@UEAAKK@Z @ 5857 NONAME
 ?SetBkColor@CPreviewDC@@UEAAKK@Z @ 5858 NONAME
 ?SetBkImage@CListCtrl@@QEAAHPEA_WHHH@Z @ 5859 NONAME
 ?SetBkImage@CListCtrl@@QEAAHPEAUHBITMAP__@@HHH@Z @ 5860 NONAME
 ?SetBkMode@CDC@@QEAAHH@Z @ 5861 NONAME
 ?SetBookmark@CRecordset@@QEAAXAEBVCDBVariant@@@Z @ 5862 NONAME
 ?SetBorders@CControlBar@@QEAAXHHHH@Z @ 5863 NONAME
 ?SetBorderSpace@XOleInPlaceFrame@COleFrameHook@@UEAAJPEBUtagRECT@@@Z @ 5864 NONAME
 ?SetBorderSpace@XOleIPFrame@COleControlContainer@@UEAAJPEBUtagRECT@@@Z @ 5865 NONAME
 ?SetBorderStyle@COleControl@@QEAAXF@Z @ 5866 NONAME
 ?SetButtonInfo@CToolBar@@QEAAXHIIH@Z @ 5867 NONAME
 ?SetButtons@CToolBar@@QEAAHPEBIH@Z @ 5868 NONAME
 ?SetButtonStyle@CToolBar@@QEAAXHI@Z @ 5869 NONAME
 ?SetButtonText@CToolBar@@QEAAHHPEB_W@Z @ 5870 NONAME
 ?SetCapture@COleControl@@QEAAPEAVCWnd@@XZ @ 5871 NONAME
 ?SetCapture@XOleIPSite@COleControlSite@@UEAAJH@Z @ 5872 NONAME
 ?SetCharFormat@CRichEditView@@QEAAXUCHARFORMAT2W@@@Z @ 5873 NONAME
 ?SetCheck@CCheckListBox@@QEAAXHH@Z @ 5874 NONAME
 ?SetCheck@CCmdUI@@UEAAXH@Z @ 5875 NONAME
 ?SetCheck@CListCtrl@@QEAAHHH@Z @ 5876 NONAME
 ?SetCheck@COleCmdUI@@UEAAXH@Z @ 5877 NONAME
 ?SetCheck@CStatusCmdUI@@UEAAXH@Z @ 5878 NONAME
 ?SetCheck@CTestCmdUI@@UEAAXH@Z @ 5879 NONAME
 ?SetCheck@CToolCmdUI@@UEAAXH@Z @ 5880 NONAME
 ?SetCheck@CTreeCtrl@@QEAAHPEAU_TREEITEM@@H@Z @ 5881 NONAME
 ?SetCheckStyle@CCheckListBox@@QEAAXI@Z @ 5882 NONAME
 ?SetClassID@CPropertySet@@QEAAXU_GUID@@@Z @ 5883 NONAME
 ?SetClientSite@CDataBoundProperty@@QEAAXPEAVCOleControlSite@@@Z @ 5884 NONAME
 ?SetClientSite@XOleObject@CDocObjectServer@@UEAAJPEAUIOleClientSite@@@Z @ 5885 NONAME
 ?SetClientSite@XOleObject@COleControl@@UEAAJPEAUIOleClientSite@@@Z @ 5886 NONAME
 ?SetClientSite@XOleObject@COleServerDoc@@UEAAJPEAUIOleClientSite@@@Z @ 5887 NONAME
 ?SetClientSite@XOleObject@COleServerItem@@UEAAJPEAUIOleClientSite@@@Z @ 5888 NONAME
 ?SetClipboard@COleDataSource@@QEAAXXZ @ 5889 NONAME
 ?SetColorAdjustment@CDC@@QEAAHPEBUtagCOLORADJUSTMENT@@@Z @ 5890 NONAME
 ?SetColorScheme@CReBarCtrl@@QEAAXPEBUtagCOLORSCHEME@@@Z @ 5891 NONAME
 ?SetColorScheme@XOleObject@CDocObjectServer@@UEAAJPEAUtagLOGPALETTE@@@Z @ 5892 NONAME
 ?SetColorScheme@XOleObject@COleControl@@UEAAJPEAUtagLOGPALETTE@@@Z @ 5893 NONAME
 ?SetColorScheme@XOleObject@COleServerDoc@@UEAAJPEAUtagLOGPALETTE@@@Z @ 5894 NONAME
 ?SetColorScheme@XOleObject@COleServerItem@@UEAAJPEAUtagLOGPALETTE@@@Z @ 5895 NONAME
 ?SetColumnInfo@CSplitterWnd@@QEAAXHHH@Z @ 5896 NONAME
 ?SetColumnOrderArray@CListCtrl@@QEAAHHPEAH@Z @ 5897 NONAME
 ?SetConcurrencyAndCursorType@CRecordset@@IEAAXPEAXK@Z @ 5898 NONAME
 ?SetContainerInfo@CDocTemplate@@QEAAXI@Z @ 5899 NONAME
 ?SetContentExtent@XQuickActivate@COleControl@@UEAAJPEAUtagSIZE@@@Z @ 5900 NONAME
 ?SetControl@CReflectorWnd@@QEAAXPEAVCOleControl@@@Z @ 5901 NONAME
 ?SetControlProperty@CDHtmlDialog@@QEAAXPEAUIDispatch@@JPEAUtagVARIANT@@@Z @ 5902 NONAME
 ?SetControlProperty@CDHtmlDialog@@QEAAXPEB_W0PEAUtagVARIANT@@@Z @ 5903 NONAME
 ?SetControlProperty@CDHtmlDialog@@QEAAXPEB_WJPEAUtagVARIANT@@@Z @ 5904 NONAME
 ?SetControlSize@COleControl@@QEAAHHH@Z @ 5905 NONAME
 ?SetControlStatus@COlePropertyPage@@QEAAHIH@Z @ 5906 NONAME
 ?SetControlText@CFileDialog@@QEAAXHPEB_W@Z @ 5907 NONAME
 ?SetControlText@CFileDialog@@QEAAXHPEBD@Z @ 5908 NONAME
 ?SetCookie@CInternetSession@@SAHPEB_W00@Z @ 5909 NONAME
 ?SetCurrency@COleCurrency@@QEAAXJJ@Z @ 5910 NONAME
 ?SetCurrentColor@CColorDialog@@QEAAXK@Z @ 5911 NONAME
 ?SetCurrentDirectoryW@CFtpConnection@@QEAAHPEB_W@Z @ 5912 NONAME
 ?SetCurrentHandles@CWinApp@@QEAAXXZ @ 5913 NONAME
 ?SetCurrentPage@CPreviewView@@IEAAXIH@Z @ 5914 NONAME
 ?SetCurSel@CMonthCalCtrl@@QEAAHAEBVCOleDateTime@ATL@@@Z @ 5915 NONAME
 ?SetCurSel@CMonthCalCtrl@@QEAAHAEBVCTime@ATL@@@Z @ 5916 NONAME
 ?SetCursor@CRectTracker@@QEBAHPEAVCWnd@@I@Z @ 5917 NONAME
 ?SetData@XDataObject@COleControl@@UEAAJPEAUtagFORMATETC@@PEAUtagSTGMEDIUM@@H@Z @ 5918 NONAME
 ?SetData@XDataObject@COleDataSource@@UEAAJPEAUtagFORMATETC@@PEAUtagSTGMEDIUM@@H@Z @ 5919 NONAME
 ?SetData@XDataObject@COleServerDoc@@UEAAJPEAUtagFORMATETC@@PEAUtagSTGMEDIUM@@H@Z @ 5920 NONAME
 ?SetData@XDataObject@COleServerItem@@UEAAJPEAUtagFORMATETC@@PEAUtagSTGMEDIUM@@H@Z @ 5921 NONAME
 ?SetData@XOleCache@COleControl@@UEAAJPEAUtagFORMATETC@@PEAUtagSTGMEDIUM@@H@Z @ 5922 NONAME
 ?SetDayState@CMonthCalCtrl@@QEAAHHPEAK@Z @ 5923 NONAME
 ?SetDefaultButton@COccManager@@SAXPEAVCWnd@@H@Z @ 5924 NONAME
 ?SetDefaultButton@COleControlSite@@QEAAXH@Z @ 5925 NONAME
 ?SetDefaultCharFormat@CRichEditCtrl@@QEAAHAEAU_charformatw@@@Z @ 5926 NONAME
 ?SetDefaultCharFormat@CRichEditCtrl@@QEAAHAEAUCHARFORMAT2W@@@Z @ 5927 NONAME
 ?SetDefaultTitle@CMultiDocTemplate@@UEAAXPEAVCDocument@@@Z @ 5928 NONAME
 ?SetDefaultTitle@CSingleDocTemplate@@UEAAXPEAVCDocument@@@Z @ 5929 NONAME
 ?SetDefExt@CFileDialog@@QEAAXPEBD@Z @ 5930 NONAME
 ?SetDialogResource@COlePropertyPage@@QEAAXPEAX@Z @ 5931 NONAME
 ?SetDirtyFieldStatus@CRecordset@@QEAAXK@Z @ 5932 NONAME
 ?SetDlgCtrlID@COleControlSite@@UEAAHH@Z @ 5933 NONAME
 ?SetDlgCtrlID@CWnd@@QEAAHH@Z @ 5934 NONAME
 ?SetDlgItemInt@COleControlContainer@@UEAAXHIH@Z @ 5935 NONAME
 ?SetDlgItemInt@CWnd@@QEAAXHIH@Z @ 5936 NONAME
 ?SetDlgItemTextW@COleControlContainer@@UEAAXHPEB_W@Z @ 5937 NONAME
 ?SetDlgItemTextW@CWnd@@QEAAXHPEB_W@Z @ 5938 NONAME
 ?SetDockState@CFrameWnd@@QEAAXAEBVCDockState@@@Z @ 5939 NONAME
 ?SetDocSite@CDocObjectServer@@QEAAXPEAUIOleDocumentSite@@@Z @ 5940 NONAME
 ?SetDrawAspect@COleClientItem@@UEAAXW4tagDVASPECT@@@Z @ 5941 NONAME
 ?SetDrawAspect@CRichEditCntrItem@@UEAAXW4tagDVASPECT@@@Z @ 5942 NONAME
 ?SetDropDownMenu@CSplitButton@@QEAAXII@Z @ 5943 NONAME
 ?SetDropDownMenu@CSplitButton@@QEAAXPEAVCMenu@@@Z @ 5944 NONAME
 ?SetDSCSite@CDataBoundProperty@@QEAAXPEAVCOleControlSite@@@Z @ 5945 NONAME
 ?SetElementHtml@CDHtmlDialog@@QEAAXPEAUIUnknown@@PEA_W@Z @ 5946 NONAME
 ?SetElementHtml@CDHtmlDialog@@QEAAXPEB_WPEA_W@Z @ 5947 NONAME
 ?SetElementProperty@CDHtmlDialog@@QEAAXPEB_WJPEAUtagVARIANT@@@Z @ 5948 NONAME
 ?SetElementText@CDHtmlDialog@@QEAAXPEAUIUnknown@@PEA_W@Z @ 5949 NONAME
 ?SetElementText@CDHtmlDialog@@QEAAXPEB_WPEA_W@Z @ 5950 NONAME
 ?SetEnabled@COleControl@@QEAAXH@Z @ 5951 NONAME
 ?SetExtent@COleClientItem@@QEAAXAEBVCSize@@W4tagDVASPECT@@@Z @ 5952 NONAME
 ?SetExtent@COleControlSite@@IEAAHXZ @ 5953 NONAME
 ?SetExtent@XOleObject@CDocObjectServer@@UEAAJKPEAUtagSIZE@@@Z @ 5954 NONAME
 ?SetExtent@XOleObject@COleControl@@UEAAJKPEAUtagSIZE@@@Z @ 5955 NONAME
 ?SetExtent@XOleObject@COleServerDoc@@UEAAJKPEAUtagSIZE@@@Z @ 5956 NONAME
 ?SetExtent@XOleObject@COleServerItem@@UEAAJKPEAUtagSIZE@@@Z @ 5957 NONAME
 ?SetExternalDispatch@CDHtmlDialog@@QEAAXPEAUIDispatch@@@Z @ 5958 NONAME
 ?SetFieldDirty@CRecordset@@QEAAXPEAXH@Z @ 5959 NONAME
 ?SetFieldNull@CRecordset@@QEAAXPEAXH@Z @ 5960 NONAME
 ?SetFieldStatus@CRecordset@@QEAAXKE@Z @ 5961 NONAME
 ?SetFirstDayOfWeek@CMonthCalCtrl@@QEAAHHPEAH@Z @ 5962 NONAME
 ?SetFocus@COleControl@@QEAAPEAVCWnd@@XZ @ 5963 NONAME
 ?SetFocus@COleControlSite@@UEAAPEAVCWnd@@PEAUtagMSG@@@Z @ 5964 NONAME
 ?SetFocus@COleControlSite@@UEAAPEAVCWnd@@XZ @ 5965 NONAME
 ?SetFocus@CWnd@@QEAAPEAV1@XZ @ 5966 NONAME
 ?SetFocus@XOleIPSite@COleControlSite@@UEAAJH@Z @ 5967 NONAME
 ?SetFocusToElement@CDHtmlDialog@@IEAAXPEB_W@Z @ 5968 NONAME
 ?SetFont@CDialogTemplate@@QEAAHPEB_WG@Z @ 5969 NONAME
 ?SetFont@CFontHolder@@QEAAXPEAUIFont@@@Z @ 5970 NONAME
 ?SetFont@COleControl@@QEAAXPEAUIFontDisp@@@Z @ 5971 NONAME
 ?SetFontNotifySink@CFontHolder@@QEAAXPEAUIPropertyNotifySink@@@Z @ 5972 NONAME
 ?SetForeColor@COleControl@@QEAAXK@Z @ 5973 NONAME
 ?SetFormatID@CPropertySection@@QEAAXU_GUID@@@Z @ 5974 NONAME
 ?SetFormatVersion@CPropertySet@@QEAAXG@Z @ 5975 NONAME
 ?SetGraphicsMode@CDC@@QEAAHH@Z @ 5976 NONAME
 ?SetHandle@CSharedFile@@QEAAXPEAXH@Z @ 5977 NONAME
 ?SetHandles@CMDIChildWnd@@QEAAXPEAUHMENU__@@PEAUHACCEL__@@@Z @ 5978 NONAME
 ?SetHeight@CToolBar@@QEAAXH@Z @ 5979 NONAME
 ?SetHelpCapture@CFrameWnd@@IEAAPEAUHWND__@@UtagPOINT@@PEAH@Z @ 5980 NONAME
 ?SetHelpInfo@COlePropertyPage@@QEAAXPEB_W0K@Z @ 5981 NONAME
 ?SetHostFlags@CDHtmlDialog@@QEAAXK@Z @ 5982 NONAME
 ?SetHostNames@COleClientItem@@QEAAXPEB_W0@Z @ 5983 NONAME
 ?SetHostNames@XOleObject@CDocObjectServer@@UEAAJPEB_W0@Z @ 5984 NONAME
 ?SetHostNames@XOleObject@COleControl@@UEAAJPEB_W0@Z @ 5985 NONAME
 ?SetHostNames@XOleObject@COleServerDoc@@UEAAJPEB_W0@Z @ 5986 NONAME
 ?SetHostNames@XOleObject@COleServerItem@@UEAAJPEB_W0@Z @ 5987 NONAME
 ?SetIconicMetafile@COleClientItem@@QEAAHPEAX@Z @ 5988 NONAME
 ?SetIconSpacing@CListCtrl@@QEAA?AVCSize@@HH@Z @ 5989 NONAME
 ?SetIconSpacing@CListCtrl@@QEAA?AVCSize@@V2@@Z @ 5990 NONAME
 ?SetID@CProperty@@QEAAXK@Z @ 5991 NONAME
 ?SetImageList@CReBarCtrl@@QEAAHPEAVCImageList@@@Z @ 5992 NONAME
 ?SetIndicators@CStatusBar@@QEAAHPEBIH@Z @ 5993 NONAME
 ?SetInitialDataFormats@COleControl@@MEAAXXZ @ 5994 NONAME
 ?SetInitialPageNum@XPrint@CDocObjectServer@@UEAAJJ@Z @ 5995 NONAME
 ?SetInitialSize@COleControl@@QEAAXHH@Z @ 5996 NONAME
 ?SetInPlaceOwner@CControlBar@@QEAAXPEAVCWnd@@@Z @ 5997 NONAME
 ?SetInPlaceSite@XOleDocumentView@CDocObjectServer@@UEAAJPEAUIOleInPlaceSite@@@Z @ 5998 NONAME
 ?SetItem@CComboBoxEx@@QEAAHPEBUtagCOMBOBOXEXITEMW@@@Z @ 5999 NONAME
 ?SetItem@CListCtrl@@QEAAHHHIPEB_WHII_J@Z @ 6000 NONAME
 ?SetItem@CListCtrl@@QEAAHHHIPEB_WHII_JH@Z @ 6001 NONAME
 ?SetItem@CTreeCtrl@@QEAAHPEAU_TREEITEM@@IPEB_WHHII_J@Z @ 6002 NONAME
 ?SetItemCountEx@CListCtrl@@QEAAHHK@Z @ 6003 NONAME
 ?SetItemEx@CTreeCtrl@@QEAAHPEAU_TREEITEM@@IPEB_WHHII_JIPEAUHWND__@@H@Z @ 6004 NONAME
 ?SetItemRects@COleClientItem@@QEAAHPEBUtagRECT@@0@Z @ 6005 NONAME
 ?SetItemState@CListCtrl@@QEAAHHII@Z @ 6006 NONAME
 ?SetItemState@CTabCtrl@@QEAAHHKK@Z @ 6007 NONAME
 ?SetItemText@CListCtrl@@QEAAHHHPEB_W@Z @ 6008 NONAME
 ?SetLayout@CDC@@QEAAKK@Z @ 6009 NONAME
 ?SetLength@?$CSimpleStringT@_W$00@ATL@@AEAAXH@Z @ 6010 NONAME
 ?SetLength@?$CSimpleStringT@D$00@ATL@@AEAAXH@Z @ 6011 NONAME
 ?SetLength@CFile@@UEAAX_K@Z @ 6012 NONAME
 ?SetLength@CInternetFile@@UEAAX_K@Z @ 6013 NONAME
 ?SetLength@CMemFile@@UEAAX_K@Z @ 6014 NONAME
 ?SetLength@COleStreamFile@@UEAAX_K@Z @ 6015 NONAME
 ?SetLength@CSocketFile@@UEAAX_K@Z @ 6016 NONAME
 ?SetLinkSource@COleUILinkInfo@@UEAAJKPEA_WKPEAKH@Z @ 6017 NONAME
 ?SetLinkUpdateOptions@COleClientItem@@QEAAXW4tagOLEUPDATE@@@Z @ 6018 NONAME
 ?SetLinkUpdateOptions@COleUILinkInfo@@UEAAJKK@Z @ 6019 NONAME
 ?SetLockingMode@CRecordset@@QEAAXI@Z @ 6020 NONAME
 ?SetManager@?$CSimpleStringT@_W$00@ATL@@QEAAXPEAUIAtlStringMgr@2@@Z @ 6021 NONAME
 ?SetManager@?$CSimpleStringT@D$00@ATL@@QEAAXPEAUIAtlStringMgr@2@@Z @ 6022 NONAME
 ?SetMapMode@CDC@@UEAAHH@Z @ 6023 NONAME
 ?SetMapMode@CPreviewDC@@UEAAHH@Z @ 6024 NONAME
 ?SetMapperFlags@CDC@@QEAAKK@Z @ 6025 NONAME
 ?SetMenu@CFrameWnd@@UEAAHPEAVCMenu@@@Z @ 6026 NONAME
 ?SetMenu@CWnd@@UEAAHPEAVCMenu@@@Z @ 6027 NONAME
 ?SetMenu@XOleInPlaceFrame@COleFrameHook@@UEAAJPEAUHMENU__@@PEAXPEAUHWND__@@@Z @ 6028 NONAME
 ?SetMenu@XOleIPFrame@COleControlContainer@@UEAAJPEAUHMENU__@@PEAXPEAUHWND__@@@Z @ 6029 NONAME
 ?SetMenuBarState@CFrameWnd@@UEAAHK@Z @ 6030 NONAME
 ?SetMenuBarState@CMDIFrameWnd@@UEAAHK@Z @ 6031 NONAME
 ?SetMenuBarVisibility@CFrameWnd@@UEAAXK@Z @ 6032 NONAME
 ?SetMenuBarVisibility@CMDIFrameWnd@@UEAAXK@Z @ 6033 NONAME
 ?SetMessageText@CFrameWnd@@QEAAXI@Z @ 6034 NONAME
 ?SetMessageText@CFrameWnd@@QEAAXPEB_W@Z @ 6035 NONAME
 ?SetModified@CPropertyPage@@QEAAXH@Z @ 6036 NONAME
 ?SetModifiedFlag@COleControl@@QEAAXH@Z @ 6037 NONAME
 ?SetModifiedFlag@COlePropertyPage@@QEAAXH@Z @ 6038 NONAME
 ?SetModifiedFlag@CRichEditDoc@@UEAAXH@Z @ 6039 NONAME
 ?SetMoniker@XOleObject@CDocObjectServer@@UEAAJKPEAUIMoniker@@@Z @ 6040 NONAME
 ?SetMoniker@XOleObject@COleControl@@UEAAJKPEAUIMoniker@@@Z @ 6041 NONAME
 ?SetMoniker@XOleObject@COleServerDoc@@UEAAJKPEAUIMoniker@@@Z @ 6042 NONAME
 ?SetMoniker@XOleObject@COleServerItem@@UEAAJKPEAUIMoniker@@@Z @ 6043 NONAME
 ?SetName@CPropertySection@@QEAAHKPEB_W@Z @ 6044 NONAME
 ?SetNotPermitted@COleControl@@QEAAXXZ @ 6045 NONAME
 ?SetNotSupported@CCmdTarget@@QEAAXXZ @ 6046 NONAME
 ?SetNotSupported@COleControl@@QEAAXXZ @ 6047 NONAME
 ?SetNullFieldStatus@CRecordset@@QEAAXK@Z @ 6048 NONAME
 ?SetNullParamStatus@CRecordset@@QEAAXK@Z @ 6049 NONAME
 ?SetObjectRects@XOleInPlaceObject@COleControl@@UEAAJPEBUtagRECT@@0@Z @ 6050 NONAME
 ?SetObjectRects@XOleInPlaceObject@COleServerDoc@@UEAAJPEBUtagRECT@@0@Z @ 6051 NONAME
 ?SetObjects@XPropertyPage@COlePropertyPage@@UEAAJKPEAPEAUIUnknown@@@Z @ 6052 NONAME
 ?SetOccDialogInfo@CDialog@@MEAAHPEAU_AFX_OCC_DIALOG_INFO@@@Z @ 6053 NONAME
 ?SetOccDialogInfo@CDialogBar@@MEAAHPEAU_AFX_OCC_DIALOG_INFO@@@Z @ 6054 NONAME
 ?SetOccDialogInfo@CFormView@@MEAAHPEAU_AFX_OCC_DIALOG_INFO@@@Z @ 6055 NONAME
 ?SetOccDialogInfo@CWnd@@MEAAHPEAU_AFX_OCC_DIALOG_INFO@@@Z @ 6056 NONAME
 ?SetOption@CInternetConnection@@QEAAHKPEAXKK@Z @ 6057 NONAME
 ?SetOption@CInternetFile@@QEAAHKPEAXKK@Z @ 6058 NONAME
 ?SetOption@CInternetSession@@QEAAHKPEAXKK@Z @ 6059 NONAME
 ?SetOrderArray@CHeaderCtrl@@QEAAHHPEAH@Z @ 6060 NONAME
 ?SetOSVersion@CPropertySet@@QEAAXK@Z @ 6061 NONAME
 ?SetOutputDC@CDC@@UEAAXPEAUHDC__@@@Z @ 6062 NONAME
 ?SetOutputDC@CMetaFileDC@@MEAAXPEAUHDC__@@@Z @ 6063 NONAME
 ?SetOutputDC@CPreviewDC@@UEAAXPEAUHDC__@@@Z @ 6064 NONAME
 ?SetOwner@CToolBar@@QEAAXPEAVCWnd@@@Z @ 6065 NONAME
 ?SetPageName@COlePropertyPage@@QEAAXPEB_W@Z @ 6066 NONAME
 ?SetPageSite@XPropertyPage@COlePropertyPage@@UEAAJPEAUIPropertyPageSite@@@Z @ 6067 NONAME
 ?SetPaneInfo@CStatusBar@@QEAAXHIIH@Z @ 6068 NONAME
 ?SetPaneStyle@CStatusBar@@QEAAXHI@Z @ 6069 NONAME
 ?SetPaneText@CStatusBar@@QEAAHHPEB_WH@Z @ 6070 NONAME
 ?SetParaFormat@CRichEditCtrl@@QEAAHAEAU_paraformat@@@Z @ 6071 NONAME
 ?SetParaFormat@CRichEditCtrl@@QEAAHAEAUPARAFORMAT2@@@Z @ 6072 NONAME
 ?SetParaFormat@CRichEditView@@QEAAHAEAUPARAFORMAT2@@@Z @ 6073 NONAME
 ?SetParamNull@CRecordset@@QEAAXHH@Z @ 6074 NONAME
 ?SetPathName@CDocument@@UEAAXPEB_WH@Z @ 6075 NONAME
 ?SetPathName@COleDocument@@UEAAXPEB_WH@Z @ 6076 NONAME
 ?SetPathName@CRichEditDoc@@UEAAXPEB_WH@Z @ 6077 NONAME
 ?SetPictureDispatch@CPictureHolder@@QEAAXPEAUIPictureDisp@@@Z @ 6078 NONAME
 ?SetPolyFillMode@CDC@@QEAAHH@Z @ 6079 NONAME
 ?SetPrintDevice@COleClientItem@@QEAAHPEBUtagDVTARGETDEVICE@@@Z @ 6080 NONAME
 ?SetPrintDevice@COleClientItem@@QEAAHPEBUtagPDW@@@Z @ 6081 NONAME
 ?SetPrinterFont@CEditView@@QEAAXPEAVCFont@@@Z @ 6082 NONAME
 ?SetPrintView@CPreviewView@@QEAAHPEAVCView@@@Z @ 6083 NONAME
 ?SetPropCheck@COlePropertyPage@@QEAAHPEB_WH@Z @ 6084 NONAME
 ?SetProperty@COleControlSite@@UEAAXJGZZ @ 6085 NONAME
 ?SetProperty@COleDispatchDriver@@QEAAXJGZZ @ 6086 NONAME
 ?SetProperty@CWnd@@QEAAXJGZZ @ 6087 NONAME
 ?SetPropertyV@COleControlSite@@UEAAXJGPEAD@Z @ 6088 NONAME
 ?SetPropIndex@COlePropertyPage@@QEAAHPEB_WH@Z @ 6089 NONAME
 ?SetPropRadio@COlePropertyPage@@QEAAHPEB_WH@Z @ 6090 NONAME
 ?SetPropsetData@COleControl@@IEAAHPEAUtagFORMATETC@@PEAUtagSTGMEDIUM@@AEBU_GUID@@@Z @ 6091 NONAME
 ?SetPropText@COlePropertyPage@@QEAAHPEB_WAEAE@Z @ 6092 NONAME
 ?SetPropText@COlePropertyPage@@QEAAHPEB_WAEAF@Z @ 6093 NONAME
 ?SetPropText@COlePropertyPage@@QEAAHPEB_WAEAH@Z @ 6094 NONAME
 ?SetPropText@COlePropertyPage@@QEAAHPEB_WAEAI@Z @ 6095 NONAME
 ?SetPropText@COlePropertyPage@@QEAAHPEB_WAEAJ@Z @ 6096 NONAME
 ?SetPropText@COlePropertyPage@@QEAAHPEB_WAEAK@Z @ 6097 NONAME
 ?SetPropText@COlePropertyPage@@QEAAHPEB_WAEAM@Z @ 6098 NONAME
 ?SetPropText@COlePropertyPage@@QEAAHPEB_WAEAN@Z @ 6099 NONAME
 ?SetPropText@COlePropertyPage@@QEAAHPEB_WAEAV?$CStringT@_WV?$StrTraitMFC_DLL@_WV?$ChTraitsCRT@_W@ATL@@@@@ATL@@@Z @ 6100 NONAME
 ?SetProxy@CWnd@@UEAAJPEAUIAccessibleProxy@@@Z @ 6101 NONAME
 ?SetProxy@XAccessibleServer@CWnd@@UEAAJPEAUIAccessibleProxy@@@Z @ 6102 NONAME
 ?SetRadio@CCmdUI@@UEAAXH@Z @ 6103 NONAME
 ?SetRadio@CTestCmdUI@@UEAAXH@Z @ 6104 NONAME
 ?SetRange@CDateTimeCtrl@@QEAAHPEBVCOleDateTime@ATL@@0@Z @ 6105 NONAME
 ?SetRange@CDateTimeCtrl@@QEAAHPEBVCTime@ATL@@0@Z @ 6106 NONAME
 ?SetRange@CMonthCalCtrl@@QEAAHPEBVCOleDateTime@ATL@@0@Z @ 6107 NONAME
 ?SetRange@CMonthCalCtrl@@QEAAHPEBVCTime@ATL@@0@Z @ 6108 NONAME
 ?SetRange@CMonthCalCtrl@@QEAAHQEAU_SYSTEMTIME@@0@Z @ 6109 NONAME
 ?SetRange@CSliderCtrl@@QEAAXHHH@Z @ 6110 NONAME
 ?SetReadBufferSize@CInternetFile@@QEAAHI@Z @ 6111 NONAME
 ?SetRect@XOleDocumentView@CDocObjectServer@@UEAAJPEAUtagRECT@@@Z @ 6112 NONAME
 ?SetRectComplex@XOleDocumentView@CDocObjectServer@@UEAAJPEAUtagRECT@@000@Z @ 6113 NONAME
 ?SetRectInContainer@COleControl@@QEAAHPEBUtagRECT@@@Z @ 6114 NONAME
 ?SetRegistryKey@CWinApp@@IEAAXI@Z @ 6115 NONAME
 ?SetRegistryKey@CWinApp@@IEAAXPEB_W@Z @ 6116 NONAME
 ?SetROP2@CDC@@QEAAHH@Z @ 6117 NONAME
 ?SetRowInfo@CSplitterWnd@@QEAAXHHH@Z @ 6118 NONAME
 ?SetRowsetCurrencyStatus@CRecordset@@UEAAXFGJ_K@Z @ 6119 NONAME
 ?SetRowsetCursorPosition@CRecordset@@QEAAXGG@Z @ 6120 NONAME
 ?SetRowsetSize@CRecordset@@UEAAXK@Z @ 6121 NONAME
 ?SetScaledSize@CPreviewView@@IEAAXI@Z @ 6122 NONAME
 ?SetScaleRatio@CPreviewDC@@QEAAXHH@Z @ 6123 NONAME
 ?SetScaleToFitSize@CScrollView@@QEAAXUtagSIZE@@@Z @ 6124 NONAME
 ?SetScreenSize@CDockState@@QEAAXAEAVCSize@@@Z @ 6125 NONAME
 ?SetScrollInfo@CWnd@@QEAAHHPEAUtagSCROLLINFO@@H@Z @ 6126 NONAME
 ?SetScrollPos@CWnd@@QEAAHHHH@Z @ 6127 NONAME
 ?SetScrollRange@CWnd@@QEAAXHHHH@Z @ 6128 NONAME
 ?SetScrollSizes@CScrollView@@QEAAXHUtagSIZE@@AEBU2@1@Z @ 6129 NONAME
 ?SetScrollStyle@CSplitterWnd@@QEAAXK@Z @ 6130 NONAME
 ?SetSectionName@CPropertySection@@QEAAHPEB_W@Z @ 6131 NONAME
 ?SetSel@CRichEditCtrl@@QEAAXJJ@Z @ 6132 NONAME
 ?SetSelection@CSliderCtrl@@QEAAXHH@Z @ 6133 NONAME
 ?SetSelectionCharFormat@CRichEditCtrl@@QEAAHAEAU_charformatw@@@Z @ 6134 NONAME
 ?SetSelectionCharFormat@CRichEditCtrl@@QEAAHAEAUCHARFORMAT2W@@@Z @ 6135 NONAME
 ?SetSelectionCheck@CCheckListBox@@IEAAXH@Z @ 6136 NONAME
 ?SetSelRange@CMonthCalCtrl@@QEAAHAEBVCOleDateTime@ATL@@0@Z @ 6137 NONAME
 ?SetSelRange@CMonthCalCtrl@@QEAAHAEBVCTime@ATL@@0@Z @ 6138 NONAME
 ?SetSelRange@CMonthCalCtrl@@QEAAHQEAU_SYSTEMTIME@@0@Z @ 6139 NONAME
 ?SetServerInfo@CDocTemplate@@QEAAXIIPEAUCRuntimeClass@@0@Z @ 6140 NONAME
 ?SetSite@CPrintDialogEx@@UEAAJPEAUIUnknown@@@Z @ 6141 NONAME
 ?SetSize@CArchiveStream@@UEAAJT_ULARGE_INTEGER@@@Z @ 6142 NONAME
 ?SetSize@CByteArray@@QEAAX_J0@Z @ 6143 NONAME
 ?SetSize@CDWordArray@@QEAAX_J0@Z @ 6144 NONAME
 ?SetSize@CObArray@@QEAAX_J0@Z @ 6145 NONAME
 ?SetSize@CPtrArray@@QEAAX_J0@Z @ 6146 NONAME
 ?SetSize@CStringArray@@QEAAX_J0@Z @ 6147 NONAME
 ?SetSize@CUIntArray@@QEAAX_J0@Z @ 6148 NONAME
 ?SetSize@CWordArray@@QEAAX_J0@Z @ 6149 NONAME
 ?SetSizes@CToolBar@@QEAAXUtagSIZE@@0@Z @ 6150 NONAME
 ?SetSplitCursor@CSplitterWnd@@MEAAXH@Z @ 6151 NONAME
 ?SetStandardProp@CCmdTarget@@IEAAJPEBUAFX_DISPMAP_ENTRY@@PEAUtagDISPPARAMS@@PEAI@Z @ 6152 NONAME
 ?SetState@CRecordset@@IEAAXHPEB_WK@Z @ 6153 NONAME
 ?SetStatus@CFile@@SAXPEB_WAEBUCFileStatus@@@Z @ 6154 NONAME
 ?SetStatusText@CControlBar@@UEAAH_J@Z @ 6155 NONAME
 ?SetStatusText@CControlBar@@UEAAHH@Z @ 6156 NONAME
 ?SetStatusText@XOleInPlaceFrame@COleFrameHook@@UEAAJPEB_W@Z @ 6157 NONAME
 ?SetStatusText@XOleIPFrame@COleControlContainer@@UEAAJPEB_W@Z @ 6158 NONAME
 ?SetStretchBltMode@CDC@@QEAAHH@Z @ 6159 NONAME
 ?SetString@?$CSimpleStringT@_W$00@ATL@@QEAAXPEB_W@Z @ 6160 NONAME
 ?SetString@?$CSimpleStringT@_W$00@ATL@@QEAAXPEB_WH@Z @ 6161 NONAME
 ?SetString@?$CSimpleStringT@D$00@ATL@@QEAAXPEBD@Z @ 6162 NONAME
 ?SetString@?$CSimpleStringT@D$00@ATL@@QEAAXPEBDH@Z @ 6163 NONAME
 ?SetString@COleVariant@@QEAAXPEB_WG@Z @ 6164 NONAME
 ?SetSysString@?$CStringT@_WV?$StrTraitMFC_DLL@_WV?$ChTraitsCRT@_W@ATL@@@@@ATL@@QEBAPEA_WPEAPEA_W@Z @ 6165 NONAME
 ?SetSysString@?$CStringT@DV?$StrTraitMFC_DLL@DV?$ChTraitsCRT@D@ATL@@@@@ATL@@QEBAPEA_WPEAPEA_W@Z @ 6166 NONAME
 ?SetSystemFont@CDialogTemplate@@QEAAHG@Z @ 6167 NONAME
 ?SetTabStops@CEditView@@QEAAXH@Z @ 6168 NONAME
 ?SetTemplate@CDialogTemplate@@IEAAHPEBUDLGTEMPLATE@@I@Z @ 6169 NONAME
 ?SetTemplate@CFileDialog@@QEAAXPEB_W0@Z @ 6170 NONAME
 ?SetText@CCmdUI@@UEAAXPEB_W@Z @ 6171 NONAME
 ?SetText@COleCmdUI@@UEAAXPEB_W@Z @ 6172 NONAME
 ?SetText@COleControl@@QEAAXPEB_W@Z @ 6173 NONAME
 ?SetText@CStatusCmdUI@@UEAAXPEB_W@Z @ 6174 NONAME
 ?SetText@CTestCmdUI@@UEAAXPEB_W@Z @ 6175 NONAME
 ?SetText@CToolCmdUI@@UEAAXPEB_W@Z @ 6176 NONAME
 ?SetTextAlign@CDC@@QEAAII@Z @ 6177 NONAME
 ?SetTextCharacterExtra@CDC@@QEAAHH@Z @ 6178 NONAME
 ?SetTextColor@CDC@@UEAAKK@Z @ 6179 NONAME
 ?SetTextColor@CPreviewDC@@UEAAKK@Z @ 6180 NONAME
 ?SetTextJustification@CDC@@QEAAHHH@Z @ 6181 NONAME
 ?SetTime@CDateTimeCtrl@@QEAAHAEBVCOleDateTime@ATL@@@Z @ 6182 NONAME
 ?SetTime@CDateTimeCtrl@@QEAAHPEAU_SYSTEMTIME@@@Z @ 6183 NONAME
 ?SetTime@CDateTimeCtrl@@QEAAHPEBVCTime@ATL@@@Z @ 6184 NONAME
 ?SetTitle@CDocument@@UEAAXPEB_W@Z @ 6185 NONAME
 ?SetTitle@CPropertySheet@@QEAAXPEB_WI@Z @ 6186 NONAME
 ?SetTitle@CRichEditDoc@@UEAAXPEB_W@Z @ 6187 NONAME
 ?SetToday@CMonthCalCtrl@@QEAAXAEBVCOleDateTime@ATL@@@Z @ 6188 NONAME
 ?SetToday@CMonthCalCtrl@@QEAAXPEBVCTime@ATL@@@Z @ 6189 NONAME
 ?SetToolRect@CToolTipCtrl@@QEAAXPEAVCWnd@@_KPEBUtagRECT@@@Z @ 6190 NONAME
 ?SetTopLeftOffset@CPreviewDC@@QEAAXVCSize@@@Z @ 6191 NONAME
 ?SetType@CProperty@@QEAAXK@Z @ 6192 NONAME
 ?SetUpdateMethod@CRecordset@@IEAAXXZ @ 6193 NONAME
 ?SetValue@CThreadSlotData@@QEAAXHPEAX@Z @ 6194 NONAME
 ?SetViewInfo@XOleUIObjInfo@COlePropertiesDialog@@UEAAJKPEAXKHH@Z @ 6195 NONAME
 ?SetViewportExt@CDC@@UEAA?AVCSize@@HH@Z @ 6196 NONAME
 ?SetViewportExt@CMetaFileDC@@UEAA?AVCSize@@HH@Z @ 6197 NONAME
 ?SetViewportExt@CPreviewDC@@UEAA?AVCSize@@HH@Z @ 6198 NONAME
 ?SetViewportOrg@CDC@@UEAA?AVCPoint@@HH@Z @ 6199 NONAME
 ?SetViewportOrg@CMetaFileDC@@UEAA?AVCPoint@@HH@Z @ 6200 NONAME
 ?SetViewportOrg@CPreviewDC@@UEAA?AVCPoint@@HH@Z @ 6201 NONAME
 ?SetWindowExt@CDC@@UEAA?AVCSize@@HH@Z @ 6202 NONAME
 ?SetWindowExt@CPreviewDC@@UEAA?AVCSize@@HH@Z @ 6203 NONAME
 ?SetWindowOrg@CDC@@QEAA?AVCPoint@@HH@Z @ 6204 NONAME
 ?SetWindowPlacement@CWnd@@QEAAHPEBUtagWINDOWPLACEMENT@@@Z @ 6205 NONAME
 ?SetWindowPos@COleControlSite@@UEAAHPEBVCWnd@@HHHHI@Z @ 6206 NONAME
 ?SetWindowPos@CWnd@@QEAAHPEBV1@HHHHI@Z @ 6207 NONAME
 ?SetWindowTextW@COleControlSite@@UEAAXPEB_W@Z @ 6208 NONAME
 ?SetWindowTextW@CWnd@@QEAAXPEB_W@Z @ 6209 NONAME
 ?SetWordCharFormat@CRichEditCtrl@@QEAAHAEAU_charformatw@@@Z @ 6210 NONAME
 ?SetWordCharFormat@CRichEditCtrl@@QEAAHAEAUCHARFORMAT2W@@@Z @ 6211 NONAME
 ?SetWorldTransform@CDC@@QEAAHPEBUtagXFORM@@@Z @ 6212 NONAME
 ?SetWriteBufferSize@CInternetFile@@QEAAHI@Z @ 6213 NONAME
 ?SetZoomState@CPreviewView@@IEAAXIIVCPoint@@@Z @ 6214 NONAME
 ?Show@XOleDocumentView@CDocObjectServer@@UEAAJH@Z @ 6215 NONAME
 ?Show@XPropertyPage@COlePropertyPage@@UEAAJI@Z @ 6216 NONAME
 ?ShowAll@CDockBar@@QEAAXH@Z @ 6217 NONAME
 ?ShowAppMessageBox@CWinApp@@SAHPEAV1@PEB_WII@Z @ 6218 NONAME
 ?ShowContainerUI@CRichEditCntrItem@@QEAAJH@Z @ 6219 NONAME
 ?ShowContainerUI@CRichEditView@@QEAAJH@Z @ 6220 NONAME
 ?ShowContainerUI@XRichEditOleCallback@CRichEditView@@UEAAJH@Z @ 6221 NONAME
 ?ShowContextMenu@CBrowserControlSite@@MEAAJKPEAUtagPOINT@@PEAUIUnknown@@PEAUIDispatch@@@Z @ 6222 NONAME
 ?ShowContextMenu@CDHtmlDialog@@UEAAJKPEAUtagPOINT@@PEAUIUnknown@@PEAUIDispatch@@@Z @ 6223 NONAME
 ?ShowContextMenu@XDocHostUIHandler@CHtmlControlSite@@UEAAJKPEAUtagPOINT@@PEAUIUnknown@@PEAUIDispatch@@@Z @ 6224 NONAME
 ?ShowControlBar@CFrameWnd@@QEAAXPEAVCControlBar@@HH@Z @ 6225 NONAME
 ?ShowObject@XOleClientSite@COleClientItem@@UEAAJXZ @ 6226 NONAME
 ?ShowObject@XOleClientSite@COleControlSite@@UEAAJXZ @ 6227 NONAME
 ?ShowOwnedWindows@CFrameWnd@@QEAAXH@Z @ 6228 NONAME
 ?ShowPropertyFrame@XOleControlSite@COleControlSite@@UEAAJXZ @ 6229 NONAME
 ?ShowUI@CBrowserControlSite@@MEAAJKPEAUIOleInPlaceActiveObject@@PEAUIOleCommandTarget@@PEAUIOleInPlaceFrame@@PEAUIOleInPlaceUIWindow@@@Z @ 6230 NONAME
 ?ShowUI@CDHtmlDialog@@UEAAJKPEAUIOleInPlaceActiveObject@@PEAUIOleCommandTarget@@PEAUIOleInPlaceFrame@@PEAUIOleInPlaceUIWindow@@@Z @ 6231 NONAME
 ?ShowUI@XDocHostUIHandler@CHtmlControlSite@@UEAAJKPEAUIOleInPlaceActiveObject@@PEAUIOleCommandTarget@@PEAUIOleInPlaceFrame@@PEAUIOleInPlaceUIWindow@@@Z @ 6232 NONAME
 ?ShowWindow@COleControlSite@@UEAAHH@Z @ 6233 NONAME
 ?ShowWindow@CWnd@@QEAAHH@Z @ 6234 NONAME
 ?sizeDefault@CScrollView@@2UtagSIZE@@B @ 6235 NONAME DATA
 ?SizeMinReq@CMonthCalCtrl@@QEAAHH@Z @ 6236 NONAME
 ?SizeToContent@CBitmapButton@@QEAAXXZ @ 6237 NONAME
 ?SizeToolBar@CToolBar@@IEAAXPEAU_TBBUTTON@@HHH@Z @ 6238 NONAME
 ?Skip@XEnumVOID@CEnumArray@@UEAAJK@Z @ 6239 NONAME
 ?SkipDeletedRecords@CRecordset@@QEAAXGJPEA_KPEAF@Z @ 6240 NONAME
 ?Socket@CAsyncSocket@@QEAAHHJHH@Z @ 6241 NONAME
 ?SpanExcluding@?$CStringT@_WV?$StrTraitMFC_DLL@_WV?$ChTraitsCRT@_W@ATL@@@@@ATL@@QEBA?AV12@PEB_W@Z @ 6242 NONAME
 ?SpanExcluding@?$CStringT@DV?$StrTraitMFC_DLL@DV?$ChTraitsCRT@D@ATL@@@@@ATL@@QEBA?AV12@PEBD@Z @ 6243 NONAME
 ?SpanIncluding@?$CStringT@_WV?$StrTraitMFC_DLL@_WV?$ChTraitsCRT@_W@ATL@@@@@ATL@@QEBA?AV12@PEB_W@Z @ 6244 NONAME
 ?SpanIncluding@?$CStringT@DV?$StrTraitMFC_DLL@DV?$ChTraitsCRT@D@ATL@@@@@ATL@@QEBA?AV12@PEBD@Z @ 6245 NONAME
 ?SplitColumn@CSplitterWnd@@UEAAHH@Z @ 6246 NONAME
 ?SplitDialogTemplate@COccManager@@UEAAPEAUDLGTEMPLATE@@PEBU2@PEAPEAUDLGITEMTEMPLATE@@@Z @ 6247 NONAME
 ?SplitRow@CSplitterWnd@@UEAAHH@Z @ 6248 NONAME
 ?StartDocW@CDC@@QEAAHPEB_W@Z @ 6249 NONAME
 ?StartDrag@CDockContext@@UEAAXVCPoint@@@Z @ 6250 NONAME
 ?StartResize@CDockContext@@UEAAXHVCPoint@@@Z @ 6251 NONAME
 ?StartTracking@CSplitterWnd@@MEAAXH@Z @ 6252 NONAME
 ?Stat@CArchiveStream@@UEAAJPEAUtagSTATSTG@@K@Z @ 6253 NONAME
 ?StopTracking@CSplitterWnd@@MEAAXH@Z @ 6254 NONAME
 ?Store@CRuntimeClass@@QEBAXAEAVCArchive@@@Z @ 6255 NONAME
 ?StoreFields@CRecordset@@QEAAXXZ @ 6256 NONAME
 ?Stream@CRichEditView@@QEAAXAEAVCArchive@@H@Z @ 6257 NONAME
 ?Stretch@CDockContext@@QEAAXVCPoint@@@Z @ 6258 NONAME
 ?StringLength@?$CSimpleStringT@_W$00@ATL@@SAHPEB_W@Z @ 6259 NONAME
 ?StringLength@?$CSimpleStringT@_W$00@ATL@@SAHPEBD@Z @ 6260 NONAME
 ?StringLength@?$CSimpleStringT@D$00@ATL@@SAHPEB_W@Z @ 6261 NONAME
 ?StringLength@?$CSimpleStringT@D$00@ATL@@SAHPEBD@Z @ 6262 NONAME
 ?SubclassDlgItem@CWnd@@QEAAHIPEAV1@@Z @ 6263 NONAME
 ?SubclassWindow@CWnd@@QEAAHPEAUHWND__@@@Z @ 6264 NONAME
 ?SupportsIPrint@COleDocObjectItem@@IEAAHXZ @ 6265 NONAME
 ?SyncAfter@XNotifyDBEvents@COleControlSite@@UEAAJKKQEAUtagDBNOTIFYREASON@@@Z @ 6266 NONAME
 ?SyncBefore@XNotifyDBEvents@COleControlSite@@UEAAJKKQEAUtagDBNOTIFYREASON@@@Z @ 6267 NONAME
 ?SyncToRichEditObject@CRichEditCntrItem@@QEAAXAEAU_reobject@@@Z @ 6268 NONAME
 ?TabbedTextOutW@CMetaFileDC@@UEAA?AVCSize@@HHPEB_WHHPEAHH@Z @ 6269 NONAME
 ?TabbedTextOutW@CPreviewDC@@UEAA?AVCSize@@HHPEB_WHHPEAHH@Z @ 6270 NONAME
 ?TextNotFound@CRichEditView@@QEAAXPEB_W@Z @ 6271 NONAME
 ?TextOutW@CMetaFileDC@@UEAAHHHPEB_WH@Z @ 6272 NONAME
 ?TextOutW@CPreviewDC@@UEAAHHHPEB_WH@Z @ 6273 NONAME
 ?ThrowErrno@CFileException@@SAXHPEB_W@Z @ 6274 NONAME
 ?ThrowError@COleControl@@QEAAXJII@Z @ 6275 NONAME
 ?ThrowError@COleControl@@QEAAXJPEB_WI@Z @ 6276 NONAME
 ?ThrowMemoryException@?$CSimpleStringT@_W$00@ATL@@KAXXZ @ 6277 NONAME
 ?ThrowMemoryException@?$CSimpleStringT@D$00@ATL@@KAXXZ @ 6278 NONAME
 ?ThrowOsError@CFileException@@SAXJPEB_W@Z @ 6279 NONAME
 ?ToggleDocking@CDockContext@@UEAAXXZ @ 6280 NONAME
 ?Tokenize@?$CStringT@_WV?$StrTraitMFC_DLL@_WV?$ChTraitsCRT@_W@ATL@@@@@ATL@@QEBA?AV12@PEB_WAEAH@Z @ 6281 NONAME
 ?Tokenize@?$CStringT@DV?$StrTraitMFC_DLL@DV?$ChTraitsCRT@D@ATL@@@@@ATL@@QEBA?AV12@PEBDAEAH@Z @ 6282 NONAME
 ?ToVariant@CDataSourceControl@@QEAA?AVCOleVariant@@H@Z @ 6283 NONAME
 ?Track@CDockContext@@QEAAHXZ @ 6284 NONAME
 ?Track@CRectTracker@@QEAAHPEAVCWnd@@VCPoint@@H0@Z @ 6285 NONAME
 ?TrackColumnSize@CSplitterWnd@@MEAAXHH@Z @ 6286 NONAME
 ?TrackHandle@CRectTracker@@IEAAHHPEAVCWnd@@VCPoint@@0@Z @ 6287 NONAME
 ?TrackPopupMenu@CMenu@@QEAAHIHHPEAVCWnd@@PEBUtagRECT@@@Z @ 6288 NONAME
 ?TrackPopupMenuEx@CMenu@@QEAAHIHHPEAVCWnd@@PEAUtagTPMPARAMS@@@Z @ 6289 NONAME
 ?TrackRowSize@CSplitterWnd@@MEAAXHH@Z @ 6290 NONAME
 ?TrackRubberBand@CRectTracker@@QEAAHPEAVCWnd@@VCPoint@@H@Z @ 6291 NONAME
 ?TransformCoords@COleControl@@QEAAXPEAU_POINTL@@PEAUtagPOINTF@@K@Z @ 6292 NONAME
 ?TransformCoords@XOleControlSite@COleControlSite@@UEAAJPEAU_POINTL@@PEAUtagPOINTF@@K@Z @ 6293 NONAME
 ?TranslateAcceleratorW@CBrowserControlSite@@MEAAJPEAUtagMSG@@PEBU_GUID@@K@Z @ 6294 NONAME
 ?TranslateAcceleratorW@CDHtmlDialog@@UEAAJPEAUtagMSG@@PEBU_GUID@@K@Z @ 6295 NONAME
 ?TranslateAcceleratorW@XDocHostUIHandler@CHtmlControlSite@@UEAAJPEAUtagMSG@@PEBU_GUID@@K@Z @ 6296 NONAME
 ?TranslateAcceleratorW@XOleControlSite@COleControlSite@@UEAAJPEAUtagMSG@@K@Z @ 6297 NONAME
 ?TranslateAcceleratorW@XOleInPlaceActiveObject@COleControl@@UEAAJPEAUtagMSG@@@Z @ 6298 NONAME
 ?TranslateAcceleratorW@XOleInPlaceActiveObject@COleServerDoc@@UEAAJPEAUtagMSG@@@Z @ 6299 NONAME
 ?TranslateAcceleratorW@XOleInPlaceFrame@COleFrameHook@@UEAAJPEAUtagMSG@@G@Z @ 6300 NONAME
 ?TranslateAcceleratorW@XOleIPFrame@COleControlContainer@@UEAAJPEAUtagMSG@@G@Z @ 6301 NONAME
 ?TranslateAcceleratorW@XPropertyPage@COlePropertyPage@@UEAAJPEAUtagMSG@@@Z @ 6302 NONAME
 ?TranslateColor@COleControl@@QEAAKKPEAUHPALETTE__@@@Z @ 6303 NONAME
 ?TranslateUrl@CBrowserControlSite@@MEAAJKPEA_WPEAPEA_W@Z @ 6304 NONAME
 ?TranslateUrl@CDHtmlDialog@@UEAAJKPEA_WPEAPEA_W@Z @ 6305 NONAME
 ?TranslateUrl@XDocHostUIHandler@CHtmlControlSite@@UEAAJKPEA_WPEAPEA_W@Z @ 6306 NONAME
 ?Trim@?$CStringT@_WV?$StrTraitMFC_DLL@_WV?$ChTraitsCRT@_W@ATL@@@@@ATL@@QEAAAEAV12@_W@Z @ 6307 NONAME
 ?Trim@?$CStringT@_WV?$StrTraitMFC_DLL@_WV?$ChTraitsCRT@_W@ATL@@@@@ATL@@QEAAAEAV12@PEB_W@Z @ 6308 NONAME
 ?Trim@?$CStringT@_WV?$StrTraitMFC_DLL@_WV?$ChTraitsCRT@_W@ATL@@@@@ATL@@QEAAAEAV12@XZ @ 6309 NONAME
 ?Trim@?$CStringT@DV?$StrTraitMFC_DLL@DV?$ChTraitsCRT@D@ATL@@@@@ATL@@QEAAAEAV12@D@Z @ 6310 NONAME
 ?Trim@?$CStringT@DV?$StrTraitMFC_DLL@DV?$ChTraitsCRT@D@ATL@@@@@ATL@@QEAAAEAV12@PEBD@Z @ 6311 NONAME
 ?Trim@?$CStringT@DV?$StrTraitMFC_DLL@DV?$ChTraitsCRT@D@ATL@@@@@ATL@@QEAAAEAV12@XZ @ 6312 NONAME
 ?TrimLeft@?$CStringT@_WV?$StrTraitMFC_DLL@_WV?$ChTraitsCRT@_W@ATL@@@@@ATL@@QEAAAEAV12@_W@Z @ 6313 NONAME
 ?TrimLeft@?$CStringT@_WV?$StrTraitMFC_DLL@_WV?$ChTraitsCRT@_W@ATL@@@@@ATL@@QEAAAEAV12@PEB_W@Z @ 6314 NONAME
 ?TrimLeft@?$CStringT@_WV?$StrTraitMFC_DLL@_WV?$ChTraitsCRT@_W@ATL@@@@@ATL@@QEAAAEAV12@XZ @ 6315 NONAME
 ?TrimLeft@?$CStringT@DV?$StrTraitMFC_DLL@DV?$ChTraitsCRT@D@ATL@@@@@ATL@@QEAAAEAV12@D@Z @ 6316 NONAME
 ?TrimLeft@?$CStringT@DV?$StrTraitMFC_DLL@DV?$ChTraitsCRT@D@ATL@@@@@ATL@@QEAAAEAV12@PEBD@Z @ 6317 NONAME
 ?TrimLeft@?$CStringT@DV?$StrTraitMFC_DLL@DV?$ChTraitsCRT@D@ATL@@@@@ATL@@QEAAAEAV12@XZ @ 6318 NONAME
 ?TrimRight@?$CStringT@_WV?$StrTraitMFC_DLL@_WV?$ChTraitsCRT@_W@ATL@@@@@ATL@@QEAAAEAV12@_W@Z @ 6319 NONAME
 ?TrimRight@?$CStringT@_WV?$StrTraitMFC_DLL@_WV?$ChTraitsCRT@_W@ATL@@@@@ATL@@QEAAAEAV12@PEB_W@Z @ 6320 NONAME
 ?TrimRight@?$CStringT@_WV?$StrTraitMFC_DLL@_WV?$ChTraitsCRT@_W@ATL@@@@@ATL@@QEAAAEAV12@XZ @ 6321 NONAME
 ?TrimRight@?$CStringT@DV?$StrTraitMFC_DLL@DV?$ChTraitsCRT@D@ATL@@@@@ATL@@QEAAAEAV12@D@Z @ 6322 NONAME
 ?TrimRight@?$CStringT@DV?$StrTraitMFC_DLL@DV?$ChTraitsCRT@D@ATL@@@@@ATL@@QEAAAEAV12@PEBD@Z @ 6323 NONAME
 ?TrimRight@?$CStringT@DV?$StrTraitMFC_DLL@DV?$ChTraitsCRT@D@ATL@@@@@ATL@@QEAAAEAV12@XZ @ 6324 NONAME
 ?Truncate@?$CSimpleStringT@_W$00@ATL@@QEAAXH@Z @ 6325 NONAME
 ?Truncate@?$CSimpleStringT@D$00@ATL@@QEAAXH@Z @ 6326 NONAME
 ?UIActivate@XOleDocumentView@CDocObjectServer@@UEAAJH@Z @ 6327 NONAME
 ?UIActivateControl@COccManager@@KAXPEAVCWnd@@@Z @ 6328 NONAME
 ?UIDeactivate@XOleInPlaceObject@COleControl@@UEAAJXZ @ 6329 NONAME
 ?UIDeactivate@XOleInPlaceObject@COleServerDoc@@UEAAJXZ @ 6330 NONAME
 ?UIDeactivateIfNecessary@COccManager@@KAXPEAVCWnd@@0@Z @ 6331 NONAME
 ?UnaccessData@COleSafeArray@@QEAAXXZ @ 6332 NONAME
 ?UnAdvise@CDHtmlElementEventSink@@QEAAJPEAUIUnknown@@AEBU_GUID@@@Z @ 6333 NONAME
 ?Unadvise@XConnPt@CConnectionPoint@@UEAAJK@Z @ 6334 NONAME
 ?Unadvise@XOleObject@CDocObjectServer@@UEAAJK@Z @ 6335 NONAME
 ?Unadvise@XOleObject@COleControl@@UEAAJK@Z @ 6336 NONAME
 ?Unadvise@XOleObject@COleServerDoc@@UEAAJK@Z @ 6337 NONAME
 ?Unadvise@XOleObject@COleServerItem@@UEAAJK@Z @ 6338 NONAME
 ?UnbindFieldsForUpdate@CRecordset@@QEAAXXZ @ 6339 NONAME
 ?Uncache@XOleCache@COleControl@@UEAAJK@Z @ 6340 NONAME
 ?Unfreeze@XViewObject@COleControl@@UEAAJK@Z @ 6341 NONAME
 ?Unlock@CEvent@@UEAAHXZ @ 6342 NONAME
 ?Unlock@CMultiLock@@QEAAHJPEAJ@Z @ 6343 NONAME
 ?Unlock@CMultiLock@@QEAAHXZ @ 6344 NONAME
 ?Unlock@CMutex@@UEAAHXZ @ 6345 NONAME
 ?Unlock@COleSafeArray@@QEAAXXZ @ 6346 NONAME
 ?Unlock@CSemaphore@@UEAAHJPEAJ@Z @ 6347 NONAME
 ?Unlock@CSingleLock@@QEAAHJPEAJ@Z @ 6348 NONAME
 ?Unlock@CSingleLock@@QEAAHXZ @ 6349 NONAME
 ?Unlock@CTypeLibCache@@QEAAXXZ @ 6350 NONAME
 ?UnlockBuffer@?$CSimpleStringT@_W$00@ATL@@QEAAXXZ @ 6351 NONAME
 ?UnlockBuffer@?$CSimpleStringT@D$00@ATL@@QEAAXXZ @ 6352 NONAME
 ?UnlockBuffer@CEditView@@QEBAXXZ @ 6353 NONAME
 ?UnlockRange@CFile@@UEAAX_K0@Z @ 6354 NONAME
 ?UnlockRange@CInternetFile@@UEAAX_K0@Z @ 6355 NONAME
 ?UnlockRange@CMemFile@@UEAAX_K0@Z @ 6356 NONAME
 ?UnlockRange@COleStreamFile@@UEAAX_K0@Z @ 6357 NONAME
 ?UnlockRange@CSocketFile@@UEAAX_K0@Z @ 6358 NONAME
 ?UnlockRange@CStdioFile@@UEAAX_K0@Z @ 6359 NONAME
 ?UnlockRegion@CArchiveStream@@UEAAJT_ULARGE_INTEGER@@0K@Z @ 6360 NONAME
 ?Unregister@COleObjectFactory@@QEAAHXZ @ 6361 NONAME
 ?Unregister@COleTemplateServer@@QEAAHXZ @ 6362 NONAME
 ?Unregister@CWinApp@@UEAAHXZ @ 6363 NONAME
 ?UnregisterAll@COleObjectFactory@@SAHXZ @ 6364 NONAME
 ?UnregisterShellFileTypes@CDocManager@@QEAAXXZ @ 6365 NONAME
 ?UnregisterShellFileTypes@CWinApp@@IEAAXXZ @ 6366 NONAME
 ?UnregisterSiteFactory@CControlSiteFactoryMgr@@QEAAHPEAVIControlSiteFactory@@@Z @ 6367 NONAME
 ?UnsubclassWindow@CWnd@@QEAAPEAUHWND__@@XZ @ 6368 NONAME
 ?Update@CRecordset@@UEAAHXZ @ 6369 NONAME
 ?Update@XOleObject@CDocObjectServer@@UEAAJXZ @ 6370 NONAME
 ?Update@XOleObject@COleControl@@UEAAJXZ @ 6371 NONAME
 ?Update@XOleObject@COleServerDoc@@UEAAJXZ @ 6372 NONAME
 ?Update@XOleObject@COleServerItem@@UEAAJXZ @ 6373 NONAME
 ?UpdateAllItems@COleServerDoc@@QEAAXPEAVCOleServerItem@@_JPEAVCObject@@W4tagDVASPECT@@@Z @ 6374 NONAME
 ?UpdateAllPanes@CStatusBar@@IEAAXHH@Z @ 6375 NONAME
 ?UpdateAllViews@CDocument@@QEAAXPEAVCView@@_JPEAVCObject@@@Z @ 6376 NONAME
 ?UpdateBars@CScrollView@@IEAAXXZ @ 6377 NONAME
 ?UpdateClientEdge@CMDIChildWnd@@IEAAHPEAUtagRECT@@@Z @ 6378 NONAME
 ?UpdateControls@CDataSourceControl@@UEAAJXZ @ 6379 NONAME
 ?UpdateCursor@CDataSourceControl@@UEAAJXZ @ 6380 NONAME
 ?UpdateData@CWnd@@QEAAHH@Z @ 6381 NONAME
 ?UpdateDialogControls@CWnd@@QEAAXPEAVCCmdTarget@@H@Z @ 6382 NONAME
 ?UpdateFrameCounts@CDocument@@UEAAXXZ @ 6383 NONAME
 ?UpdateFrameTitleForDocument@CFrameWnd@@QEAAXPEB_W@Z @ 6384 NONAME
 ?UpdateInsertDelete@CRecordset@@IEAAHXZ @ 6385 NONAME
 ?UpdateItemType@COleClientItem@@QEAAXXZ @ 6386 NONAME
 ?UpdateLink@COleClientItem@@QEAAHXZ @ 6387 NONAME
 ?UpdateLink@COleUILinkInfo@@UEAAJKHH@Z @ 6388 NONAME
 ?UpdateMenu@CRecentFileList@@UEAAXPEAVCCmdUI@@@Z @ 6389 NONAME
 ?UpdateModifiedFlag@COleDocument@@UEAAXXZ @ 6390 NONAME
 ?UpdateModifiedFlag@CRichEditDoc@@UEAAXXZ @ 6391 NONAME
 ?UpdateObjectCache@CRichEditDoc@@IEAAXXZ @ 6392 NONAME
 ?UpdateOFNFromShellDialog@CFileDialog@@QEAAXXZ @ 6393 NONAME
 ?UpdatePrinterSelection@CWinApp@@IEAAXH@Z @ 6394 NONAME
 ?UpdateRegistry@COleObjectFactory@@MEAAHH@Z @ 6395 NONAME
 ?UpdateRegistry@COleObjectFactory@@QEAAXPEB_W@Z @ 6396 NONAME
 ?UpdateRegistry@COleTemplateServer@@QEAAXW4OLE_APPTYPE@@PEAPEB_W1H@Z @ 6397 NONAME
 ?UpdateRegistryAll@COleObjectFactory@@SAHH@Z @ 6398 NONAME
 ?UpdateState@CDockContext@@QEAAXPEAHH@Z @ 6399 NONAME
 ?UpdateTipText@CToolTipCtrl@@QEAAXIPEAVCWnd@@_K@Z @ 6400 NONAME
 ?UpdateTipText@CToolTipCtrl@@QEAAXPEB_WPEAVCWnd@@_K@Z @ 6401 NONAME
 ?UpdateUI@CBrowserControlSite@@MEAAJXZ @ 6402 NONAME
 ?UpdateUI@CDHtmlDialog@@UEAAJXZ @ 6403 NONAME
 ?UpdateUI@XDocHostUIHandler@CHtmlControlSite@@UEAAJXZ @ 6404 NONAME
 ?UpdateUsingHostObj@COleServerDoc@@IEAAXIPEAVCCmdUI@@@Z @ 6405 NONAME
 ?UpdateVisibleLock@COleLinkingDoc@@IEAAXHH@Z @ 6406 NONAME
 ?VerifyConnect@CDatabase@@IEAAXXZ @ 6407 NONAME
 ?VerifyCursorSupport@CRecordset@@IEAAKXZ @ 6408 NONAME
 ?VerifyDriverBehavior@CRecordset@@IEAAXXZ @ 6409 NONAME
 ?VerifyLicenseKey@COleObjectFactory@@MEAAHPEA_W@Z @ 6410 NONAME
 ?VerifyUserLicense@COleObjectFactory@@MEAAHXZ @ 6411 NONAME
 ?VKeyToItem@CListBox@@UEAAHII@Z @ 6412 NONAME
 ?WalkPreTranslateTree@CWnd@@SAHPEAUHWND__@@PEAUtagMSG@@@Z @ 6413 NONAME
 ?WillAmbientsBeValidDuringLoad@COleControl@@QEAAHXZ @ 6414 NONAME
 ?WindowProc@CControlBar@@UEAA_JI_K_J@Z @ 6415 NONAME
 ?WindowProc@COleControl@@UEAA_JI_K_J@Z @ 6416 NONAME
 ?WindowProc@COlePropertyPage@@MEAA_JI_K_J@Z @ 6417 NONAME
 ?WindowProc@CParkingWnd@@UEAA_JI_K_J@Z @ 6418 NONAME
 ?WindowProc@CReBar@@MEAA_JI_K_J@Z @ 6419 NONAME
 ?WindowProc@CReflectorWnd@@MEAA_JI_K_J@Z @ 6420 NONAME
 ?WindowProc@CWnd@@MEAA_JI_K_J@Z @ 6421 NONAME
 ?WinHelpInternal@CWinApp@@UEAAX_KI@Z @ 6422 NONAME
 ?WinHelpInternal@CWnd@@UEAAX_KI@Z @ 6423 NONAME
 ?WinHelpW@CWinApp@@UEAAX_KI@Z @ 6424 NONAME
 ?WinHelpW@CWnd@@UEAAX_KI@Z @ 6425 NONAME
 ?wndBottom@CWnd@@2V1@B @ 6426 NONAME DATA
 ?wndNoTopMost@CWnd@@2V1@B @ 6427 NONAME DATA
 ?wndTop@CWnd@@2V1@B @ 6428 NONAME DATA
 ?wndTopMost@CWnd@@2V1@B @ 6429 NONAME DATA
 ?WrapChanged@CRichEditView@@MEAAXXZ @ 6430 NONAME
 ?WrapToolBar@CToolBar@@IEAAHPEAU_TBBUTTON@@HH@Z @ 6431 NONAME
 ?Write@CArchive@@QEAAXPEBXI@Z @ 6432 NONAME
 ?Write@CArchiveStream@@UEAAJPEBXKPEAK@Z @ 6433 NONAME
 ?Write@CFile@@UEAAXPEBXI@Z @ 6434 NONAME
 ?Write@CGopherFile@@UEAAXPEBXI@Z @ 6435 NONAME
 ?Write@CImageList@@QEAAHPEAVCArchive@@@Z @ 6436 NONAME
 ?Write@CInternetFile@@UEAAXPEBXI@Z @ 6437 NONAME
 ?Write@CMemFile@@UEAAXPEBXI@Z @ 6438 NONAME
 ?Write@COleStreamFile@@UEAAXPEBXI@Z @ 6439 NONAME
 ?Write@CSocketFile@@UEAAXPEBXI@Z @ 6440 NONAME
 ?Write@CStdioFile@@UEAAXPEBXI@Z @ 6441 NONAME
 ?WriteClass@CArchive@@QEAAXPEBUCRuntimeClass@@@Z @ 6442 NONAME
 ?WriteCount@CArchive@@QEAAX_K@Z @ 6443 NONAME
 ?WriteItem@COleClientItem@@UEAAXAEAVCArchive@@@Z @ 6444 NONAME
 ?WriteItemCompound@COleClientItem@@QEAAXAEAVCArchive@@@Z @ 6445 NONAME
 ?WriteItemFlat@COleClientItem@@QEAAXAEAVCArchive@@@Z @ 6446 NONAME
 ?WriteList@CRecentFileList@@UEAAXXZ @ 6447 NONAME
 ?WriteNameDictToStream@CPropertySection@@QEAAHPEAUIStream@@@Z @ 6448 NONAME
 ?WriteObject@CArchive@@QEAAXPEBVCObject@@@Z @ 6449 NONAME
 ?WriteProfileBinary@CWinApp@@QEAAHPEB_W0PEAEI@Z @ 6450 NONAME
 ?WriteProfileInt@CWinApp@@QEAAHPEB_W0H@Z @ 6451 NONAME
 ?WriteProfileStringW@CWinApp@@QEAAHPEB_W00@Z @ 6452 NONAME
 ?WriteString@CArchive@@QEAAXPEB_W@Z @ 6453 NONAME
 ?WriteString@CGopherFile@@UEAAXPEB_W@Z @ 6454 NONAME
 ?WriteString@CInternetFile@@UEAAXPEB_W@Z @ 6455 NONAME
 ?WriteString@CStdioFile@@UEAAXPEB_W@Z @ 6456 NONAME
 ?WriteToArchive@CEditView@@QEAAXAEAVCArchive@@@Z @ 6457 NONAME
 ?WriteToStream@CProperty@@QEAAHPEAUIStream@@@Z @ 6458 NONAME
 ?WriteToStream@CPropertySection@@QEAAHPEAUIStream@@@Z @ 6459 NONAME
 ?WriteToStream@CPropertySet@@QEAAHPEAUIStream@@@Z @ 6460 NONAME
 ?AfxSetPerUserRegistration@@YAXH@Z @ 6461 NONAME
 ?AfxGetPerUserRegistration@@YAHXZ @ 6462 NONAME
 ??0CAutoHideDockSite@@QEAA@XZ @ 6463 NONAME
 ??0CBasePane@@QEAA@XZ @ 6464 NONAME
 ??0CBaseTabbedPane@@QEAA@H@Z @ 6465 NONAME
 ??0CCommandManager@@IEAA@XZ @ 6466 NONAME
 ??0CContextMenuManager@@QEAA@XZ @ 6467 NONAME
 ??0CDialogEx@@QEAA@IPEAVCWnd@@@Z @ 6468 NONAME
 ??0CDialogEx@@QEAA@PEB_WPEAVCWnd@@@Z @ 6469 NONAME
 ??0CDialogEx@@QEAA@XZ @ 6470 NONAME
 ??0CDialogImpl@@IEAA@AEAVCWnd@@@Z @ 6471 NONAME
 ??0CDockablePane@@QEAA@XZ @ 6472 NONAME
 ??0CDockablePaneAdapter@@QEAA@XZ @ 6473 NONAME
 ??0CDockingManager@@QEAA@XZ @ 6474 NONAME
 ??0CDockingPanesRow@@QEAA@PEAVCDockSite@@HH@Z @ 6475 NONAME
 ??0CDockSite@@QEAA@XZ @ 6476 NONAME
 ??0CDrawingManager@@QEAA@AEAVCDC@@@Z @ 6477 NONAME
 ??0CFrameImpl@@QEAA@PEAVCFrameWnd@@@Z @ 6478 NONAME
 ??0CFrameWndEx@@IEAA@XZ @ 6479 NONAME
 ??0CFullScreenImpl@@QEAA@PEAVCFrameImpl@@@Z @ 6480 NONAME
 ??0CGlobalUtils@@QEAA@XZ @ 6481 NONAME
 ??0CKeyboardManager@@QEAA@XZ @ 6482 NONAME
 ??0CMDIChildWndEx@@IEAA@XZ @ 6483 NONAME
 ??0CMDIClientAreaWnd@@QEAA@XZ @ 6484 NONAME
 ??0CMDIFrameWndEx@@IEAA@XZ @ 6485 NONAME
 ??0CMDITabInfo@@QEAA@XZ @ 6486 NONAME
 ??0CMemDC@@QEAA@AEAVCDC@@AEBVCRect@@@Z @ 6487 NONAME
 ??0CMemDC@@QEAA@AEAVCDC@@PEAVCWnd@@@Z @ 6488 NONAME
 ??0CMenuHash@@QEAA@XZ @ 6489 NONAME
 ??0CMenuTearOffManager@@QEAA@XZ @ 6490 NONAME
 ??0CMFCAcceleratorKey@@QEAA@PEAUtagACCEL@@@Z @ 6491 NONAME
 ??0CMFCAcceleratorKey@@QEAA@XZ @ 6492 NONAME
 ??0CMFCAcceleratorKeyAssignCtrl@@QEAA@XZ @ 6493 NONAME
 ??0CMFCAutoHideButton@@QEAA@XZ @ 6494 NONAME
 ??0CMFCAutoHideBar@@QEAA@XZ @ 6495 NONAME
 ??0CMFCBaseTabCtrl@@QEAA@XZ @ 6496 NONAME
 ??0CMFCBaseToolBar@@QEAA@XZ @ 6497 NONAME
 ??0CMFCBaseVisualManager@@QEAA@XZ @ 6498 NONAME
 ??0CMFCButton@@QEAA@XZ @ 6499 NONAME
 ??0CMFCCaptionBar@@QEAA@XZ @ 6500 NONAME
 ??0CMFCCaptionButton@@QEAA@IH@Z @ 6501 NONAME
 ??0CMFCCaptionButton@@QEAA@XZ @ 6502 NONAME
 ??0CMFCCaptionButtonEx@@QEAA@I@Z @ 6503 NONAME
 ??0CMFCCaptionMenuButton@@QEAA@IH@Z @ 6504 NONAME
 ??0CMFCCaptionMenuButton@@QEAA@XZ @ 6505 NONAME
 ??0CMFCCmdUsageCount@@QEAA@XZ @ 6506 NONAME
 ??0CMFCColorBar@@IEAA@AEAV0@I@Z @ 6507 NONAME
 ??0CMFCColorBar@@IEAA@AEBV?$CArray@KK@@KPEB_W11AEAV?$CList@KK@@HHHKIPEAVCMFCColorButton@@@Z @ 6508 NONAME
 ??0CMFCColorBar@@IEAA@AEBV?$CArray@KK@@KPEB_W11AEAV?$CList@KK@@HKIPEAVCMFCRibbonColorButton@@@Z @ 6509 NONAME
 ??0CMFCColorBar@@QEAA@XZ @ 6510 NONAME
 ??0CMFCColorBarCmdUI@@QEAA@XZ @ 6511 NONAME
 ??0CMFCColorButton@@QEAA@XZ @ 6512 NONAME
 ??0CMFCColorDialog@@QEAA@KKPEAVCWnd@@PEAUHPALETTE__@@@Z @ 6513 NONAME
 ??0CMFCColorMenuButton@@QEAA@IPEB_WPEAVCPalette@@@Z @ 6514 NONAME
 ??0CMFCColorMenuButton@@QEAA@XZ @ 6515 NONAME
 ??0CMFCColorPickerCtrl@@QEAA@XZ @ 6516 NONAME
 ??0CMFCColorPropertySheet@@QEAA@IPEAVCWnd@@I@Z @ 6517 NONAME
 ??0CMFCColorPropertySheet@@QEAA@PEB_WPEAVCWnd@@I@Z @ 6518 NONAME
 ??0CMFCControlBarImpl@@QEAA@PEAVCPane@@@Z @ 6519 NONAME
 ??0CMFCControlRenderer@@QEAA@XZ @ 6520 NONAME
 ??0CMFCControlRendererInfo@@QEAA@AEBV0@@Z @ 6521 NONAME
 ??0CMFCControlRendererInfo@@QEAA@IAEBVCRect@@000@Z @ 6522 NONAME
 ??0CMFCControlRendererInfo@@QEAA@IKAEBVCRect@@000H@Z @ 6523 NONAME
 ??0CMFCControlRendererInfo@@QEAA@PEB_WAEBVCRect@@111@Z @ 6524 NONAME
 ??0CMFCControlRendererInfo@@QEAA@PEB_WKAEBVCRect@@111H@Z @ 6525 NONAME
 ??0CMFCControlRendererInfo@@QEAA@XZ @ 6526 NONAME
 ??0CMFCCustomColorsPropertyPage@@QEAA@XZ @ 6527 NONAME
 ??0CMFCCustomizeButton@@QEAA@HAEBV?$CStringT@_WV?$StrTraitMFC_DLL@_WV?$ChTraitsCRT@_W@ATL@@@@@ATL@@@Z @ 6528 NONAME
 ??0CMFCCustomizeButton@@QEAA@XZ @ 6529 NONAME
 ??0CMFCCustomizeMenuButton@@QEAA@IPEAUHMENU__@@HPEB_WH@Z @ 6530 NONAME
 ??0CMFCCustomizeMenuButton@@QEAA@XZ @ 6531 NONAME
 ??0CMFCDesktopAlertDialog@@QEAA@XZ @ 6532 NONAME
 ??0CMFCDesktopAlertWnd@@QEAA@XZ @ 6533 NONAME
 ??0CMFCDragFrameImpl@@QEAA@XZ @ 6534 NONAME
 ??0CMFCDropDownFrame@@QEAA@XZ @ 6535 NONAME
 ??0CMFCDropDownListBox@@QEAA@PEAVCMFCRibbonComboBox@@@Z @ 6536 NONAME
 ??0CMFCDropDownListBox@@QEAA@PEAVCWnd@@@Z @ 6537 NONAME
 ??0CMFCDropDownListBox@@QEAA@XZ @ 6538 NONAME
 ??0CMFCDropDownToolbarButton@@QEAA@PEB_WPEAVCMFCDropDownToolBar@@@Z @ 6539 NONAME
 ??0CMFCDropDownToolbarButton@@QEAA@XZ @ 6540 NONAME
 ??0CMFCEditBrowseCtrl@@QEAA@XZ @ 6541 NONAME
 ??0CMFCFontComboBox@@QEAA@XZ @ 6542 NONAME
 ??0CMFCHeaderCtrl@@QEAA@XZ @ 6543 NONAME
 ??0CMFCImageEditorDialog@@QEAA@PEAVCBitmap@@PEAVCWnd@@H@Z @ 6544 NONAME
 ??0CMFCImagePaintArea@@QEAA@PEAVCMFCImageEditorDialog@@@Z @ 6545 NONAME
 ??0CMFCKeyMapDialog@@QEAA@PEAVCFrameWnd@@H@Z @ 6546 NONAME
 ??0CMFCLinkCtrl@@QEAA@XZ @ 6547 NONAME
 ??0CMFCListCtrl@@QEAA@XZ @ 6548 NONAME
 ??0CMFCMaskedEdit@@QEAA@XZ @ 6549 NONAME
 ??0CMFCMenuBar@@QEAA@XZ @ 6550 NONAME
 ??0CMFCMenuButton@@QEAA@XZ @ 6551 NONAME
 ??0CMFCMousePropertyPage@@QEAA@XZ @ 6552 NONAME
 ??0CMFCOutlookBar@@QEAA@XZ @ 6553 NONAME
 ??0CMFCOutlookBarPane@@QEAA@XZ @ 6554 NONAME
 ??0CMFCOutlookBarPaneAdapter@@QEAA@XZ @ 6555 NONAME
 ??0CMFCOutlookBarPaneButton@@QEAA@XZ @ 6556 NONAME
 ??0CMFCOutlookBarTabCtrl@@QEAA@XZ @ 6557 NONAME
 ??0CMFCOutlookBarToolBar@@QEAA@PEAVCMFCOutlookBarTabCtrl@@@Z @ 6558 NONAME
 ??0CMFCPopupMenu@@IEAA@PEAVCMFCToolBarsMenuPropertyPage@@PEB_W@Z @ 6559 NONAME
 ??0CMFCPopupMenu@@QEAA@XZ @ 6560 NONAME
 ??0CMFCPopupMenuBar@@QEAA@XZ @ 6561 NONAME
 ??0CMFCPropertyGridColorProperty@@QEAA@AEBV?$CStringT@_WV?$StrTraitMFC_DLL@_WV?$ChTraitsCRT@_W@ATL@@@@@ATL@@AEBKPEAVCPalette@@PEB_W_K@Z @ 6562 NONAME
 ??0CMFCPropertyGridCtrl@@QEAA@XZ @ 6563 NONAME
 ??0CMFCPropertyGridFileProperty@@QEAA@AEBV?$CStringT@_WV?$StrTraitMFC_DLL@_WV?$ChTraitsCRT@_W@ATL@@@@@ATL@@0_KPEB_W@Z @ 6564 NONAME
 ??0CMFCPropertyGridFileProperty@@QEAA@AEBV?$CStringT@_WV?$StrTraitMFC_DLL@_WV?$ChTraitsCRT@_W@ATL@@@@@ATL@@H0PEB_WK11_K@Z @ 6565 NONAME
 ??0CMFCPropertyGridFontProperty@@QEAA@AEBV?$CStringT@_WV?$StrTraitMFC_DLL@_WV?$ChTraitsCRT@_W@ATL@@@@@ATL@@AEAUtagLOGFONTW@@KPEB_W_KK@Z @ 6566 NONAME
 ??0CMFCPropertyGridProperty@@QEAA@AEBV?$CStringT@_WV?$StrTraitMFC_DLL@_WV?$ChTraitsCRT@_W@ATL@@@@@ATL@@_KH@Z @ 6567 NONAME
 ??0CMFCPropertyGridProperty@@QEAA@AEBV?$CStringT@_WV?$StrTraitMFC_DLL@_WV?$ChTraitsCRT@_W@ATL@@@@@ATL@@AEBVCOleVariant@@PEB_W_K222@Z @ 6568 NONAME
 ??0CMFCPropertyGridToolTipCtrl@@QEAA@XZ @ 6569 NONAME
 ??0CMFCPropertyPage@@QEAA@II@Z @ 6570 NONAME
 ??0CMFCPropertyPage@@QEAA@PEB_WI@Z @ 6571 NONAME
 ??0CMFCPropertyPage@@QEAA@XZ @ 6572 NONAME
 ??0CMFCPropertySheet@@QEAA@IPEAVCWnd@@I@Z @ 6573 NONAME
 ??0CMFCPropertySheet@@QEAA@PEB_WPEAVCWnd@@I@Z @ 6574 NONAME
 ??0CMFCPropertySheet@@QEAA@XZ @ 6575 NONAME
 ??0CMFCPropertySheetCategoryInfo@@QEAA@PEB_WHHPEBV0@AEAVCMFCPropertySheet@@@Z @ 6576 NONAME
 ??0CMFCPropertySheetTabCtrl@@AEAA@XZ @ 6577 NONAME
 ??0CMFCProperySheetListBox@@AEAA@XZ @ 6578 NONAME
 ??0CMFCReBar@@QEAA@XZ @ 6579 NONAME
 ??0CMFCRibbonBar@@QEAA@H@Z @ 6580 NONAME
 ??0CMFCRibbonBaseElement@@QEAA@XZ @ 6581 NONAME
 ??0CMFCRibbonButton@@QEAA@IPEB_WHHH@Z @ 6582 NONAME
 ??0CMFCRibbonButton@@QEAA@IPEB_WPEAUHICON__@@H1HH@Z @ 6583 NONAME
 ??0CMFCRibbonButton@@QEAA@XZ @ 6584 NONAME
 ??0CMFCRibbonButtonsGroup@@QEAA@PEAVCMFCRibbonBaseElement@@@Z @ 6585 NONAME
 ??0CMFCRibbonButtonsGroup@@QEAA@XZ @ 6586 NONAME
 ??0CMFCRibbonCaptionButton@@IEAA@IPEAUHWND__@@@Z @ 6587 NONAME
 ??0CMFCRibbonCategory@@IEAA@PEAVCMFCRibbonBar@@PEB_WIIVCSize@@2@Z @ 6588 NONAME
 ??0CMFCRibbonCategory@@IEAA@XZ @ 6589 NONAME
 ??0CMFCRibbonCheckBox@@QEAA@IPEB_W@Z @ 6590 NONAME
 ??0CMFCRibbonCheckBox@@QEAA@XZ @ 6591 NONAME
 ??0CMFCRibbonCmdUI@@QEAA@XZ @ 6592 NONAME
 ??0CMFCRibbonColorButton@@QEAA@IPEB_WHHHK@Z @ 6593 NONAME
 ??0CMFCRibbonColorButton@@QEAA@IPEB_WHK@Z @ 6594 NONAME
 ??0CMFCRibbonColorButton@@QEAA@XZ @ 6595 NONAME
 ??0CMFCRibbonComboBox@@IEAA@XZ @ 6596 NONAME
 ??0CMFCRibbonComboBox@@QEAA@IHHPEB_WH@Z @ 6597 NONAME
 ??0CMFCRibbonCommandsListBox@@QEAA@PEAVCMFCRibbonBar@@HH@Z @ 6598 NONAME
 ??0CMFCRibbonContextCaption@@IEAA@PEB_WIW4AFX_RibbonCategoryColor@@@Z @ 6599 NONAME
 ??0CMFCRibbonContextCaption@@IEAA@XZ @ 6600 NONAME
 ??0CMFCRibbonCustomizeDialog@@QEAA@PEAVCWnd@@PEAVCMFCRibbonBar@@@Z @ 6601 NONAME
 ??0CMFCRibbonCustomizePropertyPage@@QEAA@PEAVCMFCRibbonBar@@@Z @ 6602 NONAME
 ??0CMFCRibbonDefaultPanelButton@@QEAA@PEAVCMFCRibbonPanel@@@Z @ 6603 NONAME
 ??0CMFCRibbonEdit@@IEAA@XZ @ 6604 NONAME
 ??0CMFCRibbonEdit@@QEAA@IHPEB_WH@Z @ 6605 NONAME
 ??0CMFCRibbonFontComboBox@@IEAA@XZ @ 6606 NONAME
 ??0CMFCRibbonFontComboBox@@QEAA@IHEEH@Z @ 6607 NONAME
 ??0CMFCRibbonGallery@@QEAA@IPEB_WHHAEAVCMFCToolBarImages@@@Z @ 6608 NONAME
 ??0CMFCRibbonGallery@@QEAA@IPEB_WHHIH@Z @ 6609 NONAME
 ??0CMFCRibbonGallery@@QEAA@IPEB_WHHVCSize@@HH@Z @ 6610 NONAME
 ??0CMFCRibbonGallery@@QEAA@XZ @ 6611 NONAME
 ??0CMFCRibbonGalleryIcon@@QEAA@PEAVCMFCRibbonGallery@@H@Z @ 6612 NONAME
 ??0CMFCRibbonGalleryMenuButton@@IEAA@XZ @ 6613 NONAME
 ??0CMFCRibbonGalleryMenuButton@@QEAA@IHPEB_WAEAVCMFCToolBarImages@@@Z @ 6614 NONAME
 ??0CMFCRibbonGalleryMenuButton@@QEAA@IHPEB_WIH@Z @ 6615 NONAME
 ??0CMFCRibbonKeyboardCustomizeDialog@@QEAA@PEAVCMFCRibbonBar@@PEAVCWnd@@@Z @ 6616 NONAME
 ??0CMFCRibbonKeyTip@@QEAA@PEAVCMFCRibbonBaseElement@@H@Z @ 6617 NONAME
 ??0CMFCRibbonLabel@@IEAA@XZ @ 6618 NONAME
 ??0CMFCRibbonLabel@@QEAA@PEB_WH@Z @ 6619 NONAME
 ??0CMFCRibbonLaunchButton@@QEAA@XZ @ 6620 NONAME
 ??0CMFCRibbonLinkCtrl@@QEAA@IPEB_W0@Z @ 6621 NONAME
 ??0CMFCRibbonLinkCtrl@@QEAA@XZ @ 6622 NONAME
 ??0CMFCRibbonMainPanel@@QEAA@XZ @ 6623 NONAME
 ??0CMFCRibbonMainPanelButton@@QEAA@IPEB_WH@Z @ 6624 NONAME
 ??0CMFCRibbonMainPanelButton@@QEAA@IPEB_WPEAUHICON__@@@Z @ 6625 NONAME
 ??0CMFCRibbonMainPanelButton@@QEAA@XZ @ 6626 NONAME
 ??0CMFCRibbonMiniToolBar@@QEAA@XZ @ 6627 NONAME
 ??0CMFCRibbonPanel@@IEAA@PEAVCMFCRibbonGallery@@@Z @ 6628 NONAME
 ??0CMFCRibbonPanel@@IEAA@PEB_WPEAUHICON__@@@Z @ 6629 NONAME
 ??0CMFCRibbonPanelMenu@@IEAA@XZ @ 6630 NONAME
 ??0CMFCRibbonPanelMenu@@QEAA@PEAVCMFCRibbonBar@@AEBV?$CArray@PEAVCMFCRibbonBaseElement@@PEAV1@@@H@Z @ 6631 NONAME
 ??0CMFCRibbonPanelMenu@@QEAA@PEAVCMFCRibbonCategory@@VCSize@@@Z @ 6632 NONAME
 ??0CMFCRibbonPanelMenu@@QEAA@PEAVCMFCRibbonGallery@@@Z @ 6633 NONAME
 ??0CMFCRibbonPanelMenu@@QEAA@PEAVCMFCRibbonPanel@@@Z @ 6634 NONAME
 ??0CMFCRibbonPanelMenuBar@@IEAA@XZ @ 6635 NONAME
 ??0CMFCRibbonPanelMenuBar@@QEAA@PEAVCMFCRibbonBar@@AEBV?$CArray@PEAVCMFCRibbonBaseElement@@PEAV1@@@H@Z @ 6636 NONAME
 ??0CMFCRibbonPanelMenuBar@@QEAA@PEAVCMFCRibbonCategory@@VCSize@@@Z @ 6637 NONAME
 ??0CMFCRibbonPanelMenuBar@@QEAA@PEAVCMFCRibbonGallery@@@Z @ 6638 NONAME
 ??0CMFCRibbonPanelMenuBar@@QEAA@PEAVCMFCRibbonPanel@@@Z @ 6639 NONAME
 ??0CMFCRibbonProgressBar@@QEAA@IHH@Z @ 6640 NONAME
 ??0CMFCRibbonProgressBar@@QEAA@XZ @ 6641 NONAME
 ??0CMFCRibbonQuickAccessToolBar@@QEAA@XZ @ 6642 NONAME
 ??0CMFCRibbonQuickAccessToolBarDefaultState@@QEAA@XZ @ 6643 NONAME
 ??0CMFCRibbonRichEditCtrl@@QEAA@AEAVCMFCRibbonEdit@@@Z @ 6644 NONAME
 ??0CMFCRibbonSeparator@@QEAA@H@Z @ 6645 NONAME
 ??0CMFCRibbonSlider@@QEAA@IH@Z @ 6646 NONAME
 ??0CMFCRibbonSlider@@QEAA@XZ @ 6647 NONAME
 ??0CMFCRibbonStatusBar@@QEAA@XZ @ 6648 NONAME
 ??0CMFCRibbonStatusBarPane@@QEAA@IPEB_WHPEAUHICON__@@0@Z @ 6649 NONAME
 ??0CMFCRibbonStatusBarPane@@QEAA@IPEB_WIHKPEAUHICON__@@H@Z @ 6650 NONAME
 ??0CMFCRibbonStatusBarPane@@QEAA@IPEB_WPEAUHBITMAP__@@HKPEAUHICON__@@H@Z @ 6651 NONAME
 ??0CMFCRibbonStatusBarPane@@QEAA@XZ @ 6652 NONAME
 ??0CMFCRibbonTab@@AEAA@XZ @ 6653 NONAME
 ??0CMFCRibbonUndoButton@@QEAA@IPEB_WHH@Z @ 6654 NONAME
 ??0CMFCRibbonUndoButton@@QEAA@IPEB_WPEAUHICON__@@@Z @ 6655 NONAME
 ??0CMFCRibbonUndoButton@@QEAA@XZ @ 6656 NONAME
 ??0CMFCShellListCtrl@@QEAA@XZ @ 6657 NONAME
 ??0CMFCShellTreeCtrl@@QEAA@XZ @ 6658 NONAME
 ??0CMFCShowAllButton@@QEAA@XZ @ 6659 NONAME
 ??0CMFCSpinButtonCtrl@@QEAA@XZ @ 6660 NONAME
 ??0CMFCStandardColorsPropertyPage@@QEAA@XZ @ 6661 NONAME
 ??0CMFCStatusBar@@QEAA@XZ @ 6662 NONAME
 ??0CMFCTabCtrl@@QEAA@XZ @ 6663 NONAME
 ??0CMFCTasksPane@@QEAA@XZ @ 6664 NONAME
 ??0CMFCTasksPaneFrameWnd@@QEAA@XZ @ 6665 NONAME
 ??0CMFCToolBar@@QEAA@XZ @ 6666 NONAME
 ??0CMFCToolBarButton@@QEAA@IHPEB_WHH@Z @ 6667 NONAME
 ??0CMFCToolBarButton@@QEAA@XZ @ 6668 NONAME
 ??0CMFCToolBarButtonCustomizeDialog@@QEAA@PEAVCMFCToolBarButton@@PEAVCMFCToolBarImages@@PEAVCWnd@@HH@Z @ 6669 NONAME
 ??0CMFCToolBarButtonsListButton@@QEAA@XZ @ 6670 NONAME
 ??0CMFCToolBarComboBoxButton@@QEAA@IHKH@Z @ 6671 NONAME
 ??0CMFCToolBarComboBoxButton@@QEAA@XZ @ 6672 NONAME
 ??0CMFCToolBarComboBoxEdit@@QEAA@AEAVCMFCToolBarComboBoxButton@@@Z @ 6673 NONAME
 ??0CMFCToolBarDateTimeCtrl@@QEAA@IHKH@Z @ 6674 NONAME
 ??0CMFCToolBarDateTimeCtrl@@QEAA@XZ @ 6675 NONAME
 ??0CMFCToolBarDropSource@@QEAA@XZ @ 6676 NONAME
 ??0CMFCToolBarDropTarget@@QEAA@XZ @ 6677 NONAME
 ??0CMFCToolBarEditBoxButton@@QEAA@IHKH@Z @ 6678 NONAME
 ??0CMFCToolBarEditBoxButton@@QEAA@XZ @ 6679 NONAME
 ??0CMFCToolBarEditCtrl@@QEAA@AEAVCMFCToolBarEditBoxButton@@@Z @ 6680 NONAME
 ??0CMFCToolBarFontComboBox@@IEAA@PEAVCObList@@HEE@Z @ 6681 NONAME
 ??0CMFCToolBarFontComboBox@@IEAA@XZ @ 6682 NONAME
 ??0CMFCToolBarFontComboBox@@QEAA@IHHEKHE@Z @ 6683 NONAME
 ??0CMFCToolBarFontSizeComboBox@@IEAA@XZ @ 6684 NONAME
 ??0CMFCToolBarFontSizeComboBox@@QEAA@IHKH@Z @ 6685 NONAME
 ??0CMFCToolBarImages@@QEAA@XZ @ 6686 NONAME
 ??0CMFCToolBarInfo@@QEAA@XZ @ 6687 NONAME
 ??0CMFCToolBarMenuButton@@QEAA@AEBV0@@Z @ 6688 NONAME
 ??0CMFCToolBarMenuButton@@QEAA@IPEAUHMENU__@@HPEB_WH@Z @ 6689 NONAME
 ??0CMFCToolBarMenuButton@@QEAA@XZ @ 6690 NONAME
 ??0CMFCToolBarMenuButtonsButton@@QEAA@I@Z @ 6691 NONAME
 ??0CMFCToolBarMenuButtonsButton@@QEAA@XZ @ 6692 NONAME
 ??0CMFCToolBarNameDialog@@QEAA@PEAVCWnd@@@Z @ 6693 NONAME
 ??0CMFCToolBarsCommandsListBox@@QEAA@XZ @ 6694 NONAME
 ??0CMFCToolBarsCommandsPropertyPage@@QEAA@XZ @ 6695 NONAME
 ??0CMFCToolBarsCustomizeDialog@@QEAA@PEAVCFrameWnd@@HIPEAV?$CList@PEAUCRuntimeClass@@PEAU1@@@@Z @ 6696 NONAME
 ??0CMFCToolBarsKeyboardPropertyPage@@QEAA@PEAVCFrameWnd@@H@Z @ 6697 NONAME
 ??0CMFCToolBarsListCheckBox@@QEAA@XZ @ 6698 NONAME
 ??0CMFCToolBarsListPropertyPage@@QEAA@PEAVCFrameWnd@@@Z @ 6699 NONAME
 ??0CMFCToolBarsMenuPropertyPage@@QEAA@PEAVCFrameWnd@@H@Z @ 6700 NONAME
 ??0CMFCToolBarsOptionsPropertyPage@@QEAA@H@Z @ 6701 NONAME
 ??0CMFCToolBarSpinEditBoxButton@@QEAA@IHKH@Z @ 6702 NONAME
 ??0CMFCToolBarSpinEditBoxButton@@QEAA@XZ @ 6703 NONAME
 ??0CMFCToolBarsToolsPropertyPage@@QEAA@XZ @ 6704 NONAME
 ??0CMFCToolBarSystemMenuButton@@QEAA@PEAUHMENU__@@PEAUHICON__@@@Z @ 6705 NONAME
 ??0CMFCToolBarSystemMenuButton@@QEAA@XZ @ 6706 NONAME
 ??0CMFCToolTipCtrl@@QEAA@PEAVCMFCToolTipInfo@@@Z @ 6707 NONAME
 ??0CMFCVisualManager@@QEAA@H@Z @ 6708 NONAME
 ??0CMFCVisualManagerBitmapCache@@QEAA@XZ @ 6709 NONAME
 ??0CMFCVisualManagerBitmapCacheItem@CMFCVisualManagerBitmapCache@@QEAA@XZ @ 6710 NONAME
 ??0CMFCVisualManagerOffice2003@@QEAA@XZ @ 6711 NONAME
 ??0CMFCVisualManagerOffice2007@@IEAA@XZ @ 6712 NONAME
 ??0CMFCVisualManagerOfficeXP@@IEAA@H@Z @ 6713 NONAME
 ??0CMFCVisualManagerVS2005@@QEAA@XZ @ 6714 NONAME
 ??0CMFCVisualManagerWindows@@QEAA@H@Z @ 6715 NONAME
 ??0CMFCWindowsManagerDialog@@QEAA@PEAVCMDIFrameWndEx@@H@Z @ 6716 NONAME
 ??0CMouseManager@@QEAA@XZ @ 6717 NONAME
 ??0CMultiPaneFrameWnd@@QEAA@XZ @ 6718 NONAME
 ??0COleCntrFrameWndEx@@QEAA@PEAVCOleIPFrameWnd@@@Z @ 6719 NONAME
 ??0COleDocIPFrameWndEx@@IEAA@XZ @ 6720 NONAME
 ??0COleIPFrameWndEx@@IEAA@XZ @ 6721 NONAME
 ??0COleServerDocEx@@IEAA@XZ @ 6722 NONAME
 ??0COutlookOptionsDlg@@QEAA@AEAVCMFCOutlookBarTabCtrl@@@Z @ 6723 NONAME
 ??0CPane@@IEAA@XZ @ 6724 NONAME
 ??0CPaneContainer@@QEAA@PEAVCPaneContainerManager@@PEAVCDockablePane@@1PEAVCPaneDivider@@@Z @ 6725 NONAME
 ??0CPaneContainerManager@@QEAA@XZ @ 6726 NONAME
 ??0CPaneDialog@@QEAA@XZ @ 6727 NONAME
 ??0CPaneDivider@@QEAA@HPEAVCWnd@@@Z @ 6728 NONAME
 ??0CPaneDivider@@QEAA@XZ @ 6729 NONAME
 ??0CPaneFrameWnd@@QEAA@XZ @ 6730 NONAME
 ??0CPngImage@@QEAA@XZ @ 6731 NONAME
 ??0CPreviewViewEx@@IEAA@XZ @ 6732 NONAME
 ??0CRecentDockSiteInfo@@QEAA@PEAVCPane@@@Z @ 6733 NONAME
 ??0CRecentPaneContainerInfo@@QEAA@XZ @ 6734 NONAME
 ??0CRibbonCategoryScroll@@AEAA@XZ @ 6735 NONAME
 ??0CScreenWnd@@QEAA@XZ @ 6736 NONAME
 ??0CSettingsStore@@IEAA@XZ @ 6737 NONAME
 ??0CSettingsStore@@QEAA@HH@Z @ 6738 NONAME
 ??0CShellManager@@QEAA@XZ @ 6739 NONAME
 ??0CSmartDockingGroupGuide@@QEAA@XZ @ 6740 NONAME
 ??0CSmartDockingGroupGuidesManager@@QEAA@XZ @ 6741 NONAME
 ??0CSmartDockingGroupGuidesWnd@@IEAA@XZ @ 6742 NONAME
 ??0CSmartDockingHighlighterWnd@@QEAA@XZ @ 6743 NONAME
 ??0CSmartDockingInfo@@QEAA@XZ @ 6744 NONAME
 ??0CSmartDockingManager@@QEAA@XZ @ 6745 NONAME
 ??0CSmartDockingStandaloneGuide@@QEAA@XZ @ 6746 NONAME
 ??0CSmartDockingStandaloneGuideWnd@@QEAA@XZ @ 6747 NONAME
 ??0CSplitterWndEx@@QEAA@XZ @ 6748 NONAME
 ??0CTabbedPane@@QEAA@H@Z @ 6749 NONAME
 ??0CTabView@@IEAA@XZ @ 6750 NONAME
 ??0CTagManager@@QEAA@PEB_W@Z @ 6751 NONAME
 ??0CTooltipManager@@QEAA@XZ @ 6752 NONAME
 ??0CUserTool@@QEAA@XZ @ 6753 NONAME
 ??0CUserToolsManager@@QEAA@IIIPEAUCRuntimeClass@@II@Z @ 6754 NONAME
 ??0CUserToolsManager@@QEAA@XZ @ 6755 NONAME
 ??0CVSListBox@@QEAA@XZ @ 6756 NONAME
 ??0CVSListBoxBase@@IEAA@XZ @ 6757 NONAME
 ??0CVSListBoxEditCtrl@@QEAA@XZ @ 6758 NONAME
 ??0CWinAppEx@@QEAA@H@Z @ 6759 NONAME
 ??0AFX_GLOBAL_DATA@@QEAA@XZ @ 6760 NONAME
 ??1CAutoHideDockSite@@UEAA@XZ @ 6761 NONAME
 ??1CBasePane@@UEAA@XZ @ 6762 NONAME
 ??1CBaseTabbedPane@@UEAA@XZ @ 6763 NONAME
 ??1CCommandManager@@UEAA@XZ @ 6764 NONAME
 ??1CContextMenuManager@@UEAA@XZ @ 6765 NONAME
 ??1CDialogImpl@@MEAA@XZ @ 6766 NONAME
 ??1CDockablePane@@UEAA@XZ @ 6767 NONAME
 ??1CDockablePaneAdapter@@UEAA@XZ @ 6768 NONAME
 ??1CDockingManager@@UEAA@XZ @ 6769 NONAME
 ??1CDockingPanesRow@@UEAA@XZ @ 6770 NONAME
 ??1CDockSite@@UEAA@XZ @ 6771 NONAME
 ??1CDrawingManager@@UEAA@XZ @ 6772 NONAME
 ??1CFrameImpl@@UEAA@XZ @ 6773 NONAME
 ??1CFrameWndEx@@MEAA@XZ @ 6774 NONAME
 ??1CFullScreenImpl@@UEAA@XZ @ 6775 NONAME
 ??1CGlobalUtils@@UEAA@XZ @ 6776 NONAME
 ??1CKeyboardManager@@UEAA@XZ @ 6777 NONAME
 ??1CMDIChildWndEx@@MEAA@XZ @ 6778 NONAME
 ??1CMDIClientAreaWnd@@UEAA@XZ @ 6779 NONAME
 ??1CMDIFrameWndEx@@MEAA@XZ @ 6780 NONAME
 ??1CMemDC@@UEAA@XZ @ 6781 NONAME
 ??1CMenuHash@@UEAA@XZ @ 6782 NONAME
 ??1CMenuTearOffManager@@UEAA@XZ @ 6783 NONAME
 ??1CMFCAcceleratorKey@@UEAA@XZ @ 6784 NONAME
 ??1CMFCAcceleratorKeyAssignCtrl@@UEAA@XZ @ 6785 NONAME
 ??1CMFCAutoHideButton@@UEAA@XZ @ 6786 NONAME
 ??1CMFCAutoHideBar@@UEAA@XZ @ 6787 NONAME
 ??1CMFCBaseTabCtrl@@UEAA@XZ @ 6788 NONAME
 ??1CMFCBaseToolBar@@UEAA@XZ @ 6789 NONAME
 ??1CMFCBaseVisualManager@@UEAA@XZ @ 6790 NONAME
 ??1CMFCButton@@UEAA@XZ @ 6791 NONAME
 ??1CMFCCaptionBar@@UEAA@XZ @ 6792 NONAME
 ??1CMFCCaptionButton@@UEAA@XZ @ 6793 NONAME
 ??1CMFCCaptionButtonEx@@UEAA@XZ @ 6794 NONAME
 ??1CMFCCaptionMenuButton@@UEAA@XZ @ 6795 NONAME
 ??1CMFCCmdUsageCount@@UEAA@XZ @ 6796 NONAME
 ??1CMFCColorBar@@UEAA@XZ @ 6797 NONAME
 ??1CMFCColorButton@@UEAA@XZ @ 6798 NONAME
 ??1CMFCColorDialog@@UEAA@XZ @ 6799 NONAME
 ??1CMFCColorMenuButton@@UEAA@XZ @ 6800 NONAME
 ??1CMFCColorPickerCtrl@@UEAA@XZ @ 6801 NONAME
 ??1CMFCColorPopupMenu@@UEAA@XZ @ 6802 NONAME
 ??1CMFCColorPropertySheet@@UEAA@XZ @ 6803 NONAME
 ??1CMFCControlBarImpl@@UEAA@XZ @ 6804 NONAME
 ??1CMFCControlRenderer@@UEAA@XZ @ 6805 NONAME
 ??1CMFCControlRendererInfo@@QEAA@XZ @ 6806 NONAME
 ??1CMFCCustomizeButton@@UEAA@XZ @ 6807 NONAME
 ??1CMFCCustomizeMenuButton@@UEAA@XZ @ 6808 NONAME
 ??1CMFCDesktopAlertDialog@@UEAA@XZ @ 6809 NONAME
 ??1CMFCDesktopAlertWnd@@UEAA@XZ @ 6810 NONAME
 ??1CMFCDragFrameImpl@@UEAA@XZ @ 6811 NONAME
 ??1CMFCDropDownFrame@@UEAA@XZ @ 6812 NONAME
 ??1CMFCDropDownListBox@@UEAA@XZ @ 6813 NONAME
 ??1CMFCDropDownToolbarButton@@UEAA@XZ @ 6814 NONAME
 ??1CMFCEditBrowseCtrl@@UEAA@XZ @ 6815 NONAME
 ??1CMFCFontComboBox@@UEAA@XZ @ 6816 NONAME
 ??1CMFCHeaderCtrl@@UEAA@XZ @ 6817 NONAME
 ??1CMFCImagePaintArea@@UEAA@XZ @ 6818 NONAME
 ??1CMFCKeyMapDialog@@UEAA@XZ @ 6819 NONAME
 ??1CMFCLinkCtrl@@UEAA@XZ @ 6820 NONAME
 ??1CMFCListCtrl@@UEAA@XZ @ 6821 NONAME
 ??1CMFCMaskedEdit@@UEAA@XZ @ 6822 NONAME
 ??1CMFCMenuBar@@UEAA@XZ @ 6823 NONAME
 ??1CMFCMenuButton@@UEAA@XZ @ 6824 NONAME
 ??1CMFCMousePropertyPage@@UEAA@XZ @ 6825 NONAME
 ??1CMFCOutlookBar@@UEAA@XZ @ 6826 NONAME
 ??1CMFCOutlookBarPane@@UEAA@XZ @ 6827 NONAME
 ??1CMFCOutlookBarPaneAdapter@@UEAA@XZ @ 6828 NONAME
 ??1CMFCOutlookBarPaneButton@@UEAA@XZ @ 6829 NONAME
 ??1CMFCOutlookBarTabCtrl@@UEAA@XZ @ 6830 NONAME
 ??1CMFCPopupMenu@@UEAA@XZ @ 6831 NONAME
 ??1CMFCPopupMenuBar@@UEAA@XZ @ 6832 NONAME
 ??1CMFCPropertyGridColorProperty@@UEAA@XZ @ 6833 NONAME
 ??1CMFCPropertyGridCtrl@@UEAA@XZ @ 6834 NONAME
 ??1CMFCPropertyGridFileProperty@@UEAA@XZ @ 6835 NONAME
 ??1CMFCPropertyGridFontProperty@@UEAA@XZ @ 6836 NONAME
 ??1CMFCPropertyGridProperty@@UEAA@XZ @ 6837 NONAME
 ??1CMFCPropertyGridToolTipCtrl@@UEAA@XZ @ 6838 NONAME
 ??1CMFCPropertyPage@@UEAA@XZ @ 6839 NONAME
 ??1CMFCPropertySheet@@UEAA@XZ @ 6840 NONAME
 ??1CMFCPropertySheetCategoryInfo@@UEAA@XZ @ 6841 NONAME
 ??1CMFCRibbonBar@@UEAA@XZ @ 6842 NONAME
 ??1CMFCRibbonBaseElement@@UEAA@XZ @ 6843 NONAME
 ??1CMFCRibbonButton@@UEAA@XZ @ 6844 NONAME
 ??1CMFCRibbonButtonsGroup@@UEAA@XZ @ 6845 NONAME
 ??1CMFCRibbonCategory@@UEAA@XZ @ 6846 NONAME
 ??1CMFCRibbonCheckBox@@UEAA@XZ @ 6847 NONAME
 ??1CMFCRibbonColorButton@@UEAA@XZ @ 6848 NONAME
 ??1CMFCRibbonComboBox@@UEAA@XZ @ 6849 NONAME
 ??1CMFCRibbonCommandsListBox@@UEAA@XZ @ 6850 NONAME
 ??1CMFCRibbonCustomizeDialog@@UEAA@XZ @ 6851 NONAME
 ??1CMFCRibbonCustomizePropertyPage@@UEAA@XZ @ 6852 NONAME
 ??1CMFCRibbonEdit@@UEAA@XZ @ 6853 NONAME
 ??1CMFCRibbonFontComboBox@@UEAA@XZ @ 6854 NONAME
 ??1CMFCRibbonGallery@@UEAA@XZ @ 6855 NONAME
 ??1CMFCRibbonGalleryMenuButton@@UEAA@XZ @ 6856 NONAME
 ??1CMFCRibbonKeyboardCustomizeDialog@@UEAA@XZ @ 6857 NONAME
 ??1CMFCRibbonKeyTip@@UEAA@XZ @ 6858 NONAME
 ??1CMFCRibbonLabel@@UEAA@XZ @ 6859 NONAME
 ??1CMFCRibbonLinkCtrl@@UEAA@XZ @ 6860 NONAME
 ??1CMFCRibbonMainPanel@@UEAA@XZ @ 6861 NONAME
 ??1CMFCRibbonMainPanelButton@@UEAA@XZ @ 6862 NONAME
 ??1CMFCRibbonMiniToolBar@@UEAA@XZ @ 6863 NONAME
 ??1CMFCRibbonPanel@@UEAA@XZ @ 6864 NONAME
 ??1CMFCRibbonPanelMenu@@UEAA@XZ @ 6865 NONAME
 ??1CMFCRibbonPanelMenuBar@@UEAA@XZ @ 6866 NONAME
 ??1CMFCRibbonProgressBar@@UEAA@XZ @ 6867 NONAME
 ??1CMFCRibbonQuickAccessToolBar@@UEAA@XZ @ 6868 NONAME
 ??1CMFCRibbonRichEditCtrl@@UEAA@XZ @ 6869 NONAME
 ??1CMFCRibbonSlider@@UEAA@XZ @ 6870 NONAME
 ??1CMFCRibbonStatusBar@@UEAA@XZ @ 6871 NONAME
 ??1CMFCRibbonStatusBarPane@@UEAA@XZ @ 6872 NONAME
 ??1CMFCRibbonUndoButton@@UEAA@XZ @ 6873 NONAME
 ??1CMFCShellListCtrl@@UEAA@XZ @ 6874 NONAME
 ??1CMFCShellTreeCtrl@@UEAA@XZ @ 6875 NONAME
 ??1CMFCShowAllButton@@UEAA@XZ @ 6876 NONAME
 ??1CMFCSpinButtonCtrl@@UEAA@XZ @ 6877 NONAME
 ??1CMFCStatusBar@@UEAA@XZ @ 6878 NONAME
 ??1CMFCTabCtrl@@UEAA@XZ @ 6879 NONAME
 ??1CMFCTasksPane@@UEAA@XZ @ 6880 NONAME
 ??1CMFCTasksPaneFrameWnd@@UEAA@XZ @ 6881 NONAME
 ??1CMFCToolBar@@UEAA@XZ @ 6882 NONAME
 ??1CMFCToolBarButton@@UEAA@XZ @ 6883 NONAME
 ??1CMFCToolBarButtonCustomizeDialog@@UEAA@XZ @ 6884 NONAME
 ??1CMFCToolBarButtonsListButton@@UEAA@XZ @ 6885 NONAME
 ??1CMFCToolBarComboBoxButton@@UEAA@XZ @ 6886 NONAME
 ??1CMFCToolBarComboBoxEdit@@UEAA@XZ @ 6887 NONAME
 ??1CMFCToolBarDateTimeCtrl@@UEAA@XZ @ 6888 NONAME
 ??1CMFCToolBarDropSource@@UEAA@XZ @ 6889 NONAME
 ??1CMFCToolBarDropTarget@@UEAA@XZ @ 6890 NONAME
 ??1CMFCToolBarEditBoxButton@@UEAA@XZ @ 6891 NONAME
 ??1CMFCToolBarEditCtrl@@UEAA@XZ @ 6892 NONAME
 ??1CMFCToolBarFontComboBox@@UEAA@XZ @ 6893 NONAME
 ??1CMFCToolBarFontSizeComboBox@@UEAA@XZ @ 6894 NONAME
 ??1CMFCToolBarImages@@UEAA@XZ @ 6895 NONAME
 ??1CMFCToolBarMenuButton@@UEAA@XZ @ 6896 NONAME
 ??1CMFCToolBarMenuButtonsButton@@UEAA@XZ @ 6897 NONAME
 ??1CMFCToolBarsCommandsListBox@@UEAA@XZ @ 6898 NONAME
 ??1CMFCToolBarsCommandsPropertyPage@@UEAA@XZ @ 6899 NONAME
 ??1CMFCToolBarsCustomizeDialog@@UEAA@XZ @ 6900 NONAME
 ??1CMFCToolBarsKeyboardPropertyPage@@UEAA@XZ @ 6901 NONAME
 ??1CMFCToolBarsListCheckBox@@UEAA@XZ @ 6902 NONAME
 ??1CMFCToolBarsListPropertyPage@@UEAA@XZ @ 6903 NONAME
 ??1CMFCToolBarsMenuPropertyPage@@UEAA@XZ @ 6904 NONAME
 ??1CMFCToolBarsOptionsPropertyPage@@UEAA@XZ @ 6905 NONAME
 ??1CMFCToolBarSpinEditBoxButton@@UEAA@XZ @ 6906 NONAME
 ??1CMFCToolBarsToolsPropertyPage@@UEAA@XZ @ 6907 NONAME
 ??1CMFCToolBarSystemMenuButton@@UEAA@XZ @ 6908 NONAME
 ??1CMFCToolTipCtrl@@UEAA@XZ @ 6909 NONAME
 ??1CMFCVisualManager@@UEAA@XZ @ 6910 NONAME
 ??1CMFCVisualManagerBitmapCache@@UEAA@XZ @ 6911 NONAME
 ??1CMFCVisualManagerBitmapCacheItem@CMFCVisualManagerBitmapCache@@UEAA@XZ @ 6912 NONAME
 ??1CMFCVisualManagerOffice2003@@UEAA@XZ @ 6913 NONAME
 ??1CMFCVisualManagerOffice2007@@MEAA@XZ @ 6914 NONAME
 ??1CMFCVisualManagerOfficeXP@@UEAA@XZ @ 6915 NONAME
 ??1CMFCVisualManagerVS2005@@UEAA@XZ @ 6916 NONAME
 ??1CMFCVisualManagerWindows@@UEAA@XZ @ 6917 NONAME
 ??1CMouseManager@@UEAA@XZ @ 6918 NONAME
 ??1CMultiPaneFrameWnd@@UEAA@XZ @ 6919 NONAME
 ??1COleCntrFrameWndEx@@MEAA@XZ @ 6920 NONAME
 ??1COleDocIPFrameWndEx@@MEAA@XZ @ 6921 NONAME
 ??1COleIPFrameWndEx@@MEAA@XZ @ 6922 NONAME
 ??1COleServerDocEx@@UEAA@XZ @ 6923 NONAME
 ??1CPane@@UEAA@XZ @ 6924 NONAME
 ??1CPaneContainer@@UEAA@XZ @ 6925 NONAME
 ??1CPaneContainerManager@@UEAA@XZ @ 6926 NONAME
 ??1CPaneDialog@@UEAA@XZ @ 6927 NONAME
 ??1CPaneDivider@@UEAA@XZ @ 6928 NONAME
 ??1CPaneFrameWnd@@UEAA@XZ @ 6929 NONAME
 ??1CPngImage@@UEAA@XZ @ 6930 NONAME
 ??1CPreviewViewEx@@MEAA@XZ @ 6931 NONAME
 ??1CRecentDockSiteInfo@@UEAA@XZ @ 6932 NONAME
 ??1CRecentPaneContainerInfo@@UEAA@XZ @ 6933 NONAME
 ??1CScreenWnd@@UEAA@XZ @ 6934 NONAME
 ??1CSettingsStore@@UEAA@XZ @ 6935 NONAME
 ??1CShellManager@@UEAA@XZ @ 6936 NONAME
 ??1CSmartDockingGroupGuide@@UEAA@XZ @ 6937 NONAME
 ??1CSmartDockingGroupGuidesManager@@UEAA@XZ @ 6938 NONAME
 ??1CSmartDockingHighlighterWnd@@UEAA@XZ @ 6939 NONAME
 ??1CSmartDockingManager@@UEAA@XZ @ 6940 NONAME
 ??1CSmartDockingStandaloneGuide@@UEAA@XZ @ 6941 NONAME
 ??1CSmartDockingStandaloneGuideWnd@@UEAA@XZ @ 6942 NONAME
 ??1CSplitterWndEx@@UEAA@XZ @ 6943 NONAME
 ??1CTabbedPane@@UEAA@XZ @ 6944 NONAME
 ??1CTabView@@MEAA@XZ @ 6945 NONAME
 ??1CTagManager@@UEAA@XZ @ 6946 NONAME
 ??1CTooltipManager@@UEAA@XZ @ 6947 NONAME
 ??1CUserTool@@UEAA@XZ @ 6948 NONAME
 ??1CUserToolsManager@@UEAA@XZ @ 6949 NONAME
 ??1CVSListBox@@UEAA@XZ @ 6950 NONAME
 ??1CVSListBoxBase@@UEAA@XZ @ 6951 NONAME
 ??1CVSListBoxEditCtrl@@UEAA@XZ @ 6952 NONAME
 ??1CWinAppEx@@UEAA@XZ @ 6953 NONAME
 ??1AFX_GLOBAL_DATA@@QEAA@XZ @ 6954 NONAME
 ??4CMFCControlRendererInfo@@QEAAAEAV0@AEBV0@@Z @ 6955 NONAME
 ??4CRecentDockSiteInfo@@QEAAAEAV0@AEAV0@@Z @ 6956 NONAME
 ??4CRecentPaneContainerInfo@@QEAAAEAV0@AEAV0@@Z @ 6957 NONAME
 ??5@YAAEAVCArchive@@AEAV0@AEAPEAVCDockablePane@@@Z @ 6958 NONAME
 ??5@YAAEAVCArchive@@AEAV0@AEAPEAVCDockablePaneAdapter@@@Z @ 6959 NONAME
 ??5@YAAEAVCArchive@@AEAV0@AEAPEAVCHelpComboBoxButton@@@Z @ 6960 NONAME
 ??5@YAAEAVCArchive@@AEAV0@AEAPEAVCMFCColorBar@@@Z @ 6961 NONAME
 ??5@YAAEAVCArchive@@AEAV0@AEAPEAVCMFCColorMenuButton@@@Z @ 6962 NONAME
 ??5@YAAEAVCArchive@@AEAV0@AEAPEAVCMFCCustomizeButton@@@Z @ 6963 NONAME
 ??5@YAAEAVCArchive@@AEAV0@AEAPEAVCMFCDropDownFrame@@@Z @ 6964 NONAME
 ??5@YAAEAVCArchive@@AEAV0@AEAPEAVCMFCDropDownToolBar@@@Z @ 6965 NONAME
 ??5@YAAEAVCArchive@@AEAV0@AEAPEAVCMFCDropDownToolbarButton@@@Z @ 6966 NONAME
 ??5@YAAEAVCArchive@@AEAV0@AEAPEAVCMFCMenuBar@@@Z @ 6967 NONAME
 ??5@YAAEAVCArchive@@AEAV0@AEAPEAVCMFCOutlookBar@@@Z @ 6968 NONAME
 ??5@YAAEAVCArchive@@AEAV0@AEAPEAVCMFCOutlookBarPane@@@Z @ 6969 NONAME
 ??5@YAAEAVCArchive@@AEAV0@AEAPEAVCMFCOutlookBarPaneAdapter@@@Z @ 6970 NONAME
 ??5@YAAEAVCArchive@@AEAV0@AEAPEAVCMFCOutlookBarPaneButton@@@Z @ 6971 NONAME
 ??5@YAAEAVCArchive@@AEAV0@AEAPEAVCMFCPopupMenu@@@Z @ 6972 NONAME
 ??5@YAAEAVCArchive@@AEAV0@AEAPEAVCMFCPopupMenuBar@@@Z @ 6973 NONAME
 ??5@YAAEAVCArchive@@AEAV0@AEAPEAVCMFCTasksPane@@@Z @ 6974 NONAME
 ??5@YAAEAVCArchive@@AEAV0@AEAPEAVCMFCTasksPaneFrameWnd@@@Z @ 6975 NONAME
 ??5@YAAEAVCArchive@@AEAV0@AEAPEAVCMFCTasksPaneToolBar@@@Z @ 6976 NONAME
 ??5@YAAEAVCArchive@@AEAV0@AEAPEAVCMFCToolBar@@@Z @ 6977 NONAME
 ??5@YAAEAVCArchive@@AEAV0@AEAPEAVCMFCToolBarButton@@@Z @ 6978 NONAME
 ??5@YAAEAVCArchive@@AEAV0@AEAPEAVCMFCToolBarColorButton@@@Z @ 6979 NONAME
 ??5@YAAEAVCArchive@@AEAV0@AEAPEAVCMFCToolBarComboBoxButton@@@Z @ 6980 NONAME
 ??5@YAAEAVCArchive@@AEAV0@AEAPEAVCMFCToolBarDateTimeCtrl@@@Z @ 6981 NONAME
 ??5@YAAEAVCArchive@@AEAV0@AEAPEAVCMFCToolBarEditBoxButton@@@Z @ 6982 NONAME
 ??5@YAAEAVCArchive@@AEAV0@AEAPEAVCMFCToolBarFontComboBox@@@Z @ 6983 NONAME
 ??5@YAAEAVCArchive@@AEAV0@AEAPEAVCMFCToolBarFontSizeComboBox@@@Z @ 6984 NONAME
 ??5@YAAEAVCArchive@@AEAV0@AEAPEAVCMFCToolBarMenuButton@@@Z @ 6985 NONAME
 ??5@YAAEAVCArchive@@AEAV0@AEAPEAVCMFCToolBarSpinEditBoxButton@@@Z @ 6986 NONAME
 ??5@YAAEAVCArchive@@AEAV0@AEAPEAVCMFCToolBarSystemMenuButton@@@Z @ 6987 NONAME
 ??5@YAAEAVCArchive@@AEAV0@AEAPEAVCMouseManager@@@Z @ 6988 NONAME
 ??5@YAAEAVCArchive@@AEAV0@AEAPEAVCMultiPaneFrameWnd@@@Z @ 6989 NONAME
 ??5@YAAEAVCArchive@@AEAV0@AEAPEAVCPaneDialog@@@Z @ 6990 NONAME
 ??5@YAAEAVCArchive@@AEAV0@AEAPEAVCPaneFrameWnd@@@Z @ 6991 NONAME
 ??5@YAAEAVCArchive@@AEAV0@AEAPEAVCTabbedPane@@@Z @ 6992 NONAME
 ??5@YAAEAVCArchive@@AEAV0@AEAPEAVCTasksPaneHistoryButton@@@Z @ 6993 NONAME
 ??5@YAAEAVCArchive@@AEAV0@AEAPEAVCTasksPaneMenuButton@@@Z @ 6994 NONAME
 ??5@YAAEAVCArchive@@AEAV0@AEAPEAVCTasksPaneNavigateButton@@@Z @ 6995 NONAME
 ??5@YAAEAVCArchive@@AEAV0@AEAPEAVCUserTool@@@Z @ 6996 NONAME
 ?accHitTest@CBasePane@@UEAAJJJPEAUtagVARIANT@@@Z @ 6997 NONAME
 ?accHitTest@CMFCPropertyGridCtrl@@UEAAJJJPEAUtagVARIANT@@@Z @ 6998 NONAME
 ?accLocation@CBasePane@@UEAAJPEAJ000UtagVARIANT@@@Z @ 7001 NONAME
 ?accLocation@CMFCPropertyGridCtrl@@UEAAJPEAJ000UtagVARIANT@@@Z @ 7002 NONAME
 ?AccNotifyObjectFocusEvent@CMFCToolBar@@MEAAXH@Z @ 7004 NONAME
 ?accSelect@CBasePane@@UEAAJJUtagVARIANT@@@Z @ 7005 NONAME
 ?accSelect@CMFCPropertyGridCtrl@@UEAAJJUtagVARIANT@@@Z @ 7006 NONAME
 ?ActivateContextCategory@CMFCRibbonBar@@QEAAHI@Z @ 7008 NONAME
 ?ActivateFrame@CMDIChildWndEx@@UEAAXH@Z @ 7009 NONAME
 ?ActivateMDITab@CMFCTabCtrl@@QEAAXH@Z @ 7010 NONAME
 ?ActivatePopupMenu@CMFCPopupMenu@@SAHPEAVCFrameWnd@@PEAV1@@Z @ 7011 NONAME
 ?ActiveItemRecalcLayout@CFrameWndEx@@QEAAXXZ @ 7012 NONAME
 ?ActiveItemRecalcLayout@CMDIFrameWndEx@@QEAAXXZ @ 7013 NONAME
 ?AdaptColors@CMFCToolBarImages@@QEAAXKK@Z @ 7014 NONAME
 ?Add@CMFCRibbonMainPanel@@UEAAXPEAVCMFCRibbonBaseElement@@@Z @ 7015 NONAME
 ?Add@CMFCRibbonPanel@@UEAAXPEAVCMFCRibbonBaseElement@@@Z @ 7016 NONAME
 ?Add@CMFCRibbonQuickAccessToolBar@@IEAAXPEAVCMFCRibbonBaseElement@@@Z @ 7017 NONAME
 ?AddAutoHideWindow@CMFCAutoHideBar@@QEAAPEAVCMFCAutoHideButton@@PEAVCDockablePane@@K@Z @ 7018 NONAME
 ?AddBar@CMFCReBar@@QEAAHPEAVCWnd@@KKPEB_WK@Z @ 7019 NONAME
 ?AddBar@CMFCReBar@@QEAAHPEAVCWnd@@PEB_WPEAVCBitmap@@K@Z @ 7020 NONAME
 ?AddBasicCommand@CMFCToolBar@@SAXI@Z @ 7021 NONAME
 ?AddBitmapImage@CMFCOutlookBarPane@@IEAAHPEAUHBITMAP__@@@Z @ 7022 NONAME
 ?AddButton@CMFCOutlookBarPane@@QEAAHIIIH@Z @ 7023 NONAME
 ?AddButton@CMFCOutlookBarPane@@QEAAHIPEB_WIH@Z @ 7024 NONAME
 ?AddButton@CMFCOutlookBarPane@@QEAAHPEAUHBITMAP__@@PEB_WIH@Z @ 7025 NONAME
 ?AddButton@CMFCOutlookBarPane@@QEAAHPEAUHICON__@@PEB_WIHH@Z @ 7026 NONAME
 ?AddButton@CMFCOutlookBarPane@@QEAAHPEB_W0IH@Z @ 7027 NONAME
 ?AddButton@CMFCRibbonButtonsGroup@@QEAAXPEAVCMFCRibbonBaseElement@@@Z @ 7028 NONAME
 ?AddButton@CMFCTasksPaneFrameWnd@@MEAAXI@Z @ 7029 NONAME
 ?AddButton@CMFCToolBarButtonsListButton@@QEAAXPEAVCMFCToolBarButton@@@Z @ 7030 NONAME
 ?AddButton@CMFCToolBarsCustomizeDialog@@QEAAXIAEBVCMFCToolBarButton@@H@Z @ 7031 NONAME
 ?AddButton@CMFCToolBarsCustomizeDialog@@QEAAXPEB_WAEBVCMFCToolBarButton@@H@Z @ 7032 NONAME
 ?AddButton@CPaneFrameWnd@@MEAAXI@Z @ 7033 NONAME
 ?AddButton@CVSListBoxBase@@QEAAHIPEB_WGEI@Z @ 7034 NONAME
 ?AddButtons@CMFCRibbonButtonsGroup@@QEAAXAEBV?$CList@PEAVCMFCRibbonBaseElement@@PEAV1@@@@Z @ 7035 NONAME
 ?AddButtons@CMFCRibbonPanelMenuBar@@IEAAXPEAVCMFCRibbonBar@@AEBV?$CArray@PEAVCMFCRibbonBaseElement@@PEAV1@@@H@Z @ 7036 NONAME
 ?AddCategory@CMFCRibbonBar@@QEAAPEAVCMFCRibbonCategory@@PEB_WIIVCSize@@1HPEAUCRuntimeClass@@@Z @ 7037 NONAME
 ?AddCategoryToTree@CMFCPropertySheet@@IEAAXPEAVCMFCPropertySheetCategoryInfo@@@Z @ 7038 NONAME
 ?AddCmd@CMFCCmdUsageCount@@QEAAXI@Z @ 7039 NONAME
 ?AddColorsGroup@CMFCRibbonColorButton@@QEAAXPEB_WAEBV?$CList@KK@@H@Z @ 7040 NONAME
 ?AddCommand@CMFCRibbonCommandsListBox@@QEAAHPEAVCMFCRibbonBaseElement@@HH@Z @ 7041 NONAME
 ?AddCommand@CMFCRibbonQuickAccessToolBarDefaultState@@QEAAXIH@Z @ 7042 NONAME
 ?AddCommandUsage@CMFCToolBar@@SAXI@Z @ 7043 NONAME
 ?AddContextCategory@CMFCRibbonBar@@QEAAPEAVCMFCRibbonCategory@@PEB_W0IW4AFX_RibbonCategoryColor@@IIVCSize@@2PEAUCRuntimeClass@@@Z @ 7044 NONAME
 ?AddControl@CMFCOutlookBarTabCtrl@@QEAAXPEAVCWnd@@PEB_WHHK@Z @ 7045 NONAME
 ?AddCustomCategory@CMFCRibbonCustomizePropertyPage@@QEAAXPEB_WAEBV?$CList@II@@@Z @ 7046 NONAME
 ?AddDefaultButtonsToCustomizePane@CFrameImpl@@IEAAXPEAVCMFCPopupMenu@@I@Z @ 7047 NONAME
 ?AddDockSite@CDockingManager@@QEAAHAEBUAFX_DOCKSITE_INFO@@PEAPEAVCDockSite@@@Z @ 7048 NONAME
 ?AddDockSite@CFrameWndEx@@QEAAXXZ @ 7049 NONAME
 ?AddDockSite@CMDIChildWndEx@@QEAAXXZ @ 7050 NONAME
 ?AddDockSite@CMDIFrameWndEx@@QEAAXXZ @ 7051 NONAME
 ?AddDockSite@COleCntrFrameWndEx@@QEAAXXZ @ 7052 NONAME
 ?AddDockSite@COleDocIPFrameWndEx@@QEAAXXZ @ 7053 NONAME
 ?AddDockSite@COleIPFrameWndEx@@QEAAXXZ @ 7054 NONAME
 ?AddDynamicElement@CMFCRibbonStatusBar@@QEAAXPEAVCMFCRibbonBaseElement@@@Z @ 7055 NONAME
 ?AddElement@CMFCRibbonStatusBar@@QEAAXPEAVCMFCRibbonBaseElement@@PEB_WH@Z @ 7056 NONAME
 ?AddExtendedElement@CMFCRibbonStatusBar@@QEAAXPEAVCMFCRibbonBaseElement@@PEB_WH@Z @ 7057 NONAME
 ?AddFont@CMFCToolBarFontComboBox@@MEAAHPEAUtagENUMLOGFONTW@@HPEB_W@Z @ 7058 NONAME
 ?AddFrame@CFrameImpl@@SAXPEAVCFrameWnd@@@Z @ 7059 NONAME
 ?AddGroup@CMFCRibbonGallery@@QEAAXPEB_WAEAVCMFCToolBarImages@@@Z @ 7060 NONAME
 ?AddGroup@CMFCRibbonGallery@@QEAAXPEB_WH@Z @ 7061 NONAME
 ?AddGroup@CMFCRibbonGallery@@QEAAXPEB_WIH@Z @ 7062 NONAME
 ?AddGroup@CMFCTasksPane@@QEAAHHPEB_WHHPEAUHICON__@@@Z @ 7063 NONAME
 ?AddHidden@CMFCRibbonCategory@@QEAAXPEAVCMFCRibbonBaseElement@@@Z @ 7064 NONAME
 ?AddHiddenMDITabbedBar@CDockingManager@@QEAAXPEAVCDockablePane@@@Z @ 7065 NONAME
 ?AddIcon@CMFCToolBarImages@@QEAAHPEAUHICON__@@H@Z @ 7066 NONAME
 ?AddImage@CMFCToolBarImages@@QEAAHAEBV1@H@Z @ 7067 NONAME
 ?AddImage@CMFCToolBarImages@@QEAAHPEAUHBITMAP__@@H@Z @ 7068 NONAME
 ?AddImage@CMFCVisualManagerBitmapCacheItem@CMFCVisualManagerBitmapCache@@QEAAXPEAUHBITMAP__@@@Z @ 7069 NONAME
 ?AddItem@CMFCRibbonComboBox@@UEAA_JPEB_W_K@Z @ 7070 NONAME
 ?AddItem@CMFCToolBarComboBoxButton@@UEAA_JPEB_W_K@Z @ 7071 NONAME
 ?AddItem@CVSListBox@@UEAAHAEBV?$CStringT@_WV?$StrTraitMFC_DLL@_WV?$ChTraitsCRT@_W@ATL@@@@@ATL@@_KH@Z @ 7072 NONAME
 ?AddKeyEntry@CMFCRibbonKeyboardCustomizeDialog@@IEAAXPEAUtagACCEL@@@Z @ 7073 NONAME
 ?AddKeyEntry@CMFCToolBarsKeyboardPropertyPage@@IEAAXPEAUtagACCEL@@@Z @ 7074 NONAME
 ?AddMainCategory@CMFCRibbonBar@@QEAAPEAVCMFCRibbonMainPanel@@PEB_WIIVCSize@@1@Z @ 7075 NONAME
 ?AddMenu@CContextMenuManager@@QEAAHII@Z @ 7076 NONAME
 ?AddMenu@CContextMenuManager@@QEAAHPEB_WI@Z @ 7077 NONAME
 ?AddMenu@CMFCToolBarsCustomizeDialog@@QEAAHI@Z @ 7078 NONAME
 ?AddMenuCommands@CMFCToolBarsCustomizeDialog@@QEAAXPEBVCMenu@@HPEB_W1@Z @ 7079 NONAME
 ?AddMiniFrame@CDockingManager@@UEAAHPEAVCPaneFrameWnd@@@Z @ 7080 NONAME
 ?AddMRUFilesList@CMFCTasksPane@@QEAAHHH@Z @ 7081 NONAME
 ?AddNode@CPaneContainer@@IEAAXPEAV1@@Z @ 7082 NONAME
 ?AddOption@CMFCPropertyGridProperty@@QEAAHPEB_WH@Z @ 7083 NONAME
 ?AddPage@CMFCPropertySheet@@QEAAXPEAVCPropertyPage@@@Z @ 7084 NONAME
 ?AddPage@CMFCTasksPane@@QEAAHPEB_W@Z @ 7085 NONAME
 ?AddPageToTree@CMFCPropertySheet@@QEAAXPEAVCMFCPropertySheetCategoryInfo@@PEAVCMFCPropertyPage@@HH@Z @ 7086 NONAME
 ?AddPane@CBasePane@@QEAAXPEAV1@@Z @ 7087 NONAME
 ?AddPane@CDockingManager@@QEAAHPEAVCBasePane@@HHH@Z @ 7088 NONAME
 ?AddPane@CDockingPanesRow@@UEAAXPEAVCPane@@W4AFX_DOCK_METHOD@@PEBUtagRECT@@H@Z @ 7089 NONAME
 ?AddPane@CFrameWndEx@@QEAAHPEAVCBasePane@@H@Z @ 7090 NONAME
 ?AddPane@CMDIChildWndEx@@QEAAHPEAVCBasePane@@H@Z @ 7091 NONAME
 ?AddPane@CMDIFrameWndEx@@QEAAHPEAVCBasePane@@H@Z @ 7092 NONAME
 ?AddPane@CMultiPaneFrameWnd@@UEAAXPEAVCBasePane@@@Z @ 7093 NONAME
 ?AddPane@COleCntrFrameWndEx@@QEAAHPEAVCBasePane@@H@Z @ 7094 NONAME
 ?AddPane@COleDocIPFrameWndEx@@QEAAHPEAVCBasePane@@H@Z @ 7095 NONAME
 ?AddPane@COleIPFrameWndEx@@QEAAHPEAVCBasePane@@H@Z @ 7096 NONAME
 ?AddPane@CPaneContainer@@QEAAPEAVCDockablePane@@PEAV2@@Z @ 7097 NONAME
 ?AddPane@CPaneContainerManager@@UEAAXPEAVCDockablePane@@@Z @ 7098 NONAME
 ?AddPane@CPaneDivider@@UEAAXPEAVCDockablePane@@@Z @ 7099 NONAME
 ?AddPane@CPaneFrameWnd@@UEAAXPEAVCBasePane@@@Z @ 7100 NONAME
 ?AddPaneAndPaneContainer@CPaneContainerManager@@IEAAHPEAVCDockablePane@@PEAVCPaneContainer@@K@Z @ 7101 NONAME
 ?AddPaneAndPaneDivider@CPaneContainerManager@@IEAAHPEAVCDockablePane@@0PEAU__POSITION@@K@Z @ 7102 NONAME
 ?AddPaneContainer@CPaneDivider@@UEAAHAEAVCPaneContainerManager@@H@Z @ 7103 NONAME
 ?AddPaneContainer@CPaneDivider@@UEAAHPEAVCDockablePane@@AEAVCPaneContainerManager@@K@Z @ 7104 NONAME
 ?AddPaneContainerManager@CPaneContainerManager@@UEAAHAEAV1@H@Z @ 7105 NONAME
 ?AddPaneContainerManager@CPaneContainerManager@@UEAAHPEAVCDockablePane@@KAEAV1@H@Z @ 7106 NONAME
 ?AddPaneContainerManagerToDockablePane@CPaneContainerManager@@UEAAHPEAVCDockablePane@@AEAV1@@Z @ 7107 NONAME
 ?AddPaneFromRow@CDockingPanesRow@@UEAAXPEAVCPane@@W4AFX_DOCK_METHOD@@@Z @ 7108 NONAME
 ?AddPanel@CMFCRibbonCategory@@QEAAPEAVCMFCRibbonPanel@@PEB_WPEAUHICON__@@PEAUCRuntimeClass@@@Z @ 7109 NONAME
 ?AddPanesToList@CPaneContainerManager@@QEAAXPEAVCObList@@0@Z @ 7110 NONAME
 ?AddPaneToList@CPaneContainerManager@@QEAAXPEAVCDockablePane@@@Z @ 7111 NONAME
 ?AddPaneToRecentPaneContainer@CPaneContainerManager@@UEAAPEAVCDockablePane@@PEAV2@PEAVCPaneContainer@@@Z @ 7112 NONAME
 ?AddPrintPreviewCategory@CMFCRibbonBar@@QEAAPEAVCMFCRibbonCategory@@XZ @ 7113 NONAME
 ?AddProperty@CMFCPropertyGridCtrl@@QEAAHPEAVCMFCPropertyGridProperty@@HH@Z @ 7114 NONAME
 ?AddQATOnlyCategory@CMFCRibbonBar@@QEAAPEAVCMFCRibbonCategory@@PEB_WIVCSize@@@Z @ 7115 NONAME
 ?AddRecentFilesList@CMFCRibbonMainPanel@@QEAAXPEB_WH@Z @ 7116 NONAME
 ?AddRecentPane@CMultiPaneFrameWnd@@UEAAHPEAVCDockablePane@@@Z @ 7117 NONAME
 ?AddRecentPane@CPaneDivider@@UEAAPEAVCDockablePane@@PEAV2@@Z @ 7118 NONAME
 ?AddRef@CPaneContainer@@QEAAXXZ @ 7119 NONAME
 ?AddRemovePaneFromGlobalList@CPaneFrameWnd@@SAHPEAVCBasePane@@H@Z @ 7120 NONAME
 ?AddRemoveSeparator@CMFCToolBar@@MEAAXPEBVCMFCToolBarButton@@AEBVCPoint@@1@Z @ 7121 NONAME
 ?AddRow@CDockSite@@QEAAPEAVCDockingPanesRow@@PEAU__POSITION@@H@Z @ 7122 NONAME
 ?AddSeparator@CMFCRibbonPanel@@UEAAXXZ @ 7123 NONAME
 ?AddSeparator@CMFCRibbonStatusBar@@QEAAXXZ @ 7124 NONAME
 ?AddSortedItem@CMFCToolBarComboBoxButton@@UEAA_JPEB_W_K@Z @ 7125 NONAME
 ?AddString@CMFCDropDownListBox@@QEAAXPEB_W@Z @ 7126 NONAME
 ?AddSubItem@CMFCPropertyGridProperty@@QEAAHPEAV1@@Z @ 7127 NONAME
 ?AddSubItem@CMFCRibbonButton@@QEAAXPEAVCMFCRibbonBaseElement@@H@Z @ 7128 NONAME
 ?AddSubItem@CMFCRibbonGallery@@QEAAXPEAVCMFCRibbonBaseElement@@HH@Z @ 7129 NONAME
 ?AddSubPaneContainer@CPaneContainer@@QEAAHPEAV1@H@Z @ 7130 NONAME
 ?AddTab@CBaseTabbedPane@@UEAAHPEAVCWnd@@HHH@Z @ 7131 NONAME
 ?AddTab@CMFCBaseTabCtrl@@UEAAXPEAVCWnd@@IIH@Z @ 7132 NONAME
 ?AddTab@CMFCBaseTabCtrl@@UEAAXPEAVCWnd@@PEB_WIH@Z @ 7133 NONAME
 ?AddTabbedPane@CMDIChildWndEx@@QEAAXPEAVCDockablePane@@@Z @ 7134 NONAME
 ?AddTask@CMFCTasksPane@@QEAAHHPEB_WHIK@Z @ 7135 NONAME
 ?AddTearOffToolbar@CFrameImpl@@IEAAXPEAVCBasePane@@@Z @ 7136 NONAME
 ?AddTerminalProp@CMFCPropertyGridProperty@@IEAAXAEAV?$CList@PEAVCMFCPropertyGridProperty@@PEAV1@@@@Z @ 7137 NONAME
 ?AddToBottom@CMFCRibbonMainPanel@@QEAAXPEAVCMFCRibbonMainPanelButton@@@Z @ 7138 NONAME
 ?AddToKeyList@CMFCRibbonBaseElement@@UEAAXAEAV?$CArray@PEAVCMFCRibbonKeyTip@@PEAV1@@@@Z @ 7139 NONAME
 ?AddToKeyList@CMFCRibbonButtonsGroup@@MEAAXAEAV?$CArray@PEAVCMFCRibbonKeyTip@@PEAV1@@@@Z @ 7140 NONAME
 ?AddToListBox@CMFCRibbonBaseElement@@UEAAHPEAVCMFCRibbonCommandsListBox@@H@Z @ 7141 NONAME
 ?AddToListBox@CMFCRibbonButton@@MEAAHPEAVCMFCRibbonCommandsListBox@@H@Z @ 7142 NONAME
 ?AddToListBox@CMFCRibbonButtonsGroup@@MEAAHPEAVCMFCRibbonCommandsListBox@@H@Z @ 7143 NONAME
 ?AddToListBox@CMFCRibbonSeparator@@UEAAHPEAVCMFCRibbonCommandsListBox@@H@Z @ 7144 NONAME
 ?AddToolBar@CMFCRibbonPanel@@QEAAPEAVCMFCRibbonButtonsGroup@@IIII@Z @ 7145 NONAME
 ?AddToolBar@CMFCToolBarsCustomizeDialog@@QEAAHII@Z @ 7146 NONAME
 ?AddToolBar@CMFCToolBarsCustomizeDialog@@QEAAHPEB_WI@Z @ 7147 NONAME
 ?AddToolBarForImageCollection@CMFCToolBar@@SAHIIIIII@Z @ 7148 NONAME
 ?AddToRight@CMFCRibbonMainPanel@@QEAAXPEAVCMFCRibbonBaseElement@@H@Z @ 7149 NONAME
 ?AddToTabs@CMFCRibbonBar@@QEAAXPEAVCMFCRibbonBaseElement@@@Z @ 7150 NONAME
 ?AddTreeCategory@CMFCPropertySheet@@QEAAPEAVCMFCPropertySheetCategoryInfo@@PEB_WHHPEBV2@@Z @ 7151 NONAME
 ?AddUndoAction@CMFCRibbonUndoButton@@QEAAXPEB_W@Z @ 7152 NONAME
 ?AddUserTools@CMFCToolBarsCustomizeDialog@@IEAAXPEB_W@Z @ 7153 NONAME
 ?AddView@CMouseManager@@QEAAHHII@Z @ 7154 NONAME
 ?AddView@CMouseManager@@QEAAHHPEB_WI@Z @ 7155 NONAME
 ?AddView@CTabView@@QEAAHPEAUCRuntimeClass@@AEBV?$CStringT@_WV?$StrTraitMFC_DLL@_WV?$ChTraitsCRT@_W@ATL@@@@@ATL@@HPEAUCCreateContext@@@Z @ 7156 NONAME
 ?AddVirtKeyStr@CMFCAcceleratorKey@@IEBAXAEAV?$CStringT@_WV?$StrTraitMFC_DLL@_WV?$ChTraitsCRT@_W@ATL@@@@@ATL@@IH@Z @ 7157 NONAME
 ?AddWindow@CMFCTasksPane@@QEAAHHPEAUHWND__@@HHK@Z @ 7158 NONAME
 ?AdjustButtonRect@CMFCPropertyGridProperty@@UEAAXXZ @ 7159 NONAME
 ?AdjustClientArea@CFrameWndEx@@MEAAXXZ @ 7160 NONAME
 ?AdjustClientArea@CMDIChildWndEx@@IEAAXXZ @ 7161 NONAME
 ?AdjustClientArea@CMDIFrameWndEx@@UEAAXXZ @ 7162 NONAME
 ?AdjustClientArea@COleCntrFrameWndEx@@QEAAXXZ @ 7163 NONAME
 ?AdjustDockingLayout@CBasePane@@UEAAXPEAX@Z @ 7164 NONAME
 ?AdjustDockingLayout@CDockingManager@@UEAAXPEAX@Z @ 7165 NONAME
 ?AdjustDockingLayout@CDockSite@@UEAAXXZ @ 7166 NONAME
 ?AdjustDockingLayout@CFrameWndEx@@UEAAXPEAX@Z @ 7167 NONAME
 ?AdjustDockingLayout@CMDIChildWndEx@@UEAAXPEAX@Z @ 7168 NONAME
 ?AdjustDockingLayout@CMDIFrameWndEx@@UEAAXPEAX@Z @ 7169 NONAME
 ?AdjustDockingLayout@COleCntrFrameWndEx@@UEAAXPEAX@Z @ 7170 NONAME
 ?AdjustDockingLayout@COleDocIPFrameWndEx@@UEAAXPEAX@Z @ 7171 NONAME
 ?AdjustDockingLayout@COleIPFrameWndEx@@UEAAXPEAX@Z @ 7172 NONAME
 ?AdjustFrames@CMFCVisualManager@@SAXXZ @ 7173 NONAME
 ?AdjustInPlaceEditRect@CMFCPropertyGridColorProperty@@MEAAXAEAVCRect@@0@Z @ 7174 NONAME
 ?AdjustInPlaceEditRect@CMFCPropertyGridProperty@@UEAAXAEAVCRect@@0@Z @ 7175 NONAME
 ?AdjustLayout@CDockSite@@UEAAXXZ @ 7176 NONAME
 ?AdjustLayout@CMFCCaptionBar@@MEAAXXZ @ 7177 NONAME
 ?AdjustLayout@CMFCPopupMenuBar@@MEAAXXZ @ 7178 NONAME
 ?AdjustLayout@CMFCPropertyGridCtrl@@UEAAXXZ @ 7179 NONAME
 ?AdjustLayout@CMFCTasksPaneToolBar@@MEAAXXZ @ 7180 NONAME
 ?AdjustLayout@CMFCToolBar@@UEAAXXZ @ 7181 NONAME
 ?AdjustLayout@CPaneFrameWnd@@UEAAXXZ @ 7182 NONAME
 ?AdjustLayout@CVSListBoxBase@@IEAAXXZ @ 7183 NONAME
 ?AdjustLocations@CMFCColorBar@@MEAAXXZ @ 7184 NONAME
 ?AdjustLocations@CMFCMenuBar@@UEAAXXZ @ 7185 NONAME
 ?AdjustLocations@CMFCOutlookBarPane@@MEAAXXZ @ 7186 NONAME
 ?AdjustLocations@CMFCOutlookBarToolBar@@UEAAXXZ @ 7187 NONAME
 ?AdjustLocations@CMFCPopupMenuBar@@MEAAXXZ @ 7188 NONAME
 ?AdjustLocations@CMFCRibbonPanelMenuBar@@UEAAXXZ @ 7189 NONAME
 ?AdjustLocations@CMFCTasksPaneToolBar@@MEAAXXZ @ 7190 NONAME
 ?AdjustLocations@CMFCToolBar@@MEAAXXZ @ 7191 NONAME
 ?AdjustMDIChildren@CMDIClientAreaWnd@@AEAAXPEAVCMFCTabCtrl@@@Z @ 7192 NONAME
 ?AdjustPaneFrames@CDockingManager@@UEAAXXZ @ 7193 NONAME
 ?AdjustPaneFrames@CMultiPaneFrameWnd@@UEAAXXZ @ 7194 NONAME
 ?AdjustPaneToPaneContainer@CDockablePane@@MEAAXPEAVCPaneDivider@@@Z @ 7195 NONAME
 ?AdjustPaneToRowArea@CDockingPanesRow@@IEAAXPEAVCPane@@AEBVCRect@@AEAPEAX@Z @ 7196 NONAME
 ?AdjustPos@CSmartDockingGroupGuide@@UEAAXVCRect@@@Z @ 7197 NONAME
 ?AdjustPos@CSmartDockingGroupGuidesManager@@UEAAHVCRect@@H@Z @ 7198 NONAME
 ?AdjustPos@CSmartDockingStandaloneGuide@@UEAAXVCRect@@@Z @ 7199 NONAME
 ?AdjustRect@CMFCToolBarComboBoxButton@@IEAAXXZ @ 7200 NONAME
 ?AdjustRect@CMFCToolBarDateTimeCtrl@@IEAAXXZ @ 7201 NONAME
 ?AdjustRectToClientArea@CDockingManager@@UEAAHAEAVCRect@@K@Z @ 7202 NONAME
 ?AdjustRectToMargin@CMFCCaptionBar@@IEAAXAEAVCRect@@AEBV2@HH@Z @ 7203 NONAME
 ?AdjustRectToWorkArea@CGlobalUtils@@QEAAXAEAVCRect@@PEAV2@@Z @ 7204 NONAME
 ?AdjustScroll@CMFCPopupMenu@@IEAAHH@Z @ 7205 NONAME
 ?AdjustScroll@CMFCTasksPane@@IEAAXXZ @ 7206 NONAME
 ?AdjustSize@CMFCToolBar@@QEAAXXZ @ 7207 NONAME
 ?AdjustSizeImmediate@CPane@@UEAAXH@Z @ 7208 NONAME
 ?AdjustTabs@CMFCTabCtrl@@MEAAXXZ @ 7209 NONAME
 ?AdjustTabsScroll@CMFCTabCtrl@@MEAAXXZ @ 7210 NONAME
 ?AdjustToolbars@CMFCVisualManager@@SAXXZ @ 7211 NONAME
 ?AdjustWndScroll@CMFCTabCtrl@@MEAAXXZ @ 7212 NONAME
 ?AFX_WM_CHANGE_ACTIVE_TAB@@3IA @ 7216 NONAME DATA
 ?AFX_WM_CHANGE_CURRENT_FOLDER@@3IA @ 7217 NONAME DATA
 ?AFX_WM_CHANGEVISUALMANAGER@@3IA @ 7218 NONAME DATA
 ?AFX_WM_CHANGING_ACTIVE_TAB@@3IA @ 7219 NONAME DATA
 ?AFX_WM_CHECKEMPTYMINIFRAME@@3IA @ 7220 NONAME DATA
 ?AFX_WM_CREATETOOLBAR@@3IA @ 7221 NONAME DATA
 ?AFX_WM_CUSTOMIZEHELP@@3IA @ 7222 NONAME DATA
 ?AFX_WM_CUSTOMIZETOOLBAR@@3IA @ 7223 NONAME DATA
 ?AFX_WM_DELETETOOLBAR@@3IA @ 7224 NONAME DATA
 ?AFX_WM_GETDOCUMENTCOLORS@@3IA @ 7225 NONAME DATA
 ?AFX_WM_GETDRAGBOUNDS@@3IA @ 7226 NONAME DATA
 ?AFX_WM_ON_AFTER_SHELL_COMMAND@@3IA @ 7227 NONAME DATA
 ?AFX_WM_ON_BEFORE_SHOW_RIBBON_ITEM_MENU@@3IA @ 7228 NONAME DATA
 ?AFX_WM_ON_CANCELTABMOVE@@3IA @ 7229 NONAME DATA
 ?AFX_WM_ON_CHANGE_RIBBON_CATEGORY@@3IA @ 7230 NONAME DATA
 ?AFX_WM_ON_CLOSEPOPUPWINDOW@@3IA @ 7231 NONAME DATA
 ?AFX_WM_ON_DRAGCOMPLETE@@3IA @ 7232 NONAME DATA
 ?AFX_WM_ON_GET_TAB_TOOLTIP@@3IA @ 7233 NONAME DATA
 ?AFX_WM_ON_HIGHLIGHT_RIBBON_LIST_ITEM@@3IA @ 7234 NONAME DATA
 ?AFX_WM_ON_HSCROLL@@3IA @ 7235 NONAME DATA
 ?AFX_WM_ON_MOVE_TAB@@3IA @ 7236 NONAME DATA
 ?AFX_WM_ON_MOVETABCOMPLETE@@3IA @ 7237 NONAME DATA
 ?AFX_WM_ON_MOVETOTABGROUP@@3IA @ 7238 NONAME DATA
 ?AFX_WM_ON_PRESS_CLOSE_BUTTON@@3IA @ 7239 NONAME DATA
 ?AFX_WM_ON_RENAME_TAB@@3IA @ 7240 NONAME DATA
 ?AFX_WM_ON_RIBBON_CUSTOMIZE@@3IA @ 7241 NONAME DATA
 ?AFX_WM_ON_TABGROUPMOUSEMOVE@@3IA @ 7242 NONAME DATA
 ?AFX_WM_POSTRECALCLAYOUT@@3IA @ 7243 NONAME DATA
 ?AFX_WM_POSTSETPREVIEWFRAME@@3IA @ 7244 NONAME DATA
 ?AFX_WM_PROPERTY_CHANGED@@3IA @ 7245 NONAME DATA
 ?AFX_WM_RESETCONTEXTMENU@@3IA @ 7246 NONAME DATA
 ?AFX_WM_RESETKEYBOARD@@3IA @ 7247 NONAME DATA
 ?AFX_WM_RESETMENU@@3IA @ 7248 NONAME DATA
 ?AFX_WM_RESETRPROMPT@@3IA @ 7249 NONAME DATA
 ?AFX_WM_RESETTOOLBAR@@3IA @ 7250 NONAME DATA
 ?AFX_WM_SHOWREGULARMENU@@3IA @ 7251 NONAME DATA
 ?AFX_WM_TOOLBARMENU@@3IA @ 7252 NONAME DATA
 ?AFX_WM_UPDATETOOLTIPS@@3IA @ 7253 NONAME DATA
 ?AFX_WM_WINDOW_HELP@@3IA @ 7254 NONAME DATA
 ?AFXGetParentFrame@@YAPEAVCFrameWnd@@PEBVCWnd@@@Z @ 7255 NONAME
 ?AFXGetRegPath@@YA?AV?$CStringT@_WV?$StrTraitMFC_DLL@_WV?$ChTraitsCRT@_W@ATL@@@@@ATL@@PEB_W0@Z @ 7256 NONAME
 ?afxKeyboardManager@@3PEAVCKeyboardManager@@EA @ 7257 NONAME DATA
 ?AFXPlaySystemSound@@YAXH@Z @ 7258 NONAME
 ?AFXPrintPreview@@YAXPEAVCView@@@Z @ 7259 NONAME
 ?AfxRegCreateKey@@YAJPEAUHKEY__@@PEB_WPEAPEAU1@@Z @ 7260 NONAME
 ?AfxRegDeleteKey@@YAJPEAUHKEY__@@PEB_W@Z @ 7261 NONAME
 ?AfxRegOpenKey@@YAJPEAUHKEY__@@PEB_WPEAPEAU1@@Z @ 7262 NONAME
 ?AfxRegOpenKeyEx@@YAJPEAUHKEY__@@PEB_WKKPEAPEAU1@@Z @ 7263 NONAME
 ?AfxRegQueryValue@@YAJPEAUHKEY__@@PEB_WPEA_WPEAJ@Z @ 7264 NONAME
 ?AfxRegSetValue@@YAJPEAUHKEY__@@PEB_WK1K@Z @ 7265 NONAME
 ?AFXSoundThreadProc@@YAXPEAX@Z @ 7266 NONAME
 ?AFXTrackMouse@@YAHPEAUtagTRACKMOUSEEVENT@@@Z @ 7267 NONAME
 ?AFXTrackMouseTimerProc@@YAXPEAUHWND__@@IIK@Z @ 7268 NONAME
 ?afxUserToolsManager@@3PEAVCUserToolsManager@@EA @ 7269 NONAME DATA
 ?AlignAutoHidePane@CDockingManager@@QEAAXPEAVCPaneDivider@@H@Z @ 7270 NONAME
 ?AlignByRect@CDockingManager@@IEAAXAEBVCRect@@AEAV2@KHH@Z @ 7271 NONAME
 ?AlignDockSite@CDockSite@@QEAAXAEBVCRect@@AEAV2@H@Z @ 7272 NONAME
 ?AllocElements@CPane@@QEAAHHH@Z @ 7273 NONAME
 ?AnimTimerProc@CMFCRibbonStatusBarPane@@KAXPEAUHWND__@@I_KK@Z @ 7274 NONAME
 ?ApplyParams@CMDIClientAreaWnd@@AEAAXPEAVCMFCTabCtrl@@@Z @ 7275 NONAME
 ?ApplyRestoredTabInfo@CBaseTabbedPane@@UEAAXH@Z @ 7276 NONAME
 ?ApplyRestoredTabInfo@CMFCBaseTabCtrl@@UEAAXH@Z @ 7277 NONAME
 ?ArrangeCaptionButtons@CPaneFrameWnd@@IEAAXXZ @ 7278 NONAME
 ?ArrangePanes@CDockingPanesRow@@UEAAXHH@Z @ 7279 NONAME
 ?ArrangePanes@CDockingPanesRow@@UEAAXPEAVCPane@@@Z @ 7280 NONAME
 ?ArrangePanesRect@CDockingPanesRow@@IEAAXPEAVCPane@@@Z @ 7281 NONAME
 ?Assign@CSmartDockingStandaloneGuideWnd@@QEAAHPEAUHBITMAP__@@H@Z @ 7282 NONAME
 ?AttachToTabWnd@CDockablePane@@UEAAPEAV1@PEAV1@W4AFX_DOCK_METHOD@@HPEAPEAV1@@Z @ 7283 NONAME
 ?AutoGrayInactiveImages@CMFCToolBar@@SAXHHH@Z @ 7284 NONAME
 ?AutoHidePane@CDockingManager@@QEAAPEAVCMFCAutoHideBar@@PEAVCDockablePane@@PEAV2@@Z @ 7285 NONAME
 ?BeginTrans@CDockingPanesRow@@IEAAXXZ @ 7286 NONAME
 ?BitmapToClient@CMFCImagePaintArea@@IEAAXAEAVCRect@@@Z @ 7287 NONAME
 ?BringBarsToTop@CDockingManager@@QEAAXKH@Z @ 7288 NONAME
 ?BrowseCallbackProc@CShellManager@@KAHPEAUHWND__@@I_J1@Z @ 7289 NONAME
 ?BrowseForFolder@CShellManager@@QEAAHAEAV?$CStringT@_WV?$StrTraitMFC_DLL@_WV?$ChTraitsCRT@_W@ATL@@@@@ATL@@PEAVCWnd@@PEB_W2IPEAH@Z @ 7290 NONAME
 ?Build@CMenuTearOffManager@@QEAAXIAEAV?$CStringT@_WV?$StrTraitMFC_DLL@_WV?$ChTraitsCRT@_W@ATL@@@@@ATL@@@Z @ 7291 NONAME
 ?BuildFonts@CMFCRibbonFontComboBox@@QEAAXHEE@Z @ 7292 NONAME
 ?BuildOrigItems@CMFCMenuBar@@MEAAHI@Z @ 7293 NONAME
 ?BuildOrigItems@CMFCPopupMenuBar@@QEAAHI@Z @ 7294 NONAME
 ?BuildPanesMenu@CDockingManager@@QEAAXAEAVCMenu@@H@Z @ 7295 NONAME
 ?ButtonFromAutoHideWindow@CMFCAutoHideBar@@IEAAPEAVCMFCAutoHideButton@@PEAVCDockablePane@@@Z @ 7296 NONAME
 ?ButtonFromPoint@CMFCAutoHideBar@@IEAAPEAVCMFCAutoHideButton@@VCPoint@@@Z @ 7297 NONAME
 ?ButtonToIndex@CMFCToolBar@@QEBAHPEBVCMFCToolBarButton@@@Z @ 7298 NONAME
 ?Cache@CMFCVisualManagerBitmapCache@@QEAAHAEBVCSize@@AEAVCMFCControlRenderer@@@Z @ 7299 NONAME
 ?Cache@CMFCVisualManagerBitmapCacheItem@CMFCVisualManagerBitmapCache@@QEAAXAEBVCSize@@AEAVCMFCControlRenderer@@@Z @ 7300 NONAME
 ?CacheY@CMFCVisualManagerBitmapCache@@QEAAHHAEAVCMFCControlRenderer@@@Z @ 7301 NONAME
 ?CalcAvailablePaneSpace@CPaneContainer@@UEAAHHPEAVCPane@@PEAV1@H@Z @ 7302 NONAME
 ?CalcAvailableSize@CPane@@UEAA?AVCSize@@VCRect@@@Z @ 7303 NONAME
 ?CalcAvailableSpace@CPaneContainer@@UEAA?AVCSize@@V2@H@Z @ 7304 NONAME
 ?CalcBorderSize@CMFCTasksPaneFrameWnd@@UEBAXAEAVCRect@@@Z @ 7305 NONAME
 ?CalcBorderSize@CPaneFrameWnd@@UEBAXAEAVCRect@@@Z @ 7306 NONAME
 ?CalcCorrectOffset@CDockablePane@@IEAA?AVCPoint@@VCRect@@H@Z @ 7307 NONAME
 ?CalcEditMargin@CMFCPropertyGridCtrl@@IEAAXXZ @ 7308 NONAME
 ?CalcExpectedDockedRect@CDockingManager@@QEAAXPEAVCWnd@@VCPoint@@AEAVCRect@@AEAHPEAPEAVCDockablePane@@@Z @ 7309 NONAME
 ?CalcExpectedDockedRect@CGlobalUtils@@QEAAXAEAVCPaneContainerManager@@PEAVCWnd@@VCPoint@@AEAVCRect@@AEAHPEAPEAVCDockablePane@@@Z @ 7310 NONAME
 ?CalcExpectedDockedRect@CMultiPaneFrameWnd@@UEAAXPEAVCWnd@@VCPoint@@AEAVCRect@@AEAHPEAPEAVCDockablePane@@@Z @ 7311 NONAME
 ?CalcExpectedDockedRect@CPaneDivider@@UEAAXPEAVCWnd@@VCPoint@@AEAVCRect@@AEAHPEAPEAVCDockablePane@@@Z @ 7312 NONAME
 ?CalcFixedLayout@CDockablePane@@UEAA?AVCSize@@HH@Z @ 7313 NONAME
 ?CalcFixedLayout@CDockingPanesRow@@UEAA?AVCSize@@HH@Z @ 7314 NONAME
 ?CalcFixedLayout@CDockSite@@UEAA?AVCSize@@HH@Z @ 7315 NONAME
 ?CalcFixedLayout@CMFCAutoHideBar@@UEAA?AVCSize@@HH@Z @ 7316 NONAME
 ?CalcFixedLayout@CMFCCaptionBar@@MEAA?AVCSize@@HH@Z @ 7317 NONAME
 ?CalcFixedLayout@CMFCMenuBar@@UEAA?AVCSize@@HH@Z @ 7318 NONAME
 ?CalcFixedLayout@CMFCOutlookBarPane@@MEAA?AVCSize@@HH@Z @ 7319 NONAME
 ?CalcFixedLayout@CMFCReBar@@UEAA?AVCSize@@HH@Z @ 7320 NONAME
 ?CalcFixedLayout@CMFCRibbonBar@@MEAA?AVCSize@@HH@Z @ 7321 NONAME
 ?CalcFixedLayout@CMFCRibbonStatusBar@@MEAA?AVCSize@@HH@Z @ 7322 NONAME
 ?CalcFixedLayout@CMFCStatusBar@@UEAA?AVCSize@@HH@Z @ 7323 NONAME
 ?CalcFixedLayout@CMFCToolBar@@UEAA?AVCSize@@HH@Z @ 7324 NONAME
 ?CalcFixedLayout@CPaneDivider@@UEAA?AVCSize@@HH@Z @ 7325 NONAME
 ?CalcInsideRect@CPane@@QEBAXAEAVCRect@@H@Z @ 7326 NONAME
 ?CalcLastPaneOffset@CDockingPanesRow@@IEAAHXZ @ 7327 NONAME
 ?CalcLayout@CMFCMenuBar@@UEAA?AVCSize@@KH@Z @ 7328 NONAME
 ?CalcLayout@CMFCToolBar@@MEAA?AVCSize@@KH@Z @ 7329 NONAME
 ?CalcMaxButtonHeight@CMFCMenuBar@@UEAAHXZ @ 7330 NONAME
 ?CalcMaxButtonHeight@CMFCToolBar@@MEAAHXZ @ 7331 NONAME
 ?CalcMinSize@CPaneFrameWnd@@MEAAXAEAVCSize@@PEAUtagMINMAXINFO@@@Z @ 7332 NONAME
 ?CalcNcSize@CMFCControlBarImpl@@IEAAXPEAUtagNCCALCSIZE_PARAMS@@@Z @ 7333 NONAME
 ?CalcPaneOffset@CDockingManager@@IEAAXPEAVCAutoHideDockSite@@@Z @ 7334 NONAME
 ?CalcRecentDockedRect@CPane@@QEAAXXZ @ 7335 NONAME
 ?CalcRectForSliding@CDockablePane@@IEAAXAEAVCRect@@0H@Z @ 7336 NONAME
 ?CalcRects@CPaneContainerManager@@QEAAXAEAVCRect@@00AEAKKVCSize@@2@Z @ 7337 NONAME
 ?CalcSize@CMFCColorBar@@MEAA?AVCSize@@H@Z @ 7338 NONAME
 ?CalcSize@CMFCPopupMenuBar@@MEAA?AVCSize@@H@Z @ 7339 NONAME
 ?CalcSize@CMFCRibbonPanelMenuBar@@UEAA?AVCSize@@H@Z @ 7340 NONAME
 ?CalcSize@CMFCToolBar@@UEAA?AVCSize@@H@Z @ 7341 NONAME
 ?CalcSysButtonSize@CMFCMenuBar@@IEAAXXZ @ 7342 NONAME
 ?CalcTotalWidth@CMFCRibbonPanel@@IEAAHXZ @ 7343 NONAME
 ?CalculateRecentSize@CPaneContainer@@QEAAXXZ @ 7344 NONAME
 ?CalcWindowRect@CDockSite@@MEAAXPEAUtagRECT@@I@Z @ 7345 NONAME
 ?CalcWindowRect@CMDIClientAreaWnd@@MEAAXPEAUtagRECT@@I@Z @ 7346 NONAME
 ?CalcWindowRectForMDITabbedGroups@CMDIClientAreaWnd@@QEAAXPEAUtagRECT@@I@Z @ 7347 NONAME
 ?CanAcceptMiniFrame@CDockablePane@@UEBAHPEAVCPaneFrameWnd@@@Z @ 7348 NONAME
 ?CanAcceptPane@CAutoHideDockSite@@UEBAHPEBVCBasePane@@@Z @ 7349 NONAME
 ?CanAcceptPane@CDockSite@@UEBAHPEBVCBasePane@@@Z @ 7350 NONAME
 ?CanAcceptPane@CMFCOutlookBar@@UEBAHPEBVCBasePane@@@Z @ 7351 NONAME
 ?CanAutoHide@CDockablePane@@UEBAHXZ @ 7352 NONAME
 ?CanBeAddedToQuickAccessToolBar@CMFCRibbonBaseElement@@UEBAHXZ @ 7353 NONAME
 ?CanBeAttached@CGlobalUtils@@QEBAHPEAVCWnd@@@Z @ 7354 NONAME
 ?CanBeAttached@CPaneContainerManager@@UEBAHXZ @ 7355 NONAME
 ?CanBeDockedToPane@CMultiPaneFrameWnd@@UEBAHPEBVCDockablePane@@@Z @ 7356 NONAME
 ?CanBeDockedToPane@CPaneFrameWnd@@UEBAHPEBVCDockablePane@@@Z @ 7357 NONAME
 ?CanBeDropped@CMFCOutlookBarPaneButton@@UEAAHPEAVCMFCToolBar@@@Z @ 7358 NONAME
 ?CanBeRestored@CMFCToolBar@@UEBAHXZ @ 7359 NONAME
 ?CanBeStretched@CMFCRibbonButton@@UEAAHXZ @ 7360 NONAME
 ?CanBeTabbedDocument@CPane@@UEBAHXZ @ 7361 NONAME
 ?CancelMode@CMFCRibbonPanel@@IEAAXXZ @ 7362 NONAME
 ?CanFloat@CBasePane@@UEBAHXZ @ 7363 NONAME
 ?CanFloat@CBaseTabbedPane@@UEBAHXZ @ 7364 NONAME
 ?CanHandleSiblings@CMFCToolBar@@QEAAHXZ @ 7365 NONAME
 ?CanPaneBeInFloatingMultiPaneFrameWnd@CGlobalUtils@@QEBAHPEAVCWnd@@@Z @ 7366 NONAME
 ?CanShowFewerPageButtons@CMFCOutlookBarTabCtrl@@UEBAHXZ @ 7367 NONAME
 ?CanShowMorePageButtons@CMFCOutlookBarTabCtrl@@UEBAHXZ @ 7368 NONAME
 ?CauseCancelMode@CSmartDockingManager@@QEAAXXZ @ 7369 NONAME
 ?CenterElementsInColumn@CMFCRibbonPanel@@IEAAXHHH@Z @ 7370 NONAME
 ?ChangeActivePage@CMFCTasksPane@@IEAAXHH@Z @ 7371 NONAME
 ?CheckAlignment@CGlobalUtils@@QEBAHVCPoint@@PEAVCBasePane@@HPEBVCDockingManager@@HAEAKKPEBUtagRECT@@@Z @ 7372 NONAME
 ?CheckAndRemoveNonValidPane@CPaneContainerManager@@QEAAHPEAVCWnd@@@Z @ 7373 NONAME
 ?CheckArea@CMFCPopupMenu@@QEBA?AW4MENUAREA_TYPE@1@AEBVCPoint@@@Z @ 7374 NONAME
 ?CheckAutoHideCondition@CDockablePane@@MEAAHXZ @ 7375 NONAME
 ?CheckChar@CMFCMaskedEdit@@AEAAH_WH@Z @ 7376 NONAME
 ?CheckForMiniFrameAndCaption@CPaneContainerManager@@UEAAHVCPoint@@PEAPEAVCDockablePane@@@Z @ 7377 NONAME
 ?CheckGripperVisibility@CMultiPaneFrameWnd@@UEAAXXZ @ 7378 NONAME
 ?CheckNextPrevRadioButton@CMFCButton@@IEAAHH@Z @ 7379 NONAME
 ?CheckPaneDividerVisibility@CPaneContainer@@QEAAXXZ @ 7380 NONAME
 ?CheckPanes@CDockingPanesRow@@IEAAHAEAVCRect@@PEAVCPane@@_NVCPoint@@HAEAPEAX@Z @ 7381 NONAME
 ?CheckRectangle@CMFCCaptionBar@@IEAAHAEAVCRect@@AEBV2@H@Z @ 7382 NONAME
 ?CheckStopSlideCondition@CDockablePane@@MEAAHH@Z @ 7383 NONAME
 ?CheckTabbedBarAlignment@CTabbedPane@@MEAAHXZ @ 7384 NONAME
 ?CheckVisibility@CPaneDivider@@UEAAHXZ @ 7385 NONAME
 ?ChWindowFromPoint@@YAPEAUHWND__@@PEAU1@UtagPOINT@@@Z @ 7386 NONAME
 ?CleanState@CWinAppEx@@UEAAHPEB_W@Z @ 7387 NONAME
 ?CleanStyle@CMFCVisualManagerOffice2007@@SAXXZ @ 7388 NONAME
 ?CleanUp@CCommandManager@@QEAAXXZ @ 7389 NONAME
 ?CleanUp@CKeyboardManager@@SAXXZ @ 7390 NONAME
 ?CleanUp@CMenuHash@@QEAAXXZ @ 7391 NONAME
 ?CleanUp@CMenuImages@@SAXXZ @ 7392 NONAME
 ?CleanUp@CMFCBaseTabCtrl@@UEAAXXZ @ 7393 NONAME
 ?CleanUp@CMFCButton@@UEAAXXZ @ 7394 NONAME
 ?CleanUp@CMFCControlRenderer@@UEAAXXZ @ 7395 NONAME
 ?CleanUp@CMFCFontComboBox@@IEAAXXZ @ 7396 NONAME
 ?CleanUp@CMFCToolBarImages@@SAXXZ @ 7397 NONAME
 ?CleanUp@CMFCVisualManagerOffice2007@@MEAAXXZ @ 7398 NONAME
 ?CleanUp@CPaneContainer@@IEAAXXZ @ 7399 NONAME
 ?CleanUp@CRecentDockSiteInfo@@QEAAXXZ @ 7400 NONAME
 ?CleanUp@AFX_GLOBAL_DATA@@QEAAXXZ @ 7401 NONAME
 ?CleanUpAutoHideButtons@CMFCAutoHideBar@@IEAAXXZ @ 7402 NONAME
 ?CleanUpCustomizeItems@CMFCRibbonStatusBar@@IEAAXXZ @ 7403 NONAME
 ?CleanUpImages@CMFCToolBar@@SAXXZ @ 7404 NONAME
 ?CleanUpLockedImages@CMFCToolBar@@QEAAXXZ @ 7405 NONAME
 ?CleanUpSizes@CMFCRibbonButtonsGroup@@MEAAXXZ @ 7406 NONAME
 ?CleanUpSizes@CMFCRibbonCategory@@IEAAXXZ @ 7407 NONAME
 ?CleanUpSizes@CMFCRibbonPanel@@IEAAXXZ @ 7408 NONAME
 ?CleanUpThemes@CMFCBaseVisualManager@@IEAAXXZ @ 7409 NONAME
 ?CleanUpUndoList@CMFCRibbonUndoButton@@QEAAXXZ @ 7410 NONAME
 ?Clear@CMFCRibbonGallery@@UEAAXXZ @ 7411 NONAME
 ?Clear@CMFCToolBarImages@@QEAAXXZ @ 7412 NONAME
 ?Clear@CMFCVisualManagerBitmapCache@@QEAAXXZ @ 7413 NONAME
 ?ClearAll@CMFCOutlookBarPane@@QEAAXXZ @ 7414 NONAME
 ?ClearAllCmdImages@CCommandManager@@QEAAXXZ @ 7415 NONAME
 ?ClearCmdImage@CCommandManager@@QEAAXI@Z @ 7416 NONAME
 ?ClearData@CMFCRibbonComboBox@@MEAAXXZ @ 7417 NONAME
 ?ClearData@CMFCRibbonFontComboBox@@MEAAXXZ @ 7418 NONAME
 ?ClearFonts@CMFCToolBarFontComboBox@@KAXXZ @ 7419 NONAME
 ?ClearImageList@CMFCBaseTabCtrl@@UEAAXXZ @ 7420 NONAME
 ?ClearImages@CMFCButton@@IEAAXH@Z @ 7421 NONAME
 ?ClearUserCmdImages@CCommandManager@@QEAAXXZ @ 7422 NONAME
 ?Close@CSettingsStore@@UEAAXXZ @ 7423 NONAME
 ?CloseAllWindows@CMDIClientAreaWnd@@QEAAXPEAVCMFCTabCtrl@@@Z @ 7424 NONAME
 ?CloseColorPopup@CMFCPropertyGridCtrl@@UEAAXXZ @ 7425 NONAME
 ?CloseContextMenu@CMFCToolBarsMenuPropertyPage@@QEAAXPEAVCMFCPopupMenu@@@Z @ 7426 NONAME
 ?CloseDelayedSubMenu@CMFCPopupMenuBar@@UEAAXXZ @ 7427 NONAME
 ?CloseDelayedSubMenu@CMFCRibbonPanelMenuBar@@UEAAXXZ @ 7428 NONAME
 ?CloseMenu@CMFCPopupMenu@@QEAAXH@Z @ 7429 NONAME
 ?CloseMiniFrame@CMultiPaneFrameWnd@@UEAAXXZ @ 7430 NONAME
 ?CloseMiniFrame@CPaneFrameWnd@@MEAAXXZ @ 7431 NONAME
 ?ClosePopupMenu@CMFCRibbonBaseElement@@UEAAXXZ @ 7432 NONAME
 ?ClosePopupMenu@CMFCRibbonButton@@UEAAXXZ @ 7433 NONAME
 ?CollapseAllGroups@CMFCTasksPane@@QEAAXH@Z @ 7434 NONAME
 ?CollapseAllGroups@CMFCTasksPane@@QEAAXHH@Z @ 7435 NONAME
 ?CollapseGroup@CMFCTasksPane@@QEAAHPEAVCMFCTasksPaneTaskGroup@@H@Z @ 7436 NONAME
 ?CollapseSubmenus@CMFCPopupMenu@@IEAAXXZ @ 7437 NONAME
 ?CommandToIndex@CMFCStatusBar@@QEBAHI@Z @ 7438 NONAME
 ?CommandToIndex@CMFCToolBar@@QEBAHIH@Z @ 7439 NONAME
 ?CommitTrans@CDockingPanesRow@@IEAAXXZ @ 7440 NONAME
 ?CommonConstruct@CDialogEx@@IEAAXXZ @ 7441 NONAME
 ?CommonCreate@CMFCDesktopAlertWnd@@IEAAHVCPoint@@PEAVCMFCDesktopAlertWndInfo@@@Z @ 7442 NONAME
 ?CommonInit@CMFCControlRendererInfo@@QEAAXXZ @ 7443 NONAME
 ?CommonInit@CMFCCustomizeButton@@IEAAXXZ @ 7444 NONAME
 ?CommonInit@CMFCDropDownListBox@@IEAAXXZ @ 7445 NONAME
 ?CommonInit@CMFCHeaderCtrl@@IEAAXXZ @ 7446 NONAME
 ?CommonInit@CMFCPropertyPage@@IEAAXXZ @ 7447 NONAME
 ?CommonInit@CMFCPropertySheet@@IEAAXXZ @ 7448 NONAME
 ?CommonInit@CMFCRibbonButton@@IEAAXXZ @ 7449 NONAME
 ?CommonInit@CMFCRibbonCategory@@IEAAXPEAVCMFCRibbonBar@@PEB_WIIVCSize@@2@Z @ 7450 NONAME
 ?CommonInit@CMFCRibbonColorButton@@IEAAXXZ @ 7451 NONAME
 ?CommonInit@CMFCRibbonComboBox@@IEAAXXZ @ 7452 NONAME
 ?CommonInit@CMFCRibbonEdit@@IEAAXXZ @ 7453 NONAME
 ?CommonInit@CMFCRibbonGallery@@IEAAXXZ @ 7454 NONAME
 ?CommonInit@CMFCRibbonGalleryMenuButton@@IEAAXXZ @ 7455 NONAME
 ?CommonInit@CMFCRibbonPanel@@IEAAXPEB_WPEAUHICON__@@@Z @ 7456 NONAME
 ?CommonInit@CMFCRibbonPanelMenuBar@@IEAAXXZ @ 7457 NONAME
 ?CommonInit@CMFCRibbonProgressBar@@IEAAXXZ @ 7458 NONAME
 ?CommonInit@CMFCRibbonSlider@@IEAAXXZ @ 7459 NONAME
 ?CommonInit@CMFCRibbonStatusBarPane@@IEAAXXZ @ 7460 NONAME
 ?CommonInit@CMFCRibbonUndoButton@@IEAAXXZ @ 7461 NONAME
 ?Compare@CMFCToolBarComboBoxButton@@UEAAHPEB_W0@Z @ 7462 NONAME
 ?CompareItem@CMFCFontComboBox@@UEAAHPEAUtagCOMPAREITEMSTRUCT@@@Z @ 7463 NONAME
 ?CompareProc@CMFCListCtrl@@KAH_J00@Z @ 7464 NONAME
 ?CompareProc@CMFCShellTreeCtrl@@KAH_J00@Z @ 7465 NONAME
 ?CompareProps@CMFCPropertyGridCtrl@@MEBAHPEBVCMFCPropertyGridProperty@@0@Z @ 7466 NONAME
 ?CompareWith@CMFCToolBarButton@@UEBAHAEBV1@@Z @ 7467 NONAME
 ?CompareWith@CMFCToolBarMenuButton@@UEBAHAEBVCMFCToolBarButton@@@Z @ 7468 NONAME
 ?ConcatenateItem@CShellManager@@QEAAPEFAU_ITEMIDLIST@@PEFBU2@0@Z @ 7469 NONAME
 ?ContextToSize@CMFCColorBar@@QEAAXHH@Z @ 7470 NONAME
 ?ControlBarCleanUp@@YAXXZ @ 7471 NONAME
 ?ControlBarToTabbedDocument@CMDIFrameWndEx@@UEAAPEAVCMDIChildWndEx@@PEAVCDockablePane@@@Z @ 7472 NONAME
 ?ConvertToTabbedDocument@CBaseTabbedPane@@UEAAXH@Z @ 7473 NONAME
 ?ConvertToTabbedDocument@CDockablePane@@UEAAXH@Z @ 7474 NONAME
 ?ConvertToTabbedDocument@CMultiPaneFrameWnd@@UEAAXXZ @ 7475 NONAME
 ?ConvertToTabbedDocument@CPane@@UEAAXH@Z @ 7476 NONAME
 ?ConvertToTabbedDocument@CPaneFrameWnd@@UEAAXXZ @ 7477 NONAME
 ?Copy@CPaneContainer@@UEAAPEAV1@PEAV1@@Z @ 7478 NONAME
 ?CopyButtonsList@CMFCOutlookBarPane@@IEAAXAEBVCObList@@AEAV2@@Z @ 7479 NONAME
 ?CopyFrom@CMFCColorMenuButton@@MEAAXAEBVCMFCToolBarButton@@@Z @ 7480 NONAME
 ?CopyFrom@CMFCCustomizeButton@@UEAAXAEBVCMFCToolBarButton@@@Z @ 7481 NONAME
 ?CopyFrom@CMFCCustomizeMenuButton@@MEAAXAEBVCMFCToolBarButton@@@Z @ 7482 NONAME
 ?CopyFrom@CMFCDropDownToolbarButton@@UEAAXAEBVCMFCToolBarButton@@@Z @ 7483 NONAME
 ?CopyFrom@CMFCRibbonBaseElement@@UEAAXAEBV1@@Z @ 7484 NONAME
 ?CopyFrom@CMFCRibbonButton@@MEAAXAEBVCMFCRibbonBaseElement@@@Z @ 7485 NONAME
 ?CopyFrom@CMFCRibbonButtonsGroup@@MEAAXAEBVCMFCRibbonBaseElement@@@Z @ 7486 NONAME
 ?CopyFrom@CMFCRibbonCategory@@UEAAXAEAV1@@Z @ 7487 NONAME
 ?CopyFrom@CMFCRibbonColorButton@@MEAAXAEBVCMFCRibbonBaseElement@@@Z @ 7488 NONAME
 ?CopyFrom@CMFCRibbonComboBox@@MEAAXAEBVCMFCRibbonBaseElement@@@Z @ 7489 NONAME
 ?CopyFrom@CMFCRibbonDefaultPanelButton@@UEAAXAEBVCMFCRibbonBaseElement@@@Z @ 7490 NONAME
 ?CopyFrom@CMFCRibbonEdit@@UEAAXAEBVCMFCRibbonBaseElement@@@Z @ 7491 NONAME
 ?CopyFrom@CMFCRibbonFontComboBox@@MEAAXAEBVCMFCRibbonBaseElement@@@Z @ 7492 NONAME
 ?CopyFrom@CMFCRibbonGallery@@MEAAXAEBVCMFCRibbonBaseElement@@@Z @ 7493 NONAME
 ?CopyFrom@CMFCRibbonGalleryIcon@@MEAAXAEBVCMFCRibbonBaseElement@@@Z @ 7494 NONAME
 ?CopyFrom@CMFCRibbonGalleryMenuButton@@UEAAXAEBVCMFCToolBarButton@@@Z @ 7495 NONAME
 ?CopyFrom@CMFCRibbonLinkCtrl@@UEAAXAEBVCMFCRibbonBaseElement@@@Z @ 7496 NONAME
 ?CopyFrom@CMFCRibbonMainPanel@@MEAAXAEAVCMFCRibbonPanel@@@Z @ 7497 NONAME
 ?CopyFrom@CMFCRibbonPanel@@MEAAXAEAV1@@Z @ 7498 NONAME
 ?CopyFrom@CMFCRibbonProgressBar@@MEAAXAEBVCMFCRibbonBaseElement@@@Z @ 7499 NONAME
 ?CopyFrom@CMFCRibbonQuickAccessToolBarDefaultState@@QEAAXAEBV1@@Z @ 7500 NONAME
 ?CopyFrom@CMFCRibbonSeparator@@MEAAXAEBVCMFCRibbonBaseElement@@@Z @ 7501 NONAME
 ?CopyFrom@CMFCRibbonSlider@@MEAAXAEBVCMFCRibbonBaseElement@@@Z @ 7502 NONAME
 ?CopyFrom@CMFCRibbonStatusBarPane@@MEAAXAEBVCMFCRibbonBaseElement@@@Z @ 7503 NONAME
 ?CopyFrom@CMFCRibbonTab@@EEAAXAEBVCMFCRibbonBaseElement@@@Z @ 7504 NONAME
 ?CopyFrom@CMFCRibbonUndoButton@@MEAAXAEBVCMFCRibbonBaseElement@@@Z @ 7505 NONAME
 ?CopyFrom@CMFCToolBarButton@@UEAAXAEBV1@@Z @ 7506 NONAME
 ?CopyFrom@CMFCToolBarComboBoxButton@@UEAAXAEBVCMFCToolBarButton@@@Z @ 7507 NONAME
 ?CopyFrom@CMFCToolBarDateTimeCtrl@@UEAAXAEBVCMFCToolBarButton@@@Z @ 7508 NONAME
 ?CopyFrom@CMFCToolBarEditBoxButton@@UEAAXAEBVCMFCToolBarButton@@@Z @ 7509 NONAME
 ?CopyFrom@CMFCToolBarFontComboBox@@MEAAXAEBVCMFCToolBarButton@@@Z @ 7510 NONAME
 ?CopyFrom@CMFCToolBarMenuButton@@UEAAXAEBVCMFCToolBarButton@@@Z @ 7511 NONAME
 ?CopyFrom@CMFCToolBarMenuButtonsButton@@UEAAXAEBVCMFCToolBarButton@@@Z @ 7512 NONAME
 ?CopyFrom@CMFCToolBarSpinEditBoxButton@@MEAAXAEBVCMFCToolBarButton@@@Z @ 7513 NONAME
 ?CopyFrom@CMFCToolBarSystemMenuButton@@UEAAXAEBVCMFCToolBarButton@@@Z @ 7514 NONAME
 ?CopyFrom@CRibbonCategoryScroll@@EEAAXAEBVCMFCRibbonBaseElement@@@Z @ 7515 NONAME
 ?CopyIconToClipboard@CUserTool@@QEAAHXZ @ 7516 NONAME
 ?CopyImageToClipboard@CMFCToolBarImages@@QEAAHH@Z @ 7517 NONAME
 ?CopyItem@CShellManager@@QEAAPEFAU_ITEMIDLIST@@PEFBU2@@Z @ 7518 NONAME
 ?CopyKeyMap@CMFCKeyMapDialog@@MEAAXXZ @ 7519 NONAME
 ?CopyOriginalMenuItemsFromMenu@CContextMenuManager@@IEAAXIAEAVCMFCPopupMenuBar@@@Z @ 7520 NONAME
 ?CopyOriginalMenuItemsToMenu@CContextMenuManager@@IEAAXIAEAVCMFCPopupMenuBar@@@Z @ 7521 NONAME
 ?CopyState@CBasePane@@UEAAXPEAV1@@Z @ 7522 NONAME
 ?CopyState@CDockablePane@@UEAAXPEAV1@@Z @ 7523 NONAME
 ?CopyState@CPane@@UEAAXPEAV1@@Z @ 7524 NONAME
 ?CopyTemp@CMFCToolBarImages@@IEAAXAEAV1@@Z @ 7525 NONAME
 ?CopyTo@CMFCToolBarImages@@QEAAHAEAV1@@Z @ 7526 NONAME
 ?CopyTo@CSmartDockingInfo@@QEAAXAEAV1@@Z @ 7527 NONAME
 ?Create@CDockablePane@@UEAAHPEB_WPEAVCWnd@@AEBUtagRECT@@HIKKKPEAUCCreateContext@@@Z @ 7528 NONAME
 ?Create@CDockablePane@@UEAAHPEB_WPEAVCWnd@@VCSize@@HIKKK@Z @ 7529 NONAME
 ?Create@CDockingManager@@QEAAHPEAVCFrameWnd@@@Z @ 7530 NONAME
 ?Create@CDockSite@@UEAAHKAEBUtagRECT@@PEAVCWnd@@KPEAUCCreateContext@@@Z @ 7531 NONAME
 ?Create@CMFCAutoHideButton@@UEAAHPEAVCMFCAutoHideBar@@PEAVCDockablePane@@K@Z @ 7532 NONAME
 ?Create@CMFCCaptionBar@@QEAAHKPEAVCWnd@@IHH@Z @ 7533 NONAME
 ?Create@CMFCColorBar@@UEAAHPEAVCWnd@@KIPEAVCPalette@@HHH@Z @ 7534 NONAME
 ?Create@CMFCControlRenderer@@UEAAHAEBVCMFCControlRendererInfo@@H@Z @ 7535 NONAME
 ?Create@CMFCDesktopAlertWnd@@UEAAHPEAVCWnd@@AEAVCMFCDesktopAlertWndInfo@@PEAUHMENU__@@VCPoint@@@Z @ 7536 NONAME
 ?Create@CMFCDesktopAlertWnd@@UEAAHPEAVCWnd@@IPEAUHMENU__@@VCPoint@@PEAUCRuntimeClass@@@Z @ 7537 NONAME
 ?Create@CMFCDropDownFrame@@UEAAHPEAVCWnd@@HHPEAVCMFCDropDownToolBar@@@Z @ 7538 NONAME
 ?Create@CMFCMenuBar@@UEAAHPEAVCWnd@@KI@Z @ 7539 NONAME
 ?Create@CMFCOutlookBar@@UEAAHPEB_WPEAVCWnd@@AEBUtagRECT@@IKKPEAUCCreateContext@@@Z @ 7540 NONAME
 ?Create@CMFCOutlookBarPane@@UEAAHPEAVCWnd@@KIK@Z @ 7541 NONAME
 ?Create@CMFCOutlookBarTabCtrl@@UEAAHAEBVCRect@@PEAVCWnd@@I@Z @ 7542 NONAME
 ?Create@CMFCPopupMenu@@UEAAHPEAVCWnd@@HHPEAUHMENU__@@HH@Z @ 7543 NONAME
 ?Create@CMFCPropertyGridCtrl@@UEAAHKAEBUtagRECT@@PEAVCWnd@@I@Z @ 7544 NONAME
 ?Create@CMFCPropertyGridToolTipCtrl@@UEAAHPEAVCWnd@@@Z @ 7545 NONAME
 ?Create@CMFCReBar@@QEAAHPEAVCWnd@@KKI@Z @ 7546 NONAME
 ?Create@CMFCRibbonBar@@QEAAHPEAVCWnd@@KI@Z @ 7547 NONAME
 ?Create@CMFCRibbonStatusBar@@QEAAHPEAVCWnd@@KI@Z @ 7548 NONAME
 ?Create@CMFCStatusBar@@QEAAHPEAVCWnd@@KI@Z @ 7549 NONAME
 ?Create@CMFCTabCtrl@@QEAAHW4Style@1@AEBUtagRECT@@PEAVCWnd@@IW4Location@CMFCBaseTabCtrl@@H@Z @ 7550 NONAME
 ?Create@CMFCToolBar@@UEAAHPEAVCWnd@@KI@Z @ 7551 NONAME
 ?Create@CMFCToolBarsCustomizeDialog@@UEAAHXZ @ 7552 NONAME
 ?Create@CPane@@UEAAHPEB_WKAEBUtagRECT@@PEAVCWnd@@IKPEAUCCreateContext@@@Z @ 7553 NONAME
 ?Create@CPaneContainerManager@@UEAAHPEAVCWnd@@PEAVCPaneDivider@@PEAUCRuntimeClass@@@Z @ 7554 NONAME
 ?Create@CPaneDialog@@QEAAHPEB_WPEAVCWnd@@H0IIKK@Z @ 7555 NONAME
 ?Create@CPaneDialog@@QEAAHPEB_WPEAVCWnd@@HIII@Z @ 7556 NONAME
 ?Create@CPaneDivider@@UEAAHKAEBUtagRECT@@PEAVCWnd@@IPEAUCCreateContext@@@Z @ 7557 NONAME
 ?Create@CPaneFrameWnd@@UEAAHPEB_WKAEBUtagRECT@@PEAVCWnd@@PEAUCCreateContext@@@Z @ 7558 NONAME
 ?Create@CScreenWnd@@UEAAHPEAVCMFCColorDialog@@@Z @ 7559 NONAME
 ?Create@CSettingsStoreSP@@QEAAAEAVCSettingsStore@@HH@Z @ 7560 NONAME
 ?Create@CSmartDockingGroupGuide@@MEAAXW4SDMarkerPlace@CSmartDockingStandaloneGuide@@PEAVCSmartDockingGroupGuidesManager@@@Z @ 7561 NONAME
 ?Create@CSmartDockingGroupGuide@@UEAAXW4SDMarkerPlace@CSmartDockingStandaloneGuide@@PEAVCWnd@@@Z @ 7562 NONAME
 ?Create@CSmartDockingGroupGuidesManager@@UEAAXPEAVCWnd@@@Z @ 7563 NONAME
 ?Create@CSmartDockingHighlighterWnd@@QEAAXPEAVCWnd@@@Z @ 7564 NONAME
 ?Create@CSmartDockingManager@@QEAAXPEAVCWnd@@PEAUCRuntimeClass@@1@Z @ 7565 NONAME
 ?Create@CSmartDockingStandaloneGuide@@UEAAXW4SDMarkerPlace@1@PEAVCWnd@@@Z @ 7566 NONAME
 ?Create@CSmartDockingStandaloneGuideWnd@@QEAAHPEAUtagRECT@@PEAUHBITMAP__@@PEAUHRGN__@@PEAVCWnd@@HH@Z @ 7567 NONAME
 ?CreateAutoHideButtonRegion@CMFCVisualManagerVS2005@@IEAAHVCRect@@KAEAPEAUtagPOINT@@@Z @ 7568 NONAME
 ?CreateBoldFont@CMFCPropertyGridCtrl@@IEAAXXZ @ 7569 NONAME
 ?CreateCombo@CMFCPropertyGridProperty@@MEAAPEAVCComboBox@@PEAVCWnd@@VCRect@@@Z @ 7570 NONAME
 ?CreateCombo@CMFCToolBarComboBoxButton@@UEAAPEAVCComboBox@@PEAVCWnd@@AEBVCRect@@@Z @ 7571 NONAME
 ?CreateCombo@CMFCToolBarFontComboBox@@MEAAPEAVCComboBox@@PEAVCWnd@@AEBVCRect@@@Z @ 7572 NONAME
 ?CreateCombo@CMFCToolBarFontSizeComboBox@@MEAAPEAVCComboBox@@PEAVCWnd@@AEBVCRect@@@Z @ 7573 NONAME
 ?CreateControl@CMFCColorBar@@UEAAHPEAVCWnd@@AEBVCRect@@IHPEAVCPalette@@@Z @ 7574 NONAME
 ?CreateCopy@CMenuImages@@KAXAEAVCMFCToolBarImages@@K@Z @ 7575 NONAME
 ?CreateCustomPage@CMFCOutlookBar@@QEAAPEAVCMFCOutlookBarPane@@PEB_WHKH@Z @ 7576 NONAME
 ?CreateDateTimeCtrl@CMFCToolBarDateTimeCtrl@@MEAAPEAVCMFCToolBarDateTimeCtrlImpl@@PEAVCWnd@@AEBVCRect@@@Z @ 7577 NONAME
 ?CreateDefaultMiniframe@CMFCTasksPane@@UEAAPEAVCPaneFrameWnd@@VCRect@@@Z @ 7578 NONAME
 ?CreateDefaultMiniframe@CPane@@UEAAPEAVCPaneFrameWnd@@VCRect@@@Z @ 7579 NONAME
 ?CreateDefaultPaneDivider@CDockablePane@@SAPEAVCPaneDivider@@KPEAVCWnd@@PEAUCRuntimeClass@@@Z @ 7580 NONAME
 ?CreateDitherBitmap@AFX_GLOBAL_DATA@@IEAAPEAUHBITMAP__@@PEAUHDC__@@@Z @ 7581 NONAME
 ?CreateDocumentWindow@CMDIFrameWndEx@@UEAAPEAVCMDIChildWndEx@@PEB_WPEAVCObject@@@Z @ 7582 NONAME
 ?CreateDroppedButton@CMFCOutlookBarPane@@MEAAPEAVCMFCToolBarButton@@PEAVCOleDataObject@@@Z @ 7583 NONAME
 ?CreateDroppedButton@CMFCPopupMenuBar@@MEAAPEAVCMFCToolBarButton@@PEAVCOleDataObject@@@Z @ 7584 NONAME
 ?CreateDroppedButton@CMFCToolBar@@MEAAPEAVCMFCToolBarButton@@PEAVCOleDataObject@@@Z @ 7585 NONAME
 ?CreateEdit@CMFCRibbonEdit@@UEAAPEAVCMFCRibbonRichEditCtrl@@PEAVCWnd@@K@Z @ 7586 NONAME
 ?CreateEdit@CMFCToolBarComboBoxButton@@UEAAPEAVCMFCToolBarComboBoxEdit@@PEAVCWnd@@AEBVCRect@@K@Z @ 7587 NONAME
 ?CreateEdit@CMFCToolBarEditBoxButton@@UEAAPEAVCEdit@@PEAVCWnd@@AEBVCRect@@@Z @ 7588 NONAME
 ?CreateEdit@CMFCToolBarSpinEditBoxButton@@MEAAPEAVCEdit@@PEAVCWnd@@AEBVCRect@@@Z @ 7589 NONAME
 ?CreateEx@CBasePane@@UEAAHKPEB_W0KAEBUtagRECT@@PEAVCWnd@@IKPEAUCCreateContext@@@Z @ 7590 NONAME
 ?CreateEx@CDockablePane@@UEAAHKPEB_WPEAVCWnd@@AEBUtagRECT@@HIKKKPEAUCCreateContext@@@Z @ 7591 NONAME
 ?CreateEx@CDockSite@@UEAAHKKAEBUtagRECT@@PEAVCWnd@@KPEAUCCreateContext@@@Z @ 7592 NONAME
 ?CreateEx@CMFCMenuBar@@UEAAHPEAVCWnd@@KKVCRect@@I@Z @ 7593 NONAME
 ?CreateEx@CMFCRibbonBar@@QEAAHPEAVCWnd@@KKI@Z @ 7594 NONAME
 ?CreateEx@CMFCRibbonStatusBar@@QEAAHPEAVCWnd@@KKI@Z @ 7595 NONAME
 ?CreateEx@CMFCStatusBar@@QEAAHPEAVCWnd@@KKI@Z @ 7596 NONAME
 ?CreateEx@CMFCToolBar@@UEAAHPEAVCWnd@@KKVCRect@@I@Z @ 7597 NONAME
 ?CreateEx@CPane@@UEAAHKPEB_WKAEBUtagRECT@@PEAVCWnd@@IKPEAUCCreateContext@@@Z @ 7598 NONAME
 ?CreateEx@CPaneDivider@@UEAAHKKAEBUtagRECT@@PEAVCWnd@@IPEAUCCreateContext@@@Z @ 7599 NONAME
 ?CreateEx@CPaneFrameWnd@@UEAAHKPEB_WKAEBUtagRECT@@PEAVCWnd@@PEAUCCreateContext@@@Z @ 7600 NONAME
 ?CreateFonts@CMFCTasksPane@@IEAAXXZ @ 7601 NONAME
 ?CreateFromImageList@CMFCToolBarImages@@QEAAHAEBVCImageList@@@Z @ 7602 NONAME
 ?CreateFromMenu@CMFCMenuBar@@UEAAXPEAUHMENU__@@HH@Z @ 7603 NONAME
 ?CreateFromMenu@CMFCToolBarMenuButton@@UEAAXPEAUHMENU__@@@Z @ 7604 NONAME
 ?CreateFromMenu@CMFCToolBarSystemMenuButton@@UEAAXPEAUHMENU__@@@Z @ 7605 NONAME
 ?CreateFromOleData@CMFCToolBarButton@@SAPEAV1@PEAVCOleDataObject@@@Z @ 7606 NONAME
 ?CreateFromParams@CMFCDesktopAlertDialog@@QEAAHAEAVCMFCDesktopAlertWndInfo@@PEAVCMFCDesktopAlertWnd@@@Z @ 7607 NONAME
 ?CreateGripperBrush@CMFCVisualManagerOfficeXP@@MEAAXXZ @ 7608 NONAME
 ?CreateHexagon@CMFCColorPickerCtrl@@IEAAXXZ @ 7609 NONAME
 ?CreateHexGreyScaleBar@CMFCColorPickerCtrl@@IEAAXXZ @ 7610 NONAME
 ?CreateIcons@CMFCRibbonGallery@@IEAAXXZ @ 7611 NONAME
 ?CreateInPlaceEdit@CMFCPropertyGridProperty@@UEAAPEAVCWnd@@VCRect@@AEAH@Z @ 7612 NONAME
 ?CreateItem@CShellManager@@QEAAPEFAU_ITEMIDLIST@@I@Z @ 7613 NONAME
 ?CreateKey@CSettingsStore@@UEAAHPEB_W@Z @ 7614 NONAME
 ?CreateMask@CMFCToolBarImages@@IEAAXHHH@Z @ 7615 NONAME
 ?CreateMenu@CMFCTasksPane@@QEBAPEAUHMENU__@@XZ @ 7616 NONAME
 ?CreateMenu@CMFCToolBarMenuButton@@UEBAPEAUHMENU__@@XZ @ 7617 NONAME
 ?CreateMenu@CMFCToolBarSystemMenuButton@@UEBAPEAUHMENU__@@XZ @ 7618 NONAME
 ?CreateNavigationToolbar@CMFCTasksPane@@IEAAHXZ @ 7619 NONAME
 ?CreateNewItem@CVSListBoxBase@@MEAAXXZ @ 7620 NONAME
 ?CreateNewTabGroup@CMDIClientAreaWnd@@AEAAPEAVCMFCTabCtrl@@PEAV2@VCRect@@H@Z @ 7621 NONAME
 ?CreateNewTool@CMFCToolBarsToolsPropertyPage@@IEAAPEAVCUserTool@@XZ @ 7622 NONAME
 ?CreateNewTool@CUserToolsManager@@QEAAPEAVCUserTool@@XZ @ 7623 NONAME
 ?CreateNewToolBar@CFrameImpl@@IEAAPEBVCMFCToolBar@@PEB_W@Z @ 7624 NONAME
 ?CreateNewWindow@CMDIFrameWndEx@@UEAAPEAVCMDIChildWndEx@@PEB_WPEAVCObject@@@Z @ 7625 NONAME
 ?CreateObject@CAutoHideDockSite@@SAPEAVCObject@@XZ @ 7626 NONAME
 ?CreateObject@CDockablePane@@SAPEAVCObject@@XZ @ 7627 NONAME
 ?CreateObject@CDockablePaneAdapter@@SAPEAVCObject@@XZ @ 7628 NONAME
 ?CreateObject@CDockSite@@SAPEAVCObject@@XZ @ 7629 NONAME
 ?CreateObject@CFrameWndEx@@SAPEAVCObject@@XZ @ 7630 NONAME
 ?CreateObject@CHelpComboBoxButton@@SAPEAVCObject@@XZ @ 7631 NONAME
 ?CreateObject@CMDIChildWndEx@@SAPEAVCObject@@XZ @ 7632 NONAME
 ?CreateObject@CMDIFrameWndEx@@SAPEAVCObject@@XZ @ 7633 NONAME
 ?CreateObject@CMFCAutoHideButton@@SAPEAVCObject@@XZ @ 7634 NONAME
 ?CreateObject@CMFCAutoHideBar@@SAPEAVCObject@@XZ @ 7635 NONAME
 ?CreateObject@CMFCBaseToolBar@@SAPEAVCObject@@XZ @ 7636 NONAME
 ?CreateObject@CMFCButton@@SAPEAVCObject@@XZ @ 7637 NONAME
 ?CreateObject@CMFCCaptionBar@@SAPEAVCObject@@XZ @ 7638 NONAME
 ?CreateObject@CMFCColorBar@@SAPEAVCObject@@XZ @ 7639 NONAME
 ?CreateObject@CMFCColorMenuButton@@SAPEAVCObject@@XZ @ 7640 NONAME
 ?CreateObject@CMFCControlRenderer@@SAPEAVCObject@@XZ @ 7641 NONAME
 ?CreateObject@CMFCCustomColorsPropertyPage@@SAPEAVCObject@@XZ @ 7642 NONAME
 ?CreateObject@CMFCCustomizeButton@@SAPEAVCObject@@XZ @ 7643 NONAME
 ?CreateObject@CMFCCustomizeMenuButton@@SAPEAVCObject@@XZ @ 7644 NONAME
 ?CreateObject@CMFCDesktopAlertDialog@@SAPEAVCObject@@XZ @ 7645 NONAME
 ?CreateObject@CMFCDropDownFrame@@SAPEAVCObject@@XZ @ 7646 NONAME
 ?CreateObject@CMFCDropDownToolBar@@SAPEAVCObject@@XZ @ 7647 NONAME
 ?CreateObject@CMFCDropDownToolbarButton@@SAPEAVCObject@@XZ @ 7648 NONAME
 ?CreateObject@CMFCMenuBar@@SAPEAVCObject@@XZ @ 7649 NONAME
 ?CreateObject@CMFCMousePropertyPage@@SAPEAVCObject@@XZ @ 7650 NONAME
 ?CreateObject@CMFCOutlookBar@@SAPEAVCObject@@XZ @ 7651 NONAME
 ?CreateObject@CMFCOutlookBarPane@@SAPEAVCObject@@XZ @ 7652 NONAME
 ?CreateObject@CMFCOutlookBarPaneAdapter@@SAPEAVCObject@@XZ @ 7653 NONAME
 ?CreateObject@CMFCOutlookBarPaneButton@@SAPEAVCObject@@XZ @ 7654 NONAME
 ?CreateObject@CMFCOutlookBarTabCtrl@@SAPEAVCObject@@XZ @ 7655 NONAME
 ?CreateObject@CMFCPopupMenu@@SAPEAVCObject@@XZ @ 7656 NONAME
 ?CreateObject@CMFCPopupMenuBar@@SAPEAVCObject@@XZ @ 7657 NONAME
 ?CreateObject@CMFCPropertyPage@@SAPEAVCObject@@XZ @ 7658 NONAME
 ?CreateObject@CMFCRibbonApplicationButton@@SAPEAVCObject@@XZ @ 7659 NONAME
 ?CreateObject@CMFCRibbonButton@@SAPEAVCObject@@XZ @ 7660 NONAME
 ?CreateObject@CMFCRibbonButtonsGroup@@SAPEAVCObject@@XZ @ 7661 NONAME
 ?CreateObject@CMFCRibbonCaptionButton@@SAPEAVCObject@@XZ @ 7662 NONAME
 ?CreateObject@CMFCRibbonCategory@@SAPEAVCObject@@XZ @ 7663 NONAME
 ?CreateObject@CMFCRibbonCheckBox@@SAPEAVCObject@@XZ @ 7664 NONAME
 ?CreateObject@CMFCRibbonColorButton@@SAPEAVCObject@@XZ @ 7665 NONAME
 ?CreateObject@CMFCRibbonColorMenuButton@@SAPEAVCObject@@XZ @ 7666 NONAME
 ?CreateObject@CMFCRibbonComboBox@@SAPEAVCObject@@XZ @ 7667 NONAME
 ?CreateObject@CMFCRibbonContextCaption@@SAPEAVCObject@@XZ @ 7668 NONAME
 ?CreateObject@CMFCRibbonCustomizePropertyPage@@SAPEAVCObject@@XZ @ 7669 NONAME
 ?CreateObject@CMFCRibbonDefaultPanelButton@@SAPEAVCObject@@XZ @ 7670 NONAME
 ?CreateObject@CMFCRibbonEdit@@SAPEAVCObject@@XZ @ 7671 NONAME
 ?CreateObject@CMFCRibbonFontComboBox@@SAPEAVCObject@@XZ @ 7672 NONAME
 ?CreateObject@CMFCRibbonGallery@@SAPEAVCObject@@XZ @ 7673 NONAME
 ?CreateObject@CMFCRibbonGalleryIcon@@SAPEAVCObject@@XZ @ 7674 NONAME
 ?CreateObject@CMFCRibbonGalleryMenuButton@@SAPEAVCObject@@XZ @ 7675 NONAME
 ?CreateObject@CMFCRibbonLabel@@SAPEAVCObject@@XZ @ 7676 NONAME
 ?CreateObject@CMFCRibbonLaunchButton@@SAPEAVCObject@@XZ @ 7677 NONAME
 ?CreateObject@CMFCRibbonLinkCtrl@@SAPEAVCObject@@XZ @ 7678 NONAME
 ?CreateObject@CMFCRibbonMainPanel@@SAPEAVCObject@@XZ @ 7679 NONAME
 ?CreateObject@CMFCRibbonMainPanelButton@@SAPEAVCObject@@XZ @ 7680 NONAME
 ?CreateObject@CMFCRibbonMiniToolBar@@SAPEAVCObject@@XZ @ 7681 NONAME
 ?CreateObject@CMFCRibbonPanel@@SAPEAVCObject@@XZ @ 7682 NONAME
 ?CreateObject@CMFCRibbonProgressBar@@SAPEAVCObject@@XZ @ 7683 NONAME
 ?CreateObject@CMFCRibbonQuickAccessCustomizeButton@@SAPEAVCObject@@XZ @ 7684 NONAME
 ?CreateObject@CMFCRibbonQuickAccessToolBar@@SAPEAVCObject@@XZ @ 7685 NONAME
 ?CreateObject@CMFCRibbonRecentFilesList@@SAPEAVCObject@@XZ @ 7686 NONAME
 ?CreateObject@CMFCRibbonSeparator@@SAPEAVCObject@@XZ @ 7687 NONAME
 ?CreateObject@CMFCRibbonSlider@@SAPEAVCObject@@XZ @ 7688 NONAME
 ?CreateObject@CMFCRibbonStatusBarCustomizeButton@@SAPEAVCObject@@XZ @ 7689 NONAME
 ?CreateObject@CMFCRibbonStatusBarPane@@SAPEAVCObject@@XZ @ 7690 NONAME
 ?CreateObject@CMFCRibbonUndoButton@@SAPEAVCObject@@XZ @ 7691 NONAME
 ?CreateObject@CMFCShowAllButton@@SAPEAVCObject@@XZ @ 7692 NONAME
 ?CreateObject@CMFCStandardColorsPropertyPage@@SAPEAVCObject@@XZ @ 7693 NONAME
 ?CreateObject@CMFCTabCtrl@@SAPEAVCObject@@XZ @ 7694 NONAME
 ?CreateObject@CMFCTasksPane@@SAPEAVCObject@@XZ @ 7695 NONAME
 ?CreateObject@CMFCTasksPaneFrameWnd@@SAPEAVCObject@@XZ @ 7696 NONAME
 ?CreateObject@CMFCTasksPaneToolBar@@SAPEAVCObject@@XZ @ 7697 NONAME
 ?CreateObject@CMFCToolBar@@SAPEAVCObject@@XZ @ 7698 NONAME
 ?CreateObject@CMFCToolBarButton@@SAPEAVCObject@@XZ @ 7699 NONAME
 ?CreateObject@CMFCToolBarColorButton@@SAPEAVCObject@@XZ @ 7700 NONAME
 ?CreateObject@CMFCToolBarComboBoxButton@@SAPEAVCObject@@XZ @ 7701 NONAME
 ?CreateObject@CMFCToolBarDateTimeCtrl@@SAPEAVCObject@@XZ @ 7702 NONAME
 ?CreateObject@CMFCToolBarEditBoxButton@@SAPEAVCObject@@XZ @ 7703 NONAME
 ?CreateObject@CMFCToolBarFontComboBox@@SAPEAVCObject@@XZ @ 7704 NONAME
 ?CreateObject@CMFCToolBarFontSizeComboBox@@SAPEAVCObject@@XZ @ 7705 NONAME
 ?CreateObject@CMFCToolBarMenuButton@@SAPEAVCObject@@XZ @ 7706 NONAME
 ?CreateObject@CMFCToolBarMenuButtonsButton@@SAPEAVCObject@@XZ @ 7707 NONAME
 ?CreateObject@CMFCToolBarsCommandsPropertyPage@@SAPEAVCObject@@XZ @ 7708 NONAME
 ?CreateObject@CMFCToolBarsKeyboardPropertyPage@@SAPEAVCObject@@XZ @ 7709 NONAME
 ?CreateObject@CMFCToolBarsListPropertyPage@@SAPEAVCObject@@XZ @ 7710 NONAME
 ?CreateObject@CMFCToolBarsMenuPropertyPage@@SAPEAVCObject@@XZ @ 7711 NONAME
 ?CreateObject@CMFCToolBarsOptionsPropertyPage@@SAPEAVCObject@@XZ @ 7712 NONAME
 ?CreateObject@CMFCToolBarSpinEditBoxButton@@SAPEAVCObject@@XZ @ 7713 NONAME
 ?CreateObject@CMFCToolBarSystemMenuButton@@SAPEAVCObject@@XZ @ 7714 NONAME
 ?CreateObject@CMFCToolTipCtrl@@SAPEAVCObject@@XZ @ 7715 NONAME
 ?CreateObject@CMFCVisualManager@@SAPEAVCObject@@XZ @ 7716 NONAME
 ?CreateObject@CMFCVisualManagerOffice2003@@SAPEAVCObject@@XZ @ 7717 NONAME
 ?CreateObject@CMFCVisualManagerOffice2007@@SAPEAVCObject@@XZ @ 7718 NONAME
 ?CreateObject@CMFCVisualManagerOfficeXP@@SAPEAVCObject@@XZ @ 7719 NONAME
 ?CreateObject@CMFCVisualManagerVS2005@@SAPEAVCObject@@XZ @ 7720 NONAME
 ?CreateObject@CMFCVisualManagerWindows@@SAPEAVCObject@@XZ @ 7721 NONAME
 ?CreateObject@CMouseManager@@SAPEAVCObject@@XZ @ 7722 NONAME
 ?CreateObject@CMultiPaneFrameWnd@@SAPEAVCObject@@XZ @ 7723 NONAME
 ?CreateObject@COleDocIPFrameWndEx@@SAPEAVCObject@@XZ @ 7724 NONAME
 ?CreateObject@COleIPFrameWndEx@@SAPEAVCObject@@XZ @ 7725 NONAME
 ?CreateObject@COleServerDocEx@@SAPEAVCObject@@XZ @ 7726 NONAME
 ?CreateObject@COutlookCustomizeButton@@SAPEAVCObject@@XZ @ 7727 NONAME
 ?CreateObject@CPane@@SAPEAVCObject@@XZ @ 7728 NONAME
 ?CreateObject@CPaneContainerManager@@SAPEAVCObject@@XZ @ 7729 NONAME
 ?CreateObject@CPaneDialog@@SAPEAVCObject@@XZ @ 7730 NONAME
 ?CreateObject@CPaneDivider@@SAPEAVCObject@@XZ @ 7731 NONAME
 ?CreateObject@CPaneFrameWnd@@SAPEAVCObject@@XZ @ 7732 NONAME
 ?CreateObject@CPreviewViewEx@@SAPEAVCObject@@XZ @ 7733 NONAME
 ?CreateObject@CRibbonUndoLabel@@SAPEAVCObject@@XZ @ 7734 NONAME
 ?CreateObject@CSettingsStore@@SAPEAVCObject@@XZ @ 7735 NONAME
 ?CreateObject@CSmartDockingGroupGuidesManager@@SAPEAVCObject@@XZ @ 7736 NONAME
 ?CreateObject@CSmartDockingStandaloneGuide@@SAPEAVCObject@@XZ @ 7737 NONAME
 ?CreateObject@CTabbedPane@@SAPEAVCObject@@XZ @ 7738 NONAME
 ?CreateObject@CTabView@@SAPEAVCObject@@XZ @ 7739 NONAME
 ?CreateObject@CTasksPaneHistoryButton@@SAPEAVCObject@@XZ @ 7740 NONAME
 ?CreateObject@CTasksPaneMenuButton@@SAPEAVCObject@@XZ @ 7741 NONAME
 ?CreateObject@CTasksPaneNavigateButton@@SAPEAVCObject@@XZ @ 7742 NONAME
 ?CreateObject@CUserTool@@SAPEAVCObject@@XZ @ 7743 NONAME
 ?CreatePalette@CMFCColorBar@@KAHAEBV?$CArray@KK@@AEAVCPalette@@@Z @ 7744 NONAME
 ?CreatePaneDivider@CPaneContainerManager@@IEAAPEAVCPaneDivider@@VCRect@@KH@Z @ 7745 NONAME
 ?CreatePopupMenu@CMFCColorMenuButton@@MEAAPEAVCMFCPopupMenu@@XZ @ 7746 NONAME
 ?CreatePopupMenu@CMFCCustomizeButton@@UEAAPEAVCMFCPopupMenu@@XZ @ 7747 NONAME
 ?CreatePopupMenu@CMFCRibbonGalleryMenuButton@@UEAAPEAVCMFCPopupMenu@@XZ @ 7748 NONAME
 ?CreatePopupMenu@COutlookCustomizeButton@@UEAAPEAVCMFCPopupMenu@@XZ @ 7749 NONAME
 ?CreateRegionFromImage@CMFCToolBarImages@@SAPEAUHRGN__@@PEAUHBITMAP__@@K@Z @ 7750 NONAME
 ?CreateRow@CDockSite@@UEAAPEAVCDockingPanesRow@@PEAV1@HH@Z @ 7751 NONAME
 ?CreateSpinButton@CMFCRibbonEdit@@IEAAHPEAVCMFCRibbonRichEditCtrl@@PEAVCWnd@@@Z @ 7752 NONAME
 ?CreateSpinControl@CMFCPropertyGridProperty@@UEAAPEAVCSpinButtonCtrl@@VCRect@@@Z @ 7753 NONAME
 ?CreateTabbedPane@CDockablePane@@UEAAPEAVCTabbedPane@@XZ @ 7754 NONAME
 ?CreateTabGroup@CMDIClientAreaWnd@@UEAAPEAVCMFCTabCtrl@@PEAV2@@Z @ 7755 NONAME
 ?CreateTearOffBar@CMFCColorPopupMenu@@UEAAPEAVCPane@@PEAVCFrameWnd@@IPEB_W@Z @ 7756 NONAME
 ?CreateTearOffBar@CMFCPopupMenu@@MEAAPEAVCPane@@PEAVCFrameWnd@@IPEB_W@Z @ 7757 NONAME
 ?CreateToolTip@CTooltipManager@@SAHAEAPEAVCToolTipCtrl@@PEAVCWnd@@I@Z @ 7758 NONAME
 ?CreateToolTipObject@CTooltipManager@@IEAAHAEAPEAVCToolTipCtrl@@I@Z @ 7759 NONAME
 ?CreateVisualManager@CMFCVisualManager@@KAPEAV1@PEAUCRuntimeClass@@@Z @ 7760 NONAME
 ?CreateWrapper@CMFCBaseTabCtrl@@MEAAPEAVCWnd@@PEAV2@PEB_WH@Z @ 7761 NONAME
 ?CyFromString@CGlobalUtils@@QEAAHAEATtagCY@@PEB_W@Z @ 7762 NONAME
 ?Deactivate@CMFCPropertyGridToolTipCtrl@@QEAAXXZ @ 7763 NONAME
 ?Deactivate@CMFCToolBar@@UEAAXXZ @ 7764 NONAME
 ?DeactivateKeyboardFocus@CMFCRibbonBar@@QEAAXH@Z @ 7765 NONAME
 ?DeactivateMenu@CFrameImpl@@IEAAXXZ @ 7766 NONAME
 ?DecimalFromString@CGlobalUtils@@QEAAHAEAUtagDEC@@PEB_W@Z @ 7767 NONAME
 ?DelayUpdateFrameMenu@CFrameWndEx@@UEAAXPEAUHMENU__@@@Z @ 7768 NONAME
 ?DeleteIcon@CUserTool@@MEAAXXZ @ 7769 NONAME
 ?DeleteImage@CMFCToolBarImages@@QEAAHH@Z @ 7770 NONAME
 ?DeleteItem@CMFCRibbonComboBox@@QEAAH_K@Z @ 7771 NONAME
 ?DeleteItem@CMFCRibbonComboBox@@QEAAHH@Z @ 7772 NONAME
 ?DeleteItem@CMFCRibbonComboBox@@QEAAHPEB_W@Z @ 7773 NONAME
 ?DeleteItem@CMFCToolBarComboBoxButton@@QEAAH_K@Z @ 7774 NONAME
 ?DeleteItem@CMFCToolBarComboBoxButton@@QEAAHH@Z @ 7775 NONAME
 ?DeleteItem@CMFCToolBarComboBoxButton@@QEAAHPEB_W@Z @ 7776 NONAME
 ?DeleteKey@CSettingsStore@@UEAAHPEB_WH@Z @ 7777 NONAME
 ?DeletePane@CPaneContainer@@UEAAXPEAVCDockablePane@@W4BC_FIND_CRITERIA@1@@Z @ 7778 NONAME
 ?DeleteProperty@CMFCPropertyGridCtrl@@QEAAHAEAPEAVCMFCPropertyGridProperty@@HH@Z @ 7779 NONAME
 ?DeleteToolBar@CFrameImpl@@IEAAHPEAVCMFCToolBar@@@Z @ 7780 NONAME
 ?DeleteToolTip@CTooltipManager@@SAXAEAPEAVCToolTipCtrl@@@Z @ 7781 NONAME
 ?DeleteValue@CSettingsStore@@UEAAHPEB_W@Z @ 7782 NONAME
 ?Destroy@CSmartDockingGroupGuide@@UEAAXXZ @ 7783 NONAME
 ?Destroy@CSmartDockingGroupGuidesManager@@UEAAXXZ @ 7784 NONAME
 ?Destroy@CSmartDockingManager@@QEAAXXZ @ 7785 NONAME
 ?Destroy@CSmartDockingStandaloneGuide@@UEAAXXZ @ 7786 NONAME
 ?DestroyCtrl@CMFCRibbonEdit@@UEAAXXZ @ 7787 NONAME
 ?DestroyImages@CSmartDockingGroupGuide@@MEAAXXZ @ 7788 NONAME
 ?DestroyInstance@CMFCVisualManager@@SAXH@Z @ 7789 NONAME
 ?DetachPane@CBaseTabbedPane@@UEAAHPEAVCWnd@@H@Z @ 7791 NONAME
 ?DetachPane@CTabbedPane@@UEAAHPEAVCWnd@@H@Z @ 7792 NONAME
 ?DetachTab@CMFCBaseTabCtrl@@UEAAHW4AFX_DOCK_METHOD@@HH@Z @ 7793 NONAME
 ?DeterminePaneAndStatus@CDockingManager@@UEAA?AW4AFX_CS_STATUS@@VCPoint@@HKPEAPEAVCBasePane@@PEBV4@2@Z @ 7794 NONAME
 ?DialogMouseHookProc@CDialogImpl@@KA_JH_K_J@Z @ 7795 NONAME
 ?DisableMask@CMFCMaskedEdit@@QEAAXXZ @ 7796 NONAME
 ?DisplayFolder@CMFCShellListCtrl@@UEAAJPEAU_AFX_SHELLITEMINFO@@@Z @ 7797 NONAME
 ?DisplayFolder@CMFCShellListCtrl@@UEAAJPEB_W@Z @ 7798 NONAME
 ?DisplayParentFolder@CMFCShellListCtrl@@UEAAJXZ @ 7799 NONAME
 ?Dock@CBaseTabbedPane@@MEAAHPEAVCBasePane@@PEBUtagRECT@@W4AFX_DOCK_METHOD@@@Z @ 7800 NONAME
 ?Dock@CDockablePane@@MEAAHPEAVCBasePane@@PEBUtagRECT@@W4AFX_DOCK_METHOD@@@Z @ 7801 NONAME
 ?Dock@CMFCOutlookBarPane@@UEAAHPEAVCBasePane@@PEBUtagRECT@@W4AFX_DOCK_METHOD@@@Z @ 7802 NONAME
 ?Dock@CPane@@MEAAHPEAVCBasePane@@PEBUtagRECT@@W4AFX_DOCK_METHOD@@@Z @ 7803 NONAME
 ?DockByMouse@CPane@@UEAAHPEAVCBasePane@@@Z @ 7804 NONAME
 ?DockFrame@CMultiPaneFrameWnd@@UEAAHPEAVCPaneFrameWnd@@W4AFX_DOCK_METHOD@@@Z @ 7805 NONAME
 ?DockPane@CAutoHideDockSite@@UEAAXPEAVCPane@@W4AFX_DOCK_METHOD@@PEBUtagRECT@@@Z @ 7806 NONAME
 ?DockPane@CDockingManager@@QEAAXPEAVCBasePane@@IPEBUtagRECT@@@Z @ 7807 NONAME
 ?DockPane@CDockSite@@UEAAXPEAVCPane@@W4AFX_DOCK_METHOD@@PEBUtagRECT@@@Z @ 7808 NONAME
 ?DockPane@CFrameWndEx@@QEAAXPEAVCBasePane@@IPEBUtagRECT@@@Z @ 7809 NONAME
 ?DockPane@CMDIChildWndEx@@QEAAXPEAVCBasePane@@IPEBUtagRECT@@@Z @ 7810 NONAME
 ?DockPane@CMDIFrameWndEx@@QEAAXPEAVCBasePane@@IPEBUtagRECT@@@Z @ 7811 NONAME
 ?DockPane@CMultiPaneFrameWnd@@UEAAHPEAVCDockablePane@@@Z @ 7812 NONAME
 ?DockPane@COleCntrFrameWndEx@@QEAAXPEAVCBasePane@@IPEBUtagRECT@@@Z @ 7813 NONAME
 ?DockPane@COleDocIPFrameWndEx@@QEAAXPEAVCBasePane@@IPEBUtagRECT@@@Z @ 7814 NONAME
 ?DockPane@COleIPFrameWndEx@@QEAAXPEAVCBasePane@@IPEBUtagRECT@@@Z @ 7815 NONAME
 ?DockPane@CPane@@UEAAHPEAVCBasePane@@PEBUtagRECT@@W4AFX_DOCK_METHOD@@@Z @ 7816 NONAME
 ?DockPane@CPaneFrameWnd@@UEAAPEAVCDockablePane@@AEAH@Z @ 7817 NONAME
 ?DockPaneContainer@CDockablePane@@UEAAHAEAVCPaneContainerManager@@KW4AFX_DOCK_METHOD@@@Z @ 7818 NONAME
 ?DockPaneLeftOf@CDockingManager@@QEAAHPEAVCPane@@0@Z @ 7819 NONAME
 ?DockPaneLeftOf@CDockSite@@UEAAHPEAVCPane@@0@Z @ 7820 NONAME
 ?DockPaneLeftOf@CFrameWndEx@@QEAAHPEAVCPane@@0@Z @ 7821 NONAME
 ?DockPaneLeftOf@CMDIChildWndEx@@QEAAHPEAVCPane@@0@Z @ 7822 NONAME
 ?DockPaneLeftOf@CMDIFrameWndEx@@QEAAHPEAVCPane@@0@Z @ 7823 NONAME
 ?DockPaneLeftOf@COleCntrFrameWndEx@@QEAAHPEAVCPane@@0@Z @ 7824 NONAME
 ?DockPaneLeftOf@COleDocIPFrameWndEx@@QEAAHPEAVCPane@@0@Z @ 7825 NONAME
 ?DockPaneLeftOf@COleIPFrameWndEx@@QEAAHPEAVCPane@@0@Z @ 7826 NONAME
 ?DockPaneStandard@CDockablePane@@UEAAPEAVCPane@@AEAH@Z @ 7827 NONAME
 ?DockPaneStandard@CMultiPaneFrameWnd@@MEAAPEAVCDockablePane@@AEAH@Z @ 7828 NONAME
 ?DockPaneStandard@CPaneFrameWnd@@MEAAPEAVCDockablePane@@AEAH@Z @ 7829 NONAME
 ?DockPaneUsingRTTI@CBasePane@@QEAAXH@Z @ 7830 NONAME
 ?DockRecentPaneToMainFrame@CMultiPaneFrameWnd@@UEAAXPEAVCDockablePane@@@Z @ 7831 NONAME
 ?DockToFrameWindow@CDockablePane@@UEAAHKPEBUtagRECT@@KPEAVCBasePane@@HH@Z @ 7832 NONAME
 ?DockToWindow@CDockablePane@@UEAAHPEAV1@KPEBUtagRECT@@@Z @ 7833 NONAME
 ?DoDataExchange@CMFCColorDialog@@MEAAXPEAVCDataExchange@@@Z @ 7834 NONAME
 ?DoDataExchange@CMFCCustomColorsPropertyPage@@MEAAXPEAVCDataExchange@@@Z @ 7835 NONAME
 ?DoDataExchange@CMFCImageEditorDialog@@MEAAXPEAVCDataExchange@@@Z @ 7836 NONAME
 ?DoDataExchange@CMFCKeyMapDialog@@MEAAXPEAVCDataExchange@@@Z @ 7837 NONAME
 ?DoDataExchange@CMFCMousePropertyPage@@MEAAXPEAVCDataExchange@@@Z @ 7838 NONAME
 ?DoDataExchange@CMFCRibbonCustomizePropertyPage@@MEAAXPEAVCDataExchange@@@Z @ 7839 NONAME
 ?DoDataExchange@CMFCRibbonKeyboardCustomizeDialog@@MEAAXPEAVCDataExchange@@@Z @ 7840 NONAME
 ?DoDataExchange@CMFCStandardColorsPropertyPage@@MEAAXPEAVCDataExchange@@@Z @ 7841 NONAME
 ?DoDataExchange@CMFCToolBarButtonCustomizeDialog@@MEAAXPEAVCDataExchange@@@Z @ 7842 NONAME
 ?DoDataExchange@CMFCToolBarNameDialog@@MEAAXPEAVCDataExchange@@@Z @ 7843 NONAME
 ?DoDataExchange@CMFCToolBarsCommandsPropertyPage@@MEAAXPEAVCDataExchange@@@Z @ 7844 NONAME
 ?DoDataExchange@CMFCToolBarsKeyboardPropertyPage@@MEAAXPEAVCDataExchange@@@Z @ 7845 NONAME
 ?DoDataExchange@CMFCToolBarsListPropertyPage@@MEAAXPEAVCDataExchange@@@Z @ 7846 NONAME
 ?DoDataExchange@CMFCToolBarsMenuPropertyPage@@MEAAXPEAVCDataExchange@@@Z @ 7847 NONAME
